   1              		.cpu cortex-m4
   2              		.arch armv7e-m
   3              		.fpu fpv4-sp-d16
   4              		.eabi_attribute 27, 1
   5              		.eabi_attribute 20, 1
   6              		.eabi_attribute 21, 1
   7              		.eabi_attribute 23, 3
   8              		.eabi_attribute 24, 1
   9              		.eabi_attribute 25, 1
  10              		.eabi_attribute 26, 1
  11              		.eabi_attribute 30, 6
  12              		.eabi_attribute 34, 1
  13              		.eabi_attribute 18, 4
  14              		.file	"main.c"
  15              		.text
  16              	.Ltext0:
  17              		.cfi_sections	.debug_frame
  18              		.global	clock_config
  19              		.section	.rodata
  20              		.align	2
  23              	clock_config:
  24 0000 50       		.byte	80
  25 0001 02       		.byte	2
  26 0002 04       		.byte	4
  27 0003 01       		.byte	1
  28 0004 0000     		.short	0
  29 0006 01       		.byte	1
  30 0007 00       		.space	1
  31 0008 00       		.byte	0
  32 0009 000000   		.space	3
  33 000c 00000100 		.word	65536
  34 0010 01       		.byte	1
  35 0011 01       		.byte	1
  36 0012 01       		.byte	1
  37 0013 01       		.byte	1
  38              		.section	.text.SystemCoreClockSetup,"ax",%progbits
  39              		.align	1
  40              		.global	SystemCoreClockSetup
  41              		.syntax unified
  42              		.thumb
  43              		.thumb_func
  45              	SystemCoreClockSetup:
  46              	.LFB193:
  47              		.file 1 "main.c"
   1:main.c        **** /*
   2:main.c        ****  * Copyright (C) 2014 Infineon Technologies AG. All rights reserved.
   3:main.c        ****  *
   4:main.c        ****  * Infineon Technologies AG (Infineon) is supplying this software for use with
   5:main.c        ****  * Infineon's microcontrollers.
   6:main.c        ****  * This file can be freely distributed within development tools that are
   7:main.c        ****  * supporting such microcontrollers.
   8:main.c        ****  *
   9:main.c        ****  * THIS SOFTWARE IS PROVIDED "AS IS". NO WARRANTIES, WHETHER EXPRESS, IMPLIED
  10:main.c        ****  * OR STATUTORY, INCLUDING, BUT NOT LIMITED TO, IMPLIED WARRANTIES OF
  11:main.c        ****  * MERCHANTABILITY AND FITNESS FOR A PARTICULAR PURPOSE APPLY TO THIS SOFTWARE.
  12:main.c        ****  * INFINEON SHALL NOT, IN ANY CIRCUMSTANCES, BE LIABLE FOR SPECIAL, INCIDENTAL,
  13:main.c        ****  * OR CONSEQUENTIAL DAMAGES, FOR ANY REASON WHATSOEVER.
  14:main.c        ****  *
  15:main.c        ****  */
  16:main.c        **** 
  17:main.c        **** /**
  18:main.c        ****  * @file
  19:main.c        ****  * @date 18 Feb, 2015
  20:main.c        ****  * @version 1.0.0
  21:main.c        ****  *
  22:main.c        ****  * @brief USB demo example
  23:main.c        ****  *
  24:main.c        ****  * The example implements a communication through VCOM with a Host (Computer).
  25:main.c        ****  *
  26:main.c        ****  * History <br>
  27:main.c        ****  *
  28:main.c        ****  * Version 1.0.0 Initial <br>
  29:main.c        ****  *
  30:main.c        ****  */
  31:main.c        **** 
  32:main.c        **** #include "VirtualSerial.h"
  33:main.c        **** 
  34:main.c        **** /* Clock configuration */
  35:main.c        **** XMC_SCU_CLOCK_CONFIG_t clock_config =
  36:main.c        **** {
  37:main.c        ****     .syspll_config.p_div = 2,
  38:main.c        ****     .syspll_config.n_div = 80,
  39:main.c        ****     .syspll_config.k_div = 4,
  40:main.c        ****     .syspll_config.mode = XMC_SCU_CLOCK_SYSPLL_MODE_NORMAL,
  41:main.c        ****     .syspll_config.clksrc = XMC_SCU_CLOCK_SYSPLLCLKSRC_OSCHP,
  42:main.c        ****     .enable_oschp = true,
  43:main.c        ****     .calibration_mode = XMC_SCU_CLOCK_FOFI_CALIBRATION_MODE_FACTORY,
  44:main.c        ****     .fsys_clksrc = XMC_SCU_CLOCK_SYSCLKSRC_PLL,
  45:main.c        ****     .fsys_clkdiv = 1,
  46:main.c        ****     .fcpu_clkdiv = 1,
  47:main.c        ****     .fccu_clkdiv = 1,
  48:main.c        ****     .fperipheral_clkdiv = 1
  49:main.c        **** };
  50:main.c        **** 
  51:main.c        **** 
  52:main.c        **** void SystemCoreClockSetup(void)
  53:main.c        **** {
  48              		.loc 1 53 1
  49              		.cfi_startproc
  50              		@ args = 0, pretend = 0, frame = 0
  51              		@ frame_needed = 1, uses_anonymous_args = 0
  52 0000 80B5     		push	{r7, lr}
  53              	.LCFI0:
  54              		.cfi_def_cfa_offset 8
  55              		.cfi_offset 7, -8
  56              		.cfi_offset 14, -4
  57 0002 00AF     		add	r7, sp, #0
  58              	.LCFI1:
  59              		.cfi_def_cfa_register 7
  54:main.c        ****     /* Setup settings for USB clock */
  55:main.c        ****     XMC_SCU_CLOCK_Init(&clock_config);
  60              		.loc 1 55 5
  61 0004 0A48     		ldr	r0, .L2
  62 0006 FFF7FEFF 		bl	XMC_SCU_CLOCK_Init
  56:main.c        **** 
  57:main.c        ****     XMC_SCU_CLOCK_EnableUsbPll();
  63              		.loc 1 57 5
  64 000a FFF7FEFF 		bl	XMC_SCU_CLOCK_EnableUsbPll
  58:main.c        ****     XMC_SCU_CLOCK_StartUsbPll(2, 64);
  65              		.loc 1 58 5
  66 000e 4021     		movs	r1, #64
  67 0010 0220     		movs	r0, #2
  68 0012 FFF7FEFF 		bl	XMC_SCU_CLOCK_StartUsbPll
  59:main.c        ****     XMC_SCU_CLOCK_SetUsbClockDivider(4);
  69              		.loc 1 59 5
  70 0016 0420     		movs	r0, #4
  71 0018 FFF7FEFF 		bl	XMC_SCU_CLOCK_SetUsbClockDivider
  60:main.c        ****     XMC_SCU_CLOCK_SetUsbClockSource(XMC_SCU_CLOCK_USBCLKSRC_USBPLL);
  72              		.loc 1 60 5
  73 001c 0020     		movs	r0, #0
  74 001e FFF7FEFF 		bl	XMC_SCU_CLOCK_SetUsbClockSource
  61:main.c        ****     XMC_SCU_CLOCK_EnableClock(XMC_SCU_CLOCK_USB);
  75              		.loc 1 61 5
  76 0022 0120     		movs	r0, #1
  77 0024 FFF7FEFF 		bl	XMC_SCU_CLOCK_EnableClock
  62:main.c        **** 
  63:main.c        ****     SystemCoreClockUpdate();
  78              		.loc 1 63 5
  79 0028 FFF7FEFF 		bl	SystemCoreClockUpdate
  64:main.c        **** }
  80              		.loc 1 64 1
  81 002c 00BF     		nop
  82 002e 80BD     		pop	{r7, pc}
  83              	.L3:
  84              		.align	2
  85              	.L2:
  86 0030 00000000 		.word	clock_config
  87              		.cfi_endproc
  88              	.LFE193:
  90              		.section	.text.main,"ax",%progbits
  91              		.align	1
  92              		.global	main
  93              		.syntax unified
  94              		.thumb
  95              		.thumb_func
  97              	main:
  98              	.LFB194:
  65:main.c        **** 
  66:main.c        **** /**
  67:main.c        ****  * Main program entry point. This routine configures the hardware required by
  68:main.c        ****  * the application, then enters a loop to run the application tasks in sequence.
  69:main.c        ****  */
  70:main.c        **** int main(void)
  71:main.c        **** {
  99              		.loc 1 71 1
 100              		.cfi_startproc
 101              		@ args = 0, pretend = 0, frame = 8
 102              		@ frame_needed = 1, uses_anonymous_args = 0
 103 0000 80B5     		push	{r7, lr}
 104              	.LCFI2:
 105              		.cfi_def_cfa_offset 8
 106              		.cfi_offset 7, -8
 107              		.cfi_offset 14, -4
 108 0002 82B0     		sub	sp, sp, #8
 109              	.LCFI3:
 110              		.cfi_def_cfa_offset 16
 111 0004 00AF     		add	r7, sp, #0
 112              	.LCFI4:
 113              		.cfi_def_cfa_register 7
  72:main.c        ****     uint16_t Bytes = 0;
 114              		.loc 1 72 14
 115 0006 0023     		movs	r3, #0
 116 0008 FB80     		strh	r3, [r7, #6]	@ movhi
  73:main.c        **** 
  74:main.c        ****     USB_Init();
 117              		.loc 1 74 5
 118 000a FFF7FEFF 		bl	USB_Init
 119              	.L7:
  75:main.c        **** 
  76:main.c        ****     while (1)
  77:main.c        ****     {
  78:main.c        ****         /* Check if data received */
  79:main.c        ****         Bytes = CDC_Device_BytesReceived(&VirtualSerial_CDC_Interface);
 120              		.loc 1 79 17
 121 000e 0C48     		ldr	r0, .L8
 122 0010 FFF7FEFF 		bl	CDC_Device_BytesReceived
 123 0014 0346     		mov	r3, r0
 124 0016 FB80     		strh	r3, [r7, #6]	@ movhi
  80:main.c        **** 
  81:main.c        ****         while(Bytes > 0)
 125              		.loc 1 81 14
 126 0018 0BE0     		b	.L5
 127              	.L6:
  82:main.c        ****         {
  83:main.c        ****             /* Send data back to the host */
  84:main.c        ****             CDC_Device_SendByte(&VirtualSerial_CDC_Interface, CDC_Device_ReceiveByte(&VirtualSerial
 128              		.loc 1 84 63
 129 001a 0948     		ldr	r0, .L8
 130 001c FFF7FEFF 		bl	CDC_Device_ReceiveByte
 131 0020 0346     		mov	r3, r0
 132              		.loc 1 84 13
 133 0022 DBB2     		uxtb	r3, r3
 134 0024 1946     		mov	r1, r3
 135 0026 0648     		ldr	r0, .L8
 136 0028 FFF7FEFF 		bl	CDC_Device_SendByte
  85:main.c        ****             --Bytes;
 137              		.loc 1 85 13
 138 002c FB88     		ldrh	r3, [r7, #6]	@ movhi
 139 002e 013B     		subs	r3, r3, #1
 140 0030 FB80     		strh	r3, [r7, #6]	@ movhi
 141              	.L5:
  81:main.c        ****         {
 142              		.loc 1 81 14
 143 0032 FB88     		ldrh	r3, [r7, #6]
 144 0034 002B     		cmp	r3, #0
 145 0036 F0D1     		bne	.L6
  86:main.c        ****         }
  87:main.c        **** 
  88:main.c        ****         CDC_Device_USBTask(&VirtualSerial_CDC_Interface);
 146              		.loc 1 88 9
 147 0038 0148     		ldr	r0, .L8
 148 003a FFF7FEFF 		bl	CDC_Device_USBTask
  79:main.c        **** 
 149              		.loc 1 79 15
 150 003e E6E7     		b	.L7
 151              	.L9:
 152              		.align	2
 153              	.L8:
 154 0040 00000000 		.word	VirtualSerial_CDC_Interface
 155              		.cfi_endproc
 156              	.LFE194:
 158              		.text
 159              	.Letext0:
 160              		.file 2 "/usr/share/gcc-arm-none-eabi-10.3-2021.10/arm-none-eabi/include/machine/_default_types.h"
 161              		.file 3 "/usr/share/gcc-arm-none-eabi-10.3-2021.10/arm-none-eabi/include/sys/_stdint.h"
 162              		.file 4 "/opt/XMClib/XMC_Peripheral_Library_v2.1.16/XMCLib/inc/xmc4_scu.h"
 163              		.file 5 "/opt/XMClib/XMC_Peripheral_Library_v2.1.16/ThirdPartyLibraries/USBlib/USB/Core/XMC4000/..
 164              		.file 6 "/opt/XMClib/XMC_Peripheral_Library_v2.1.16/ThirdPartyLibraries/USBlib/USB/Class/Device/..
 165              		.file 7 "/opt/XMClib/XMC_Peripheral_Library_v2.1.16/ThirdPartyLibraries/USBlib/USB/Class/Device/CD
 166              		.file 8 "VirtualSerial.h"