   1              		.cpu cortex-m4
   2              		.arch armv7e-m
   3              		.fpu fpv4-sp-d16
   4              		.eabi_attribute 27, 1
   5              		.eabi_attribute 20, 1
   6              		.eabi_attribute 21, 1
   7              		.eabi_attribute 23, 3
   8              		.eabi_attribute 24, 1
   9              		.eabi_attribute 25, 1
  10              		.eabi_attribute 26, 1
  11              		.eabi_attribute 30, 2
  12              		.eabi_attribute 34, 1
  13              		.eabi_attribute 18, 4
  14              		.file	"CDCClassDevice.c"
  15              		.text
  16              	.Ltext0:
  17              		.cfi_sections	.debug_frame
  18              		.section	.text.CDC_Device_ConfigureEndpoints,"ax",%progbits
  19              		.align	1
  20              		.p2align 2,,3
  21              		.global	CDC_Device_ConfigureEndpoints
  22              		.syntax unified
  23              		.thumb
  24              		.thumb_func
  26              	CDC_Device_ConfigureEndpoints:
  27              	.LVL0:
  28              	.LFB194:
  29              		.file 1 "/opt/XMClib/XMC_Peripheral_Library_v2.1.16/ThirdPartyLibraries/USBlib/USB/Class/Device/CD
   1:/opt/XMClib/XMC_Peripheral_Library_v2.1.16/ThirdPartyLibraries/USBlib/USB/Class/Device/CDCClassDevice.c **** /*
   2:/opt/XMClib/XMC_Peripheral_Library_v2.1.16/ThirdPartyLibraries/USBlib/USB/Class/Device/CDCClassDevice.c ****              LUFA Library
   3:/opt/XMClib/XMC_Peripheral_Library_v2.1.16/ThirdPartyLibraries/USBlib/USB/Class/Device/CDCClassDevice.c ****      Copyright (C) Dean Camera, 2014.
   4:/opt/XMClib/XMC_Peripheral_Library_v2.1.16/ThirdPartyLibraries/USBlib/USB/Class/Device/CDCClassDevice.c **** 
   5:/opt/XMClib/XMC_Peripheral_Library_v2.1.16/ThirdPartyLibraries/USBlib/USB/Class/Device/CDCClassDevice.c ****   dean [at] fourwalledcubicle [dot] com
   6:/opt/XMClib/XMC_Peripheral_Library_v2.1.16/ThirdPartyLibraries/USBlib/USB/Class/Device/CDCClassDevice.c ****            www.lufa-lib.org
   7:/opt/XMClib/XMC_Peripheral_Library_v2.1.16/ThirdPartyLibraries/USBlib/USB/Class/Device/CDCClassDevice.c **** */
   8:/opt/XMClib/XMC_Peripheral_Library_v2.1.16/ThirdPartyLibraries/USBlib/USB/Class/Device/CDCClassDevice.c **** 
   9:/opt/XMClib/XMC_Peripheral_Library_v2.1.16/ThirdPartyLibraries/USBlib/USB/Class/Device/CDCClassDevice.c **** /*
  10:/opt/XMClib/XMC_Peripheral_Library_v2.1.16/ThirdPartyLibraries/USBlib/USB/Class/Device/CDCClassDevice.c ****   Copyright 2014  Dean Camera (dean [at] fourwalledcubicle [dot] com)
  11:/opt/XMClib/XMC_Peripheral_Library_v2.1.16/ThirdPartyLibraries/USBlib/USB/Class/Device/CDCClassDevice.c **** 
  12:/opt/XMClib/XMC_Peripheral_Library_v2.1.16/ThirdPartyLibraries/USBlib/USB/Class/Device/CDCClassDevice.c ****   Permission to use, copy, modify, distribute, and sell this
  13:/opt/XMClib/XMC_Peripheral_Library_v2.1.16/ThirdPartyLibraries/USBlib/USB/Class/Device/CDCClassDevice.c ****   software and its documentation for any purpose is hereby granted
  14:/opt/XMClib/XMC_Peripheral_Library_v2.1.16/ThirdPartyLibraries/USBlib/USB/Class/Device/CDCClassDevice.c ****   without fee, provided that the above copyright notice appear in
  15:/opt/XMClib/XMC_Peripheral_Library_v2.1.16/ThirdPartyLibraries/USBlib/USB/Class/Device/CDCClassDevice.c ****   all copies and that both that the copyright notice and this
  16:/opt/XMClib/XMC_Peripheral_Library_v2.1.16/ThirdPartyLibraries/USBlib/USB/Class/Device/CDCClassDevice.c ****   permission notice and warranty disclaimer appear in supporting
  17:/opt/XMClib/XMC_Peripheral_Library_v2.1.16/ThirdPartyLibraries/USBlib/USB/Class/Device/CDCClassDevice.c ****   documentation, and that the name of the author not be used in
  18:/opt/XMClib/XMC_Peripheral_Library_v2.1.16/ThirdPartyLibraries/USBlib/USB/Class/Device/CDCClassDevice.c ****   advertising or publicity pertaining to distribution of the
  19:/opt/XMClib/XMC_Peripheral_Library_v2.1.16/ThirdPartyLibraries/USBlib/USB/Class/Device/CDCClassDevice.c ****   software without specific, written prior permission.
  20:/opt/XMClib/XMC_Peripheral_Library_v2.1.16/ThirdPartyLibraries/USBlib/USB/Class/Device/CDCClassDevice.c **** 
  21:/opt/XMClib/XMC_Peripheral_Library_v2.1.16/ThirdPartyLibraries/USBlib/USB/Class/Device/CDCClassDevice.c ****   The author disclaims all warranties with regard to this
  22:/opt/XMClib/XMC_Peripheral_Library_v2.1.16/ThirdPartyLibraries/USBlib/USB/Class/Device/CDCClassDevice.c ****   software, including all implied warranties of merchantability
  23:/opt/XMClib/XMC_Peripheral_Library_v2.1.16/ThirdPartyLibraries/USBlib/USB/Class/Device/CDCClassDevice.c ****   and fitness.  In no event shall the author be liable for any
  24:/opt/XMClib/XMC_Peripheral_Library_v2.1.16/ThirdPartyLibraries/USBlib/USB/Class/Device/CDCClassDevice.c ****   special, indirect or consequential damages or any damages
  25:/opt/XMClib/XMC_Peripheral_Library_v2.1.16/ThirdPartyLibraries/USBlib/USB/Class/Device/CDCClassDevice.c ****   whatsoever resulting from loss of use, data or profits, whether
  26:/opt/XMClib/XMC_Peripheral_Library_v2.1.16/ThirdPartyLibraries/USBlib/USB/Class/Device/CDCClassDevice.c ****   in an action of contract, negligence or other tortious action,
  27:/opt/XMClib/XMC_Peripheral_Library_v2.1.16/ThirdPartyLibraries/USBlib/USB/Class/Device/CDCClassDevice.c ****   arising out of or in connection with the use or performance of
  28:/opt/XMClib/XMC_Peripheral_Library_v2.1.16/ThirdPartyLibraries/USBlib/USB/Class/Device/CDCClassDevice.c ****   this software.
  29:/opt/XMClib/XMC_Peripheral_Library_v2.1.16/ThirdPartyLibraries/USBlib/USB/Class/Device/CDCClassDevice.c **** */
  30:/opt/XMClib/XMC_Peripheral_Library_v2.1.16/ThirdPartyLibraries/USBlib/USB/Class/Device/CDCClassDevice.c **** 
  31:/opt/XMClib/XMC_Peripheral_Library_v2.1.16/ThirdPartyLibraries/USBlib/USB/Class/Device/CDCClassDevice.c **** #define  __INCLUDE_FROM_USB_DRIVER
  32:/opt/XMClib/XMC_Peripheral_Library_v2.1.16/ThirdPartyLibraries/USBlib/USB/Class/Device/CDCClassDevice.c **** #include "../../Core/USBMode.h"
  33:/opt/XMClib/XMC_Peripheral_Library_v2.1.16/ThirdPartyLibraries/USBlib/USB/Class/Device/CDCClassDevice.c **** 
  34:/opt/XMClib/XMC_Peripheral_Library_v2.1.16/ThirdPartyLibraries/USBlib/USB/Class/Device/CDCClassDevice.c **** #if defined(USB_CAN_BE_DEVICE)
  35:/opt/XMClib/XMC_Peripheral_Library_v2.1.16/ThirdPartyLibraries/USBlib/USB/Class/Device/CDCClassDevice.c **** 
  36:/opt/XMClib/XMC_Peripheral_Library_v2.1.16/ThirdPartyLibraries/USBlib/USB/Class/Device/CDCClassDevice.c **** #define  __INCLUDE_FROM_CDC_DRIVER
  37:/opt/XMClib/XMC_Peripheral_Library_v2.1.16/ThirdPartyLibraries/USBlib/USB/Class/Device/CDCClassDevice.c **** #define  __INCLUDE_FROM_CDC_DEVICE_C
  38:/opt/XMClib/XMC_Peripheral_Library_v2.1.16/ThirdPartyLibraries/USBlib/USB/Class/Device/CDCClassDevice.c **** #include "CDCClassDevice.h"
  39:/opt/XMClib/XMC_Peripheral_Library_v2.1.16/ThirdPartyLibraries/USBlib/USB/Class/Device/CDCClassDevice.c **** 
  40:/opt/XMClib/XMC_Peripheral_Library_v2.1.16/ThirdPartyLibraries/USBlib/USB/Class/Device/CDCClassDevice.c **** void CDC_Device_ProcessControlRequest(USB_ClassInfo_CDC_Device_t* const CDCInterfaceInfo)
  41:/opt/XMClib/XMC_Peripheral_Library_v2.1.16/ThirdPartyLibraries/USBlib/USB/Class/Device/CDCClassDevice.c **** {
  42:/opt/XMClib/XMC_Peripheral_Library_v2.1.16/ThirdPartyLibraries/USBlib/USB/Class/Device/CDCClassDevice.c **** 	if (!(Endpoint_IsSETUPReceived()))
  43:/opt/XMClib/XMC_Peripheral_Library_v2.1.16/ThirdPartyLibraries/USBlib/USB/Class/Device/CDCClassDevice.c **** 	  return;
  44:/opt/XMClib/XMC_Peripheral_Library_v2.1.16/ThirdPartyLibraries/USBlib/USB/Class/Device/CDCClassDevice.c **** 
  45:/opt/XMClib/XMC_Peripheral_Library_v2.1.16/ThirdPartyLibraries/USBlib/USB/Class/Device/CDCClassDevice.c **** 	if (USB_ControlRequest.wIndex != CDCInterfaceInfo->Config.ControlInterfaceNumber)
  46:/opt/XMClib/XMC_Peripheral_Library_v2.1.16/ThirdPartyLibraries/USBlib/USB/Class/Device/CDCClassDevice.c **** 	  return;
  47:/opt/XMClib/XMC_Peripheral_Library_v2.1.16/ThirdPartyLibraries/USBlib/USB/Class/Device/CDCClassDevice.c **** 
  48:/opt/XMClib/XMC_Peripheral_Library_v2.1.16/ThirdPartyLibraries/USBlib/USB/Class/Device/CDCClassDevice.c **** 	switch (USB_ControlRequest.bRequest)
  49:/opt/XMClib/XMC_Peripheral_Library_v2.1.16/ThirdPartyLibraries/USBlib/USB/Class/Device/CDCClassDevice.c **** 	{
  50:/opt/XMClib/XMC_Peripheral_Library_v2.1.16/ThirdPartyLibraries/USBlib/USB/Class/Device/CDCClassDevice.c **** 		case CDC_REQ_GetLineEncoding:
  51:/opt/XMClib/XMC_Peripheral_Library_v2.1.16/ThirdPartyLibraries/USBlib/USB/Class/Device/CDCClassDevice.c **** 			if (USB_ControlRequest.bmRequestType == (REQDIR_DEVICETOHOST | REQTYPE_CLASS | REQREC_INTERFACE)
  52:/opt/XMClib/XMC_Peripheral_Library_v2.1.16/ThirdPartyLibraries/USBlib/USB/Class/Device/CDCClassDevice.c **** 			{
  53:/opt/XMClib/XMC_Peripheral_Library_v2.1.16/ThirdPartyLibraries/USBlib/USB/Class/Device/CDCClassDevice.c **** 				Endpoint_ClearSETUP();
  54:/opt/XMClib/XMC_Peripheral_Library_v2.1.16/ThirdPartyLibraries/USBlib/USB/Class/Device/CDCClassDevice.c **** 
  55:/opt/XMClib/XMC_Peripheral_Library_v2.1.16/ThirdPartyLibraries/USBlib/USB/Class/Device/CDCClassDevice.c **** 				while (!(Endpoint_IsINReady()));
  56:/opt/XMClib/XMC_Peripheral_Library_v2.1.16/ThirdPartyLibraries/USBlib/USB/Class/Device/CDCClassDevice.c **** 
  57:/opt/XMClib/XMC_Peripheral_Library_v2.1.16/ThirdPartyLibraries/USBlib/USB/Class/Device/CDCClassDevice.c **** 				Endpoint_Write_32_LE(CDCInterfaceInfo->State.LineEncoding.BaudRateBPS);
  58:/opt/XMClib/XMC_Peripheral_Library_v2.1.16/ThirdPartyLibraries/USBlib/USB/Class/Device/CDCClassDevice.c **** 				Endpoint_Write_8(CDCInterfaceInfo->State.LineEncoding.CharFormat);
  59:/opt/XMClib/XMC_Peripheral_Library_v2.1.16/ThirdPartyLibraries/USBlib/USB/Class/Device/CDCClassDevice.c **** 				Endpoint_Write_8(CDCInterfaceInfo->State.LineEncoding.ParityType);
  60:/opt/XMClib/XMC_Peripheral_Library_v2.1.16/ThirdPartyLibraries/USBlib/USB/Class/Device/CDCClassDevice.c **** 				Endpoint_Write_8(CDCInterfaceInfo->State.LineEncoding.DataBits);
  61:/opt/XMClib/XMC_Peripheral_Library_v2.1.16/ThirdPartyLibraries/USBlib/USB/Class/Device/CDCClassDevice.c **** 
  62:/opt/XMClib/XMC_Peripheral_Library_v2.1.16/ThirdPartyLibraries/USBlib/USB/Class/Device/CDCClassDevice.c **** 				Endpoint_ClearIN();
  63:/opt/XMClib/XMC_Peripheral_Library_v2.1.16/ThirdPartyLibraries/USBlib/USB/Class/Device/CDCClassDevice.c **** 				Endpoint_ClearStatusStage();
  64:/opt/XMClib/XMC_Peripheral_Library_v2.1.16/ThirdPartyLibraries/USBlib/USB/Class/Device/CDCClassDevice.c **** 			}
  65:/opt/XMClib/XMC_Peripheral_Library_v2.1.16/ThirdPartyLibraries/USBlib/USB/Class/Device/CDCClassDevice.c **** 
  66:/opt/XMClib/XMC_Peripheral_Library_v2.1.16/ThirdPartyLibraries/USBlib/USB/Class/Device/CDCClassDevice.c **** 			break;
  67:/opt/XMClib/XMC_Peripheral_Library_v2.1.16/ThirdPartyLibraries/USBlib/USB/Class/Device/CDCClassDevice.c **** 		case CDC_REQ_SetLineEncoding:
  68:/opt/XMClib/XMC_Peripheral_Library_v2.1.16/ThirdPartyLibraries/USBlib/USB/Class/Device/CDCClassDevice.c **** 			if (USB_ControlRequest.bmRequestType == (REQDIR_HOSTTODEVICE | REQTYPE_CLASS | REQREC_INTERFACE)
  69:/opt/XMClib/XMC_Peripheral_Library_v2.1.16/ThirdPartyLibraries/USBlib/USB/Class/Device/CDCClassDevice.c **** 			{
  70:/opt/XMClib/XMC_Peripheral_Library_v2.1.16/ThirdPartyLibraries/USBlib/USB/Class/Device/CDCClassDevice.c **** 				Endpoint_ClearSETUP();
  71:/opt/XMClib/XMC_Peripheral_Library_v2.1.16/ThirdPartyLibraries/USBlib/USB/Class/Device/CDCClassDevice.c **** 
  72:/opt/XMClib/XMC_Peripheral_Library_v2.1.16/ThirdPartyLibraries/USBlib/USB/Class/Device/CDCClassDevice.c **** 				while (!(Endpoint_IsOUTReceived()))
  73:/opt/XMClib/XMC_Peripheral_Library_v2.1.16/ThirdPartyLibraries/USBlib/USB/Class/Device/CDCClassDevice.c **** 				{
  74:/opt/XMClib/XMC_Peripheral_Library_v2.1.16/ThirdPartyLibraries/USBlib/USB/Class/Device/CDCClassDevice.c **** 					if (USB_DeviceState == DEVICE_STATE_Unattached)
  75:/opt/XMClib/XMC_Peripheral_Library_v2.1.16/ThirdPartyLibraries/USBlib/USB/Class/Device/CDCClassDevice.c **** 					  return;
  76:/opt/XMClib/XMC_Peripheral_Library_v2.1.16/ThirdPartyLibraries/USBlib/USB/Class/Device/CDCClassDevice.c **** 				}
  77:/opt/XMClib/XMC_Peripheral_Library_v2.1.16/ThirdPartyLibraries/USBlib/USB/Class/Device/CDCClassDevice.c **** 
  78:/opt/XMClib/XMC_Peripheral_Library_v2.1.16/ThirdPartyLibraries/USBlib/USB/Class/Device/CDCClassDevice.c **** 				CDCInterfaceInfo->State.LineEncoding.BaudRateBPS = Endpoint_Read_32_LE();
  79:/opt/XMClib/XMC_Peripheral_Library_v2.1.16/ThirdPartyLibraries/USBlib/USB/Class/Device/CDCClassDevice.c **** 				CDCInterfaceInfo->State.LineEncoding.CharFormat  = Endpoint_Read_8();
  80:/opt/XMClib/XMC_Peripheral_Library_v2.1.16/ThirdPartyLibraries/USBlib/USB/Class/Device/CDCClassDevice.c **** 				CDCInterfaceInfo->State.LineEncoding.ParityType  = Endpoint_Read_8();
  81:/opt/XMClib/XMC_Peripheral_Library_v2.1.16/ThirdPartyLibraries/USBlib/USB/Class/Device/CDCClassDevice.c **** 				CDCInterfaceInfo->State.LineEncoding.DataBits    = Endpoint_Read_8();
  82:/opt/XMClib/XMC_Peripheral_Library_v2.1.16/ThirdPartyLibraries/USBlib/USB/Class/Device/CDCClassDevice.c **** 
  83:/opt/XMClib/XMC_Peripheral_Library_v2.1.16/ThirdPartyLibraries/USBlib/USB/Class/Device/CDCClassDevice.c **** 				Endpoint_ClearOUT();
  84:/opt/XMClib/XMC_Peripheral_Library_v2.1.16/ThirdPartyLibraries/USBlib/USB/Class/Device/CDCClassDevice.c **** 				Endpoint_ClearStatusStage();
  85:/opt/XMClib/XMC_Peripheral_Library_v2.1.16/ThirdPartyLibraries/USBlib/USB/Class/Device/CDCClassDevice.c **** 
  86:/opt/XMClib/XMC_Peripheral_Library_v2.1.16/ThirdPartyLibraries/USBlib/USB/Class/Device/CDCClassDevice.c **** 				EVENT_CDC_Device_LineEncodingChanged(CDCInterfaceInfo);
  87:/opt/XMClib/XMC_Peripheral_Library_v2.1.16/ThirdPartyLibraries/USBlib/USB/Class/Device/CDCClassDevice.c **** 			}
  88:/opt/XMClib/XMC_Peripheral_Library_v2.1.16/ThirdPartyLibraries/USBlib/USB/Class/Device/CDCClassDevice.c **** 
  89:/opt/XMClib/XMC_Peripheral_Library_v2.1.16/ThirdPartyLibraries/USBlib/USB/Class/Device/CDCClassDevice.c **** 			break;
  90:/opt/XMClib/XMC_Peripheral_Library_v2.1.16/ThirdPartyLibraries/USBlib/USB/Class/Device/CDCClassDevice.c **** 		case CDC_REQ_SetControlLineState:
  91:/opt/XMClib/XMC_Peripheral_Library_v2.1.16/ThirdPartyLibraries/USBlib/USB/Class/Device/CDCClassDevice.c **** 			if (USB_ControlRequest.bmRequestType == (REQDIR_HOSTTODEVICE | REQTYPE_CLASS | REQREC_INTERFACE)
  92:/opt/XMClib/XMC_Peripheral_Library_v2.1.16/ThirdPartyLibraries/USBlib/USB/Class/Device/CDCClassDevice.c **** 			{
  93:/opt/XMClib/XMC_Peripheral_Library_v2.1.16/ThirdPartyLibraries/USBlib/USB/Class/Device/CDCClassDevice.c **** 				Endpoint_ClearSETUP();
  94:/opt/XMClib/XMC_Peripheral_Library_v2.1.16/ThirdPartyLibraries/USBlib/USB/Class/Device/CDCClassDevice.c **** 				Endpoint_ClearStatusStage();
  95:/opt/XMClib/XMC_Peripheral_Library_v2.1.16/ThirdPartyLibraries/USBlib/USB/Class/Device/CDCClassDevice.c **** 
  96:/opt/XMClib/XMC_Peripheral_Library_v2.1.16/ThirdPartyLibraries/USBlib/USB/Class/Device/CDCClassDevice.c **** 				CDCInterfaceInfo->State.ControlLineStates.HostToDevice = USB_ControlRequest.wValue;
  97:/opt/XMClib/XMC_Peripheral_Library_v2.1.16/ThirdPartyLibraries/USBlib/USB/Class/Device/CDCClassDevice.c **** 
  98:/opt/XMClib/XMC_Peripheral_Library_v2.1.16/ThirdPartyLibraries/USBlib/USB/Class/Device/CDCClassDevice.c **** 				EVENT_CDC_Device_ControLineStateChanged(CDCInterfaceInfo);
  99:/opt/XMClib/XMC_Peripheral_Library_v2.1.16/ThirdPartyLibraries/USBlib/USB/Class/Device/CDCClassDevice.c **** 			}
 100:/opt/XMClib/XMC_Peripheral_Library_v2.1.16/ThirdPartyLibraries/USBlib/USB/Class/Device/CDCClassDevice.c **** 
 101:/opt/XMClib/XMC_Peripheral_Library_v2.1.16/ThirdPartyLibraries/USBlib/USB/Class/Device/CDCClassDevice.c **** 			break;
 102:/opt/XMClib/XMC_Peripheral_Library_v2.1.16/ThirdPartyLibraries/USBlib/USB/Class/Device/CDCClassDevice.c **** 		case CDC_REQ_SendBreak:
 103:/opt/XMClib/XMC_Peripheral_Library_v2.1.16/ThirdPartyLibraries/USBlib/USB/Class/Device/CDCClassDevice.c **** 			if (USB_ControlRequest.bmRequestType == (REQDIR_HOSTTODEVICE | REQTYPE_CLASS | REQREC_INTERFACE)
 104:/opt/XMClib/XMC_Peripheral_Library_v2.1.16/ThirdPartyLibraries/USBlib/USB/Class/Device/CDCClassDevice.c **** 			{
 105:/opt/XMClib/XMC_Peripheral_Library_v2.1.16/ThirdPartyLibraries/USBlib/USB/Class/Device/CDCClassDevice.c **** 				Endpoint_ClearSETUP();
 106:/opt/XMClib/XMC_Peripheral_Library_v2.1.16/ThirdPartyLibraries/USBlib/USB/Class/Device/CDCClassDevice.c **** 				Endpoint_ClearStatusStage();
 107:/opt/XMClib/XMC_Peripheral_Library_v2.1.16/ThirdPartyLibraries/USBlib/USB/Class/Device/CDCClassDevice.c **** 
 108:/opt/XMClib/XMC_Peripheral_Library_v2.1.16/ThirdPartyLibraries/USBlib/USB/Class/Device/CDCClassDevice.c **** 				EVENT_CDC_Device_BreakSent(CDCInterfaceInfo, (uint8_t)USB_ControlRequest.wValue);
 109:/opt/XMClib/XMC_Peripheral_Library_v2.1.16/ThirdPartyLibraries/USBlib/USB/Class/Device/CDCClassDevice.c **** 			}
 110:/opt/XMClib/XMC_Peripheral_Library_v2.1.16/ThirdPartyLibraries/USBlib/USB/Class/Device/CDCClassDevice.c **** 
 111:/opt/XMClib/XMC_Peripheral_Library_v2.1.16/ThirdPartyLibraries/USBlib/USB/Class/Device/CDCClassDevice.c **** 			break;
 112:/opt/XMClib/XMC_Peripheral_Library_v2.1.16/ThirdPartyLibraries/USBlib/USB/Class/Device/CDCClassDevice.c **** 	}
 113:/opt/XMClib/XMC_Peripheral_Library_v2.1.16/ThirdPartyLibraries/USBlib/USB/Class/Device/CDCClassDevice.c **** }
 114:/opt/XMClib/XMC_Peripheral_Library_v2.1.16/ThirdPartyLibraries/USBlib/USB/Class/Device/CDCClassDevice.c **** 
 115:/opt/XMClib/XMC_Peripheral_Library_v2.1.16/ThirdPartyLibraries/USBlib/USB/Class/Device/CDCClassDevice.c **** bool CDC_Device_ConfigureEndpoints(USB_ClassInfo_CDC_Device_t* const CDCInterfaceInfo)
 116:/opt/XMClib/XMC_Peripheral_Library_v2.1.16/ThirdPartyLibraries/USBlib/USB/Class/Device/CDCClassDevice.c **** {
  30              		.loc 1 116 1 view -0
  31              		.cfi_startproc
  32              		@ args = 0, pretend = 0, frame = 0
  33              		@ frame_needed = 0, uses_anonymous_args = 0
 117:/opt/XMClib/XMC_Peripheral_Library_v2.1.16/ThirdPartyLibraries/USBlib/USB/Class/Device/CDCClassDevice.c **** 	memset(&CDCInterfaceInfo->State, 0x00, sizeof(CDCInterfaceInfo->State));
  34              		.loc 1 117 2 view .LVU1
  35 0000 0023     		movs	r3, #0
 118:/opt/XMClib/XMC_Peripheral_Library_v2.1.16/ThirdPartyLibraries/USBlib/USB/Class/Device/CDCClassDevice.c **** 
 119:/opt/XMClib/XMC_Peripheral_Library_v2.1.16/ThirdPartyLibraries/USBlib/USB/Class/Device/CDCClassDevice.c **** 	CDCInterfaceInfo->Config.DataINEndpoint.Type       = EP_TYPE_BULK;
  36              		.loc 1 119 53 is_stmt 0 view .LVU2
  37 0002 0222     		movs	r2, #2
 120:/opt/XMClib/XMC_Peripheral_Library_v2.1.16/ThirdPartyLibraries/USBlib/USB/Class/Device/CDCClassDevice.c **** 	CDCInterfaceInfo->Config.DataOUTEndpoint.Type      = EP_TYPE_BULK;
 121:/opt/XMClib/XMC_Peripheral_Library_v2.1.16/ThirdPartyLibraries/USBlib/USB/Class/Device/CDCClassDevice.c **** 	CDCInterfaceInfo->Config.NotificationEndpoint.Type = EP_TYPE_INTERRUPT;
  38              		.loc 1 121 53 view .LVU3
  39 0004 0321     		movs	r1, #3
 116:/opt/XMClib/XMC_Peripheral_Library_v2.1.16/ThirdPartyLibraries/USBlib/USB/Class/Device/CDCClassDevice.c **** 	memset(&CDCInterfaceInfo->State, 0x00, sizeof(CDCInterfaceInfo->State));
  40              		.loc 1 116 1 view .LVU4
  41 0006 10B5     		push	{r4, lr}
  42              	.LCFI0:
  43              		.cfi_def_cfa_offset 8
  44              		.cfi_offset 4, -8
  45              		.cfi_offset 14, -4
  46              		.loc 1 121 53 view .LVU5
  47 0008 8174     		strb	r1, [r0, #18]
 116:/opt/XMClib/XMC_Peripheral_Library_v2.1.16/ThirdPartyLibraries/USBlib/USB/Class/Device/CDCClassDevice.c **** 	memset(&CDCInterfaceInfo->State, 0x00, sizeof(CDCInterfaceInfo->State));
  48              		.loc 1 116 1 view .LVU6
  49 000a 0446     		mov	r4, r0
 117:/opt/XMClib/XMC_Peripheral_Library_v2.1.16/ThirdPartyLibraries/USBlib/USB/Class/Device/CDCClassDevice.c **** 
  50              		.loc 1 117 2 view .LVU7
  51 000c 4361     		str	r3, [r0, #20]	@ unaligned
  52 000e 8361     		str	r3, [r0, #24]	@ unaligned
  53 0010 C361     		str	r3, [r0, #28]	@ unaligned
 119:/opt/XMClib/XMC_Peripheral_Library_v2.1.16/ThirdPartyLibraries/USBlib/USB/Class/Device/CDCClassDevice.c **** 	CDCInterfaceInfo->Config.DataOUTEndpoint.Type      = EP_TYPE_BULK;
  54              		.loc 1 119 2 is_stmt 1 view .LVU8
 119:/opt/XMClib/XMC_Peripheral_Library_v2.1.16/ThirdPartyLibraries/USBlib/USB/Class/Device/CDCClassDevice.c **** 	CDCInterfaceInfo->Config.DataOUTEndpoint.Type      = EP_TYPE_BULK;
  55              		.loc 1 119 53 is_stmt 0 view .LVU9
  56 0012 8271     		strb	r2, [r0, #6]
 120:/opt/XMClib/XMC_Peripheral_Library_v2.1.16/ThirdPartyLibraries/USBlib/USB/Class/Device/CDCClassDevice.c **** 	CDCInterfaceInfo->Config.NotificationEndpoint.Type = EP_TYPE_INTERRUPT;
  57              		.loc 1 120 2 is_stmt 1 view .LVU10
 120:/opt/XMClib/XMC_Peripheral_Library_v2.1.16/ThirdPartyLibraries/USBlib/USB/Class/Device/CDCClassDevice.c **** 	CDCInterfaceInfo->Config.NotificationEndpoint.Type = EP_TYPE_INTERRUPT;
  58              		.loc 1 120 53 is_stmt 0 view .LVU11
  59 0014 0273     		strb	r2, [r0, #12]
  60              		.loc 1 121 2 is_stmt 1 view .LVU12
 122:/opt/XMClib/XMC_Peripheral_Library_v2.1.16/ThirdPartyLibraries/USBlib/USB/Class/Device/CDCClassDevice.c **** 
 123:/opt/XMClib/XMC_Peripheral_Library_v2.1.16/ThirdPartyLibraries/USBlib/USB/Class/Device/CDCClassDevice.c **** 	if (!(Endpoint_ConfigureEndpointTable(&CDCInterfaceInfo->Config.DataINEndpoint, 1)))
  61              		.loc 1 123 2 view .LVU13
  62              		.loc 1 123 8 is_stmt 0 view .LVU14
  63 0016 0121     		movs	r1, #1
  64 0018 1044     		add	r0, r0, r2
  65              	.LVL1:
  66              		.loc 1 123 8 view .LVU15
  67 001a FFF7FEFF 		bl	Endpoint_ConfigureEndpointTable
  68              	.LVL2:
  69              		.loc 1 123 5 view .LVU16
  70 001e 08B9     		cbnz	r0, .L10
  71              	.L3:
 124:/opt/XMClib/XMC_Peripheral_Library_v2.1.16/ThirdPartyLibraries/USBlib/USB/Class/Device/CDCClassDevice.c **** 	  return false;
 125:/opt/XMClib/XMC_Peripheral_Library_v2.1.16/ThirdPartyLibraries/USBlib/USB/Class/Device/CDCClassDevice.c **** 
 126:/opt/XMClib/XMC_Peripheral_Library_v2.1.16/ThirdPartyLibraries/USBlib/USB/Class/Device/CDCClassDevice.c **** 	if (!(Endpoint_ConfigureEndpointTable(&CDCInterfaceInfo->Config.DataOUTEndpoint, 1)))
 127:/opt/XMClib/XMC_Peripheral_Library_v2.1.16/ThirdPartyLibraries/USBlib/USB/Class/Device/CDCClassDevice.c **** 	  return false;
 128:/opt/XMClib/XMC_Peripheral_Library_v2.1.16/ThirdPartyLibraries/USBlib/USB/Class/Device/CDCClassDevice.c **** 
 129:/opt/XMClib/XMC_Peripheral_Library_v2.1.16/ThirdPartyLibraries/USBlib/USB/Class/Device/CDCClassDevice.c **** 	if (!(Endpoint_ConfigureEndpointTable(&CDCInterfaceInfo->Config.NotificationEndpoint, 1)))
 130:/opt/XMClib/XMC_Peripheral_Library_v2.1.16/ThirdPartyLibraries/USBlib/USB/Class/Device/CDCClassDevice.c **** 	  return false;
 131:/opt/XMClib/XMC_Peripheral_Library_v2.1.16/ThirdPartyLibraries/USBlib/USB/Class/Device/CDCClassDevice.c **** 
 132:/opt/XMClib/XMC_Peripheral_Library_v2.1.16/ThirdPartyLibraries/USBlib/USB/Class/Device/CDCClassDevice.c **** 	return true;
 133:/opt/XMClib/XMC_Peripheral_Library_v2.1.16/ThirdPartyLibraries/USBlib/USB/Class/Device/CDCClassDevice.c **** }
  72              		.loc 1 133 1 view .LVU17
  73 0020 0020     		movs	r0, #0
  74 0022 10BD     		pop	{r4, pc}
  75              	.LVL3:
  76              	.L10:
 126:/opt/XMClib/XMC_Peripheral_Library_v2.1.16/ThirdPartyLibraries/USBlib/USB/Class/Device/CDCClassDevice.c **** 	  return false;
  77              		.loc 1 126 2 is_stmt 1 view .LVU18
 126:/opt/XMClib/XMC_Peripheral_Library_v2.1.16/ThirdPartyLibraries/USBlib/USB/Class/Device/CDCClassDevice.c **** 	  return false;
  78              		.loc 1 126 8 is_stmt 0 view .LVU19
  79 0024 0121     		movs	r1, #1
  80 0026 04F10800 		add	r0, r4, #8
  81 002a FFF7FEFF 		bl	Endpoint_ConfigureEndpointTable
  82              	.LVL4:
 126:/opt/XMClib/XMC_Peripheral_Library_v2.1.16/ThirdPartyLibraries/USBlib/USB/Class/Device/CDCClassDevice.c **** 	  return false;
  83              		.loc 1 126 5 view .LVU20
  84 002e 0028     		cmp	r0, #0
  85 0030 F6D0     		beq	.L3
 129:/opt/XMClib/XMC_Peripheral_Library_v2.1.16/ThirdPartyLibraries/USBlib/USB/Class/Device/CDCClassDevice.c **** 	  return false;
  86              		.loc 1 129 2 is_stmt 1 view .LVU21
 129:/opt/XMClib/XMC_Peripheral_Library_v2.1.16/ThirdPartyLibraries/USBlib/USB/Class/Device/CDCClassDevice.c **** 	  return false;
  87              		.loc 1 129 8 is_stmt 0 view .LVU22
  88 0032 04F10E00 		add	r0, r4, #14
  89 0036 0121     		movs	r1, #1
  90              		.loc 1 133 1 view .LVU23
  91 0038 BDE81040 		pop	{r4, lr}
  92              	.LCFI1:
  93              		.cfi_restore 14
  94              		.cfi_restore 4
  95              		.cfi_def_cfa_offset 0
  96              	.LVL5:
 129:/opt/XMClib/XMC_Peripheral_Library_v2.1.16/ThirdPartyLibraries/USBlib/USB/Class/Device/CDCClassDevice.c **** 	  return false;
  97              		.loc 1 129 8 view .LVU24
  98 003c FFF7FEBF 		b	Endpoint_ConfigureEndpointTable
  99              	.LVL6:
 129:/opt/XMClib/XMC_Peripheral_Library_v2.1.16/ThirdPartyLibraries/USBlib/USB/Class/Device/CDCClassDevice.c **** 	  return false;
 100              		.loc 1 129 8 view .LVU25
 101              		.cfi_endproc
 102              	.LFE194:
 104              		.section	.text.CDC_Device_SendString,"ax",%progbits
 105              		.align	1
 106              		.p2align 2,,3
 107              		.global	CDC_Device_SendString
 108              		.syntax unified
 109              		.thumb
 110              		.thumb_func
 112              	CDC_Device_SendString:
 113              	.LVL7:
 114              	.LFB196:
 134:/opt/XMClib/XMC_Peripheral_Library_v2.1.16/ThirdPartyLibraries/USBlib/USB/Class/Device/CDCClassDevice.c **** 
 135:/opt/XMClib/XMC_Peripheral_Library_v2.1.16/ThirdPartyLibraries/USBlib/USB/Class/Device/CDCClassDevice.c **** void CDC_Device_USBTask(USB_ClassInfo_CDC_Device_t* const CDCInterfaceInfo)
 136:/opt/XMClib/XMC_Peripheral_Library_v2.1.16/ThirdPartyLibraries/USBlib/USB/Class/Device/CDCClassDevice.c **** {
 137:/opt/XMClib/XMC_Peripheral_Library_v2.1.16/ThirdPartyLibraries/USBlib/USB/Class/Device/CDCClassDevice.c **** 	if ((USB_DeviceState != DEVICE_STATE_Configured) || !(CDCInterfaceInfo->State.LineEncoding.BaudRat
 138:/opt/XMClib/XMC_Peripheral_Library_v2.1.16/ThirdPartyLibraries/USBlib/USB/Class/Device/CDCClassDevice.c **** 	  return;
 139:/opt/XMClib/XMC_Peripheral_Library_v2.1.16/ThirdPartyLibraries/USBlib/USB/Class/Device/CDCClassDevice.c **** 
 140:/opt/XMClib/XMC_Peripheral_Library_v2.1.16/ThirdPartyLibraries/USBlib/USB/Class/Device/CDCClassDevice.c **** 	#if !defined(NO_CLASS_DRIVER_AUTOFLUSH)
 141:/opt/XMClib/XMC_Peripheral_Library_v2.1.16/ThirdPartyLibraries/USBlib/USB/Class/Device/CDCClassDevice.c **** 	Endpoint_SelectEndpoint(CDCInterfaceInfo->Config.DataINEndpoint.Address);
 142:/opt/XMClib/XMC_Peripheral_Library_v2.1.16/ThirdPartyLibraries/USBlib/USB/Class/Device/CDCClassDevice.c **** 
 143:/opt/XMClib/XMC_Peripheral_Library_v2.1.16/ThirdPartyLibraries/USBlib/USB/Class/Device/CDCClassDevice.c **** 	if (Endpoint_IsINReady())
 144:/opt/XMClib/XMC_Peripheral_Library_v2.1.16/ThirdPartyLibraries/USBlib/USB/Class/Device/CDCClassDevice.c **** 	  CDC_Device_Flush(CDCInterfaceInfo);
 145:/opt/XMClib/XMC_Peripheral_Library_v2.1.16/ThirdPartyLibraries/USBlib/USB/Class/Device/CDCClassDevice.c **** 	#endif
 146:/opt/XMClib/XMC_Peripheral_Library_v2.1.16/ThirdPartyLibraries/USBlib/USB/Class/Device/CDCClassDevice.c **** }
 147:/opt/XMClib/XMC_Peripheral_Library_v2.1.16/ThirdPartyLibraries/USBlib/USB/Class/Device/CDCClassDevice.c **** 
 148:/opt/XMClib/XMC_Peripheral_Library_v2.1.16/ThirdPartyLibraries/USBlib/USB/Class/Device/CDCClassDevice.c **** uint8_t CDC_Device_SendString(USB_ClassInfo_CDC_Device_t* const CDCInterfaceInfo,
 149:/opt/XMClib/XMC_Peripheral_Library_v2.1.16/ThirdPartyLibraries/USBlib/USB/Class/Device/CDCClassDevice.c ****                               const char* const String)
 150:/opt/XMClib/XMC_Peripheral_Library_v2.1.16/ThirdPartyLibraries/USBlib/USB/Class/Device/CDCClassDevice.c **** {
 115              		.loc 1 150 1 is_stmt 1 view -0
 116              		.cfi_startproc
 117              		@ args = 0, pretend = 0, frame = 0
 118              		@ frame_needed = 0, uses_anonymous_args = 0
 151:/opt/XMClib/XMC_Peripheral_Library_v2.1.16/ThirdPartyLibraries/USBlib/USB/Class/Device/CDCClassDevice.c **** 	if ((USB_DeviceState != DEVICE_STATE_Configured) || !(CDCInterfaceInfo->State.LineEncoding.BaudRat
 119              		.loc 1 151 2 view .LVU27
 120              		.loc 1 151 23 is_stmt 0 view .LVU28
 121 0000 0E4B     		ldr	r3, .L19
 122 0002 1B78     		ldrb	r3, [r3]	@ zero_extendqisi2
 123              		.loc 1 151 5 view .LVU29
 124 0004 042B     		cmp	r3, #4
 125 0006 17D1     		bne	.L12
 126              		.loc 1 151 92 discriminator 1 view .LVU30
 127 0008 8369     		ldr	r3, [r0, #24]	@ unaligned
 128              		.loc 1 151 51 discriminator 1 view .LVU31
 129 000a ABB1     		cbz	r3, .L12
 152:/opt/XMClib/XMC_Peripheral_Library_v2.1.16/ThirdPartyLibraries/USBlib/USB/Class/Device/CDCClassDevice.c **** 	  return ENDPOINT_RWSTREAM_DeviceDisconnected;
 153:/opt/XMClib/XMC_Peripheral_Library_v2.1.16/ThirdPartyLibraries/USBlib/USB/Class/Device/CDCClassDevice.c **** 
 154:/opt/XMClib/XMC_Peripheral_Library_v2.1.16/ThirdPartyLibraries/USBlib/USB/Class/Device/CDCClassDevice.c **** 	Endpoint_SelectEndpoint(CDCInterfaceInfo->Config.DataINEndpoint.Address);
 130              		.loc 1 154 2 is_stmt 1 view .LVU32
 150:/opt/XMClib/XMC_Peripheral_Library_v2.1.16/ThirdPartyLibraries/USBlib/USB/Class/Device/CDCClassDevice.c **** 	if ((USB_DeviceState != DEVICE_STATE_Configured) || !(CDCInterfaceInfo->State.LineEncoding.BaudRat
 131              		.loc 1 150 1 is_stmt 0 view .LVU33
 132 000c 10B5     		push	{r4, lr}
 133              	.LCFI2:
 134              		.cfi_def_cfa_offset 8
 135              		.cfi_offset 4, -8
 136              		.cfi_offset 14, -4
 137              		.loc 1 154 2 view .LVU34
 138 000e 8378     		ldrb	r3, [r0, #2]	@ zero_extendqisi2
 139              	.LVL8:
 140              	.LBB61:
 141              	.LBI61:
 142              		.file 2 "/opt/XMClib/XMC_Peripheral_Library_v2.1.16/ThirdPartyLibraries/USBlib/USB/Class/Device/..
   1:/opt/XMClib/XMC_Peripheral_Library_v2.1.16/ThirdPartyLibraries/USBlib/USB/Class/Device/../../Core/XMC4000/../XMC4000/Endpoint_XMC4000.h **** /*
   2:/opt/XMClib/XMC_Peripheral_Library_v2.1.16/ThirdPartyLibraries/USBlib/USB/Class/Device/../../Core/XMC4000/../XMC4000/Endpoint_XMC4000.h ****              LUFA Library
   3:/opt/XMClib/XMC_Peripheral_Library_v2.1.16/ThirdPartyLibraries/USBlib/USB/Class/Device/../../Core/XMC4000/../XMC4000/Endpoint_XMC4000.h ****      Copyright (C) Dean Camera, 2013.
   4:/opt/XMClib/XMC_Peripheral_Library_v2.1.16/ThirdPartyLibraries/USBlib/USB/Class/Device/../../Core/XMC4000/../XMC4000/Endpoint_XMC4000.h **** 
   5:/opt/XMClib/XMC_Peripheral_Library_v2.1.16/ThirdPartyLibraries/USBlib/USB/Class/Device/../../Core/XMC4000/../XMC4000/Endpoint_XMC4000.h ****   dean [at] fourwalledcubicle [dot] com
   6:/opt/XMClib/XMC_Peripheral_Library_v2.1.16/ThirdPartyLibraries/USBlib/USB/Class/Device/../../Core/XMC4000/../XMC4000/Endpoint_XMC4000.h ****            www.lufa-lib.org
   7:/opt/XMClib/XMC_Peripheral_Library_v2.1.16/ThirdPartyLibraries/USBlib/USB/Class/Device/../../Core/XMC4000/../XMC4000/Endpoint_XMC4000.h **** */
   8:/opt/XMClib/XMC_Peripheral_Library_v2.1.16/ThirdPartyLibraries/USBlib/USB/Class/Device/../../Core/XMC4000/../XMC4000/Endpoint_XMC4000.h **** 
   9:/opt/XMClib/XMC_Peripheral_Library_v2.1.16/ThirdPartyLibraries/USBlib/USB/Class/Device/../../Core/XMC4000/../XMC4000/Endpoint_XMC4000.h **** /*
  10:/opt/XMClib/XMC_Peripheral_Library_v2.1.16/ThirdPartyLibraries/USBlib/USB/Class/Device/../../Core/XMC4000/../XMC4000/Endpoint_XMC4000.h ****   Copyright 2013  Dean Camera (dean [at] fourwalledcubicle [dot] com)
  11:/opt/XMClib/XMC_Peripheral_Library_v2.1.16/ThirdPartyLibraries/USBlib/USB/Class/Device/../../Core/XMC4000/../XMC4000/Endpoint_XMC4000.h **** 
  12:/opt/XMClib/XMC_Peripheral_Library_v2.1.16/ThirdPartyLibraries/USBlib/USB/Class/Device/../../Core/XMC4000/../XMC4000/Endpoint_XMC4000.h ****   Permission to use, copy, modify, distribute, and sell this
  13:/opt/XMClib/XMC_Peripheral_Library_v2.1.16/ThirdPartyLibraries/USBlib/USB/Class/Device/../../Core/XMC4000/../XMC4000/Endpoint_XMC4000.h ****   software and its documentation for any purpose is hereby granted
  14:/opt/XMClib/XMC_Peripheral_Library_v2.1.16/ThirdPartyLibraries/USBlib/USB/Class/Device/../../Core/XMC4000/../XMC4000/Endpoint_XMC4000.h ****   without fee, provided that the above copyright notice appear in
  15:/opt/XMClib/XMC_Peripheral_Library_v2.1.16/ThirdPartyLibraries/USBlib/USB/Class/Device/../../Core/XMC4000/../XMC4000/Endpoint_XMC4000.h ****   all copies and that both that the copyright notice and this
  16:/opt/XMClib/XMC_Peripheral_Library_v2.1.16/ThirdPartyLibraries/USBlib/USB/Class/Device/../../Core/XMC4000/../XMC4000/Endpoint_XMC4000.h ****   permission notice and warranty disclaimer appear in supporting
  17:/opt/XMClib/XMC_Peripheral_Library_v2.1.16/ThirdPartyLibraries/USBlib/USB/Class/Device/../../Core/XMC4000/../XMC4000/Endpoint_XMC4000.h ****   documentation, and that the name of the author not be used in
  18:/opt/XMClib/XMC_Peripheral_Library_v2.1.16/ThirdPartyLibraries/USBlib/USB/Class/Device/../../Core/XMC4000/../XMC4000/Endpoint_XMC4000.h ****   advertising or publicity pertaining to distribution of the
  19:/opt/XMClib/XMC_Peripheral_Library_v2.1.16/ThirdPartyLibraries/USBlib/USB/Class/Device/../../Core/XMC4000/../XMC4000/Endpoint_XMC4000.h ****   software without specific, written prior permission.
  20:/opt/XMClib/XMC_Peripheral_Library_v2.1.16/ThirdPartyLibraries/USBlib/USB/Class/Device/../../Core/XMC4000/../XMC4000/Endpoint_XMC4000.h **** 
  21:/opt/XMClib/XMC_Peripheral_Library_v2.1.16/ThirdPartyLibraries/USBlib/USB/Class/Device/../../Core/XMC4000/../XMC4000/Endpoint_XMC4000.h ****   The author disclaims all warranties with regard to this
  22:/opt/XMClib/XMC_Peripheral_Library_v2.1.16/ThirdPartyLibraries/USBlib/USB/Class/Device/../../Core/XMC4000/../XMC4000/Endpoint_XMC4000.h ****   software, including all implied warranties of merchantability
  23:/opt/XMClib/XMC_Peripheral_Library_v2.1.16/ThirdPartyLibraries/USBlib/USB/Class/Device/../../Core/XMC4000/../XMC4000/Endpoint_XMC4000.h ****   and fitness.  In no event shall the author be liable for any
  24:/opt/XMClib/XMC_Peripheral_Library_v2.1.16/ThirdPartyLibraries/USBlib/USB/Class/Device/../../Core/XMC4000/../XMC4000/Endpoint_XMC4000.h ****   special, indirect or consequential damages or any damages
  25:/opt/XMClib/XMC_Peripheral_Library_v2.1.16/ThirdPartyLibraries/USBlib/USB/Class/Device/../../Core/XMC4000/../XMC4000/Endpoint_XMC4000.h ****   whatsoever resulting from loss of use, data or profits, whether
  26:/opt/XMClib/XMC_Peripheral_Library_v2.1.16/ThirdPartyLibraries/USBlib/USB/Class/Device/../../Core/XMC4000/../XMC4000/Endpoint_XMC4000.h ****   in an action of contract, negligence or other tortious action,
  27:/opt/XMClib/XMC_Peripheral_Library_v2.1.16/ThirdPartyLibraries/USBlib/USB/Class/Device/../../Core/XMC4000/../XMC4000/Endpoint_XMC4000.h ****   arising out of or in connection with the use or performance of
  28:/opt/XMClib/XMC_Peripheral_Library_v2.1.16/ThirdPartyLibraries/USBlib/USB/Class/Device/../../Core/XMC4000/../XMC4000/Endpoint_XMC4000.h ****   this software.
  29:/opt/XMClib/XMC_Peripheral_Library_v2.1.16/ThirdPartyLibraries/USBlib/USB/Class/Device/../../Core/XMC4000/../XMC4000/Endpoint_XMC4000.h **** */
  30:/opt/XMClib/XMC_Peripheral_Library_v2.1.16/ThirdPartyLibraries/USBlib/USB/Class/Device/../../Core/XMC4000/../XMC4000/Endpoint_XMC4000.h **** /*******************************************************************************
  31:/opt/XMClib/XMC_Peripheral_Library_v2.1.16/ThirdPartyLibraries/USBlib/USB/Class/Device/../../Core/XMC4000/../XMC4000/Endpoint_XMC4000.h ****  *
  32:/opt/XMClib/XMC_Peripheral_Library_v2.1.16/ThirdPartyLibraries/USBlib/USB/Class/Device/../../Core/XMC4000/../XMC4000/Endpoint_XMC4000.h ****  * Copyright (C) 2013 Infineon Technologies AG. All rights reserved.
  33:/opt/XMClib/XMC_Peripheral_Library_v2.1.16/ThirdPartyLibraries/USBlib/USB/Class/Device/../../Core/XMC4000/../XMC4000/Endpoint_XMC4000.h ****  *
  34:/opt/XMClib/XMC_Peripheral_Library_v2.1.16/ThirdPartyLibraries/USBlib/USB/Class/Device/../../Core/XMC4000/../XMC4000/Endpoint_XMC4000.h ****  * Infineon Technologies AG (Infineon) is supplying this software for use with
  35:/opt/XMClib/XMC_Peripheral_Library_v2.1.16/ThirdPartyLibraries/USBlib/USB/Class/Device/../../Core/XMC4000/../XMC4000/Endpoint_XMC4000.h ****  * Infineon's microcontrollers.
  36:/opt/XMClib/XMC_Peripheral_Library_v2.1.16/ThirdPartyLibraries/USBlib/USB/Class/Device/../../Core/XMC4000/../XMC4000/Endpoint_XMC4000.h ****  * This file can be freely distributed within development tools that are
  37:/opt/XMClib/XMC_Peripheral_Library_v2.1.16/ThirdPartyLibraries/USBlib/USB/Class/Device/../../Core/XMC4000/../XMC4000/Endpoint_XMC4000.h ****  * supporting such microcontrollers.
  38:/opt/XMClib/XMC_Peripheral_Library_v2.1.16/ThirdPartyLibraries/USBlib/USB/Class/Device/../../Core/XMC4000/../XMC4000/Endpoint_XMC4000.h ****  *
  39:/opt/XMClib/XMC_Peripheral_Library_v2.1.16/ThirdPartyLibraries/USBlib/USB/Class/Device/../../Core/XMC4000/../XMC4000/Endpoint_XMC4000.h ****  * THIS SOFTWARE IS PROVIDED "AS IS".  NO WARRANTIES, WHETHER EXPRESS, IMPLIED
  40:/opt/XMClib/XMC_Peripheral_Library_v2.1.16/ThirdPartyLibraries/USBlib/USB/Class/Device/../../Core/XMC4000/../XMC4000/Endpoint_XMC4000.h ****  * OR STATUTORY, INCLUDING, BUT NOT LIMITED TO, IMPLIED WARRANTIES OF
  41:/opt/XMClib/XMC_Peripheral_Library_v2.1.16/ThirdPartyLibraries/USBlib/USB/Class/Device/../../Core/XMC4000/../XMC4000/Endpoint_XMC4000.h ****  * MERCHANTABILITY AND FITNESS FOR A PARTICULAR PURPOSE APPLY TO THIS SOFTWARE.
  42:/opt/XMClib/XMC_Peripheral_Library_v2.1.16/ThirdPartyLibraries/USBlib/USB/Class/Device/../../Core/XMC4000/../XMC4000/Endpoint_XMC4000.h ****  * INFINEON SHALL NOT, IN ANY CIRCUMSTANCES, BE LIABLE FOR SPECIAL, INCIDENTAL,
  43:/opt/XMClib/XMC_Peripheral_Library_v2.1.16/ThirdPartyLibraries/USBlib/USB/Class/Device/../../Core/XMC4000/../XMC4000/Endpoint_XMC4000.h ****  * OR CONSEQUENTIAL DAMAGES, FOR ANY REASON WHATSOEVER.
  44:/opt/XMClib/XMC_Peripheral_Library_v2.1.16/ThirdPartyLibraries/USBlib/USB/Class/Device/../../Core/XMC4000/../XMC4000/Endpoint_XMC4000.h ****  *
  45:/opt/XMClib/XMC_Peripheral_Library_v2.1.16/ThirdPartyLibraries/USBlib/USB/Class/Device/../../Core/XMC4000/../XMC4000/Endpoint_XMC4000.h ****  */
  46:/opt/XMClib/XMC_Peripheral_Library_v2.1.16/ThirdPartyLibraries/USBlib/USB/Class/Device/../../Core/XMC4000/../XMC4000/Endpoint_XMC4000.h **** 
  47:/opt/XMClib/XMC_Peripheral_Library_v2.1.16/ThirdPartyLibraries/USBlib/USB/Class/Device/../../Core/XMC4000/../XMC4000/Endpoint_XMC4000.h **** /** \file
  48:/opt/XMClib/XMC_Peripheral_Library_v2.1.16/ThirdPartyLibraries/USBlib/USB/Class/Device/../../Core/XMC4000/../XMC4000/Endpoint_XMC4000.h ****  *
  49:/opt/XMClib/XMC_Peripheral_Library_v2.1.16/ThirdPartyLibraries/USBlib/USB/Class/Device/../../Core/XMC4000/../XMC4000/Endpoint_XMC4000.h ****  *  Functions, macros, variables, enums and types related to data reading and writing of primitive 
  50:/opt/XMClib/XMC_Peripheral_Library_v2.1.16/ThirdPartyLibraries/USBlib/USB/Class/Device/../../Core/XMC4000/../XMC4000/Endpoint_XMC4000.h ****  *  from and to endpoints.
  51:/opt/XMClib/XMC_Peripheral_Library_v2.1.16/ThirdPartyLibraries/USBlib/USB/Class/Device/../../Core/XMC4000/../XMC4000/Endpoint_XMC4000.h ****  */
  52:/opt/XMClib/XMC_Peripheral_Library_v2.1.16/ThirdPartyLibraries/USBlib/USB/Class/Device/../../Core/XMC4000/../XMC4000/Endpoint_XMC4000.h **** 
  53:/opt/XMClib/XMC_Peripheral_Library_v2.1.16/ThirdPartyLibraries/USBlib/USB/Class/Device/../../Core/XMC4000/../XMC4000/Endpoint_XMC4000.h **** /** \ingroup Group_EndpointPacketManagement
  54:/opt/XMClib/XMC_Peripheral_Library_v2.1.16/ThirdPartyLibraries/USBlib/USB/Class/Device/../../Core/XMC4000/../XMC4000/Endpoint_XMC4000.h ****  *
  55:/opt/XMClib/XMC_Peripheral_Library_v2.1.16/ThirdPartyLibraries/USBlib/USB/Class/Device/../../Core/XMC4000/../XMC4000/Endpoint_XMC4000.h ****  *  Functions, macros, variables, enums and types related to packet management of endpoints.
  56:/opt/XMClib/XMC_Peripheral_Library_v2.1.16/ThirdPartyLibraries/USBlib/USB/Class/Device/../../Core/XMC4000/../XMC4000/Endpoint_XMC4000.h ****  */
  57:/opt/XMClib/XMC_Peripheral_Library_v2.1.16/ThirdPartyLibraries/USBlib/USB/Class/Device/../../Core/XMC4000/../XMC4000/Endpoint_XMC4000.h **** 
  58:/opt/XMClib/XMC_Peripheral_Library_v2.1.16/ThirdPartyLibraries/USBlib/USB/Class/Device/../../Core/XMC4000/../XMC4000/Endpoint_XMC4000.h **** /** \ingroup Group_EndpointManagement
  59:/opt/XMClib/XMC_Peripheral_Library_v2.1.16/ThirdPartyLibraries/USBlib/USB/Class/Device/../../Core/XMC4000/../XMC4000/Endpoint_XMC4000.h ****  *  Functions, macros and enums related to endpoint management when in USB Device mode. This
  60:/opt/XMClib/XMC_Peripheral_Library_v2.1.16/ThirdPartyLibraries/USBlib/USB/Class/Device/../../Core/XMC4000/../XMC4000/Endpoint_XMC4000.h ****  *  module contains the endpoint management macros, as well as endpoint interrupt and data
  61:/opt/XMClib/XMC_Peripheral_Library_v2.1.16/ThirdPartyLibraries/USBlib/USB/Class/Device/../../Core/XMC4000/../XMC4000/Endpoint_XMC4000.h ****  *  send/receive functions for various data types.
  62:/opt/XMClib/XMC_Peripheral_Library_v2.1.16/ThirdPartyLibraries/USBlib/USB/Class/Device/../../Core/XMC4000/../XMC4000/Endpoint_XMC4000.h ****  *
  63:/opt/XMClib/XMC_Peripheral_Library_v2.1.16/ThirdPartyLibraries/USBlib/USB/Class/Device/../../Core/XMC4000/../XMC4000/Endpoint_XMC4000.h ****  *  @{
  64:/opt/XMClib/XMC_Peripheral_Library_v2.1.16/ThirdPartyLibraries/USBlib/USB/Class/Device/../../Core/XMC4000/../XMC4000/Endpoint_XMC4000.h ****  */
  65:/opt/XMClib/XMC_Peripheral_Library_v2.1.16/ThirdPartyLibraries/USBlib/USB/Class/Device/../../Core/XMC4000/../XMC4000/Endpoint_XMC4000.h **** 
  66:/opt/XMClib/XMC_Peripheral_Library_v2.1.16/ThirdPartyLibraries/USBlib/USB/Class/Device/../../Core/XMC4000/../XMC4000/Endpoint_XMC4000.h **** #ifndef ENDPOINT_XMC4000_H_
  67:/opt/XMClib/XMC_Peripheral_Library_v2.1.16/ThirdPartyLibraries/USBlib/USB/Class/Device/../../Core/XMC4000/../XMC4000/Endpoint_XMC4000.h **** #define ENDPOINT_XMC4000_H_
  68:/opt/XMClib/XMC_Peripheral_Library_v2.1.16/ThirdPartyLibraries/USBlib/USB/Class/Device/../../Core/XMC4000/../XMC4000/Endpoint_XMC4000.h **** 
  69:/opt/XMClib/XMC_Peripheral_Library_v2.1.16/ThirdPartyLibraries/USBlib/USB/Class/Device/../../Core/XMC4000/../XMC4000/Endpoint_XMC4000.h **** 		#include "../../Common/Common.h"
  70:/opt/XMClib/XMC_Peripheral_Library_v2.1.16/ThirdPartyLibraries/USBlib/USB/Class/Device/../../Core/XMC4000/../XMC4000/Endpoint_XMC4000.h **** 		#include "../USBTask.h"
  71:/opt/XMClib/XMC_Peripheral_Library_v2.1.16/ThirdPartyLibraries/USBlib/USB/Class/Device/../../Core/XMC4000/../XMC4000/Endpoint_XMC4000.h **** 		#include "../USBInterrupt.h"
  72:/opt/XMClib/XMC_Peripheral_Library_v2.1.16/ThirdPartyLibraries/USBlib/USB/Class/Device/../../Core/XMC4000/../XMC4000/Endpoint_XMC4000.h **** 		#include "../USBController.h"
  73:/opt/XMClib/XMC_Peripheral_Library_v2.1.16/ThirdPartyLibraries/USBlib/USB/Class/Device/../../Core/XMC4000/../XMC4000/Endpoint_XMC4000.h **** 
  74:/opt/XMClib/XMC_Peripheral_Library_v2.1.16/ThirdPartyLibraries/USBlib/USB/Class/Device/../../Core/XMC4000/../XMC4000/Endpoint_XMC4000.h **** /* Enable C linkage for C++ Compilers: */
  75:/opt/XMClib/XMC_Peripheral_Library_v2.1.16/ThirdPartyLibraries/USBlib/USB/Class/Device/../../Core/XMC4000/../XMC4000/Endpoint_XMC4000.h **** #if defined(__cplusplus)
  76:/opt/XMClib/XMC_Peripheral_Library_v2.1.16/ThirdPartyLibraries/USBlib/USB/Class/Device/../../Core/XMC4000/../XMC4000/Endpoint_XMC4000.h **** 	extern "C" {
  77:/opt/XMClib/XMC_Peripheral_Library_v2.1.16/ThirdPartyLibraries/USBlib/USB/Class/Device/../../Core/XMC4000/../XMC4000/Endpoint_XMC4000.h **** #endif
  78:/opt/XMClib/XMC_Peripheral_Library_v2.1.16/ThirdPartyLibraries/USBlib/USB/Class/Device/../../Core/XMC4000/../XMC4000/Endpoint_XMC4000.h **** 
  79:/opt/XMClib/XMC_Peripheral_Library_v2.1.16/ThirdPartyLibraries/USBlib/USB/Class/Device/../../Core/XMC4000/../XMC4000/Endpoint_XMC4000.h **** 	/* Preprocessor Checks: */
  80:/opt/XMClib/XMC_Peripheral_Library_v2.1.16/ThirdPartyLibraries/USBlib/USB/Class/Device/../../Core/XMC4000/../XMC4000/Endpoint_XMC4000.h **** 		#if !defined(__INCLUDE_FROM_USB_DRIVER)
  81:/opt/XMClib/XMC_Peripheral_Library_v2.1.16/ThirdPartyLibraries/USBlib/USB/Class/Device/../../Core/XMC4000/../XMC4000/Endpoint_XMC4000.h **** 			#error Do not include this file directly. Include LUFA/Drivers/USB/USB.h instead.
  82:/opt/XMClib/XMC_Peripheral_Library_v2.1.16/ThirdPartyLibraries/USBlib/USB/Class/Device/../../Core/XMC4000/../XMC4000/Endpoint_XMC4000.h **** 		#endif
  83:/opt/XMClib/XMC_Peripheral_Library_v2.1.16/ThirdPartyLibraries/USBlib/USB/Class/Device/../../Core/XMC4000/../XMC4000/Endpoint_XMC4000.h **** 
  84:/opt/XMClib/XMC_Peripheral_Library_v2.1.16/ThirdPartyLibraries/USBlib/USB/Class/Device/../../Core/XMC4000/../XMC4000/Endpoint_XMC4000.h **** 	/* Public Interface - May be used in end-application: */
  85:/opt/XMClib/XMC_Peripheral_Library_v2.1.16/ThirdPartyLibraries/USBlib/USB/Class/Device/../../Core/XMC4000/../XMC4000/Endpoint_XMC4000.h ****             
  86:/opt/XMClib/XMC_Peripheral_Library_v2.1.16/ThirdPartyLibraries/USBlib/USB/Class/Device/../../Core/XMC4000/../XMC4000/Endpoint_XMC4000.h **** 	/** Enum for the possible error return codes of the \ref Endpoint_WaitUntilReady() function.
  87:/opt/XMClib/XMC_Peripheral_Library_v2.1.16/ThirdPartyLibraries/USBlib/USB/Class/Device/../../Core/XMC4000/../XMC4000/Endpoint_XMC4000.h **** 	 *
  88:/opt/XMClib/XMC_Peripheral_Library_v2.1.16/ThirdPartyLibraries/USBlib/USB/Class/Device/../../Core/XMC4000/../XMC4000/Endpoint_XMC4000.h **** 	 *  \ingroup Group_EndpointRW
  89:/opt/XMClib/XMC_Peripheral_Library_v2.1.16/ThirdPartyLibraries/USBlib/USB/Class/Device/../../Core/XMC4000/../XMC4000/Endpoint_XMC4000.h **** 	 */
  90:/opt/XMClib/XMC_Peripheral_Library_v2.1.16/ThirdPartyLibraries/USBlib/USB/Class/Device/../../Core/XMC4000/../XMC4000/Endpoint_XMC4000.h **** 	enum Endpoint_WaitUntilReady_ErrorCodes_t
  91:/opt/XMClib/XMC_Peripheral_Library_v2.1.16/ThirdPartyLibraries/USBlib/USB/Class/Device/../../Core/XMC4000/../XMC4000/Endpoint_XMC4000.h **** 	{
  92:/opt/XMClib/XMC_Peripheral_Library_v2.1.16/ThirdPartyLibraries/USBlib/USB/Class/Device/../../Core/XMC4000/../XMC4000/Endpoint_XMC4000.h **** 		ENDPOINT_READYWAIT_NoError                 = 0, /**< Endpoint is ready for next packet, no error.
  93:/opt/XMClib/XMC_Peripheral_Library_v2.1.16/ThirdPartyLibraries/USBlib/USB/Class/Device/../../Core/XMC4000/../XMC4000/Endpoint_XMC4000.h **** 		ENDPOINT_READYWAIT_EndpointStalled         = 1, /**< The endpoint was stalled during the stream
  94:/opt/XMClib/XMC_Peripheral_Library_v2.1.16/ThirdPartyLibraries/USBlib/USB/Class/Device/../../Core/XMC4000/../XMC4000/Endpoint_XMC4000.h **** 														 *   transfer by the host or device.
  95:/opt/XMClib/XMC_Peripheral_Library_v2.1.16/ThirdPartyLibraries/USBlib/USB/Class/Device/../../Core/XMC4000/../XMC4000/Endpoint_XMC4000.h **** 														 */
  96:/opt/XMClib/XMC_Peripheral_Library_v2.1.16/ThirdPartyLibraries/USBlib/USB/Class/Device/../../Core/XMC4000/../XMC4000/Endpoint_XMC4000.h **** 		ENDPOINT_READYWAIT_DeviceDisconnected      = 2,	/**< Device was disconnected from the host while
  97:/opt/XMClib/XMC_Peripheral_Library_v2.1.16/ThirdPartyLibraries/USBlib/USB/Class/Device/../../Core/XMC4000/../XMC4000/Endpoint_XMC4000.h **** 														 *   waiting for the endpoint to become ready.
  98:/opt/XMClib/XMC_Peripheral_Library_v2.1.16/ThirdPartyLibraries/USBlib/USB/Class/Device/../../Core/XMC4000/../XMC4000/Endpoint_XMC4000.h **** 														 */
  99:/opt/XMClib/XMC_Peripheral_Library_v2.1.16/ThirdPartyLibraries/USBlib/USB/Class/Device/../../Core/XMC4000/../XMC4000/Endpoint_XMC4000.h **** 		ENDPOINT_READYWAIT_BusSuspended            = 3, /**< The USB bus has been suspended by the host a
 100:/opt/XMClib/XMC_Peripheral_Library_v2.1.16/ThirdPartyLibraries/USBlib/USB/Class/Device/../../Core/XMC4000/../XMC4000/Endpoint_XMC4000.h **** 														 *   no USB endpoint traffic can occur until the bus
 101:/opt/XMClib/XMC_Peripheral_Library_v2.1.16/ThirdPartyLibraries/USBlib/USB/Class/Device/../../Core/XMC4000/../XMC4000/Endpoint_XMC4000.h **** 														 *   has resumed.
 102:/opt/XMClib/XMC_Peripheral_Library_v2.1.16/ThirdPartyLibraries/USBlib/USB/Class/Device/../../Core/XMC4000/../XMC4000/Endpoint_XMC4000.h **** 														 */
 103:/opt/XMClib/XMC_Peripheral_Library_v2.1.16/ThirdPartyLibraries/USBlib/USB/Class/Device/../../Core/XMC4000/../XMC4000/Endpoint_XMC4000.h **** 		ENDPOINT_READYWAIT_Timeout                 = 4, /**< The host failed to accept or send the next p
 104:/opt/XMClib/XMC_Peripheral_Library_v2.1.16/ThirdPartyLibraries/USBlib/USB/Class/Device/../../Core/XMC4000/../XMC4000/Endpoint_XMC4000.h **** 														 *   within the software timeout period set by the
 105:/opt/XMClib/XMC_Peripheral_Library_v2.1.16/ThirdPartyLibraries/USBlib/USB/Class/Device/../../Core/XMC4000/../XMC4000/Endpoint_XMC4000.h **** 														 *   \ref USB_STREAM_TIMEOUT_MS macro.
 106:/opt/XMClib/XMC_Peripheral_Library_v2.1.16/ThirdPartyLibraries/USBlib/USB/Class/Device/../../Core/XMC4000/../XMC4000/Endpoint_XMC4000.h **** 														 */
 107:/opt/XMClib/XMC_Peripheral_Library_v2.1.16/ThirdPartyLibraries/USBlib/USB/Class/Device/../../Core/XMC4000/../XMC4000/Endpoint_XMC4000.h **** 	};
 108:/opt/XMClib/XMC_Peripheral_Library_v2.1.16/ThirdPartyLibraries/USBlib/USB/Class/Device/../../Core/XMC4000/../XMC4000/Endpoint_XMC4000.h **** 
 109:/opt/XMClib/XMC_Peripheral_Library_v2.1.16/ThirdPartyLibraries/USBlib/USB/Class/Device/../../Core/XMC4000/../XMC4000/Endpoint_XMC4000.h **** 	/** Get the endpoint address of the currently selected endpoint. This is typically used to save
 110:/opt/XMClib/XMC_Peripheral_Library_v2.1.16/ThirdPartyLibraries/USBlib/USB/Class/Device/../../Core/XMC4000/../XMC4000/Endpoint_XMC4000.h **** 	 *  the currently selected endpoint so that it can be restored after another endpoint has been
 111:/opt/XMClib/XMC_Peripheral_Library_v2.1.16/ThirdPartyLibraries/USBlib/USB/Class/Device/../../Core/XMC4000/../XMC4000/Endpoint_XMC4000.h **** 	 *  manipulated.
 112:/opt/XMClib/XMC_Peripheral_Library_v2.1.16/ThirdPartyLibraries/USBlib/USB/Class/Device/../../Core/XMC4000/../XMC4000/Endpoint_XMC4000.h **** 	 *
 113:/opt/XMClib/XMC_Peripheral_Library_v2.1.16/ThirdPartyLibraries/USBlib/USB/Class/Device/../../Core/XMC4000/../XMC4000/Endpoint_XMC4000.h **** 	 *  \return Index of the currently selected endpoint.
 114:/opt/XMClib/XMC_Peripheral_Library_v2.1.16/ThirdPartyLibraries/USBlib/USB/Class/Device/../../Core/XMC4000/../XMC4000/Endpoint_XMC4000.h **** 	 */
 115:/opt/XMClib/XMC_Peripheral_Library_v2.1.16/ThirdPartyLibraries/USBlib/USB/Class/Device/../../Core/XMC4000/../XMC4000/Endpoint_XMC4000.h **** 	static inline uint8_t Endpoint_GetCurrentEndpoint(void) ATTR_WARN_UNUSED_RESULT ATTR_ALWAYS_INLINE
 116:/opt/XMClib/XMC_Peripheral_Library_v2.1.16/ThirdPartyLibraries/USBlib/USB/Class/Device/../../Core/XMC4000/../XMC4000/Endpoint_XMC4000.h **** 	static inline uint8_t Endpoint_GetCurrentEndpoint(void)
 117:/opt/XMClib/XMC_Peripheral_Library_v2.1.16/ThirdPartyLibraries/USBlib/USB/Class/Device/../../Core/XMC4000/../XMC4000/Endpoint_XMC4000.h **** 	{
 118:/opt/XMClib/XMC_Peripheral_Library_v2.1.16/ThirdPartyLibraries/USBlib/USB/Class/Device/../../Core/XMC4000/../XMC4000/Endpoint_XMC4000.h **** 		return device.CurrentDirection | device.CurrentEndpoint;
 119:/opt/XMClib/XMC_Peripheral_Library_v2.1.16/ThirdPartyLibraries/USBlib/USB/Class/Device/../../Core/XMC4000/../XMC4000/Endpoint_XMC4000.h **** 	}
 120:/opt/XMClib/XMC_Peripheral_Library_v2.1.16/ThirdPartyLibraries/USBlib/USB/Class/Device/../../Core/XMC4000/../XMC4000/Endpoint_XMC4000.h **** 
 121:/opt/XMClib/XMC_Peripheral_Library_v2.1.16/ThirdPartyLibraries/USBlib/USB/Class/Device/../../Core/XMC4000/../XMC4000/Endpoint_XMC4000.h **** 	/** Selects the given endpoint address.
 122:/opt/XMClib/XMC_Peripheral_Library_v2.1.16/ThirdPartyLibraries/USBlib/USB/Class/Device/../../Core/XMC4000/../XMC4000/Endpoint_XMC4000.h **** 	 *
 123:/opt/XMClib/XMC_Peripheral_Library_v2.1.16/ThirdPartyLibraries/USBlib/USB/Class/Device/../../Core/XMC4000/../XMC4000/Endpoint_XMC4000.h **** 	 *  Any endpoint operations which do not require the endpoint address to be indicated will operate
 124:/opt/XMClib/XMC_Peripheral_Library_v2.1.16/ThirdPartyLibraries/USBlib/USB/Class/Device/../../Core/XMC4000/../XMC4000/Endpoint_XMC4000.h **** 	 *  the currently selected endpoint.
 125:/opt/XMClib/XMC_Peripheral_Library_v2.1.16/ThirdPartyLibraries/USBlib/USB/Class/Device/../../Core/XMC4000/../XMC4000/Endpoint_XMC4000.h **** 	 *
 126:/opt/XMClib/XMC_Peripheral_Library_v2.1.16/ThirdPartyLibraries/USBlib/USB/Class/Device/../../Core/XMC4000/../XMC4000/Endpoint_XMC4000.h **** 	 *  \param[in] Address Endpoint address to select.
 127:/opt/XMClib/XMC_Peripheral_Library_v2.1.16/ThirdPartyLibraries/USBlib/USB/Class/Device/../../Core/XMC4000/../XMC4000/Endpoint_XMC4000.h **** 	 */
 128:/opt/XMClib/XMC_Peripheral_Library_v2.1.16/ThirdPartyLibraries/USBlib/USB/Class/Device/../../Core/XMC4000/../XMC4000/Endpoint_XMC4000.h **** 	static inline void Endpoint_SelectEndpoint(const uint8_t Address) ATTR_ALWAYS_INLINE;
 129:/opt/XMClib/XMC_Peripheral_Library_v2.1.16/ThirdPartyLibraries/USBlib/USB/Class/Device/../../Core/XMC4000/../XMC4000/Endpoint_XMC4000.h **** 	static inline void Endpoint_SelectEndpoint(const uint8_t Address)
 143              		.loc 2 129 21 is_stmt 1 view .LVU35
 144              	.LBB62:
 130:/opt/XMClib/XMC_Peripheral_Library_v2.1.16/ThirdPartyLibraries/USBlib/USB/Class/Device/../../Core/XMC4000/../XMC4000/Endpoint_XMC4000.h **** 	{
 131:/opt/XMClib/XMC_Peripheral_Library_v2.1.16/ThirdPartyLibraries/USBlib/USB/Class/Device/../../Core/XMC4000/../XMC4000/Endpoint_XMC4000.h **** 		device.CurrentEndpoint = Address & ENDPOINT_EPNUM_MASK;
 145              		.loc 2 131 3 view .LVU36
 146              		.loc 2 131 26 is_stmt 0 view .LVU37
 147 0010 0B4A     		ldr	r2, .L19+4
 148 0012 0C46     		mov	r4, r1
 149              	.LBE62:
 150              	.LBE61:
 155:/opt/XMClib/XMC_Peripheral_Library_v2.1.16/ThirdPartyLibraries/USBlib/USB/Class/Device/CDCClassDevice.c **** 	return Endpoint_Write_Stream_LE(String, strlen(String), NULL);
 151              		.loc 1 155 42 view .LVU38
 152 0014 2046     		mov	r0, r4
 153              	.LVL9:
 154              	.LBB64:
 155              	.LBB63:
 156              		.loc 2 131 36 view .LVU39
 157 0016 03F00F01 		and	r1, r3, #15
 158              	.LVL10:
 132:/opt/XMClib/XMC_Peripheral_Library_v2.1.16/ThirdPartyLibraries/USBlib/USB/Class/Device/../../Core/XMC4000/../XMC4000/Endpoint_XMC4000.h **** 		device.CurrentDirection = (Address & ENDPOINT_DIR_MASK);
 159              		.loc 2 132 38 view .LVU40
 160 001a 23F07F03 		bic	r3, r3, #127
 161              	.LVL11:
 131:/opt/XMClib/XMC_Peripheral_Library_v2.1.16/ThirdPartyLibraries/USBlib/USB/Class/Device/../../Core/XMC4000/../XMC4000/Endpoint_XMC4000.h **** 		device.CurrentDirection = (Address & ENDPOINT_DIR_MASK);
 162              		.loc 2 131 26 view .LVU41
 163 001e 82F83C11 		strb	r1, [r2, #316]
 164              	.LVL12:
 165              		.loc 2 132 3 is_stmt 1 view .LVU42
 166              		.loc 2 132 27 is_stmt 0 view .LVU43
 167 0022 82F83D31 		strb	r3, [r2, #317]
 168              		.loc 2 132 27 view .LVU44
 169              	.LBE63:
 170              	.LBE64:
 171              		.loc 1 155 2 is_stmt 1 view .LVU45
 172              		.loc 1 155 42 is_stmt 0 view .LVU46
 173 0026 FFF7FEFF 		bl	strlen
 174              	.LVL13:
 175              		.loc 1 155 9 view .LVU47
 176 002a 0022     		movs	r2, #0
 177 002c 81B2     		uxth	r1, r0
 178 002e 2046     		mov	r0, r4
 156:/opt/XMClib/XMC_Peripheral_Library_v2.1.16/ThirdPartyLibraries/USBlib/USB/Class/Device/CDCClassDevice.c **** }
 179              		.loc 1 156 1 view .LVU48
 180 0030 BDE81040 		pop	{r4, lr}
 181              	.LCFI3:
 182              		.cfi_restore 14
 183              		.cfi_restore 4
 184              		.cfi_def_cfa_offset 0
 185              	.LVL14:
 155:/opt/XMClib/XMC_Peripheral_Library_v2.1.16/ThirdPartyLibraries/USBlib/USB/Class/Device/CDCClassDevice.c **** }
 186              		.loc 1 155 9 view .LVU49
 187 0034 FFF7FEBF 		b	Endpoint_Write_Stream_LE
 188              	.LVL15:
 189              	.L12:
 190              		.loc 1 156 1 view .LVU50
 191 0038 0220     		movs	r0, #2
 192              	.LVL16:
 193              		.loc 1 156 1 view .LVU51
 194 003a 7047     		bx	lr
 195              	.L20:
 196              		.align	2
 197              	.L19:
 198 003c 00000000 		.word	USB_DeviceState
 199 0040 00000000 		.word	device
 200              		.cfi_endproc
 201              	.LFE196:
 203              		.section	.text.CDC_Device_SendData,"ax",%progbits
 204              		.align	1
 205              		.p2align 2,,3
 206              		.global	CDC_Device_SendData
 207              		.syntax unified
 208              		.thumb
 209              		.thumb_func
 211              	CDC_Device_SendData:
 212              	.LVL17:
 213              	.LFB197:
 157:/opt/XMClib/XMC_Peripheral_Library_v2.1.16/ThirdPartyLibraries/USBlib/USB/Class/Device/CDCClassDevice.c **** 
 158:/opt/XMClib/XMC_Peripheral_Library_v2.1.16/ThirdPartyLibraries/USBlib/USB/Class/Device/CDCClassDevice.c **** uint8_t CDC_Device_SendData(USB_ClassInfo_CDC_Device_t* const CDCInterfaceInfo,
 159:/opt/XMClib/XMC_Peripheral_Library_v2.1.16/ThirdPartyLibraries/USBlib/USB/Class/Device/CDCClassDevice.c ****                             const void* const Buffer,
 160:/opt/XMClib/XMC_Peripheral_Library_v2.1.16/ThirdPartyLibraries/USBlib/USB/Class/Device/CDCClassDevice.c ****                             const uint16_t Length)
 161:/opt/XMClib/XMC_Peripheral_Library_v2.1.16/ThirdPartyLibraries/USBlib/USB/Class/Device/CDCClassDevice.c **** {
 214              		.loc 1 161 1 is_stmt 1 view -0
 215              		.cfi_startproc
 216              		@ args = 0, pretend = 0, frame = 0
 217              		@ frame_needed = 0, uses_anonymous_args = 0
 162:/opt/XMClib/XMC_Peripheral_Library_v2.1.16/ThirdPartyLibraries/USBlib/USB/Class/Device/CDCClassDevice.c **** 	if ((USB_DeviceState != DEVICE_STATE_Configured) || !(CDCInterfaceInfo->State.LineEncoding.BaudRat
 218              		.loc 1 162 2 view .LVU53
 219              		.loc 1 162 23 is_stmt 0 view .LVU54
 220 0000 0E4B     		ldr	r3, .L29
 221 0002 93F800C0 		ldrb	ip, [r3]	@ zero_extendqisi2
 222              		.loc 1 162 5 view .LVU55
 223 0006 BCF1040F 		cmp	ip, #4
 224 000a 14D1     		bne	.L22
 225 000c 0B46     		mov	r3, r1
 226              		.loc 1 162 92 discriminator 1 view .LVU56
 227 000e 8169     		ldr	r1, [r0, #24]	@ unaligned
 228              	.LVL18:
 229              		.loc 1 162 51 discriminator 1 view .LVU57
 230 0010 89B1     		cbz	r1, .L22
 163:/opt/XMClib/XMC_Peripheral_Library_v2.1.16/ThirdPartyLibraries/USBlib/USB/Class/Device/CDCClassDevice.c **** 	  return ENDPOINT_RWSTREAM_DeviceDisconnected;
 164:/opt/XMClib/XMC_Peripheral_Library_v2.1.16/ThirdPartyLibraries/USBlib/USB/Class/Device/CDCClassDevice.c **** 
 165:/opt/XMClib/XMC_Peripheral_Library_v2.1.16/ThirdPartyLibraries/USBlib/USB/Class/Device/CDCClassDevice.c **** 	Endpoint_SelectEndpoint(CDCInterfaceInfo->Config.DataINEndpoint.Address);
 231              		.loc 1 165 2 is_stmt 1 view .LVU58
 161:/opt/XMClib/XMC_Peripheral_Library_v2.1.16/ThirdPartyLibraries/USBlib/USB/Class/Device/CDCClassDevice.c **** 	if ((USB_DeviceState != DEVICE_STATE_Configured) || !(CDCInterfaceInfo->State.LineEncoding.BaudRat
 232              		.loc 1 161 1 is_stmt 0 view .LVU59
 233 0012 10B5     		push	{r4, lr}
 234              	.LCFI4:
 235              		.cfi_def_cfa_offset 8
 236              		.cfi_offset 4, -8
 237              		.cfi_offset 14, -4
 238              		.loc 1 165 2 view .LVU60
 239 0014 8178     		ldrb	r1, [r0, #2]	@ zero_extendqisi2
 240              	.LVL19:
 241              	.LBB65:
 242              	.LBI65:
 129:/opt/XMClib/XMC_Peripheral_Library_v2.1.16/ThirdPartyLibraries/USBlib/USB/Class/Device/../../Core/XMC4000/../XMC4000/Endpoint_XMC4000.h **** 	{
 243              		.loc 2 129 21 is_stmt 1 view .LVU61
 244              	.LBB66:
 131:/opt/XMClib/XMC_Peripheral_Library_v2.1.16/ThirdPartyLibraries/USBlib/USB/Class/Device/../../Core/XMC4000/../XMC4000/Endpoint_XMC4000.h **** 		device.CurrentDirection = (Address & ENDPOINT_DIR_MASK);
 245              		.loc 2 131 3 view .LVU62
 131:/opt/XMClib/XMC_Peripheral_Library_v2.1.16/ThirdPartyLibraries/USBlib/USB/Class/Device/../../Core/XMC4000/../XMC4000/Endpoint_XMC4000.h **** 		device.CurrentDirection = (Address & ENDPOINT_DIR_MASK);
 246              		.loc 2 131 26 is_stmt 0 view .LVU63
 247 0016 0A4C     		ldr	r4, .L29+4
 131:/opt/XMClib/XMC_Peripheral_Library_v2.1.16/ThirdPartyLibraries/USBlib/USB/Class/Device/../../Core/XMC4000/../XMC4000/Endpoint_XMC4000.h **** 		device.CurrentDirection = (Address & ENDPOINT_DIR_MASK);
 248              		.loc 2 131 36 view .LVU64
 249 0018 01F00F0E 		and	lr, r1, #15
 250              		.loc 2 132 38 view .LVU65
 251 001c 21F07F0C 		bic	ip, r1, #127
 131:/opt/XMClib/XMC_Peripheral_Library_v2.1.16/ThirdPartyLibraries/USBlib/USB/Class/Device/../../Core/XMC4000/../XMC4000/Endpoint_XMC4000.h **** 		device.CurrentDirection = (Address & ENDPOINT_DIR_MASK);
 252              		.loc 2 131 26 view .LVU66
 253 0020 84F83CE1 		strb	lr, [r4, #316]
 254              		.loc 2 132 3 is_stmt 1 view .LVU67
 255              	.LBE66:
 256              	.LBE65:
 166:/opt/XMClib/XMC_Peripheral_Library_v2.1.16/ThirdPartyLibraries/USBlib/USB/Class/Device/CDCClassDevice.c **** 	return Endpoint_Write_Stream_LE(Buffer, Length, NULL);
 257              		.loc 1 166 9 is_stmt 0 view .LVU68
 258 0024 1146     		mov	r1, r2
 259              	.LVL20:
 260              	.LBB68:
 261              	.LBB67:
 262              		.loc 2 132 27 view .LVU69
 263 0026 84F83DC1 		strb	ip, [r4, #317]
 264              		.loc 2 132 27 view .LVU70
 265              	.LBE67:
 266              	.LBE68:
 267              		.loc 1 166 2 is_stmt 1 view .LVU71
 268              		.loc 1 166 9 is_stmt 0 view .LVU72
 269 002a 1846     		mov	r0, r3
 270              	.LVL21:
 167:/opt/XMClib/XMC_Peripheral_Library_v2.1.16/ThirdPartyLibraries/USBlib/USB/Class/Device/CDCClassDevice.c **** }
 271              		.loc 1 167 1 view .LVU73
 272 002c BDE81040 		pop	{r4, lr}
 273              	.LCFI5:
 274              		.cfi_restore 14
 275              		.cfi_restore 4
 276              		.cfi_def_cfa_offset 0
 166:/opt/XMClib/XMC_Peripheral_Library_v2.1.16/ThirdPartyLibraries/USBlib/USB/Class/Device/CDCClassDevice.c **** 	return Endpoint_Write_Stream_LE(Buffer, Length, NULL);
 277              		.loc 1 166 9 view .LVU74
 278 0030 0022     		movs	r2, #0
 279              	.LVL22:
 166:/opt/XMClib/XMC_Peripheral_Library_v2.1.16/ThirdPartyLibraries/USBlib/USB/Class/Device/CDCClassDevice.c **** 	return Endpoint_Write_Stream_LE(Buffer, Length, NULL);
 280              		.loc 1 166 9 view .LVU75
 281 0032 FFF7FEBF 		b	Endpoint_Write_Stream_LE
 282              	.LVL23:
 283              	.L22:
 284              		.loc 1 167 1 view .LVU76
 285 0036 0220     		movs	r0, #2
 286              	.LVL24:
 287              		.loc 1 167 1 view .LVU77
 288 0038 7047     		bx	lr
 289              	.L30:
 290 003a 00BF     		.align	2
 291              	.L29:
 292 003c 00000000 		.word	USB_DeviceState
 293 0040 00000000 		.word	device
 294              		.cfi_endproc
 295              	.LFE197:
 297              		.section	.text.CDC_Device_SendByte,"ax",%progbits
 298              		.align	1
 299              		.p2align 2,,3
 300              		.global	CDC_Device_SendByte
 301              		.syntax unified
 302              		.thumb
 303              		.thumb_func
 305              	CDC_Device_SendByte:
 306              	.LVL25:
 307              	.LFB198:
 168:/opt/XMClib/XMC_Peripheral_Library_v2.1.16/ThirdPartyLibraries/USBlib/USB/Class/Device/CDCClassDevice.c **** 
 169:/opt/XMClib/XMC_Peripheral_Library_v2.1.16/ThirdPartyLibraries/USBlib/USB/Class/Device/CDCClassDevice.c **** uint8_t CDC_Device_SendByte(USB_ClassInfo_CDC_Device_t* const CDCInterfaceInfo,
 170:/opt/XMClib/XMC_Peripheral_Library_v2.1.16/ThirdPartyLibraries/USBlib/USB/Class/Device/CDCClassDevice.c ****                             const uint8_t Data)
 171:/opt/XMClib/XMC_Peripheral_Library_v2.1.16/ThirdPartyLibraries/USBlib/USB/Class/Device/CDCClassDevice.c **** {
 308              		.loc 1 171 1 is_stmt 1 view -0
 309              		.cfi_startproc
 310              		@ args = 0, pretend = 0, frame = 0
 311              		@ frame_needed = 0, uses_anonymous_args = 0
 172:/opt/XMClib/XMC_Peripheral_Library_v2.1.16/ThirdPartyLibraries/USBlib/USB/Class/Device/CDCClassDevice.c **** 	if ((USB_DeviceState != DEVICE_STATE_Configured) || !(CDCInterfaceInfo->State.LineEncoding.BaudRat
 312              		.loc 1 172 2 view .LVU79
 313              		.loc 1 172 23 is_stmt 0 view .LVU80
 314 0000 104B     		ldr	r3, .L44
 315 0002 1B78     		ldrb	r3, [r3]	@ zero_extendqisi2
 316              		.loc 1 172 5 view .LVU81
 317 0004 042B     		cmp	r3, #4
 318 0006 1AD1     		bne	.L36
 319              		.loc 1 172 92 discriminator 1 view .LVU82
 320 0008 8369     		ldr	r3, [r0, #24]	@ unaligned
 321              		.loc 1 172 51 discriminator 1 view .LVU83
 322 000a C3B1     		cbz	r3, .L36
 173:/opt/XMClib/XMC_Peripheral_Library_v2.1.16/ThirdPartyLibraries/USBlib/USB/Class/Device/CDCClassDevice.c **** 	  return ENDPOINT_RWSTREAM_DeviceDisconnected;
 174:/opt/XMClib/XMC_Peripheral_Library_v2.1.16/ThirdPartyLibraries/USBlib/USB/Class/Device/CDCClassDevice.c **** 
 175:/opt/XMClib/XMC_Peripheral_Library_v2.1.16/ThirdPartyLibraries/USBlib/USB/Class/Device/CDCClassDevice.c **** 	Endpoint_SelectEndpoint(CDCInterfaceInfo->Config.DataINEndpoint.Address);
 323              		.loc 1 175 2 is_stmt 1 view .LVU84
 171:/opt/XMClib/XMC_Peripheral_Library_v2.1.16/ThirdPartyLibraries/USBlib/USB/Class/Device/CDCClassDevice.c **** 	if ((USB_DeviceState != DEVICE_STATE_Configured) || !(CDCInterfaceInfo->State.LineEncoding.BaudRat
 324              		.loc 1 171 1 is_stmt 0 view .LVU85
 325 000c 10B5     		push	{r4, lr}
 326              	.LCFI6:
 327              		.cfi_def_cfa_offset 8
 328              		.cfi_offset 4, -8
 329              		.cfi_offset 14, -4
 330              		.loc 1 175 2 view .LVU86
 331 000e 8378     		ldrb	r3, [r0, #2]	@ zero_extendqisi2
 332              	.LVL26:
 333              	.LBB69:
 334              	.LBI69:
 129:/opt/XMClib/XMC_Peripheral_Library_v2.1.16/ThirdPartyLibraries/USBlib/USB/Class/Device/../../Core/XMC4000/../XMC4000/Endpoint_XMC4000.h **** 	{
 335              		.loc 2 129 21 is_stmt 1 view .LVU87
 336              	.LBB70:
 131:/opt/XMClib/XMC_Peripheral_Library_v2.1.16/ThirdPartyLibraries/USBlib/USB/Class/Device/../../Core/XMC4000/../XMC4000/Endpoint_XMC4000.h **** 		device.CurrentDirection = (Address & ENDPOINT_DIR_MASK);
 337              		.loc 2 131 3 view .LVU88
 131:/opt/XMClib/XMC_Peripheral_Library_v2.1.16/ThirdPartyLibraries/USBlib/USB/Class/Device/../../Core/XMC4000/../XMC4000/Endpoint_XMC4000.h **** 		device.CurrentDirection = (Address & ENDPOINT_DIR_MASK);
 338              		.loc 2 131 26 is_stmt 0 view .LVU89
 339 0010 0D4A     		ldr	r2, .L44+4
 340 0012 0C46     		mov	r4, r1
 131:/opt/XMClib/XMC_Peripheral_Library_v2.1.16/ThirdPartyLibraries/USBlib/USB/Class/Device/../../Core/XMC4000/../XMC4000/Endpoint_XMC4000.h **** 		device.CurrentDirection = (Address & ENDPOINT_DIR_MASK);
 341              		.loc 2 131 36 view .LVU90
 342 0014 03F00F01 		and	r1, r3, #15
 343              	.LVL27:
 344              		.loc 2 132 38 view .LVU91
 345 0018 23F07F03 		bic	r3, r3, #127
 346              	.LVL28:
 131:/opt/XMClib/XMC_Peripheral_Library_v2.1.16/ThirdPartyLibraries/USBlib/USB/Class/Device/../../Core/XMC4000/../XMC4000/Endpoint_XMC4000.h **** 		device.CurrentDirection = (Address & ENDPOINT_DIR_MASK);
 347              		.loc 2 131 26 view .LVU92
 348 001c 82F83C11 		strb	r1, [r2, #316]
 349              	.LVL29:
 350              		.loc 2 132 3 is_stmt 1 view .LVU93
 351              		.loc 2 132 27 is_stmt 0 view .LVU94
 352 0020 82F83D31 		strb	r3, [r2, #317]
 353              		.loc 2 132 27 view .LVU95
 354              	.LBE70:
 355              	.LBE69:
 176:/opt/XMClib/XMC_Peripheral_Library_v2.1.16/ThirdPartyLibraries/USBlib/USB/Class/Device/CDCClassDevice.c **** 
 177:/opt/XMClib/XMC_Peripheral_Library_v2.1.16/ThirdPartyLibraries/USBlib/USB/Class/Device/CDCClassDevice.c **** 	if (!(Endpoint_IsReadWriteAllowed()))
 356              		.loc 1 177 2 is_stmt 1 view .LVU96
 357              		.loc 1 177 8 is_stmt 0 view .LVU97
 358 0024 FFF7FEFF 		bl	Endpoint_IsReadWriteAllowed
 359              	.LVL30:
 360              		.loc 1 177 5 view .LVU98
 361 0028 20B9     		cbnz	r0, .L34
 362              	.LBB71:
 178:/opt/XMClib/XMC_Peripheral_Library_v2.1.16/ThirdPartyLibraries/USBlib/USB/Class/Device/CDCClassDevice.c **** 	{
 179:/opt/XMClib/XMC_Peripheral_Library_v2.1.16/ThirdPartyLibraries/USBlib/USB/Class/Device/CDCClassDevice.c **** 		Endpoint_ClearIN();
 363              		.loc 1 179 3 is_stmt 1 view .LVU99
 364 002a FFF7FEFF 		bl	Endpoint_ClearIN
 365              	.LVL31:
 180:/opt/XMClib/XMC_Peripheral_Library_v2.1.16/ThirdPartyLibraries/USBlib/USB/Class/Device/CDCClassDevice.c **** 
 181:/opt/XMClib/XMC_Peripheral_Library_v2.1.16/ThirdPartyLibraries/USBlib/USB/Class/Device/CDCClassDevice.c **** 		uint8_t ErrorCode;
 366              		.loc 1 181 3 view .LVU100
 182:/opt/XMClib/XMC_Peripheral_Library_v2.1.16/ThirdPartyLibraries/USBlib/USB/Class/Device/CDCClassDevice.c **** 
 183:/opt/XMClib/XMC_Peripheral_Library_v2.1.16/ThirdPartyLibraries/USBlib/USB/Class/Device/CDCClassDevice.c **** 		if ((ErrorCode = Endpoint_WaitUntilReady()) != ENDPOINT_READYWAIT_NoError)
 367              		.loc 1 183 3 view .LVU101
 368              		.loc 1 183 20 is_stmt 0 view .LVU102
 369 002e FFF7FEFF 		bl	Endpoint_WaitUntilReady
 370              	.LVL32:
 371              		.loc 1 183 6 view .LVU103
 372 0032 18B9     		cbnz	r0, .L32
 373              	.LVL33:
 374              	.L34:
 375              		.loc 1 183 6 view .LVU104
 376              	.LBE71:
 184:/opt/XMClib/XMC_Peripheral_Library_v2.1.16/ThirdPartyLibraries/USBlib/USB/Class/Device/CDCClassDevice.c **** 		  return ErrorCode;
 185:/opt/XMClib/XMC_Peripheral_Library_v2.1.16/ThirdPartyLibraries/USBlib/USB/Class/Device/CDCClassDevice.c **** 	}
 186:/opt/XMClib/XMC_Peripheral_Library_v2.1.16/ThirdPartyLibraries/USBlib/USB/Class/Device/CDCClassDevice.c **** 
 187:/opt/XMClib/XMC_Peripheral_Library_v2.1.16/ThirdPartyLibraries/USBlib/USB/Class/Device/CDCClassDevice.c **** 	Endpoint_Write_8(Data);
 377              		.loc 1 187 2 is_stmt 1 view .LVU105
 378 0034 2046     		mov	r0, r4
 379 0036 FFF7FEFF 		bl	Endpoint_Write_8
 380              	.LVL34:
 188:/opt/XMClib/XMC_Peripheral_Library_v2.1.16/ThirdPartyLibraries/USBlib/USB/Class/Device/CDCClassDevice.c **** 	return ENDPOINT_READYWAIT_NoError;
 381              		.loc 1 188 2 view .LVU106
 382              		.loc 1 188 9 is_stmt 0 view .LVU107
 383 003a 0020     		movs	r0, #0
 384              	.L32:
 189:/opt/XMClib/XMC_Peripheral_Library_v2.1.16/ThirdPartyLibraries/USBlib/USB/Class/Device/CDCClassDevice.c **** }
 385              		.loc 1 189 1 view .LVU108
 386 003c 10BD     		pop	{r4, pc}
 387              	.LVL35:
 388              	.L36:
 389              	.LCFI7:
 390              		.cfi_def_cfa_offset 0
 391              		.cfi_restore 4
 392              		.cfi_restore 14
 173:/opt/XMClib/XMC_Peripheral_Library_v2.1.16/ThirdPartyLibraries/USBlib/USB/Class/Device/CDCClassDevice.c **** 
 393              		.loc 1 173 11 view .LVU109
 394 003e 0220     		movs	r0, #2
 395              	.LVL36:
 396              		.loc 1 189 1 view .LVU110
 397 0040 7047     		bx	lr
 398              	.L45:
 399 0042 00BF     		.align	2
 400              	.L44:
 401 0044 00000000 		.word	USB_DeviceState
 402 0048 00000000 		.word	device
 403              		.cfi_endproc
 404              	.LFE198:
 406              		.section	.text.CDC_Device_Flush,"ax",%progbits
 407              		.align	1
 408              		.p2align 2,,3
 409              		.global	CDC_Device_Flush
 410              		.syntax unified
 411              		.thumb
 412              		.thumb_func
 414              	CDC_Device_Flush:
 415              	.LVL37:
 416              	.LFB199:
 190:/opt/XMClib/XMC_Peripheral_Library_v2.1.16/ThirdPartyLibraries/USBlib/USB/Class/Device/CDCClassDevice.c **** 
 191:/opt/XMClib/XMC_Peripheral_Library_v2.1.16/ThirdPartyLibraries/USBlib/USB/Class/Device/CDCClassDevice.c **** uint8_t CDC_Device_Flush(USB_ClassInfo_CDC_Device_t* const CDCInterfaceInfo)
 192:/opt/XMClib/XMC_Peripheral_Library_v2.1.16/ThirdPartyLibraries/USBlib/USB/Class/Device/CDCClassDevice.c **** {
 417              		.loc 1 192 1 is_stmt 1 view -0
 418              		.cfi_startproc
 419              		@ args = 0, pretend = 0, frame = 8
 420              		@ frame_needed = 0, uses_anonymous_args = 0
 193:/opt/XMClib/XMC_Peripheral_Library_v2.1.16/ThirdPartyLibraries/USBlib/USB/Class/Device/CDCClassDevice.c **** 	if ((USB_DeviceState != DEVICE_STATE_Configured) || !(CDCInterfaceInfo->State.LineEncoding.BaudRat
 421              		.loc 1 193 2 view .LVU112
 422              		.loc 1 193 23 is_stmt 0 view .LVU113
 423 0000 184B     		ldr	r3, .L59
 424 0002 1B78     		ldrb	r3, [r3]	@ zero_extendqisi2
 425              		.loc 1 193 5 view .LVU114
 426 0004 042B     		cmp	r3, #4
 427 0006 22D1     		bne	.L53
 428              		.loc 1 193 92 discriminator 1 view .LVU115
 429 0008 8369     		ldr	r3, [r0, #24]	@ unaligned
 430              		.loc 1 193 51 discriminator 1 view .LVU116
 431 000a 03B3     		cbz	r3, .L53
 194:/opt/XMClib/XMC_Peripheral_Library_v2.1.16/ThirdPartyLibraries/USBlib/USB/Class/Device/CDCClassDevice.c **** 	  return ENDPOINT_RWSTREAM_DeviceDisconnected;
 195:/opt/XMClib/XMC_Peripheral_Library_v2.1.16/ThirdPartyLibraries/USBlib/USB/Class/Device/CDCClassDevice.c **** 
 196:/opt/XMClib/XMC_Peripheral_Library_v2.1.16/ThirdPartyLibraries/USBlib/USB/Class/Device/CDCClassDevice.c **** 	uint8_t ErrorCode;
 432              		.loc 1 196 2 is_stmt 1 view .LVU117
 197:/opt/XMClib/XMC_Peripheral_Library_v2.1.16/ThirdPartyLibraries/USBlib/USB/Class/Device/CDCClassDevice.c **** 
 198:/opt/XMClib/XMC_Peripheral_Library_v2.1.16/ThirdPartyLibraries/USBlib/USB/Class/Device/CDCClassDevice.c **** 	Endpoint_SelectEndpoint(CDCInterfaceInfo->Config.DataINEndpoint.Address);
 433              		.loc 1 198 2 view .LVU118
 434 000c 8278     		ldrb	r2, [r0, #2]	@ zero_extendqisi2
 435              	.LVL38:
 436              	.LBB82:
 437              	.LBI82:
 129:/opt/XMClib/XMC_Peripheral_Library_v2.1.16/ThirdPartyLibraries/USBlib/USB/Class/Device/../../Core/XMC4000/../XMC4000/Endpoint_XMC4000.h **** 	{
 438              		.loc 2 129 21 view .LVU119
 439              	.LBB83:
 131:/opt/XMClib/XMC_Peripheral_Library_v2.1.16/ThirdPartyLibraries/USBlib/USB/Class/Device/../../Core/XMC4000/../XMC4000/Endpoint_XMC4000.h **** 		device.CurrentDirection = (Address & ENDPOINT_DIR_MASK);
 440              		.loc 2 131 3 view .LVU120
 131:/opt/XMClib/XMC_Peripheral_Library_v2.1.16/ThirdPartyLibraries/USBlib/USB/Class/Device/../../Core/XMC4000/../XMC4000/Endpoint_XMC4000.h **** 		device.CurrentDirection = (Address & ENDPOINT_DIR_MASK);
 441              		.loc 2 131 26 is_stmt 0 view .LVU121
 442 000e 1649     		ldr	r1, .L59+4
 131:/opt/XMClib/XMC_Peripheral_Library_v2.1.16/ThirdPartyLibraries/USBlib/USB/Class/Device/../../Core/XMC4000/../XMC4000/Endpoint_XMC4000.h **** 		device.CurrentDirection = (Address & ENDPOINT_DIR_MASK);
 443              		.loc 2 131 36 view .LVU122
 444 0010 02F00F00 		and	r0, r2, #15
 445              	.LVL39:
 131:/opt/XMClib/XMC_Peripheral_Library_v2.1.16/ThirdPartyLibraries/USBlib/USB/Class/Device/../../Core/XMC4000/../XMC4000/Endpoint_XMC4000.h **** 		device.CurrentDirection = (Address & ENDPOINT_DIR_MASK);
 446              		.loc 2 131 36 view .LVU123
 447              	.LBE83:
 448              	.LBE82:
 449              	.LBB85:
 450              	.LBB86:
 133:/opt/XMClib/XMC_Peripheral_Library_v2.1.16/ThirdPartyLibraries/USBlib/USB/Class/Device/../../Core/XMC4000/../XMC4000/Endpoint_XMC4000.h **** 	}
 134:/opt/XMClib/XMC_Peripheral_Library_v2.1.16/ThirdPartyLibraries/USBlib/USB/Class/Device/../../Core/XMC4000/../XMC4000/Endpoint_XMC4000.h **** 
 135:/opt/XMClib/XMC_Peripheral_Library_v2.1.16/ThirdPartyLibraries/USBlib/USB/Class/Device/../../Core/XMC4000/../XMC4000/Endpoint_XMC4000.h **** 	/** Determines if the current CONTROL type endpoint has received a SETUP packet.
 136:/opt/XMClib/XMC_Peripheral_Library_v2.1.16/ThirdPartyLibraries/USBlib/USB/Class/Device/../../Core/XMC4000/../XMC4000/Endpoint_XMC4000.h **** 	 *
 137:/opt/XMClib/XMC_Peripheral_Library_v2.1.16/ThirdPartyLibraries/USBlib/USB/Class/Device/../../Core/XMC4000/../XMC4000/Endpoint_XMC4000.h **** 	 *  \ingroup Group_EndpointPacketManagement
 138:/opt/XMClib/XMC_Peripheral_Library_v2.1.16/ThirdPartyLibraries/USBlib/USB/Class/Device/../../Core/XMC4000/../XMC4000/Endpoint_XMC4000.h **** 	 *
 139:/opt/XMClib/XMC_Peripheral_Library_v2.1.16/ThirdPartyLibraries/USBlib/USB/Class/Device/../../Core/XMC4000/../XMC4000/Endpoint_XMC4000.h **** 	 *  \return Boolean \c true if the selected endpoint has received a SETUP packet, \c false otherwi
 140:/opt/XMClib/XMC_Peripheral_Library_v2.1.16/ThirdPartyLibraries/USBlib/USB/Class/Device/../../Core/XMC4000/../XMC4000/Endpoint_XMC4000.h **** 	 */
 141:/opt/XMClib/XMC_Peripheral_Library_v2.1.16/ThirdPartyLibraries/USBlib/USB/Class/Device/../../Core/XMC4000/../XMC4000/Endpoint_XMC4000.h **** 	static inline bool Endpoint_IsSETUPReceived(void) ATTR_WARN_UNUSED_RESULT ATTR_ALWAYS_INLINE;
 142:/opt/XMClib/XMC_Peripheral_Library_v2.1.16/ThirdPartyLibraries/USBlib/USB/Class/Device/../../Core/XMC4000/../XMC4000/Endpoint_XMC4000.h **** 	static inline bool Endpoint_IsSETUPReceived(void)
 143:/opt/XMClib/XMC_Peripheral_Library_v2.1.16/ThirdPartyLibraries/USBlib/USB/Class/Device/../../Core/XMC4000/../XMC4000/Endpoint_XMC4000.h **** 	{
 144:/opt/XMClib/XMC_Peripheral_Library_v2.1.16/ThirdPartyLibraries/USBlib/USB/Class/Device/../../Core/XMC4000/../XMC4000/Endpoint_XMC4000.h **** 		return device.IsSetupRecieved;
 145:/opt/XMClib/XMC_Peripheral_Library_v2.1.16/ThirdPartyLibraries/USBlib/USB/Class/Device/../../Core/XMC4000/../XMC4000/Endpoint_XMC4000.h **** 	}
 146:/opt/XMClib/XMC_Peripheral_Library_v2.1.16/ThirdPartyLibraries/USBlib/USB/Class/Device/../../Core/XMC4000/../XMC4000/Endpoint_XMC4000.h **** 
 147:/opt/XMClib/XMC_Peripheral_Library_v2.1.16/ThirdPartyLibraries/USBlib/USB/Class/Device/../../Core/XMC4000/../XMC4000/Endpoint_XMC4000.h **** 
 148:/opt/XMClib/XMC_Peripheral_Library_v2.1.16/ThirdPartyLibraries/USBlib/USB/Class/Device/../../Core/XMC4000/../XMC4000/Endpoint_XMC4000.h **** 	/** Clears a received SETUP packet on the currently selected CONTROL type endpoint, freeing up the
 149:/opt/XMClib/XMC_Peripheral_Library_v2.1.16/ThirdPartyLibraries/USBlib/USB/Class/Device/../../Core/XMC4000/../XMC4000/Endpoint_XMC4000.h **** 	 *  endpoint for the next packet.
 150:/opt/XMClib/XMC_Peripheral_Library_v2.1.16/ThirdPartyLibraries/USBlib/USB/Class/Device/../../Core/XMC4000/../XMC4000/Endpoint_XMC4000.h **** 	 *
 151:/opt/XMClib/XMC_Peripheral_Library_v2.1.16/ThirdPartyLibraries/USBlib/USB/Class/Device/../../Core/XMC4000/../XMC4000/Endpoint_XMC4000.h **** 	 *  \ingroup Group_EndpointPacketManagement
 152:/opt/XMClib/XMC_Peripheral_Library_v2.1.16/ThirdPartyLibraries/USBlib/USB/Class/Device/../../Core/XMC4000/../XMC4000/Endpoint_XMC4000.h **** 	 *
 153:/opt/XMClib/XMC_Peripheral_Library_v2.1.16/ThirdPartyLibraries/USBlib/USB/Class/Device/../../Core/XMC4000/../XMC4000/Endpoint_XMC4000.h **** 	 *  \note This is not applicable for non CONTROL type endpoints.
 154:/opt/XMClib/XMC_Peripheral_Library_v2.1.16/ThirdPartyLibraries/USBlib/USB/Class/Device/../../Core/XMC4000/../XMC4000/Endpoint_XMC4000.h **** 	 */
 155:/opt/XMClib/XMC_Peripheral_Library_v2.1.16/ThirdPartyLibraries/USBlib/USB/Class/Device/../../Core/XMC4000/../XMC4000/Endpoint_XMC4000.h **** 	static inline void Endpoint_ClearSETUP(void) ATTR_ALWAYS_INLINE;
 156:/opt/XMClib/XMC_Peripheral_Library_v2.1.16/ThirdPartyLibraries/USBlib/USB/Class/Device/../../Core/XMC4000/../XMC4000/Endpoint_XMC4000.h **** 	static inline void Endpoint_ClearSETUP(void)
 157:/opt/XMClib/XMC_Peripheral_Library_v2.1.16/ThirdPartyLibraries/USBlib/USB/Class/Device/../../Core/XMC4000/../XMC4000/Endpoint_XMC4000.h **** 	{
 158:/opt/XMClib/XMC_Peripheral_Library_v2.1.16/ThirdPartyLibraries/USBlib/USB/Class/Device/../../Core/XMC4000/../XMC4000/Endpoint_XMC4000.h **** 		device.IsSetupRecieved = 0;
 159:/opt/XMClib/XMC_Peripheral_Library_v2.1.16/ThirdPartyLibraries/USBlib/USB/Class/Device/../../Core/XMC4000/../XMC4000/Endpoint_XMC4000.h **** 	}
 160:/opt/XMClib/XMC_Peripheral_Library_v2.1.16/ThirdPartyLibraries/USBlib/USB/Class/Device/../../Core/XMC4000/../XMC4000/Endpoint_XMC4000.h **** 
 161:/opt/XMClib/XMC_Peripheral_Library_v2.1.16/ThirdPartyLibraries/USBlib/USB/Class/Device/../../Core/XMC4000/../XMC4000/Endpoint_XMC4000.h **** 	/** Nothing done in this function
 162:/opt/XMClib/XMC_Peripheral_Library_v2.1.16/ThirdPartyLibraries/USBlib/USB/Class/Device/../../Core/XMC4000/../XMC4000/Endpoint_XMC4000.h **** 	 *
 163:/opt/XMClib/XMC_Peripheral_Library_v2.1.16/ThirdPartyLibraries/USBlib/USB/Class/Device/../../Core/XMC4000/../XMC4000/Endpoint_XMC4000.h **** 	 */
 164:/opt/XMClib/XMC_Peripheral_Library_v2.1.16/ThirdPartyLibraries/USBlib/USB/Class/Device/../../Core/XMC4000/../XMC4000/Endpoint_XMC4000.h **** 	static inline void Endpoint_ClearStatusStage(void) ATTR_ALWAYS_INLINE;
 165:/opt/XMClib/XMC_Peripheral_Library_v2.1.16/ThirdPartyLibraries/USBlib/USB/Class/Device/../../Core/XMC4000/../XMC4000/Endpoint_XMC4000.h **** 	static inline void Endpoint_ClearStatusStage(void)
 166:/opt/XMClib/XMC_Peripheral_Library_v2.1.16/ThirdPartyLibraries/USBlib/USB/Class/Device/../../Core/XMC4000/../XMC4000/Endpoint_XMC4000.h **** 	{
 167:/opt/XMClib/XMC_Peripheral_Library_v2.1.16/ThirdPartyLibraries/USBlib/USB/Class/Device/../../Core/XMC4000/../XMC4000/Endpoint_XMC4000.h **** 
 168:/opt/XMClib/XMC_Peripheral_Library_v2.1.16/ThirdPartyLibraries/USBlib/USB/Class/Device/../../Core/XMC4000/../XMC4000/Endpoint_XMC4000.h **** 	}
 169:/opt/XMClib/XMC_Peripheral_Library_v2.1.16/ThirdPartyLibraries/USBlib/USB/Class/Device/../../Core/XMC4000/../XMC4000/Endpoint_XMC4000.h **** 
 170:/opt/XMClib/XMC_Peripheral_Library_v2.1.16/ThirdPartyLibraries/USBlib/USB/Class/Device/../../Core/XMC4000/../XMC4000/Endpoint_XMC4000.h **** 	/** Determines if the selected IN endpoint is ready for a new packet to be sent to the host.
 171:/opt/XMClib/XMC_Peripheral_Library_v2.1.16/ThirdPartyLibraries/USBlib/USB/Class/Device/../../Core/XMC4000/../XMC4000/Endpoint_XMC4000.h **** 	 *
 172:/opt/XMClib/XMC_Peripheral_Library_v2.1.16/ThirdPartyLibraries/USBlib/USB/Class/Device/../../Core/XMC4000/../XMC4000/Endpoint_XMC4000.h **** 	 *  \ingroup Group_EndpointPacketManagement
 173:/opt/XMClib/XMC_Peripheral_Library_v2.1.16/ThirdPartyLibraries/USBlib/USB/Class/Device/../../Core/XMC4000/../XMC4000/Endpoint_XMC4000.h **** 	 *
 174:/opt/XMClib/XMC_Peripheral_Library_v2.1.16/ThirdPartyLibraries/USBlib/USB/Class/Device/../../Core/XMC4000/../XMC4000/Endpoint_XMC4000.h **** 	 *  \return Boolean \c true if the current endpoint is ready for an IN packet, \c false otherwise.
 175:/opt/XMClib/XMC_Peripheral_Library_v2.1.16/ThirdPartyLibraries/USBlib/USB/Class/Device/../../Core/XMC4000/../XMC4000/Endpoint_XMC4000.h **** 	 */
 176:/opt/XMClib/XMC_Peripheral_Library_v2.1.16/ThirdPartyLibraries/USBlib/USB/Class/Device/../../Core/XMC4000/../XMC4000/Endpoint_XMC4000.h **** 	static inline bool Endpoint_IsINReady(void) ATTR_WARN_UNUSED_RESULT ATTR_ALWAYS_INLINE;
 177:/opt/XMClib/XMC_Peripheral_Library_v2.1.16/ThirdPartyLibraries/USBlib/USB/Class/Device/../../Core/XMC4000/../XMC4000/Endpoint_XMC4000.h **** 	static inline bool Endpoint_IsINReady(void)
 178:/opt/XMClib/XMC_Peripheral_Library_v2.1.16/ThirdPartyLibraries/USBlib/USB/Class/Device/../../Core/XMC4000/../XMC4000/Endpoint_XMC4000.h **** 	{
 179:/opt/XMClib/XMC_Peripheral_Library_v2.1.16/ThirdPartyLibraries/USBlib/USB/Class/Device/../../Core/XMC4000/../XMC4000/Endpoint_XMC4000.h **** 		USBD_Endpoint_t *ep = &device.Endpoints[device.CurrentEndpoint];
 180:/opt/XMClib/XMC_Peripheral_Library_v2.1.16/ThirdPartyLibraries/USBlib/USB/Class/Device/../../Core/XMC4000/../XMC4000/Endpoint_XMC4000.h **** 		return ep->InInUse == 0 && ep->IsEnabled;
 181:/opt/XMClib/XMC_Peripheral_Library_v2.1.16/ThirdPartyLibraries/USBlib/USB/Class/Device/../../Core/XMC4000/../XMC4000/Endpoint_XMC4000.h **** 	}
 182:/opt/XMClib/XMC_Peripheral_Library_v2.1.16/ThirdPartyLibraries/USBlib/USB/Class/Device/../../Core/XMC4000/../XMC4000/Endpoint_XMC4000.h **** 
 183:/opt/XMClib/XMC_Peripheral_Library_v2.1.16/ThirdPartyLibraries/USBlib/USB/Class/Device/../../Core/XMC4000/../XMC4000/Endpoint_XMC4000.h **** 	/** Determines if the selected OUT endpoint has received new packet from the host.
 184:/opt/XMClib/XMC_Peripheral_Library_v2.1.16/ThirdPartyLibraries/USBlib/USB/Class/Device/../../Core/XMC4000/../XMC4000/Endpoint_XMC4000.h **** 	 *
 185:/opt/XMClib/XMC_Peripheral_Library_v2.1.16/ThirdPartyLibraries/USBlib/USB/Class/Device/../../Core/XMC4000/../XMC4000/Endpoint_XMC4000.h **** 	 *  \ingroup Group_EndpointPacketManagement
 186:/opt/XMClib/XMC_Peripheral_Library_v2.1.16/ThirdPartyLibraries/USBlib/USB/Class/Device/../../Core/XMC4000/../XMC4000/Endpoint_XMC4000.h **** 	 *
 187:/opt/XMClib/XMC_Peripheral_Library_v2.1.16/ThirdPartyLibraries/USBlib/USB/Class/Device/../../Core/XMC4000/../XMC4000/Endpoint_XMC4000.h **** 	 *  \return Boolean \c true if current endpoint is has received an OUT packet, \c false otherwise.
 188:/opt/XMClib/XMC_Peripheral_Library_v2.1.16/ThirdPartyLibraries/USBlib/USB/Class/Device/../../Core/XMC4000/../XMC4000/Endpoint_XMC4000.h **** 	 */
 189:/opt/XMClib/XMC_Peripheral_Library_v2.1.16/ThirdPartyLibraries/USBlib/USB/Class/Device/../../Core/XMC4000/../XMC4000/Endpoint_XMC4000.h **** 	static inline bool Endpoint_IsOUTReceived(void) ATTR_WARN_UNUSED_RESULT ATTR_ALWAYS_INLINE;
 190:/opt/XMClib/XMC_Peripheral_Library_v2.1.16/ThirdPartyLibraries/USBlib/USB/Class/Device/../../Core/XMC4000/../XMC4000/Endpoint_XMC4000.h **** 	static inline bool Endpoint_IsOUTReceived(void)
 191:/opt/XMClib/XMC_Peripheral_Library_v2.1.16/ThirdPartyLibraries/USBlib/USB/Class/Device/../../Core/XMC4000/../XMC4000/Endpoint_XMC4000.h **** 	{
 192:/opt/XMClib/XMC_Peripheral_Library_v2.1.16/ThirdPartyLibraries/USBlib/USB/Class/Device/../../Core/XMC4000/../XMC4000/Endpoint_XMC4000.h **** 		USBD_Endpoint_t *ep = &device.Endpoints[device.CurrentEndpoint];
 193:/opt/XMClib/XMC_Peripheral_Library_v2.1.16/ThirdPartyLibraries/USBlib/USB/Class/Device/../../Core/XMC4000/../XMC4000/Endpoint_XMC4000.h **** 		return ep->IsOutRecieved;
 194:/opt/XMClib/XMC_Peripheral_Library_v2.1.16/ThirdPartyLibraries/USBlib/USB/Class/Device/../../Core/XMC4000/../XMC4000/Endpoint_XMC4000.h **** 	}
 195:/opt/XMClib/XMC_Peripheral_Library_v2.1.16/ThirdPartyLibraries/USBlib/USB/Class/Device/../../Core/XMC4000/../XMC4000/Endpoint_XMC4000.h **** 
 196:/opt/XMClib/XMC_Peripheral_Library_v2.1.16/ThirdPartyLibraries/USBlib/USB/Class/Device/../../Core/XMC4000/../XMC4000/Endpoint_XMC4000.h **** 	/** Determines the currently selected endpoint's direction.
 197:/opt/XMClib/XMC_Peripheral_Library_v2.1.16/ThirdPartyLibraries/USBlib/USB/Class/Device/../../Core/XMC4000/../XMC4000/Endpoint_XMC4000.h **** 	 *
 198:/opt/XMClib/XMC_Peripheral_Library_v2.1.16/ThirdPartyLibraries/USBlib/USB/Class/Device/../../Core/XMC4000/../XMC4000/Endpoint_XMC4000.h **** 	 *  \return The currently selected endpoint's direction, as a \c ENDPOINT_DIR_* mask.
 199:/opt/XMClib/XMC_Peripheral_Library_v2.1.16/ThirdPartyLibraries/USBlib/USB/Class/Device/../../Core/XMC4000/../XMC4000/Endpoint_XMC4000.h **** 	 */
 200:/opt/XMClib/XMC_Peripheral_Library_v2.1.16/ThirdPartyLibraries/USBlib/USB/Class/Device/../../Core/XMC4000/../XMC4000/Endpoint_XMC4000.h **** 	static inline uint8_t Endpoint_GetEndpointDirection(void) ATTR_WARN_UNUSED_RESULT ATTR_ALWAYS_INLI
 201:/opt/XMClib/XMC_Peripheral_Library_v2.1.16/ThirdPartyLibraries/USBlib/USB/Class/Device/../../Core/XMC4000/../XMC4000/Endpoint_XMC4000.h **** 	static inline uint8_t Endpoint_GetEndpointDirection(void)
 202:/opt/XMClib/XMC_Peripheral_Library_v2.1.16/ThirdPartyLibraries/USBlib/USB/Class/Device/../../Core/XMC4000/../XMC4000/Endpoint_XMC4000.h **** 	{
 203:/opt/XMClib/XMC_Peripheral_Library_v2.1.16/ThirdPartyLibraries/USBlib/USB/Class/Device/../../Core/XMC4000/../XMC4000/Endpoint_XMC4000.h **** 		USBD_Endpoint_t *ep = &device.Endpoints[device.CurrentEndpoint];
 204:/opt/XMClib/XMC_Peripheral_Library_v2.1.16/ThirdPartyLibraries/USBlib/USB/Class/Device/../../Core/XMC4000/../XMC4000/Endpoint_XMC4000.h **** 		return ep->Address & ENDPOINT_DIR_MASK;
 205:/opt/XMClib/XMC_Peripheral_Library_v2.1.16/ThirdPartyLibraries/USBlib/USB/Class/Device/../../Core/XMC4000/../XMC4000/Endpoint_XMC4000.h **** 	}
 206:/opt/XMClib/XMC_Peripheral_Library_v2.1.16/ThirdPartyLibraries/USBlib/USB/Class/Device/../../Core/XMC4000/../XMC4000/Endpoint_XMC4000.h **** 
 207:/opt/XMClib/XMC_Peripheral_Library_v2.1.16/ThirdPartyLibraries/USBlib/USB/Class/Device/../../Core/XMC4000/../XMC4000/Endpoint_XMC4000.h **** 	/** Indicates the number of bytes currently stored in the current endpoint's selected bank.
 208:/opt/XMClib/XMC_Peripheral_Library_v2.1.16/ThirdPartyLibraries/USBlib/USB/Class/Device/../../Core/XMC4000/../XMC4000/Endpoint_XMC4000.h **** 	 *
 209:/opt/XMClib/XMC_Peripheral_Library_v2.1.16/ThirdPartyLibraries/USBlib/USB/Class/Device/../../Core/XMC4000/../XMC4000/Endpoint_XMC4000.h **** 	 *  \ingroup Group_EndpointRW
 210:/opt/XMClib/XMC_Peripheral_Library_v2.1.16/ThirdPartyLibraries/USBlib/USB/Class/Device/../../Core/XMC4000/../XMC4000/Endpoint_XMC4000.h **** 	 *
 211:/opt/XMClib/XMC_Peripheral_Library_v2.1.16/ThirdPartyLibraries/USBlib/USB/Class/Device/../../Core/XMC4000/../XMC4000/Endpoint_XMC4000.h **** 	 *  \return Total number of bytes in the currently selected Endpoint's FIFO buffer.
 212:/opt/XMClib/XMC_Peripheral_Library_v2.1.16/ThirdPartyLibraries/USBlib/USB/Class/Device/../../Core/XMC4000/../XMC4000/Endpoint_XMC4000.h **** 	 */
 213:/opt/XMClib/XMC_Peripheral_Library_v2.1.16/ThirdPartyLibraries/USBlib/USB/Class/Device/../../Core/XMC4000/../XMC4000/Endpoint_XMC4000.h **** 	static inline uint16_t Endpoint_BytesInEndpoint(void) ATTR_WARN_UNUSED_RESULT ATTR_ALWAYS_INLINE;
 214:/opt/XMClib/XMC_Peripheral_Library_v2.1.16/ThirdPartyLibraries/USBlib/USB/Class/Device/../../Core/XMC4000/../XMC4000/Endpoint_XMC4000.h **** 	static inline uint16_t Endpoint_BytesInEndpoint(void)
 215:/opt/XMClib/XMC_Peripheral_Library_v2.1.16/ThirdPartyLibraries/USBlib/USB/Class/Device/../../Core/XMC4000/../XMC4000/Endpoint_XMC4000.h **** 	{
 216:/opt/XMClib/XMC_Peripheral_Library_v2.1.16/ThirdPartyLibraries/USBlib/USB/Class/Device/../../Core/XMC4000/../XMC4000/Endpoint_XMC4000.h **** 		USBD_Endpoint_t *ep = &device.Endpoints[device.CurrentEndpoint];
 217:/opt/XMClib/XMC_Peripheral_Library_v2.1.16/ThirdPartyLibraries/USBlib/USB/Class/Device/../../Core/XMC4000/../XMC4000/Endpoint_XMC4000.h **** 		if (ep->Direction)
 451              		.loc 2 217 7 view .LVU124
 452 0014 2C23     		movs	r3, #44
 453 0016 03FB0013 		mla	r3, r3, r0, r1
 454              	.LBE86:
 455              	.LBE85:
 456              	.LBB88:
 457              	.LBB84:
 132:/opt/XMClib/XMC_Peripheral_Library_v2.1.16/ThirdPartyLibraries/USBlib/USB/Class/Device/../../Core/XMC4000/../XMC4000/Endpoint_XMC4000.h **** 	}
 458              		.loc 2 132 38 view .LVU125
 459 001a 22F07F02 		bic	r2, r2, #127
 460              	.LVL40:
 131:/opt/XMClib/XMC_Peripheral_Library_v2.1.16/ThirdPartyLibraries/USBlib/USB/Class/Device/../../Core/XMC4000/../XMC4000/Endpoint_XMC4000.h **** 		device.CurrentDirection = (Address & ENDPOINT_DIR_MASK);
 461              		.loc 2 131 26 view .LVU126
 462 001e 81F83C01 		strb	r0, [r1, #316]
 463              	.LVL41:
 132:/opt/XMClib/XMC_Peripheral_Library_v2.1.16/ThirdPartyLibraries/USBlib/USB/Class/Device/../../Core/XMC4000/../XMC4000/Endpoint_XMC4000.h **** 	}
 464              		.loc 2 132 3 is_stmt 1 view .LVU127
 132:/opt/XMClib/XMC_Peripheral_Library_v2.1.16/ThirdPartyLibraries/USBlib/USB/Class/Device/../../Core/XMC4000/../XMC4000/Endpoint_XMC4000.h **** 	}
 465              		.loc 2 132 27 is_stmt 0 view .LVU128
 466 0022 81F83D21 		strb	r2, [r1, #317]
 132:/opt/XMClib/XMC_Peripheral_Library_v2.1.16/ThirdPartyLibraries/USBlib/USB/Class/Device/../../Core/XMC4000/../XMC4000/Endpoint_XMC4000.h **** 	}
 467              		.loc 2 132 27 view .LVU129
 468              	.LBE84:
 469              	.LBE88:
 199:/opt/XMClib/XMC_Peripheral_Library_v2.1.16/ThirdPartyLibraries/USBlib/USB/Class/Device/CDCClassDevice.c **** 
 200:/opt/XMClib/XMC_Peripheral_Library_v2.1.16/ThirdPartyLibraries/USBlib/USB/Class/Device/CDCClassDevice.c **** 	if (!(Endpoint_BytesInEndpoint()))
 470              		.loc 1 200 2 is_stmt 1 view .LVU130
 471              	.LBB89:
 472              	.LBI85:
 214:/opt/XMClib/XMC_Peripheral_Library_v2.1.16/ThirdPartyLibraries/USBlib/USB/Class/Device/../../Core/XMC4000/../XMC4000/Endpoint_XMC4000.h **** 	{
 473              		.loc 2 214 25 view .LVU131
 474              	.LBB87:
 216:/opt/XMClib/XMC_Peripheral_Library_v2.1.16/ThirdPartyLibraries/USBlib/USB/Class/Device/../../Core/XMC4000/../XMC4000/Endpoint_XMC4000.h **** 		if (ep->Direction)
 475              		.loc 2 216 3 view .LVU132
 476              	.LVL42:
 477              		.loc 2 217 3 view .LVU133
 218:/opt/XMClib/XMC_Peripheral_Library_v2.1.16/ThirdPartyLibraries/USBlib/USB/Class/Device/../../Core/XMC4000/../XMC4000/Endpoint_XMC4000.h **** 			return ep->InBytesAvailable;
 478              		.loc 2 218 4 view .LVU134
 219:/opt/XMClib/XMC_Peripheral_Library_v2.1.16/ThirdPartyLibraries/USBlib/USB/Class/Device/../../Core/XMC4000/../XMC4000/Endpoint_XMC4000.h **** 		else
 220:/opt/XMClib/XMC_Peripheral_Library_v2.1.16/ThirdPartyLibraries/USBlib/USB/Class/Device/../../Core/XMC4000/../XMC4000/Endpoint_XMC4000.h **** 			return ep->OutBytesAvailable;
 479              		.loc 2 220 4 view .LVU135
 217:/opt/XMClib/XMC_Peripheral_Library_v2.1.16/ThirdPartyLibraries/USBlib/USB/Class/Device/../../Core/XMC4000/../XMC4000/Endpoint_XMC4000.h **** 			return ep->InBytesAvailable;
 480              		.loc 2 217 6 is_stmt 0 view .LVU136
 481 0026 93F90420 		ldrsb	r2, [r3, #4]
 482 002a 002A     		cmp	r2, #0
 218:/opt/XMClib/XMC_Peripheral_Library_v2.1.16/ThirdPartyLibraries/USBlib/USB/Class/Device/../../Core/XMC4000/../XMC4000/Endpoint_XMC4000.h **** 			return ep->InBytesAvailable;
 483              		.loc 2 218 13 view .LVU137
 484 002c B4BF     		ite	lt
 485 002e 9B8B     		ldrhlt	r3, [r3, #28]
 486              		.loc 2 220 13 view .LVU138
 487 0030 9B89     		ldrhge	r3, [r3, #12]
 488              	.LBE87:
 489              	.LBE89:
 490              		.loc 1 200 5 view .LVU139
 491 0032 0BB9     		cbnz	r3, .L50
 201:/opt/XMClib/XMC_Peripheral_Library_v2.1.16/ThirdPartyLibraries/USBlib/USB/Class/Device/CDCClassDevice.c **** 	  return ENDPOINT_READYWAIT_NoError;
 492              		.loc 1 201 11 view .LVU140
 493 0034 0020     		movs	r0, #0
 494              	.LVL43:
 202:/opt/XMClib/XMC_Peripheral_Library_v2.1.16/ThirdPartyLibraries/USBlib/USB/Class/Device/CDCClassDevice.c **** 
 203:/opt/XMClib/XMC_Peripheral_Library_v2.1.16/ThirdPartyLibraries/USBlib/USB/Class/Device/CDCClassDevice.c **** 	bool BankFull = !(Endpoint_IsReadWriteAllowed());
 204:/opt/XMClib/XMC_Peripheral_Library_v2.1.16/ThirdPartyLibraries/USBlib/USB/Class/Device/CDCClassDevice.c **** 
 205:/opt/XMClib/XMC_Peripheral_Library_v2.1.16/ThirdPartyLibraries/USBlib/USB/Class/Device/CDCClassDevice.c **** 	Endpoint_ClearIN();
 206:/opt/XMClib/XMC_Peripheral_Library_v2.1.16/ThirdPartyLibraries/USBlib/USB/Class/Device/CDCClassDevice.c **** 
 207:/opt/XMClib/XMC_Peripheral_Library_v2.1.16/ThirdPartyLibraries/USBlib/USB/Class/Device/CDCClassDevice.c **** 	if (BankFull)
 208:/opt/XMClib/XMC_Peripheral_Library_v2.1.16/ThirdPartyLibraries/USBlib/USB/Class/Device/CDCClassDevice.c **** 	{
 209:/opt/XMClib/XMC_Peripheral_Library_v2.1.16/ThirdPartyLibraries/USBlib/USB/Class/Device/CDCClassDevice.c **** 		if ((ErrorCode = Endpoint_WaitUntilReady()) != ENDPOINT_READYWAIT_NoError)
 210:/opt/XMClib/XMC_Peripheral_Library_v2.1.16/ThirdPartyLibraries/USBlib/USB/Class/Device/CDCClassDevice.c **** 		  return ErrorCode;
 211:/opt/XMClib/XMC_Peripheral_Library_v2.1.16/ThirdPartyLibraries/USBlib/USB/Class/Device/CDCClassDevice.c **** 
 212:/opt/XMClib/XMC_Peripheral_Library_v2.1.16/ThirdPartyLibraries/USBlib/USB/Class/Device/CDCClassDevice.c **** 		Endpoint_ClearIN();
 213:/opt/XMClib/XMC_Peripheral_Library_v2.1.16/ThirdPartyLibraries/USBlib/USB/Class/Device/CDCClassDevice.c **** 	}
 214:/opt/XMClib/XMC_Peripheral_Library_v2.1.16/ThirdPartyLibraries/USBlib/USB/Class/Device/CDCClassDevice.c **** 
 215:/opt/XMClib/XMC_Peripheral_Library_v2.1.16/ThirdPartyLibraries/USBlib/USB/Class/Device/CDCClassDevice.c **** 	return ENDPOINT_READYWAIT_NoError;
 216:/opt/XMClib/XMC_Peripheral_Library_v2.1.16/ThirdPartyLibraries/USBlib/USB/Class/Device/CDCClassDevice.c **** }
 495              		.loc 1 216 1 view .LVU141
 496 0036 7047     		bx	lr
 497              	.LVL44:
 498              	.L50:
 499              	.LBB90:
 500              	.LBI90:
 191:/opt/XMClib/XMC_Peripheral_Library_v2.1.16/ThirdPartyLibraries/USBlib/USB/Class/Device/CDCClassDevice.c **** {
 501              		.loc 1 191 9 is_stmt 1 view .LVU142
 502              	.LBB91:
 203:/opt/XMClib/XMC_Peripheral_Library_v2.1.16/ThirdPartyLibraries/USBlib/USB/Class/Device/CDCClassDevice.c **** 
 503              		.loc 1 203 2 view .LVU143
 504              	.LBE91:
 505              	.LBE90:
 192:/opt/XMClib/XMC_Peripheral_Library_v2.1.16/ThirdPartyLibraries/USBlib/USB/Class/Device/CDCClassDevice.c **** 	if ((USB_DeviceState != DEVICE_STATE_Configured) || !(CDCInterfaceInfo->State.LineEncoding.BaudRat
 506              		.loc 1 192 1 is_stmt 0 view .LVU144
 507 0038 10B5     		push	{r4, lr}
 508              	.LCFI8:
 509              		.cfi_def_cfa_offset 8
 510              		.cfi_offset 4, -8
 511              		.cfi_offset 14, -4
 512 003a 82B0     		sub	sp, sp, #8
 513              	.LCFI9:
 514              		.cfi_def_cfa_offset 16
 515              	.LBB94:
 516              	.LBB92:
 203:/opt/XMClib/XMC_Peripheral_Library_v2.1.16/ThirdPartyLibraries/USBlib/USB/Class/Device/CDCClassDevice.c **** 
 517              		.loc 1 203 20 view .LVU145
 518 003c FFF7FEFF 		bl	Endpoint_IsReadWriteAllowed
 519              	.LVL45:
 203:/opt/XMClib/XMC_Peripheral_Library_v2.1.16/ThirdPartyLibraries/USBlib/USB/Class/Device/CDCClassDevice.c **** 
 520              		.loc 1 203 20 view .LVU146
 521 0040 0446     		mov	r4, r0
 522              	.LVL46:
 205:/opt/XMClib/XMC_Peripheral_Library_v2.1.16/ThirdPartyLibraries/USBlib/USB/Class/Device/CDCClassDevice.c **** 
 523              		.loc 1 205 2 is_stmt 1 view .LVU147
 524 0042 FFF7FEFF 		bl	Endpoint_ClearIN
 525              	.LVL47:
 207:/opt/XMClib/XMC_Peripheral_Library_v2.1.16/ThirdPartyLibraries/USBlib/USB/Class/Device/CDCClassDevice.c **** 	{
 526              		.loc 1 207 2 view .LVU148
 207:/opt/XMClib/XMC_Peripheral_Library_v2.1.16/ThirdPartyLibraries/USBlib/USB/Class/Device/CDCClassDevice.c **** 	{
 527              		.loc 1 207 5 is_stmt 0 view .LVU149
 528 0046 24B1     		cbz	r4, .L58
 529              	.LBE92:
 530              	.LBE94:
 201:/opt/XMClib/XMC_Peripheral_Library_v2.1.16/ThirdPartyLibraries/USBlib/USB/Class/Device/CDCClassDevice.c **** 
 531              		.loc 1 201 11 view .LVU150
 532 0048 0020     		movs	r0, #0
 533              	.L47:
 534              	.LVL48:
 535              		.loc 1 216 1 view .LVU151
 536 004a 02B0     		add	sp, sp, #8
 537              	.LCFI10:
 538              		.cfi_def_cfa_offset 8
 539              		@ sp needed
 540 004c 10BD     		pop	{r4, pc}
 541              	.LVL49:
 542              	.L53:
 543              	.LCFI11:
 544              		.cfi_def_cfa_offset 0
 545              		.cfi_restore 4
 546              		.cfi_restore 14
 194:/opt/XMClib/XMC_Peripheral_Library_v2.1.16/ThirdPartyLibraries/USBlib/USB/Class/Device/CDCClassDevice.c **** 
 547              		.loc 1 194 11 view .LVU152
 548 004e 0220     		movs	r0, #2
 549              	.LVL50:
 194:/opt/XMClib/XMC_Peripheral_Library_v2.1.16/ThirdPartyLibraries/USBlib/USB/Class/Device/CDCClassDevice.c **** 
 550              		.loc 1 194 11 view .LVU153
 551 0050 7047     		bx	lr
 552              	.LVL51:
 553              	.L58:
 554              	.LCFI12:
 555              		.cfi_def_cfa_offset 16
 556              		.cfi_offset 4, -8
 557              		.cfi_offset 14, -4
 558              	.LBB95:
 559              	.LBB93:
 209:/opt/XMClib/XMC_Peripheral_Library_v2.1.16/ThirdPartyLibraries/USBlib/USB/Class/Device/CDCClassDevice.c **** 		  return ErrorCode;
 560              		.loc 1 209 3 is_stmt 1 view .LVU154
 209:/opt/XMClib/XMC_Peripheral_Library_v2.1.16/ThirdPartyLibraries/USBlib/USB/Class/Device/CDCClassDevice.c **** 		  return ErrorCode;
 561              		.loc 1 209 20 is_stmt 0 view .LVU155
 562 0052 FFF7FEFF 		bl	Endpoint_WaitUntilReady
 563              	.LVL52:
 209:/opt/XMClib/XMC_Peripheral_Library_v2.1.16/ThirdPartyLibraries/USBlib/USB/Class/Device/CDCClassDevice.c **** 		  return ErrorCode;
 564              		.loc 1 209 6 view .LVU156
 565 0056 0028     		cmp	r0, #0
 566 0058 F7D1     		bne	.L47
 567 005a 0190     		str	r0, [sp, #4]
 212:/opt/XMClib/XMC_Peripheral_Library_v2.1.16/ThirdPartyLibraries/USBlib/USB/Class/Device/CDCClassDevice.c **** 	}
 568              		.loc 1 212 3 is_stmt 1 view .LVU157
 569 005c FFF7FEFF 		bl	Endpoint_ClearIN
 570              	.LVL53:
 212:/opt/XMClib/XMC_Peripheral_Library_v2.1.16/ThirdPartyLibraries/USBlib/USB/Class/Device/CDCClassDevice.c **** 	}
 571              		.loc 1 212 3 is_stmt 0 view .LVU158
 572 0060 0198     		ldr	r0, [sp, #4]
 573 0062 F2E7     		b	.L47
 574              	.L60:
 575              		.align	2
 576              	.L59:
 577 0064 00000000 		.word	USB_DeviceState
 578 0068 00000000 		.word	device
 579              	.LBE93:
 580              	.LBE95:
 581              		.cfi_endproc
 582              	.LFE199:
 584              		.section	.text.CDC_Device_USBTask,"ax",%progbits
 585              		.align	1
 586              		.p2align 2,,3
 587              		.global	CDC_Device_USBTask
 588              		.syntax unified
 589              		.thumb
 590              		.thumb_func
 592              	CDC_Device_USBTask:
 593              	.LVL54:
 594              	.LFB195:
 136:/opt/XMClib/XMC_Peripheral_Library_v2.1.16/ThirdPartyLibraries/USBlib/USB/Class/Device/CDCClassDevice.c **** 	if ((USB_DeviceState != DEVICE_STATE_Configured) || !(CDCInterfaceInfo->State.LineEncoding.BaudRat
 595              		.loc 1 136 1 is_stmt 1 view -0
 596              		.cfi_startproc
 597              		@ args = 0, pretend = 0, frame = 0
 598              		@ frame_needed = 0, uses_anonymous_args = 0
 599              		@ link register save eliminated.
 137:/opt/XMClib/XMC_Peripheral_Library_v2.1.16/ThirdPartyLibraries/USBlib/USB/Class/Device/CDCClassDevice.c **** 	  return;
 600              		.loc 1 137 2 view .LVU160
 137:/opt/XMClib/XMC_Peripheral_Library_v2.1.16/ThirdPartyLibraries/USBlib/USB/Class/Device/CDCClassDevice.c **** 	  return;
 601              		.loc 1 137 23 is_stmt 0 view .LVU161
 602 0000 0D4B     		ldr	r3, .L69
 603 0002 1A78     		ldrb	r2, [r3]	@ zero_extendqisi2
 137:/opt/XMClib/XMC_Peripheral_Library_v2.1.16/ThirdPartyLibraries/USBlib/USB/Class/Device/CDCClassDevice.c **** 	  return;
 604              		.loc 1 137 5 view .LVU162
 605 0004 042A     		cmp	r2, #4
 606 0006 16D1     		bne	.L61
 137:/opt/XMClib/XMC_Peripheral_Library_v2.1.16/ThirdPartyLibraries/USBlib/USB/Class/Device/CDCClassDevice.c **** 	  return;
 607              		.loc 1 137 92 discriminator 1 view .LVU163
 608 0008 8269     		ldr	r2, [r0, #24]	@ unaligned
 137:/opt/XMClib/XMC_Peripheral_Library_v2.1.16/ThirdPartyLibraries/USBlib/USB/Class/Device/CDCClassDevice.c **** 	  return;
 609              		.loc 1 137 51 discriminator 1 view .LVU164
 610 000a A2B1     		cbz	r2, .L61
 141:/opt/XMClib/XMC_Peripheral_Library_v2.1.16/ThirdPartyLibraries/USBlib/USB/Class/Device/CDCClassDevice.c **** 
 611              		.loc 1 141 2 is_stmt 1 view .LVU165
 612 000c 8278     		ldrb	r2, [r0, #2]	@ zero_extendqisi2
 613              	.LVL55:
 614              	.LBB96:
 615              	.LBI96:
 129:/opt/XMClib/XMC_Peripheral_Library_v2.1.16/ThirdPartyLibraries/USBlib/USB/Class/Device/../../Core/XMC4000/../XMC4000/Endpoint_XMC4000.h **** 	{
 616              		.loc 2 129 21 view .LVU166
 617              	.LBB97:
 131:/opt/XMClib/XMC_Peripheral_Library_v2.1.16/ThirdPartyLibraries/USBlib/USB/Class/Device/../../Core/XMC4000/../XMC4000/Endpoint_XMC4000.h **** 		device.CurrentDirection = (Address & ENDPOINT_DIR_MASK);
 618              		.loc 2 131 3 view .LVU167
 131:/opt/XMClib/XMC_Peripheral_Library_v2.1.16/ThirdPartyLibraries/USBlib/USB/Class/Device/../../Core/XMC4000/../XMC4000/Endpoint_XMC4000.h **** 		device.CurrentDirection = (Address & ENDPOINT_DIR_MASK);
 619              		.loc 2 131 26 is_stmt 0 view .LVU168
 620 000e 0B4B     		ldr	r3, .L69+4
 131:/opt/XMClib/XMC_Peripheral_Library_v2.1.16/ThirdPartyLibraries/USBlib/USB/Class/Device/../../Core/XMC4000/../XMC4000/Endpoint_XMC4000.h **** 		device.CurrentDirection = (Address & ENDPOINT_DIR_MASK);
 621              		.loc 2 131 36 view .LVU169
 622 0010 02F00F01 		and	r1, r2, #15
 132:/opt/XMClib/XMC_Peripheral_Library_v2.1.16/ThirdPartyLibraries/USBlib/USB/Class/Device/../../Core/XMC4000/../XMC4000/Endpoint_XMC4000.h **** 	}
 623              		.loc 2 132 38 view .LVU170
 624 0014 22F07F02 		bic	r2, r2, #127
 625              	.LVL56:
 132:/opt/XMClib/XMC_Peripheral_Library_v2.1.16/ThirdPartyLibraries/USBlib/USB/Class/Device/../../Core/XMC4000/../XMC4000/Endpoint_XMC4000.h **** 	}
 626              		.loc 2 132 27 view .LVU171
 627 0018 83F83D21 		strb	r2, [r3, #317]
 628              	.LVL57:
 132:/opt/XMClib/XMC_Peripheral_Library_v2.1.16/ThirdPartyLibraries/USBlib/USB/Class/Device/../../Core/XMC4000/../XMC4000/Endpoint_XMC4000.h **** 	}
 629              		.loc 2 132 27 view .LVU172
 630              	.LBE97:
 631              	.LBE96:
 632              	.LBB99:
 633              	.LBB100:
 180:/opt/XMClib/XMC_Peripheral_Library_v2.1.16/ThirdPartyLibraries/USBlib/USB/Class/Device/../../Core/XMC4000/../XMC4000/Endpoint_XMC4000.h **** 	}
 634              		.loc 2 180 12 view .LVU173
 635 001c 2C22     		movs	r2, #44
 636              	.LBE100:
 637              	.LBE99:
 638              	.LBB102:
 639              	.LBB98:
 131:/opt/XMClib/XMC_Peripheral_Library_v2.1.16/ThirdPartyLibraries/USBlib/USB/Class/Device/../../Core/XMC4000/../XMC4000/Endpoint_XMC4000.h **** 		device.CurrentDirection = (Address & ENDPOINT_DIR_MASK);
 640              		.loc 2 131 26 view .LVU174
 641 001e 83F83C11 		strb	r1, [r3, #316]
 132:/opt/XMClib/XMC_Peripheral_Library_v2.1.16/ThirdPartyLibraries/USBlib/USB/Class/Device/../../Core/XMC4000/../XMC4000/Endpoint_XMC4000.h **** 	}
 642              		.loc 2 132 3 is_stmt 1 view .LVU175
 132:/opt/XMClib/XMC_Peripheral_Library_v2.1.16/ThirdPartyLibraries/USBlib/USB/Class/Device/../../Core/XMC4000/../XMC4000/Endpoint_XMC4000.h **** 	}
 643              		.loc 2 132 3 is_stmt 0 view .LVU176
 644              	.LBE98:
 645              	.LBE102:
 143:/opt/XMClib/XMC_Peripheral_Library_v2.1.16/ThirdPartyLibraries/USBlib/USB/Class/Device/CDCClassDevice.c **** 	  CDC_Device_Flush(CDCInterfaceInfo);
 646              		.loc 1 143 2 is_stmt 1 view .LVU177
 647              	.LBB103:
 648              	.LBI99:
 177:/opt/XMClib/XMC_Peripheral_Library_v2.1.16/ThirdPartyLibraries/USBlib/USB/Class/Device/../../Core/XMC4000/../XMC4000/Endpoint_XMC4000.h **** 	{
 649              		.loc 2 177 21 view .LVU178
 650              	.LBB101:
 179:/opt/XMClib/XMC_Peripheral_Library_v2.1.16/ThirdPartyLibraries/USBlib/USB/Class/Device/../../Core/XMC4000/../XMC4000/Endpoint_XMC4000.h **** 		return ep->InInUse == 0 && ep->IsEnabled;
 651              		.loc 2 179 3 view .LVU179
 652              	.LVL58:
 180:/opt/XMClib/XMC_Peripheral_Library_v2.1.16/ThirdPartyLibraries/USBlib/USB/Class/Device/../../Core/XMC4000/../XMC4000/Endpoint_XMC4000.h **** 	}
 653              		.loc 2 180 3 view .LVU180
 180:/opt/XMClib/XMC_Peripheral_Library_v2.1.16/ThirdPartyLibraries/USBlib/USB/Class/Device/../../Core/XMC4000/../XMC4000/Endpoint_XMC4000.h **** 	}
 654              		.loc 2 180 12 is_stmt 0 view .LVU181
 655 0022 02FB0133 		mla	r3, r2, r1, r3
 656 0026 9A68     		ldr	r2, [r3, #8]
 180:/opt/XMClib/XMC_Peripheral_Library_v2.1.16/ThirdPartyLibraries/USBlib/USB/Class/Device/../../Core/XMC4000/../XMC4000/Endpoint_XMC4000.h **** 	}
 657              		.loc 2 180 27 view .LVU182
 658 0028 D206     		lsls	r2, r2, #27
 659 002a 04D4     		bmi	.L61
 660 002c 1B7A     		ldrb	r3, [r3, #8]	@ zero_extendqisi2
 661 002e 9B07     		lsls	r3, r3, #30
 662 0030 01D5     		bpl	.L61
 663              	.LBE101:
 664              	.LBE103:
 144:/opt/XMClib/XMC_Peripheral_Library_v2.1.16/ThirdPartyLibraries/USBlib/USB/Class/Device/CDCClassDevice.c **** 	#endif
 665              		.loc 1 144 4 is_stmt 1 view .LVU183
 666 0032 FFF7FEBF 		b	CDC_Device_Flush
 667              	.LVL59:
 668              	.L61:
 146:/opt/XMClib/XMC_Peripheral_Library_v2.1.16/ThirdPartyLibraries/USBlib/USB/Class/Device/CDCClassDevice.c **** 
 669              		.loc 1 146 1 is_stmt 0 view .LVU184
 670 0036 7047     		bx	lr
 671              	.L70:
 672              		.align	2
 673              	.L69:
 674 0038 00000000 		.word	USB_DeviceState
 675 003c 00000000 		.word	device
 676              		.cfi_endproc
 677              	.LFE195:
 679              		.section	.text.CDC_Device_BytesReceived,"ax",%progbits
 680              		.align	1
 681              		.p2align 2,,3
 682              		.global	CDC_Device_BytesReceived
 683              		.syntax unified
 684              		.thumb
 685              		.thumb_func
 687              	CDC_Device_BytesReceived:
 688              	.LVL60:
 689              	.LFB200:
 217:/opt/XMClib/XMC_Peripheral_Library_v2.1.16/ThirdPartyLibraries/USBlib/USB/Class/Device/CDCClassDevice.c **** 
 218:/opt/XMClib/XMC_Peripheral_Library_v2.1.16/ThirdPartyLibraries/USBlib/USB/Class/Device/CDCClassDevice.c **** uint16_t CDC_Device_BytesReceived(USB_ClassInfo_CDC_Device_t* const CDCInterfaceInfo)
 219:/opt/XMClib/XMC_Peripheral_Library_v2.1.16/ThirdPartyLibraries/USBlib/USB/Class/Device/CDCClassDevice.c **** {
 690              		.loc 1 219 1 is_stmt 1 view -0
 691              		.cfi_startproc
 692              		@ args = 0, pretend = 0, frame = 8
 693              		@ frame_needed = 0, uses_anonymous_args = 0
 220:/opt/XMClib/XMC_Peripheral_Library_v2.1.16/ThirdPartyLibraries/USBlib/USB/Class/Device/CDCClassDevice.c **** 	if ((USB_DeviceState != DEVICE_STATE_Configured) || !(CDCInterfaceInfo->State.LineEncoding.BaudRat
 694              		.loc 1 220 2 view .LVU186
 695              		.loc 1 220 23 is_stmt 0 view .LVU187
 696 0000 144B     		ldr	r3, .L88
 697 0002 1B78     		ldrb	r3, [r3]	@ zero_extendqisi2
 698              		.loc 1 220 5 view .LVU188
 699 0004 042B     		cmp	r3, #4
 700 0006 19D1     		bne	.L74
 701              		.loc 1 220 92 discriminator 1 view .LVU189
 702 0008 8369     		ldr	r3, [r0, #24]	@ unaligned
 703              		.loc 1 220 51 discriminator 1 view .LVU190
 704 000a BBB1     		cbz	r3, .L74
 221:/opt/XMClib/XMC_Peripheral_Library_v2.1.16/ThirdPartyLibraries/USBlib/USB/Class/Device/CDCClassDevice.c **** 	  return 0;
 222:/opt/XMClib/XMC_Peripheral_Library_v2.1.16/ThirdPartyLibraries/USBlib/USB/Class/Device/CDCClassDevice.c **** 
 223:/opt/XMClib/XMC_Peripheral_Library_v2.1.16/ThirdPartyLibraries/USBlib/USB/Class/Device/CDCClassDevice.c **** 	Endpoint_SelectEndpoint(CDCInterfaceInfo->Config.DataOUTEndpoint.Address);
 705              		.loc 1 223 2 is_stmt 1 view .LVU191
 706 000c 027A     		ldrb	r2, [r0, #8]	@ zero_extendqisi2
 707              	.LVL61:
 708              	.LBB104:
 709              	.LBI104:
 129:/opt/XMClib/XMC_Peripheral_Library_v2.1.16/ThirdPartyLibraries/USBlib/USB/Class/Device/../../Core/XMC4000/../XMC4000/Endpoint_XMC4000.h **** 	{
 710              		.loc 2 129 21 view .LVU192
 711              	.LBB105:
 131:/opt/XMClib/XMC_Peripheral_Library_v2.1.16/ThirdPartyLibraries/USBlib/USB/Class/Device/../../Core/XMC4000/../XMC4000/Endpoint_XMC4000.h **** 		device.CurrentDirection = (Address & ENDPOINT_DIR_MASK);
 712              		.loc 2 131 3 view .LVU193
 131:/opt/XMClib/XMC_Peripheral_Library_v2.1.16/ThirdPartyLibraries/USBlib/USB/Class/Device/../../Core/XMC4000/../XMC4000/Endpoint_XMC4000.h **** 		device.CurrentDirection = (Address & ENDPOINT_DIR_MASK);
 713              		.loc 2 131 26 is_stmt 0 view .LVU194
 714 000e 1249     		ldr	r1, .L88+4
 131:/opt/XMClib/XMC_Peripheral_Library_v2.1.16/ThirdPartyLibraries/USBlib/USB/Class/Device/../../Core/XMC4000/../XMC4000/Endpoint_XMC4000.h **** 		device.CurrentDirection = (Address & ENDPOINT_DIR_MASK);
 715              		.loc 2 131 36 view .LVU195
 716 0010 02F00F00 		and	r0, r2, #15
 717              	.LVL62:
 131:/opt/XMClib/XMC_Peripheral_Library_v2.1.16/ThirdPartyLibraries/USBlib/USB/Class/Device/../../Core/XMC4000/../XMC4000/Endpoint_XMC4000.h **** 		device.CurrentDirection = (Address & ENDPOINT_DIR_MASK);
 718              		.loc 2 131 36 view .LVU196
 719              	.LBE105:
 720              	.LBE104:
 721              	.LBB108:
 722              	.LBB109:
 193:/opt/XMClib/XMC_Peripheral_Library_v2.1.16/ThirdPartyLibraries/USBlib/USB/Class/Device/../../Core/XMC4000/../XMC4000/Endpoint_XMC4000.h **** 	}
 723              		.loc 2 193 12 view .LVU197
 724 0014 2C23     		movs	r3, #44
 725              	.LBE109:
 726              	.LBE108:
 727              	.LBB112:
 728              	.LBB106:
 132:/opt/XMClib/XMC_Peripheral_Library_v2.1.16/ThirdPartyLibraries/USBlib/USB/Class/Device/../../Core/XMC4000/../XMC4000/Endpoint_XMC4000.h **** 	}
 729              		.loc 2 132 38 view .LVU198
 730 0016 22F07F02 		bic	r2, r2, #127
 731              	.LVL63:
 132:/opt/XMClib/XMC_Peripheral_Library_v2.1.16/ThirdPartyLibraries/USBlib/USB/Class/Device/../../Core/XMC4000/../XMC4000/Endpoint_XMC4000.h **** 	}
 732              		.loc 2 132 38 view .LVU199
 733              	.LBE106:
 734              	.LBE112:
 735              	.LBB113:
 736              	.LBB110:
 193:/opt/XMClib/XMC_Peripheral_Library_v2.1.16/ThirdPartyLibraries/USBlib/USB/Class/Device/../../Core/XMC4000/../XMC4000/Endpoint_XMC4000.h **** 	}
 737              		.loc 2 193 12 view .LVU200
 738 001a 03FB0013 		mla	r3, r3, r0, r1
 739              	.LBE110:
 740              	.LBE113:
 741              	.LBB114:
 742              	.LBB107:
 131:/opt/XMClib/XMC_Peripheral_Library_v2.1.16/ThirdPartyLibraries/USBlib/USB/Class/Device/../../Core/XMC4000/../XMC4000/Endpoint_XMC4000.h **** 		device.CurrentDirection = (Address & ENDPOINT_DIR_MASK);
 743              		.loc 2 131 26 view .LVU201
 744 001e 81F83C01 		strb	r0, [r1, #316]
 745              	.LVL64:
 132:/opt/XMClib/XMC_Peripheral_Library_v2.1.16/ThirdPartyLibraries/USBlib/USB/Class/Device/../../Core/XMC4000/../XMC4000/Endpoint_XMC4000.h **** 	}
 746              		.loc 2 132 3 is_stmt 1 view .LVU202
 132:/opt/XMClib/XMC_Peripheral_Library_v2.1.16/ThirdPartyLibraries/USBlib/USB/Class/Device/../../Core/XMC4000/../XMC4000/Endpoint_XMC4000.h **** 	}
 747              		.loc 2 132 27 is_stmt 0 view .LVU203
 748 0022 81F83D21 		strb	r2, [r1, #317]
 132:/opt/XMClib/XMC_Peripheral_Library_v2.1.16/ThirdPartyLibraries/USBlib/USB/Class/Device/../../Core/XMC4000/../XMC4000/Endpoint_XMC4000.h **** 	}
 749              		.loc 2 132 27 view .LVU204
 750              	.LBE107:
 751              	.LBE114:
 224:/opt/XMClib/XMC_Peripheral_Library_v2.1.16/ThirdPartyLibraries/USBlib/USB/Class/Device/CDCClassDevice.c **** 
 225:/opt/XMClib/XMC_Peripheral_Library_v2.1.16/ThirdPartyLibraries/USBlib/USB/Class/Device/CDCClassDevice.c **** 	if (Endpoint_IsOUTReceived())
 752              		.loc 1 225 2 is_stmt 1 view .LVU205
 753              	.LBB115:
 754              	.LBI108:
 190:/opt/XMClib/XMC_Peripheral_Library_v2.1.16/ThirdPartyLibraries/USBlib/USB/Class/Device/../../Core/XMC4000/../XMC4000/Endpoint_XMC4000.h **** 	{
 755              		.loc 2 190 21 view .LVU206
 756              	.LBB111:
 192:/opt/XMClib/XMC_Peripheral_Library_v2.1.16/ThirdPartyLibraries/USBlib/USB/Class/Device/../../Core/XMC4000/../XMC4000/Endpoint_XMC4000.h **** 		return ep->IsOutRecieved;
 757              		.loc 2 192 3 view .LVU207
 758              	.LVL65:
 193:/opt/XMClib/XMC_Peripheral_Library_v2.1.16/ThirdPartyLibraries/USBlib/USB/Class/Device/../../Core/XMC4000/../XMC4000/Endpoint_XMC4000.h **** 	}
 759              		.loc 2 193 3 view .LVU208
 193:/opt/XMClib/XMC_Peripheral_Library_v2.1.16/ThirdPartyLibraries/USBlib/USB/Class/Device/../../Core/XMC4000/../XMC4000/Endpoint_XMC4000.h **** 	}
 760              		.loc 2 193 12 is_stmt 0 view .LVU209
 761 0026 9A68     		ldr	r2, [r3, #8]
 762              	.LBE111:
 763              	.LBE115:
 764              		.loc 1 225 5 view .LVU210
 765 0028 9206     		lsls	r2, r2, #26
 766 002a 07D5     		bpl	.L74
 226:/opt/XMClib/XMC_Peripheral_Library_v2.1.16/ThirdPartyLibraries/USBlib/USB/Class/Device/CDCClassDevice.c **** 	{
 227:/opt/XMClib/XMC_Peripheral_Library_v2.1.16/ThirdPartyLibraries/USBlib/USB/Class/Device/CDCClassDevice.c **** 		if (!(Endpoint_BytesInEndpoint()))
 767              		.loc 1 227 3 is_stmt 1 view .LVU211
 768              	.LBB116:
 769              	.LBI116:
 214:/opt/XMClib/XMC_Peripheral_Library_v2.1.16/ThirdPartyLibraries/USBlib/USB/Class/Device/../../Core/XMC4000/../XMC4000/Endpoint_XMC4000.h **** 	{
 770              		.loc 2 214 25 view .LVU212
 771              	.LBB117:
 216:/opt/XMClib/XMC_Peripheral_Library_v2.1.16/ThirdPartyLibraries/USBlib/USB/Class/Device/../../Core/XMC4000/../XMC4000/Endpoint_XMC4000.h **** 		if (ep->Direction)
 772              		.loc 2 216 3 view .LVU213
 773              	.LVL66:
 217:/opt/XMClib/XMC_Peripheral_Library_v2.1.16/ThirdPartyLibraries/USBlib/USB/Class/Device/../../Core/XMC4000/../XMC4000/Endpoint_XMC4000.h **** 			return ep->InBytesAvailable;
 774              		.loc 2 217 3 view .LVU214
 218:/opt/XMClib/XMC_Peripheral_Library_v2.1.16/ThirdPartyLibraries/USBlib/USB/Class/Device/../../Core/XMC4000/../XMC4000/Endpoint_XMC4000.h **** 		else
 775              		.loc 2 218 4 view .LVU215
 776              		.loc 2 220 4 view .LVU216
 217:/opt/XMClib/XMC_Peripheral_Library_v2.1.16/ThirdPartyLibraries/USBlib/USB/Class/Device/../../Core/XMC4000/../XMC4000/Endpoint_XMC4000.h **** 			return ep->InBytesAvailable;
 777              		.loc 2 217 6 is_stmt 0 view .LVU217
 778 002c 93F90420 		ldrsb	r2, [r3, #4]
 779 0030 002A     		cmp	r2, #0
 218:/opt/XMClib/XMC_Peripheral_Library_v2.1.16/ThirdPartyLibraries/USBlib/USB/Class/Device/../../Core/XMC4000/../XMC4000/Endpoint_XMC4000.h **** 		else
 780              		.loc 2 218 13 view .LVU218
 781 0032 B4BF     		ite	lt
 782 0034 988B     		ldrhlt	r0, [r3, #28]
 783              	.LVL67:
 784              		.loc 2 220 13 view .LVU219
 785 0036 9889     		ldrhge	r0, [r3, #12]
 786              	.LBE117:
 787              	.LBE116:
 788              		.loc 1 227 6 view .LVU220
 789 0038 10B1     		cbz	r0, .L87
 228:/opt/XMClib/XMC_Peripheral_Library_v2.1.16/ThirdPartyLibraries/USBlib/USB/Class/Device/CDCClassDevice.c **** 		{
 229:/opt/XMClib/XMC_Peripheral_Library_v2.1.16/ThirdPartyLibraries/USBlib/USB/Class/Device/CDCClassDevice.c **** 			Endpoint_ClearOUT();
 230:/opt/XMClib/XMC_Peripheral_Library_v2.1.16/ThirdPartyLibraries/USBlib/USB/Class/Device/CDCClassDevice.c **** 			return 0;
 231:/opt/XMClib/XMC_Peripheral_Library_v2.1.16/ThirdPartyLibraries/USBlib/USB/Class/Device/CDCClassDevice.c **** 		}
 232:/opt/XMClib/XMC_Peripheral_Library_v2.1.16/ThirdPartyLibraries/USBlib/USB/Class/Device/CDCClassDevice.c **** 		else
 233:/opt/XMClib/XMC_Peripheral_Library_v2.1.16/ThirdPartyLibraries/USBlib/USB/Class/Device/CDCClassDevice.c **** 		{
 234:/opt/XMClib/XMC_Peripheral_Library_v2.1.16/ThirdPartyLibraries/USBlib/USB/Class/Device/CDCClassDevice.c **** 			return Endpoint_BytesInEndpoint();
 235:/opt/XMClib/XMC_Peripheral_Library_v2.1.16/ThirdPartyLibraries/USBlib/USB/Class/Device/CDCClassDevice.c **** 		}
 236:/opt/XMClib/XMC_Peripheral_Library_v2.1.16/ThirdPartyLibraries/USBlib/USB/Class/Device/CDCClassDevice.c **** 	}
 237:/opt/XMClib/XMC_Peripheral_Library_v2.1.16/ThirdPartyLibraries/USBlib/USB/Class/Device/CDCClassDevice.c **** 	else
 238:/opt/XMClib/XMC_Peripheral_Library_v2.1.16/ThirdPartyLibraries/USBlib/USB/Class/Device/CDCClassDevice.c **** 	{
 239:/opt/XMClib/XMC_Peripheral_Library_v2.1.16/ThirdPartyLibraries/USBlib/USB/Class/Device/CDCClassDevice.c **** 		return 0;
 240:/opt/XMClib/XMC_Peripheral_Library_v2.1.16/ThirdPartyLibraries/USBlib/USB/Class/Device/CDCClassDevice.c **** 	}
 241:/opt/XMClib/XMC_Peripheral_Library_v2.1.16/ThirdPartyLibraries/USBlib/USB/Class/Device/CDCClassDevice.c **** }
 790              		.loc 1 241 1 view .LVU221
 791 003a 7047     		bx	lr
 792              	.L74:
 221:/opt/XMClib/XMC_Peripheral_Library_v2.1.16/ThirdPartyLibraries/USBlib/USB/Class/Device/CDCClassDevice.c **** 
 793              		.loc 1 221 11 view .LVU222
 794 003c 0020     		movs	r0, #0
 795 003e 7047     		bx	lr
 796              	.L87:
 219:/opt/XMClib/XMC_Peripheral_Library_v2.1.16/ThirdPartyLibraries/USBlib/USB/Class/Device/CDCClassDevice.c **** 	if ((USB_DeviceState != DEVICE_STATE_Configured) || !(CDCInterfaceInfo->State.LineEncoding.BaudRat
 797              		.loc 1 219 1 view .LVU223
 798 0040 00B5     		push	{lr}
 799              	.LCFI13:
 800              		.cfi_def_cfa_offset 4
 801              		.cfi_offset 14, -4
 802 0042 83B0     		sub	sp, sp, #12
 803              	.LCFI14:
 804              		.cfi_def_cfa_offset 16
 805 0044 0190     		str	r0, [sp, #4]
 229:/opt/XMClib/XMC_Peripheral_Library_v2.1.16/ThirdPartyLibraries/USBlib/USB/Class/Device/CDCClassDevice.c **** 			return 0;
 806              		.loc 1 229 4 is_stmt 1 view .LVU224
 807 0046 FFF7FEFF 		bl	Endpoint_ClearOUT
 808              	.LVL68:
 809 004a 0198     		ldr	r0, [sp, #4]
 230:/opt/XMClib/XMC_Peripheral_Library_v2.1.16/ThirdPartyLibraries/USBlib/USB/Class/Device/CDCClassDevice.c **** 		}
 810              		.loc 1 230 4 view .LVU225
 811              		.loc 1 241 1 is_stmt 0 view .LVU226
 812 004c 03B0     		add	sp, sp, #12
 813              	.LCFI15:
 814              		.cfi_def_cfa_offset 4
 815              		@ sp needed
 816 004e 5DF804FB 		ldr	pc, [sp], #4
 817              	.L89:
 818 0052 00BF     		.align	2
 819              	.L88:
 820 0054 00000000 		.word	USB_DeviceState
 821 0058 00000000 		.word	device
 822              		.cfi_endproc
 823              	.LFE200:
 825              		.section	.text.CDC_Device_ReceiveByte,"ax",%progbits
 826              		.align	1
 827              		.p2align 2,,3
 828              		.global	CDC_Device_ReceiveByte
 829              		.syntax unified
 830              		.thumb
 831              		.thumb_func
 833              	CDC_Device_ReceiveByte:
 834              	.LVL69:
 835              	.LFB201:
 242:/opt/XMClib/XMC_Peripheral_Library_v2.1.16/ThirdPartyLibraries/USBlib/USB/Class/Device/CDCClassDevice.c **** 
 243:/opt/XMClib/XMC_Peripheral_Library_v2.1.16/ThirdPartyLibraries/USBlib/USB/Class/Device/CDCClassDevice.c **** int16_t CDC_Device_ReceiveByte(USB_ClassInfo_CDC_Device_t* const CDCInterfaceInfo)
 244:/opt/XMClib/XMC_Peripheral_Library_v2.1.16/ThirdPartyLibraries/USBlib/USB/Class/Device/CDCClassDevice.c **** {
 836              		.loc 1 244 1 is_stmt 1 view -0
 837              		.cfi_startproc
 838              		@ args = 0, pretend = 0, frame = 8
 839              		@ frame_needed = 0, uses_anonymous_args = 0
 245:/opt/XMClib/XMC_Peripheral_Library_v2.1.16/ThirdPartyLibraries/USBlib/USB/Class/Device/CDCClassDevice.c **** 	if ((USB_DeviceState != DEVICE_STATE_Configured) || !(CDCInterfaceInfo->State.LineEncoding.BaudRat
 840              		.loc 1 245 2 view .LVU228
 841              		.loc 1 245 23 is_stmt 0 view .LVU229
 842 0000 284B     		ldr	r3, .L113
 843 0002 1B78     		ldrb	r3, [r3]	@ zero_extendqisi2
 844              		.loc 1 245 5 view .LVU230
 845 0004 042B     		cmp	r3, #4
 846 0006 49D1     		bne	.L107
 847              		.loc 1 245 92 discriminator 1 view .LVU231
 848 0008 8369     		ldr	r3, [r0, #24]	@ unaligned
 849              		.loc 1 245 51 discriminator 1 view .LVU232
 850 000a 002B     		cmp	r3, #0
 851 000c 46D0     		beq	.L107
 246:/opt/XMClib/XMC_Peripheral_Library_v2.1.16/ThirdPartyLibraries/USBlib/USB/Class/Device/CDCClassDevice.c **** 	  return -1;
 247:/opt/XMClib/XMC_Peripheral_Library_v2.1.16/ThirdPartyLibraries/USBlib/USB/Class/Device/CDCClassDevice.c **** 
 248:/opt/XMClib/XMC_Peripheral_Library_v2.1.16/ThirdPartyLibraries/USBlib/USB/Class/Device/CDCClassDevice.c **** 	int16_t ReceivedByte = -1;
 852              		.loc 1 248 2 is_stmt 1 view .LVU233
 853              	.LVL70:
 249:/opt/XMClib/XMC_Peripheral_Library_v2.1.16/ThirdPartyLibraries/USBlib/USB/Class/Device/CDCClassDevice.c **** 
 250:/opt/XMClib/XMC_Peripheral_Library_v2.1.16/ThirdPartyLibraries/USBlib/USB/Class/Device/CDCClassDevice.c **** 	Endpoint_SelectEndpoint(CDCInterfaceInfo->Config.DataOUTEndpoint.Address);
 854              		.loc 1 250 2 view .LVU234
 244:/opt/XMClib/XMC_Peripheral_Library_v2.1.16/ThirdPartyLibraries/USBlib/USB/Class/Device/CDCClassDevice.c **** 	if ((USB_DeviceState != DEVICE_STATE_Configured) || !(CDCInterfaceInfo->State.LineEncoding.BaudRat
 855              		.loc 1 244 1 is_stmt 0 view .LVU235
 856 000e 10B5     		push	{r4, lr}
 857              	.LCFI16:
 858              		.cfi_def_cfa_offset 8
 859              		.cfi_offset 4, -8
 860              		.cfi_offset 14, -4
 861              		.loc 1 250 2 view .LVU236
 862 0010 027A     		ldrb	r2, [r0, #8]	@ zero_extendqisi2
 863              	.LVL71:
 864              	.LBB118:
 865              	.LBI118:
 129:/opt/XMClib/XMC_Peripheral_Library_v2.1.16/ThirdPartyLibraries/USBlib/USB/Class/Device/../../Core/XMC4000/../XMC4000/Endpoint_XMC4000.h **** 	{
 866              		.loc 2 129 21 is_stmt 1 view .LVU237
 867              	.LBB119:
 131:/opt/XMClib/XMC_Peripheral_Library_v2.1.16/ThirdPartyLibraries/USBlib/USB/Class/Device/../../Core/XMC4000/../XMC4000/Endpoint_XMC4000.h **** 		device.CurrentDirection = (Address & ENDPOINT_DIR_MASK);
 868              		.loc 2 131 3 view .LVU238
 131:/opt/XMClib/XMC_Peripheral_Library_v2.1.16/ThirdPartyLibraries/USBlib/USB/Class/Device/../../Core/XMC4000/../XMC4000/Endpoint_XMC4000.h **** 		device.CurrentDirection = (Address & ENDPOINT_DIR_MASK);
 869              		.loc 2 131 26 is_stmt 0 view .LVU239
 870 0012 254C     		ldr	r4, .L113+4
 131:/opt/XMClib/XMC_Peripheral_Library_v2.1.16/ThirdPartyLibraries/USBlib/USB/Class/Device/../../Core/XMC4000/../XMC4000/Endpoint_XMC4000.h **** 		device.CurrentDirection = (Address & ENDPOINT_DIR_MASK);
 871              		.loc 2 131 36 view .LVU240
 872 0014 02F00F00 		and	r0, r2, #15
 873              	.LVL72:
 131:/opt/XMClib/XMC_Peripheral_Library_v2.1.16/ThirdPartyLibraries/USBlib/USB/Class/Device/../../Core/XMC4000/../XMC4000/Endpoint_XMC4000.h **** 		device.CurrentDirection = (Address & ENDPOINT_DIR_MASK);
 874              		.loc 2 131 36 view .LVU241
 875              	.LBE119:
 876              	.LBE118:
 877              	.LBB122:
 878              	.LBB123:
 193:/opt/XMClib/XMC_Peripheral_Library_v2.1.16/ThirdPartyLibraries/USBlib/USB/Class/Device/../../Core/XMC4000/../XMC4000/Endpoint_XMC4000.h **** 	}
 879              		.loc 2 193 12 view .LVU242
 880 0018 2C23     		movs	r3, #44
 881              	.LBE123:
 882              	.LBE122:
 883              	.LBB127:
 884              	.LBB120:
 132:/opt/XMClib/XMC_Peripheral_Library_v2.1.16/ThirdPartyLibraries/USBlib/USB/Class/Device/../../Core/XMC4000/../XMC4000/Endpoint_XMC4000.h **** 	}
 885              		.loc 2 132 38 view .LVU243
 886 001a 22F07F02 		bic	r2, r2, #127
 887              	.LVL73:
 132:/opt/XMClib/XMC_Peripheral_Library_v2.1.16/ThirdPartyLibraries/USBlib/USB/Class/Device/../../Core/XMC4000/../XMC4000/Endpoint_XMC4000.h **** 	}
 888              		.loc 2 132 38 view .LVU244
 889              	.LBE120:
 890              	.LBE127:
 891              	.LBB128:
 892              	.LBB124:
 193:/opt/XMClib/XMC_Peripheral_Library_v2.1.16/ThirdPartyLibraries/USBlib/USB/Class/Device/../../Core/XMC4000/../XMC4000/Endpoint_XMC4000.h **** 	}
 893              		.loc 2 193 12 view .LVU245
 894 001e 03FB0043 		mla	r3, r3, r0, r4
 895              	.LBE124:
 896              	.LBE128:
 897              	.LBB129:
 898              	.LBB121:
 131:/opt/XMClib/XMC_Peripheral_Library_v2.1.16/ThirdPartyLibraries/USBlib/USB/Class/Device/../../Core/XMC4000/../XMC4000/Endpoint_XMC4000.h **** 		device.CurrentDirection = (Address & ENDPOINT_DIR_MASK);
 899              		.loc 2 131 26 view .LVU246
 900 0022 84F83C01 		strb	r0, [r4, #316]
 901              	.LVL74:
 132:/opt/XMClib/XMC_Peripheral_Library_v2.1.16/ThirdPartyLibraries/USBlib/USB/Class/Device/../../Core/XMC4000/../XMC4000/Endpoint_XMC4000.h **** 	}
 902              		.loc 2 132 3 is_stmt 1 view .LVU247
 132:/opt/XMClib/XMC_Peripheral_Library_v2.1.16/ThirdPartyLibraries/USBlib/USB/Class/Device/../../Core/XMC4000/../XMC4000/Endpoint_XMC4000.h **** 	}
 903              		.loc 2 132 27 is_stmt 0 view .LVU248
 904 0026 84F83D21 		strb	r2, [r4, #317]
 132:/opt/XMClib/XMC_Peripheral_Library_v2.1.16/ThirdPartyLibraries/USBlib/USB/Class/Device/../../Core/XMC4000/../XMC4000/Endpoint_XMC4000.h **** 	}
 905              		.loc 2 132 27 view .LVU249
 906              	.LBE121:
 907              	.LBE129:
 251:/opt/XMClib/XMC_Peripheral_Library_v2.1.16/ThirdPartyLibraries/USBlib/USB/Class/Device/CDCClassDevice.c **** 
 252:/opt/XMClib/XMC_Peripheral_Library_v2.1.16/ThirdPartyLibraries/USBlib/USB/Class/Device/CDCClassDevice.c **** 	if (Endpoint_IsOUTReceived())
 908              		.loc 1 252 2 is_stmt 1 view .LVU250
 909              	.LBB130:
 910              	.LBI122:
 190:/opt/XMClib/XMC_Peripheral_Library_v2.1.16/ThirdPartyLibraries/USBlib/USB/Class/Device/../../Core/XMC4000/../XMC4000/Endpoint_XMC4000.h **** 	{
 911              		.loc 2 190 21 view .LVU251
 912              	.LBB125:
 192:/opt/XMClib/XMC_Peripheral_Library_v2.1.16/ThirdPartyLibraries/USBlib/USB/Class/Device/../../Core/XMC4000/../XMC4000/Endpoint_XMC4000.h **** 		return ep->IsOutRecieved;
 913              		.loc 2 192 3 view .LVU252
 914              	.LVL75:
 193:/opt/XMClib/XMC_Peripheral_Library_v2.1.16/ThirdPartyLibraries/USBlib/USB/Class/Device/../../Core/XMC4000/../XMC4000/Endpoint_XMC4000.h **** 	}
 915              		.loc 2 193 3 view .LVU253
 193:/opt/XMClib/XMC_Peripheral_Library_v2.1.16/ThirdPartyLibraries/USBlib/USB/Class/Device/../../Core/XMC4000/../XMC4000/Endpoint_XMC4000.h **** 	}
 916              		.loc 2 193 12 is_stmt 0 view .LVU254
 917 002a 9A68     		ldr	r2, [r3, #8]
 918              	.LBE125:
 919              	.LBE130:
 920              		.loc 1 252 5 view .LVU255
 921 002c 9206     		lsls	r2, r2, #26
 244:/opt/XMClib/XMC_Peripheral_Library_v2.1.16/ThirdPartyLibraries/USBlib/USB/Class/Device/CDCClassDevice.c **** 	if ((USB_DeviceState != DEVICE_STATE_Configured) || !(CDCInterfaceInfo->State.LineEncoding.BaudRat
 922              		.loc 1 244 1 view .LVU256
 923 002e 82B0     		sub	sp, sp, #8
 924              	.LCFI17:
 925              		.cfi_def_cfa_offset 16
 926              	.LBB131:
 927              	.LBB126:
 192:/opt/XMClib/XMC_Peripheral_Library_v2.1.16/ThirdPartyLibraries/USBlib/USB/Class/Device/../../Core/XMC4000/../XMC4000/Endpoint_XMC4000.h **** 		return ep->IsOutRecieved;
 928              		.loc 2 192 49 view .LVU257
 929 0030 0146     		mov	r1, r0
 930              	.LBE126:
 931              	.LBE131:
 932              		.loc 1 252 5 view .LVU258
 933 0032 30D5     		bpl	.L93
 253:/opt/XMClib/XMC_Peripheral_Library_v2.1.16/ThirdPartyLibraries/USBlib/USB/Class/Device/CDCClassDevice.c **** 	{
 254:/opt/XMClib/XMC_Peripheral_Library_v2.1.16/ThirdPartyLibraries/USBlib/USB/Class/Device/CDCClassDevice.c **** 		if (Endpoint_BytesInEndpoint())
 934              		.loc 1 254 3 is_stmt 1 view .LVU259
 935              	.LBB132:
 936              	.LBI132:
 214:/opt/XMClib/XMC_Peripheral_Library_v2.1.16/ThirdPartyLibraries/USBlib/USB/Class/Device/../../Core/XMC4000/../XMC4000/Endpoint_XMC4000.h **** 	{
 937              		.loc 2 214 25 view .LVU260
 938              	.LBB133:
 216:/opt/XMClib/XMC_Peripheral_Library_v2.1.16/ThirdPartyLibraries/USBlib/USB/Class/Device/../../Core/XMC4000/../XMC4000/Endpoint_XMC4000.h **** 		if (ep->Direction)
 939              		.loc 2 216 3 view .LVU261
 940              	.LVL76:
 217:/opt/XMClib/XMC_Peripheral_Library_v2.1.16/ThirdPartyLibraries/USBlib/USB/Class/Device/../../Core/XMC4000/../XMC4000/Endpoint_XMC4000.h **** 			return ep->InBytesAvailable;
 941              		.loc 2 217 3 view .LVU262
 217:/opt/XMClib/XMC_Peripheral_Library_v2.1.16/ThirdPartyLibraries/USBlib/USB/Class/Device/../../Core/XMC4000/../XMC4000/Endpoint_XMC4000.h **** 			return ep->InBytesAvailable;
 942              		.loc 2 217 6 is_stmt 0 view .LVU263
 943 0034 93F90420 		ldrsb	r2, [r3, #4]
 944 0038 002A     		cmp	r2, #0
 945 003a 22DB     		blt	.L110
 946              		.loc 2 220 4 is_stmt 1 view .LVU264
 947              	.LBE133:
 948              	.LBE132:
 949              		.loc 1 254 6 is_stmt 0 view .LVU265
 950 003c 9B89     		ldrh	r3, [r3, #12]
 951 003e 43B9     		cbnz	r3, .L95
 248:/opt/XMClib/XMC_Peripheral_Library_v2.1.16/ThirdPartyLibraries/USBlib/USB/Class/Device/CDCClassDevice.c **** 
 952              		.loc 1 248 10 view .LVU266
 953 0040 4FF0FF30 		mov	r0, #-1
 954              	.LVL77:
 955              	.L97:
 956              	.LBB135:
 957              	.LBB136:
 958              		.loc 2 220 4 is_stmt 1 view .LVU267
 959              		.loc 2 220 13 is_stmt 0 view .LVU268
 960 0044 2C23     		movs	r3, #44
 961 0046 03FB0144 		mla	r4, r3, r1, r4
 962 004a A389     		ldrh	r3, [r4, #12]
 963              	.LBE136:
 964              	.LBE135:
 255:/opt/XMClib/XMC_Peripheral_Library_v2.1.16/ThirdPartyLibraries/USBlib/USB/Class/Device/CDCClassDevice.c **** 		  ReceivedByte = Endpoint_Read_8();
 256:/opt/XMClib/XMC_Peripheral_Library_v2.1.16/ThirdPartyLibraries/USBlib/USB/Class/Device/CDCClassDevice.c **** 
 257:/opt/XMClib/XMC_Peripheral_Library_v2.1.16/ThirdPartyLibraries/USBlib/USB/Class/Device/CDCClassDevice.c **** 		if (!(Endpoint_BytesInEndpoint()))
 965              		.loc 1 257 6 view .LVU269
 966 004c 9BB1     		cbz	r3, .L111
 967              	.LVL78:
 968              	.L92:
 258:/opt/XMClib/XMC_Peripheral_Library_v2.1.16/ThirdPartyLibraries/USBlib/USB/Class/Device/CDCClassDevice.c **** 		  Endpoint_ClearOUT();
 259:/opt/XMClib/XMC_Peripheral_Library_v2.1.16/ThirdPartyLibraries/USBlib/USB/Class/Device/CDCClassDevice.c **** 	}
 260:/opt/XMClib/XMC_Peripheral_Library_v2.1.16/ThirdPartyLibraries/USBlib/USB/Class/Device/CDCClassDevice.c **** 
 261:/opt/XMClib/XMC_Peripheral_Library_v2.1.16/ThirdPartyLibraries/USBlib/USB/Class/Device/CDCClassDevice.c **** 	return ReceivedByte;
 262:/opt/XMClib/XMC_Peripheral_Library_v2.1.16/ThirdPartyLibraries/USBlib/USB/Class/Device/CDCClassDevice.c **** }
 969              		.loc 1 262 1 view .LVU270
 970 004e 02B0     		add	sp, sp, #8
 971              	.LCFI18:
 972              		.cfi_remember_state
 973              		.cfi_def_cfa_offset 8
 974              		@ sp needed
 975 0050 10BD     		pop	{r4, pc}
 976              	.LVL79:
 977              	.L95:
 978              	.LCFI19:
 979              		.cfi_restore_state
 255:/opt/XMClib/XMC_Peripheral_Library_v2.1.16/ThirdPartyLibraries/USBlib/USB/Class/Device/CDCClassDevice.c **** 		  ReceivedByte = Endpoint_Read_8();
 980              		.loc 1 255 5 is_stmt 1 view .LVU271
 255:/opt/XMClib/XMC_Peripheral_Library_v2.1.16/ThirdPartyLibraries/USBlib/USB/Class/Device/CDCClassDevice.c **** 		  ReceivedByte = Endpoint_Read_8();
 981              		.loc 1 255 20 is_stmt 0 view .LVU272
 982 0052 FFF7FEFF 		bl	Endpoint_Read_8
 983              	.LVL80:
 984              	.LBB141:
 985              	.LBB137:
 216:/opt/XMClib/XMC_Peripheral_Library_v2.1.16/ThirdPartyLibraries/USBlib/USB/Class/Device/../../Core/XMC4000/../XMC4000/Endpoint_XMC4000.h **** 		if (ep->Direction)
 986              		.loc 2 216 49 view .LVU273
 987 0056 94F83C11 		ldrb	r1, [r4, #316]	@ zero_extendqisi2
 217:/opt/XMClib/XMC_Peripheral_Library_v2.1.16/ThirdPartyLibraries/USBlib/USB/Class/Device/../../Core/XMC4000/../XMC4000/Endpoint_XMC4000.h **** 			return ep->InBytesAvailable;
 988              		.loc 2 217 7 view .LVU274
 989 005a 2C23     		movs	r3, #44
 990 005c 03FB0143 		mla	r3, r3, r1, r4
 991              	.LBE137:
 992              	.LBE141:
 255:/opt/XMClib/XMC_Peripheral_Library_v2.1.16/ThirdPartyLibraries/USBlib/USB/Class/Device/CDCClassDevice.c **** 
 993              		.loc 1 255 18 view .LVU275
 994 0060 00B2     		sxth	r0, r0
 995              	.LVL81:
 257:/opt/XMClib/XMC_Peripheral_Library_v2.1.16/ThirdPartyLibraries/USBlib/USB/Class/Device/CDCClassDevice.c **** 		  Endpoint_ClearOUT();
 996              		.loc 1 257 3 is_stmt 1 view .LVU276
 997              	.LBB142:
 998              	.LBI135:
 214:/opt/XMClib/XMC_Peripheral_Library_v2.1.16/ThirdPartyLibraries/USBlib/USB/Class/Device/../../Core/XMC4000/../XMC4000/Endpoint_XMC4000.h **** 	{
 999              		.loc 2 214 25 view .LVU277
 1000              	.LBB138:
 216:/opt/XMClib/XMC_Peripheral_Library_v2.1.16/ThirdPartyLibraries/USBlib/USB/Class/Device/../../Core/XMC4000/../XMC4000/Endpoint_XMC4000.h **** 		if (ep->Direction)
 1001              		.loc 2 216 3 view .LVU278
 217:/opt/XMClib/XMC_Peripheral_Library_v2.1.16/ThirdPartyLibraries/USBlib/USB/Class/Device/../../Core/XMC4000/../XMC4000/Endpoint_XMC4000.h **** 			return ep->InBytesAvailable;
 1002              		.loc 2 217 3 view .LVU279
 217:/opt/XMClib/XMC_Peripheral_Library_v2.1.16/ThirdPartyLibraries/USBlib/USB/Class/Device/../../Core/XMC4000/../XMC4000/Endpoint_XMC4000.h **** 			return ep->InBytesAvailable;
 1003              		.loc 2 217 6 is_stmt 0 view .LVU280
 1004 0062 93F90430 		ldrsb	r3, [r3, #4]
 1005 0066 002B     		cmp	r3, #0
 1006 0068 ECDA     		bge	.L97
 218:/opt/XMClib/XMC_Peripheral_Library_v2.1.16/ThirdPartyLibraries/USBlib/USB/Class/Device/../../Core/XMC4000/../XMC4000/Endpoint_XMC4000.h **** 		else
 1007              		.loc 2 218 4 is_stmt 1 view .LVU281
 218:/opt/XMClib/XMC_Peripheral_Library_v2.1.16/ThirdPartyLibraries/USBlib/USB/Class/Device/../../Core/XMC4000/../XMC4000/Endpoint_XMC4000.h **** 		else
 1008              		.loc 2 218 13 is_stmt 0 view .LVU282
 1009 006a 2C23     		movs	r3, #44
 1010 006c 03FB0144 		mla	r4, r3, r1, r4
 1011 0070 A38B     		ldrh	r3, [r4, #28]
 1012              	.LVL82:
 1013              	.L112:
 218:/opt/XMClib/XMC_Peripheral_Library_v2.1.16/ThirdPartyLibraries/USBlib/USB/Class/Device/../../Core/XMC4000/../XMC4000/Endpoint_XMC4000.h **** 		else
 1014              		.loc 2 218 13 view .LVU283
 1015              	.LBE138:
 1016              	.LBE142:
 257:/opt/XMClib/XMC_Peripheral_Library_v2.1.16/ThirdPartyLibraries/USBlib/USB/Class/Device/CDCClassDevice.c **** 		  Endpoint_ClearOUT();
 1017              		.loc 1 257 6 view .LVU284
 1018 0072 002B     		cmp	r3, #0
 1019 0074 EBD1     		bne	.L92
 1020              	.L111:
 257:/opt/XMClib/XMC_Peripheral_Library_v2.1.16/ThirdPartyLibraries/USBlib/USB/Class/Device/CDCClassDevice.c **** 		  Endpoint_ClearOUT();
 1021              		.loc 1 257 6 view .LVU285
 1022 0076 0190     		str	r0, [sp, #4]
 258:/opt/XMClib/XMC_Peripheral_Library_v2.1.16/ThirdPartyLibraries/USBlib/USB/Class/Device/CDCClassDevice.c **** 	}
 1023              		.loc 1 258 5 is_stmt 1 view .LVU286
 1024 0078 FFF7FEFF 		bl	Endpoint_ClearOUT
 1025              	.LVL83:
 258:/opt/XMClib/XMC_Peripheral_Library_v2.1.16/ThirdPartyLibraries/USBlib/USB/Class/Device/CDCClassDevice.c **** 	}
 1026              		.loc 1 258 5 is_stmt 0 view .LVU287
 1027 007c 0198     		ldr	r0, [sp, #4]
 1028              		.loc 1 262 1 view .LVU288
 1029 007e 02B0     		add	sp, sp, #8
 1030              	.LCFI20:
 1031              		.cfi_remember_state
 1032              		.cfi_def_cfa_offset 8
 1033              		@ sp needed
 1034 0080 10BD     		pop	{r4, pc}
 1035              	.LVL84:
 1036              	.L110:
 1037              	.LCFI21:
 1038              		.cfi_restore_state
 1039              	.LBB143:
 1040              	.LBB134:
 218:/opt/XMClib/XMC_Peripheral_Library_v2.1.16/ThirdPartyLibraries/USBlib/USB/Class/Device/../../Core/XMC4000/../XMC4000/Endpoint_XMC4000.h **** 		else
 1041              		.loc 2 218 4 is_stmt 1 view .LVU289
 1042              	.LBE134:
 1043              	.LBE143:
 254:/opt/XMClib/XMC_Peripheral_Library_v2.1.16/ThirdPartyLibraries/USBlib/USB/Class/Device/CDCClassDevice.c **** 		  ReceivedByte = Endpoint_Read_8();
 1044              		.loc 1 254 6 is_stmt 0 view .LVU290
 1045 0082 9B8B     		ldrh	r3, [r3, #28]
 1046 0084 002B     		cmp	r3, #0
 1047 0086 E4D1     		bne	.L95
 1048              	.LBB144:
 1049              	.LBB139:
 218:/opt/XMClib/XMC_Peripheral_Library_v2.1.16/ThirdPartyLibraries/USBlib/USB/Class/Device/../../Core/XMC4000/../XMC4000/Endpoint_XMC4000.h **** 		else
 1050              		.loc 2 218 13 view .LVU291
 1051 0088 2C23     		movs	r3, #44
 1052 008a 03FB0144 		mla	r4, r3, r1, r4
 1053              	.LBE139:
 1054              	.LBE144:
 248:/opt/XMClib/XMC_Peripheral_Library_v2.1.16/ThirdPartyLibraries/USBlib/USB/Class/Device/CDCClassDevice.c **** 
 1055              		.loc 1 248 10 view .LVU292
 1056 008e 4FF0FF30 		mov	r0, #-1
 1057              	.LVL85:
 1058              	.LBB145:
 1059              	.LBB140:
 218:/opt/XMClib/XMC_Peripheral_Library_v2.1.16/ThirdPartyLibraries/USBlib/USB/Class/Device/../../Core/XMC4000/../XMC4000/Endpoint_XMC4000.h **** 		else
 1060              		.loc 2 218 4 is_stmt 1 view .LVU293
 218:/opt/XMClib/XMC_Peripheral_Library_v2.1.16/ThirdPartyLibraries/USBlib/USB/Class/Device/../../Core/XMC4000/../XMC4000/Endpoint_XMC4000.h **** 		else
 1061              		.loc 2 218 13 is_stmt 0 view .LVU294
 1062 0092 A38B     		ldrh	r3, [r4, #28]
 1063 0094 EDE7     		b	.L112
 1064              	.LVL86:
 1065              	.L93:
 218:/opt/XMClib/XMC_Peripheral_Library_v2.1.16/ThirdPartyLibraries/USBlib/USB/Class/Device/../../Core/XMC4000/../XMC4000/Endpoint_XMC4000.h **** 		else
 1066              		.loc 2 218 13 view .LVU295
 1067              	.LBE140:
 1068              	.LBE145:
 246:/opt/XMClib/XMC_Peripheral_Library_v2.1.16/ThirdPartyLibraries/USBlib/USB/Class/Device/CDCClassDevice.c **** 
 1069              		.loc 1 246 11 view .LVU296
 1070 0096 4FF0FF30 		mov	r0, #-1
 1071              	.LVL87:
 246:/opt/XMClib/XMC_Peripheral_Library_v2.1.16/ThirdPartyLibraries/USBlib/USB/Class/Device/CDCClassDevice.c **** 
 1072              		.loc 1 246 11 view .LVU297
 1073 009a D8E7     		b	.L92
 1074              	.LVL88:
 1075              	.L107:
 1076              	.LCFI22:
 1077              		.cfi_def_cfa_offset 0
 1078              		.cfi_restore 4
 1079              		.cfi_restore 14
 246:/opt/XMClib/XMC_Peripheral_Library_v2.1.16/ThirdPartyLibraries/USBlib/USB/Class/Device/CDCClassDevice.c **** 
 1080              		.loc 1 246 11 view .LVU298
 1081 009c 4FF0FF30 		mov	r0, #-1
 1082              	.LVL89:
 1083              		.loc 1 262 1 view .LVU299
 1084 00a0 7047     		bx	lr
 1085              	.L114:
 1086 00a2 00BF     		.align	2
 1087              	.L113:
 1088 00a4 00000000 		.word	USB_DeviceState
 1089 00a8 00000000 		.word	device
 1090              		.cfi_endproc
 1091              	.LFE201:
 1093              		.section	.text.CDC_Device_SendControlLineStateChange,"ax",%progbits
 1094              		.align	1
 1095              		.p2align 2,,3
 1096              		.global	CDC_Device_SendControlLineStateChange
 1097              		.syntax unified
 1098              		.thumb
 1099              		.thumb_func
 1101              	CDC_Device_SendControlLineStateChange:
 1102              	.LVL90:
 1103              	.LFB202:
 263:/opt/XMClib/XMC_Peripheral_Library_v2.1.16/ThirdPartyLibraries/USBlib/USB/Class/Device/CDCClassDevice.c **** 
 264:/opt/XMClib/XMC_Peripheral_Library_v2.1.16/ThirdPartyLibraries/USBlib/USB/Class/Device/CDCClassDevice.c **** void CDC_Device_SendControlLineStateChange(USB_ClassInfo_CDC_Device_t* const CDCInterfaceInfo)
 265:/opt/XMClib/XMC_Peripheral_Library_v2.1.16/ThirdPartyLibraries/USBlib/USB/Class/Device/CDCClassDevice.c **** {
 1104              		.loc 1 265 1 is_stmt 1 view -0
 1105              		.cfi_startproc
 1106              		@ args = 0, pretend = 0, frame = 8
 1107              		@ frame_needed = 0, uses_anonymous_args = 0
 266:/opt/XMClib/XMC_Peripheral_Library_v2.1.16/ThirdPartyLibraries/USBlib/USB/Class/Device/CDCClassDevice.c **** 	if ((USB_DeviceState != DEVICE_STATE_Configured) || !(CDCInterfaceInfo->State.LineEncoding.BaudRat
 1108              		.loc 1 266 2 view .LVU301
 1109              		.loc 1 266 23 is_stmt 0 view .LVU302
 1110 0000 154B     		ldr	r3, .L124
 1111 0002 1B78     		ldrb	r3, [r3]	@ zero_extendqisi2
 1112              		.loc 1 266 5 view .LVU303
 1113 0004 042B     		cmp	r3, #4
 1114 0006 06D1     		bne	.L120
 265:/opt/XMClib/XMC_Peripheral_Library_v2.1.16/ThirdPartyLibraries/USBlib/USB/Class/Device/CDCClassDevice.c **** 	if ((USB_DeviceState != DEVICE_STATE_Configured) || !(CDCInterfaceInfo->State.LineEncoding.BaudRat
 1115              		.loc 1 265 1 discriminator 1 view .LVU304
 1116 0008 30B5     		push	{r4, r5, lr}
 1117              	.LCFI23:
 1118              		.cfi_def_cfa_offset 12
 1119              		.cfi_offset 4, -12
 1120              		.cfi_offset 5, -8
 1121              		.cfi_offset 14, -4
 1122              		.loc 1 266 92 discriminator 1 view .LVU305
 1123 000a 8369     		ldr	r3, [r0, #24]	@ unaligned
 265:/opt/XMClib/XMC_Peripheral_Library_v2.1.16/ThirdPartyLibraries/USBlib/USB/Class/Device/CDCClassDevice.c **** 	if ((USB_DeviceState != DEVICE_STATE_Configured) || !(CDCInterfaceInfo->State.LineEncoding.BaudRat
 1124              		.loc 1 265 1 discriminator 1 view .LVU306
 1125 000c 83B0     		sub	sp, sp, #12
 1126              	.LCFI24:
 1127              		.cfi_def_cfa_offset 24
 1128 000e 0446     		mov	r4, r0
 1129              		.loc 1 266 51 discriminator 1 view .LVU307
 1130 0010 13B9     		cbnz	r3, .L123
 267:/opt/XMClib/XMC_Peripheral_Library_v2.1.16/ThirdPartyLibraries/USBlib/USB/Class/Device/CDCClassDevice.c **** 	  return;
 268:/opt/XMClib/XMC_Peripheral_Library_v2.1.16/ThirdPartyLibraries/USBlib/USB/Class/Device/CDCClassDevice.c **** 
 269:/opt/XMClib/XMC_Peripheral_Library_v2.1.16/ThirdPartyLibraries/USBlib/USB/Class/Device/CDCClassDevice.c **** 	Endpoint_SelectEndpoint(CDCInterfaceInfo->Config.NotificationEndpoint.Address);
 270:/opt/XMClib/XMC_Peripheral_Library_v2.1.16/ThirdPartyLibraries/USBlib/USB/Class/Device/CDCClassDevice.c **** 
 271:/opt/XMClib/XMC_Peripheral_Library_v2.1.16/ThirdPartyLibraries/USBlib/USB/Class/Device/CDCClassDevice.c **** 	USB_Request_Header_t Notification = (USB_Request_Header_t)
 272:/opt/XMClib/XMC_Peripheral_Library_v2.1.16/ThirdPartyLibraries/USBlib/USB/Class/Device/CDCClassDevice.c **** 		{
 273:/opt/XMClib/XMC_Peripheral_Library_v2.1.16/ThirdPartyLibraries/USBlib/USB/Class/Device/CDCClassDevice.c **** 			.bmRequestType = (REQDIR_DEVICETOHOST | REQTYPE_CLASS | REQREC_INTERFACE),
 274:/opt/XMClib/XMC_Peripheral_Library_v2.1.16/ThirdPartyLibraries/USBlib/USB/Class/Device/CDCClassDevice.c **** 			.bRequest      = CDC_NOTIF_SerialState,
 275:/opt/XMClib/XMC_Peripheral_Library_v2.1.16/ThirdPartyLibraries/USBlib/USB/Class/Device/CDCClassDevice.c **** 			.wValue        = CPU_TO_LE16(0),
 276:/opt/XMClib/XMC_Peripheral_Library_v2.1.16/ThirdPartyLibraries/USBlib/USB/Class/Device/CDCClassDevice.c **** 			.wIndex        = CPU_TO_LE16(0),
 277:/opt/XMClib/XMC_Peripheral_Library_v2.1.16/ThirdPartyLibraries/USBlib/USB/Class/Device/CDCClassDevice.c **** 			.wLength       = CPU_TO_LE16(sizeof(CDCInterfaceInfo->State.ControlLineStates.DeviceToHost)),
 278:/opt/XMClib/XMC_Peripheral_Library_v2.1.16/ThirdPartyLibraries/USBlib/USB/Class/Device/CDCClassDevice.c **** 		};
 279:/opt/XMClib/XMC_Peripheral_Library_v2.1.16/ThirdPartyLibraries/USBlib/USB/Class/Device/CDCClassDevice.c **** 
 280:/opt/XMClib/XMC_Peripheral_Library_v2.1.16/ThirdPartyLibraries/USBlib/USB/Class/Device/CDCClassDevice.c **** 	Endpoint_Write_Stream_LE(&Notification, sizeof(USB_Request_Header_t), NULL);
 281:/opt/XMClib/XMC_Peripheral_Library_v2.1.16/ThirdPartyLibraries/USBlib/USB/Class/Device/CDCClassDevice.c **** 	Endpoint_Write_Stream_LE(&CDCInterfaceInfo->State.ControlLineStates.DeviceToHost,
 282:/opt/XMClib/XMC_Peripheral_Library_v2.1.16/ThirdPartyLibraries/USBlib/USB/Class/Device/CDCClassDevice.c **** 	                         sizeof(CDCInterfaceInfo->State.ControlLineStates.DeviceToHost),
 283:/opt/XMClib/XMC_Peripheral_Library_v2.1.16/ThirdPartyLibraries/USBlib/USB/Class/Device/CDCClassDevice.c **** 	                         NULL);
 284:/opt/XMClib/XMC_Peripheral_Library_v2.1.16/ThirdPartyLibraries/USBlib/USB/Class/Device/CDCClassDevice.c **** 	Endpoint_ClearIN();
 285:/opt/XMClib/XMC_Peripheral_Library_v2.1.16/ThirdPartyLibraries/USBlib/USB/Class/Device/CDCClassDevice.c **** }
 1131              		.loc 1 285 1 view .LVU308
 1132 0012 03B0     		add	sp, sp, #12
 1133              	.LCFI25:
 1134              		.cfi_def_cfa_offset 12
 1135              		@ sp needed
 1136 0014 30BD     		pop	{r4, r5, pc}
 1137              	.L120:
 1138              	.LCFI26:
 1139              		.cfi_def_cfa_offset 0
 1140              		.cfi_restore 4
 1141              		.cfi_restore 5
 1142              		.cfi_restore 14
 1143 0016 7047     		bx	lr
 1144              	.L123:
 1145              	.LCFI27:
 1146              		.cfi_def_cfa_offset 24
 1147              		.cfi_offset 4, -12
 1148              		.cfi_offset 5, -8
 1149              		.cfi_offset 14, -4
 269:/opt/XMClib/XMC_Peripheral_Library_v2.1.16/ThirdPartyLibraries/USBlib/USB/Class/Device/CDCClassDevice.c **** 
 1150              		.loc 1 269 2 is_stmt 1 view .LVU309
 1151 0018 837B     		ldrb	r3, [r0, #14]	@ zero_extendqisi2
 1152              	.LVL91:
 1153              	.LBB146:
 1154              	.LBI146:
 129:/opt/XMClib/XMC_Peripheral_Library_v2.1.16/ThirdPartyLibraries/USBlib/USB/Class/Device/../../Core/XMC4000/../XMC4000/Endpoint_XMC4000.h **** 	{
 1155              		.loc 2 129 21 view .LVU310
 1156              	.LBB147:
 131:/opt/XMClib/XMC_Peripheral_Library_v2.1.16/ThirdPartyLibraries/USBlib/USB/Class/Device/../../Core/XMC4000/../XMC4000/Endpoint_XMC4000.h **** 		device.CurrentDirection = (Address & ENDPOINT_DIR_MASK);
 1157              		.loc 2 131 3 view .LVU311
 131:/opt/XMClib/XMC_Peripheral_Library_v2.1.16/ThirdPartyLibraries/USBlib/USB/Class/Device/../../Core/XMC4000/../XMC4000/Endpoint_XMC4000.h **** 		device.CurrentDirection = (Address & ENDPOINT_DIR_MASK);
 1158              		.loc 2 131 26 is_stmt 0 view .LVU312
 1159 001a 104D     		ldr	r5, .L124+4
 1160              	.LBE147:
 1161              	.LBE146:
 271:/opt/XMClib/XMC_Peripheral_Library_v2.1.16/ThirdPartyLibraries/USBlib/USB/Class/Device/CDCClassDevice.c **** 		{
 1162              		.loc 1 271 23 view .LVU313
 1163 001c 104A     		ldr	r2, .L124+8
 1164              	.LBB151:
 1165              	.LBB148:
 131:/opt/XMClib/XMC_Peripheral_Library_v2.1.16/ThirdPartyLibraries/USBlib/USB/Class/Device/../../Core/XMC4000/../XMC4000/Endpoint_XMC4000.h **** 		device.CurrentDirection = (Address & ENDPOINT_DIR_MASK);
 1166              		.loc 2 131 36 view .LVU314
 1167 001e 03F00F01 		and	r1, r3, #15
 131:/opt/XMClib/XMC_Peripheral_Library_v2.1.16/ThirdPartyLibraries/USBlib/USB/Class/Device/../../Core/XMC4000/../XMC4000/Endpoint_XMC4000.h **** 		device.CurrentDirection = (Address & ENDPOINT_DIR_MASK);
 1168              		.loc 2 131 26 view .LVU315
 1169 0022 85F83C11 		strb	r1, [r5, #316]
 132:/opt/XMClib/XMC_Peripheral_Library_v2.1.16/ThirdPartyLibraries/USBlib/USB/Class/Device/../../Core/XMC4000/../XMC4000/Endpoint_XMC4000.h **** 	}
 1170              		.loc 2 132 3 is_stmt 1 view .LVU316
 1171              	.LBE148:
 1172              	.LBE151:
 271:/opt/XMClib/XMC_Peripheral_Library_v2.1.16/ThirdPartyLibraries/USBlib/USB/Class/Device/CDCClassDevice.c **** 		{
 1173              		.loc 1 271 23 is_stmt 0 view .LVU317
 1174 0026 92E80300 		ldm	r2, {r0, r1}
 1175              	.LVL92:
 271:/opt/XMClib/XMC_Peripheral_Library_v2.1.16/ThirdPartyLibraries/USBlib/USB/Class/Device/CDCClassDevice.c **** 		{
 1176              		.loc 1 271 23 view .LVU318
 1177 002a EC46     		mov	ip, sp
 1178 002c 8CE80300 		stm	ip, {r0, r1}
 1179              	.LBB152:
 1180              	.LBB149:
 132:/opt/XMClib/XMC_Peripheral_Library_v2.1.16/ThirdPartyLibraries/USBlib/USB/Class/Device/../../Core/XMC4000/../XMC4000/Endpoint_XMC4000.h **** 	}
 1181              		.loc 2 132 38 view .LVU319
 1182 0030 23F07F03 		bic	r3, r3, #127
 1183              	.LVL93:
 132:/opt/XMClib/XMC_Peripheral_Library_v2.1.16/ThirdPartyLibraries/USBlib/USB/Class/Device/../../Core/XMC4000/../XMC4000/Endpoint_XMC4000.h **** 	}
 1184              		.loc 2 132 38 view .LVU320
 1185              	.LBE149:
 1186              	.LBE152:
 280:/opt/XMClib/XMC_Peripheral_Library_v2.1.16/ThirdPartyLibraries/USBlib/USB/Class/Device/CDCClassDevice.c **** 	Endpoint_Write_Stream_LE(&CDCInterfaceInfo->State.ControlLineStates.DeviceToHost,
 1187              		.loc 1 280 2 view .LVU321
 1188 0034 6046     		mov	r0, ip
 1189 0036 0022     		movs	r2, #0
 1190 0038 0821     		movs	r1, #8
 1191              	.LBB153:
 1192              	.LBB150:
 132:/opt/XMClib/XMC_Peripheral_Library_v2.1.16/ThirdPartyLibraries/USBlib/USB/Class/Device/../../Core/XMC4000/../XMC4000/Endpoint_XMC4000.h **** 	}
 1193              		.loc 2 132 27 view .LVU322
 1194 003a 85F83D31 		strb	r3, [r5, #317]
 132:/opt/XMClib/XMC_Peripheral_Library_v2.1.16/ThirdPartyLibraries/USBlib/USB/Class/Device/../../Core/XMC4000/../XMC4000/Endpoint_XMC4000.h **** 	}
 1195              		.loc 2 132 27 view .LVU323
 1196              	.LBE150:
 1197              	.LBE153:
 271:/opt/XMClib/XMC_Peripheral_Library_v2.1.16/ThirdPartyLibraries/USBlib/USB/Class/Device/CDCClassDevice.c **** 		{
 1198              		.loc 1 271 2 is_stmt 1 view .LVU324
 280:/opt/XMClib/XMC_Peripheral_Library_v2.1.16/ThirdPartyLibraries/USBlib/USB/Class/Device/CDCClassDevice.c **** 	Endpoint_Write_Stream_LE(&CDCInterfaceInfo->State.ControlLineStates.DeviceToHost,
 1199              		.loc 1 280 2 view .LVU325
 1200 003e FFF7FEFF 		bl	Endpoint_Write_Stream_LE
 1201              	.LVL94:
 281:/opt/XMClib/XMC_Peripheral_Library_v2.1.16/ThirdPartyLibraries/USBlib/USB/Class/Device/CDCClassDevice.c **** 	                         sizeof(CDCInterfaceInfo->State.ControlLineStates.DeviceToHost),
 1202              		.loc 1 281 2 view .LVU326
 1203 0042 0022     		movs	r2, #0
 1204 0044 0221     		movs	r1, #2
 1205 0046 04F11600 		add	r0, r4, #22
 1206 004a FFF7FEFF 		bl	Endpoint_Write_Stream_LE
 1207              	.LVL95:
 284:/opt/XMClib/XMC_Peripheral_Library_v2.1.16/ThirdPartyLibraries/USBlib/USB/Class/Device/CDCClassDevice.c **** }
 1208              		.loc 1 284 2 view .LVU327
 1209 004e FFF7FEFF 		bl	Endpoint_ClearIN
 1210              	.LVL96:
 1211              		.loc 1 285 1 is_stmt 0 view .LVU328
 1212 0052 03B0     		add	sp, sp, #12
 1213              	.LCFI28:
 1214              		.cfi_def_cfa_offset 12
 1215              		@ sp needed
 1216 0054 30BD     		pop	{r4, r5, pc}
 1217              	.LVL97:
 1218              	.L125:
 1219              		.loc 1 285 1 view .LVU329
 1220 0056 00BF     		.align	2
 1221              	.L124:
 1222 0058 00000000 		.word	USB_DeviceState
 1223 005c 00000000 		.word	device
 1224 0060 00000000 		.word	.LANCHOR0
 1225              		.cfi_endproc
 1226              	.LFE202:
 1228              		.section	.text.EVENT_CDC_Device_LineEncodingChanged,"ax",%progbits
 1229              		.align	1
 1230              		.p2align 2,,3
 1231              		.weak	EVENT_CDC_Device_LineEncodingChanged
 1232              		.syntax unified
 1233              		.thumb
 1234              		.thumb_func
 1236              	EVENT_CDC_Device_LineEncodingChanged:
 1237              	.LVL98:
 1238              	.LFB203:
 286:/opt/XMClib/XMC_Peripheral_Library_v2.1.16/ThirdPartyLibraries/USBlib/USB/Class/Device/CDCClassDevice.c **** 
 287:/opt/XMClib/XMC_Peripheral_Library_v2.1.16/ThirdPartyLibraries/USBlib/USB/Class/Device/CDCClassDevice.c **** #if defined(FDEV_SETUP_STREAM)
 288:/opt/XMClib/XMC_Peripheral_Library_v2.1.16/ThirdPartyLibraries/USBlib/USB/Class/Device/CDCClassDevice.c **** void CDC_Device_CreateStream(USB_ClassInfo_CDC_Device_t* const CDCInterfaceInfo,
 289:/opt/XMClib/XMC_Peripheral_Library_v2.1.16/ThirdPartyLibraries/USBlib/USB/Class/Device/CDCClassDevice.c ****                              FILE* const Stream)
 290:/opt/XMClib/XMC_Peripheral_Library_v2.1.16/ThirdPartyLibraries/USBlib/USB/Class/Device/CDCClassDevice.c **** {
 291:/opt/XMClib/XMC_Peripheral_Library_v2.1.16/ThirdPartyLibraries/USBlib/USB/Class/Device/CDCClassDevice.c **** 	*Stream = (FILE)FDEV_SETUP_STREAM(CDC_Device_putchar, CDC_Device_getchar, _FDEV_SETUP_RW);
 292:/opt/XMClib/XMC_Peripheral_Library_v2.1.16/ThirdPartyLibraries/USBlib/USB/Class/Device/CDCClassDevice.c **** 	fdev_set_udata(Stream, CDCInterfaceInfo);
 293:/opt/XMClib/XMC_Peripheral_Library_v2.1.16/ThirdPartyLibraries/USBlib/USB/Class/Device/CDCClassDevice.c **** }
 294:/opt/XMClib/XMC_Peripheral_Library_v2.1.16/ThirdPartyLibraries/USBlib/USB/Class/Device/CDCClassDevice.c **** 
 295:/opt/XMClib/XMC_Peripheral_Library_v2.1.16/ThirdPartyLibraries/USBlib/USB/Class/Device/CDCClassDevice.c **** void CDC_Device_CreateBlockingStream(USB_ClassInfo_CDC_Device_t* const CDCInterfaceInfo,
 296:/opt/XMClib/XMC_Peripheral_Library_v2.1.16/ThirdPartyLibraries/USBlib/USB/Class/Device/CDCClassDevice.c ****                                      FILE* const Stream)
 297:/opt/XMClib/XMC_Peripheral_Library_v2.1.16/ThirdPartyLibraries/USBlib/USB/Class/Device/CDCClassDevice.c **** {
 298:/opt/XMClib/XMC_Peripheral_Library_v2.1.16/ThirdPartyLibraries/USBlib/USB/Class/Device/CDCClassDevice.c **** 	*Stream = (FILE)FDEV_SETUP_STREAM(CDC_Device_putchar, CDC_Device_getchar_Blocking, _FDEV_SETUP_RW)
 299:/opt/XMClib/XMC_Peripheral_Library_v2.1.16/ThirdPartyLibraries/USBlib/USB/Class/Device/CDCClassDevice.c **** 	fdev_set_udata(Stream, CDCInterfaceInfo);
 300:/opt/XMClib/XMC_Peripheral_Library_v2.1.16/ThirdPartyLibraries/USBlib/USB/Class/Device/CDCClassDevice.c **** }
 301:/opt/XMClib/XMC_Peripheral_Library_v2.1.16/ThirdPartyLibraries/USBlib/USB/Class/Device/CDCClassDevice.c **** 
 302:/opt/XMClib/XMC_Peripheral_Library_v2.1.16/ThirdPartyLibraries/USBlib/USB/Class/Device/CDCClassDevice.c **** static int CDC_Device_putchar(char c,
 303:/opt/XMClib/XMC_Peripheral_Library_v2.1.16/ThirdPartyLibraries/USBlib/USB/Class/Device/CDCClassDevice.c ****                               FILE* Stream)
 304:/opt/XMClib/XMC_Peripheral_Library_v2.1.16/ThirdPartyLibraries/USBlib/USB/Class/Device/CDCClassDevice.c **** {
 305:/opt/XMClib/XMC_Peripheral_Library_v2.1.16/ThirdPartyLibraries/USBlib/USB/Class/Device/CDCClassDevice.c **** 	return CDC_Device_SendByte((USB_ClassInfo_CDC_Device_t*)fdev_get_udata(Stream), c) ? _FDEV_ERR : 0
 306:/opt/XMClib/XMC_Peripheral_Library_v2.1.16/ThirdPartyLibraries/USBlib/USB/Class/Device/CDCClassDevice.c **** }
 307:/opt/XMClib/XMC_Peripheral_Library_v2.1.16/ThirdPartyLibraries/USBlib/USB/Class/Device/CDCClassDevice.c **** 
 308:/opt/XMClib/XMC_Peripheral_Library_v2.1.16/ThirdPartyLibraries/USBlib/USB/Class/Device/CDCClassDevice.c **** static int CDC_Device_getchar(FILE* Stream)
 309:/opt/XMClib/XMC_Peripheral_Library_v2.1.16/ThirdPartyLibraries/USBlib/USB/Class/Device/CDCClassDevice.c **** {
 310:/opt/XMClib/XMC_Peripheral_Library_v2.1.16/ThirdPartyLibraries/USBlib/USB/Class/Device/CDCClassDevice.c **** 	int16_t ReceivedByte = CDC_Device_ReceiveByte((USB_ClassInfo_CDC_Device_t*)fdev_get_udata(Stream))
 311:/opt/XMClib/XMC_Peripheral_Library_v2.1.16/ThirdPartyLibraries/USBlib/USB/Class/Device/CDCClassDevice.c **** 
 312:/opt/XMClib/XMC_Peripheral_Library_v2.1.16/ThirdPartyLibraries/USBlib/USB/Class/Device/CDCClassDevice.c **** 	if (ReceivedByte < 0)
 313:/opt/XMClib/XMC_Peripheral_Library_v2.1.16/ThirdPartyLibraries/USBlib/USB/Class/Device/CDCClassDevice.c **** 	  return _FDEV_EOF;
 314:/opt/XMClib/XMC_Peripheral_Library_v2.1.16/ThirdPartyLibraries/USBlib/USB/Class/Device/CDCClassDevice.c **** 
 315:/opt/XMClib/XMC_Peripheral_Library_v2.1.16/ThirdPartyLibraries/USBlib/USB/Class/Device/CDCClassDevice.c **** 	return ReceivedByte;
 316:/opt/XMClib/XMC_Peripheral_Library_v2.1.16/ThirdPartyLibraries/USBlib/USB/Class/Device/CDCClassDevice.c **** }
 317:/opt/XMClib/XMC_Peripheral_Library_v2.1.16/ThirdPartyLibraries/USBlib/USB/Class/Device/CDCClassDevice.c **** 
 318:/opt/XMClib/XMC_Peripheral_Library_v2.1.16/ThirdPartyLibraries/USBlib/USB/Class/Device/CDCClassDevice.c **** static int CDC_Device_getchar_Blocking(FILE* Stream)
 319:/opt/XMClib/XMC_Peripheral_Library_v2.1.16/ThirdPartyLibraries/USBlib/USB/Class/Device/CDCClassDevice.c **** {
 320:/opt/XMClib/XMC_Peripheral_Library_v2.1.16/ThirdPartyLibraries/USBlib/USB/Class/Device/CDCClassDevice.c **** 	int16_t ReceivedByte;
 321:/opt/XMClib/XMC_Peripheral_Library_v2.1.16/ThirdPartyLibraries/USBlib/USB/Class/Device/CDCClassDevice.c **** 
 322:/opt/XMClib/XMC_Peripheral_Library_v2.1.16/ThirdPartyLibraries/USBlib/USB/Class/Device/CDCClassDevice.c **** 	while ((ReceivedByte = CDC_Device_ReceiveByte((USB_ClassInfo_CDC_Device_t*)fdev_get_udata(Stream))
 323:/opt/XMClib/XMC_Peripheral_Library_v2.1.16/ThirdPartyLibraries/USBlib/USB/Class/Device/CDCClassDevice.c **** 	{
 324:/opt/XMClib/XMC_Peripheral_Library_v2.1.16/ThirdPartyLibraries/USBlib/USB/Class/Device/CDCClassDevice.c **** 		if (USB_DeviceState == DEVICE_STATE_Unattached)
 325:/opt/XMClib/XMC_Peripheral_Library_v2.1.16/ThirdPartyLibraries/USBlib/USB/Class/Device/CDCClassDevice.c **** 		  return _FDEV_EOF;
 326:/opt/XMClib/XMC_Peripheral_Library_v2.1.16/ThirdPartyLibraries/USBlib/USB/Class/Device/CDCClassDevice.c **** 
 327:/opt/XMClib/XMC_Peripheral_Library_v2.1.16/ThirdPartyLibraries/USBlib/USB/Class/Device/CDCClassDevice.c **** 		CDC_Device_USBTask((USB_ClassInfo_CDC_Device_t*)fdev_get_udata(Stream));
 328:/opt/XMClib/XMC_Peripheral_Library_v2.1.16/ThirdPartyLibraries/USBlib/USB/Class/Device/CDCClassDevice.c **** 		USB_USBTask();
 329:/opt/XMClib/XMC_Peripheral_Library_v2.1.16/ThirdPartyLibraries/USBlib/USB/Class/Device/CDCClassDevice.c **** 	}
 330:/opt/XMClib/XMC_Peripheral_Library_v2.1.16/ThirdPartyLibraries/USBlib/USB/Class/Device/CDCClassDevice.c **** 
 331:/opt/XMClib/XMC_Peripheral_Library_v2.1.16/ThirdPartyLibraries/USBlib/USB/Class/Device/CDCClassDevice.c **** 	return ReceivedByte;
 332:/opt/XMClib/XMC_Peripheral_Library_v2.1.16/ThirdPartyLibraries/USBlib/USB/Class/Device/CDCClassDevice.c **** }
 333:/opt/XMClib/XMC_Peripheral_Library_v2.1.16/ThirdPartyLibraries/USBlib/USB/Class/Device/CDCClassDevice.c **** #endif
 334:/opt/XMClib/XMC_Peripheral_Library_v2.1.16/ThirdPartyLibraries/USBlib/USB/Class/Device/CDCClassDevice.c **** 
 335:/opt/XMClib/XMC_Peripheral_Library_v2.1.16/ThirdPartyLibraries/USBlib/USB/Class/Device/CDCClassDevice.c **** __WEAK void EVENT_CDC_Device_LineEncodingChanged(USB_ClassInfo_CDC_Device_t* const CDCInterfaceInfo
 336:/opt/XMClib/XMC_Peripheral_Library_v2.1.16/ThirdPartyLibraries/USBlib/USB/Class/Device/CDCClassDevice.c **** {
 1239              		.loc 1 336 1 is_stmt 1 view -0
 1240              		.cfi_startproc
 1241              		@ args = 0, pretend = 0, frame = 0
 1242              		@ frame_needed = 0, uses_anonymous_args = 0
 1243              		@ link register save eliminated.
 337:/opt/XMClib/XMC_Peripheral_Library_v2.1.16/ThirdPartyLibraries/USBlib/USB/Class/Device/CDCClassDevice.c **** }
 1244              		.loc 1 337 1 view .LVU331
 1245 0000 7047     		bx	lr
 1246              		.cfi_endproc
 1247              	.LFE203:
 1249 0002 00BF     		.section	.text.EVENT_CDC_Device_ControLineStateChanged,"ax",%progbits
 1250              		.align	1
 1251              		.p2align 2,,3
 1252              		.weak	EVENT_CDC_Device_ControLineStateChanged
 1253              		.syntax unified
 1254              		.thumb
 1255              		.thumb_func
 1257              	EVENT_CDC_Device_ControLineStateChanged:
 1258              	.LFB208:
 1259              		.cfi_startproc
 1260              		@ args = 0, pretend = 0, frame = 0
 1261              		@ frame_needed = 0, uses_anonymous_args = 0
 1262              		@ link register save eliminated.
 1263 0000 7047     		bx	lr
 1264              		.cfi_endproc
 1265              	.LFE208:
 1267 0002 00BF     		.section	.text.EVENT_CDC_Device_BreakSent,"ax",%progbits
 1268              		.align	1
 1269              		.p2align 2,,3
 1270              		.weak	EVENT_CDC_Device_BreakSent
 1271              		.syntax unified
 1272              		.thumb
 1273              		.thumb_func
 1275              	EVENT_CDC_Device_BreakSent:
 1276              	.LVL99:
 1277              	.LFB205:
 338:/opt/XMClib/XMC_Peripheral_Library_v2.1.16/ThirdPartyLibraries/USBlib/USB/Class/Device/CDCClassDevice.c **** 
 339:/opt/XMClib/XMC_Peripheral_Library_v2.1.16/ThirdPartyLibraries/USBlib/USB/Class/Device/CDCClassDevice.c **** __WEAK void EVENT_CDC_Device_ControLineStateChanged(USB_ClassInfo_CDC_Device_t* const CDCInterfaceI
 340:/opt/XMClib/XMC_Peripheral_Library_v2.1.16/ThirdPartyLibraries/USBlib/USB/Class/Device/CDCClassDevice.c **** {
 341:/opt/XMClib/XMC_Peripheral_Library_v2.1.16/ThirdPartyLibraries/USBlib/USB/Class/Device/CDCClassDevice.c **** }
 342:/opt/XMClib/XMC_Peripheral_Library_v2.1.16/ThirdPartyLibraries/USBlib/USB/Class/Device/CDCClassDevice.c **** 
 343:/opt/XMClib/XMC_Peripheral_Library_v2.1.16/ThirdPartyLibraries/USBlib/USB/Class/Device/CDCClassDevice.c **** __WEAK void EVENT_CDC_Device_BreakSent(USB_ClassInfo_CDC_Device_t* const CDCInterfaceInfo,
 344:/opt/XMClib/XMC_Peripheral_Library_v2.1.16/ThirdPartyLibraries/USBlib/USB/Class/Device/CDCClassDevice.c **** 				                               const uint8_t Duration)
 345:/opt/XMClib/XMC_Peripheral_Library_v2.1.16/ThirdPartyLibraries/USBlib/USB/Class/Device/CDCClassDevice.c **** {
 1278              		.loc 1 345 1 view -0
 1279              		.cfi_startproc
 1280              		@ args = 0, pretend = 0, frame = 0
 1281              		@ frame_needed = 0, uses_anonymous_args = 0
 1282              		@ link register save eliminated.
 346:/opt/XMClib/XMC_Peripheral_Library_v2.1.16/ThirdPartyLibraries/USBlib/USB/Class/Device/CDCClassDevice.c **** }
 1283              		.loc 1 346 1 view .LVU333
 1284 0000 7047     		bx	lr
 1285              		.cfi_endproc
 1286              	.LFE205:
 1288 0002 00BF     		.section	.text.CDC_Device_ProcessControlRequest,"ax",%progbits
 1289              		.align	1
 1290              		.p2align 2,,3
 1291              		.global	CDC_Device_ProcessControlRequest
 1292              		.syntax unified
 1293              		.thumb
 1294              		.thumb_func
 1296              	CDC_Device_ProcessControlRequest:
 1297              	.LVL100:
 1298              	.LFB193:
  41:/opt/XMClib/XMC_Peripheral_Library_v2.1.16/ThirdPartyLibraries/USBlib/USB/Class/Device/CDCClassDevice.c **** 	if (!(Endpoint_IsSETUPReceived()))
 1299              		.loc 1 41 1 view -0
 1300              		.cfi_startproc
 1301              		@ args = 0, pretend = 0, frame = 0
 1302              		@ frame_needed = 0, uses_anonymous_args = 0
  42:/opt/XMClib/XMC_Peripheral_Library_v2.1.16/ThirdPartyLibraries/USBlib/USB/Class/Device/CDCClassDevice.c **** 	  return;
 1303              		.loc 1 42 2 view .LVU335
 1304              	.LBB154:
 1305              	.LBI154:
 142:/opt/XMClib/XMC_Peripheral_Library_v2.1.16/ThirdPartyLibraries/USBlib/USB/Class/Device/../../Core/XMC4000/../XMC4000/Endpoint_XMC4000.h **** 	{
 1306              		.loc 2 142 21 view .LVU336
 1307              	.LBB155:
 144:/opt/XMClib/XMC_Peripheral_Library_v2.1.16/ThirdPartyLibraries/USBlib/USB/Class/Device/../../Core/XMC4000/../XMC4000/Endpoint_XMC4000.h **** 	}
 1308              		.loc 2 144 3 view .LVU337
 144:/opt/XMClib/XMC_Peripheral_Library_v2.1.16/ThirdPartyLibraries/USBlib/USB/Class/Device/../../Core/XMC4000/../XMC4000/Endpoint_XMC4000.h **** 	}
 1309              		.loc 2 144 16 is_stmt 0 view .LVU338
 1310 0000 434B     		ldr	r3, .L152
 1311 0002 93F83E21 		ldrb	r2, [r3, #318]	@ zero_extendqisi2
 1312              	.LBE155:
 1313              	.LBE154:
  42:/opt/XMClib/XMC_Peripheral_Library_v2.1.16/ThirdPartyLibraries/USBlib/USB/Class/Device/CDCClassDevice.c **** 	  return;
 1314              		.loc 1 42 5 view .LVU339
 1315 0006 9207     		lsls	r2, r2, #30
 1316 0008 0FD5     		bpl	.L148
  45:/opt/XMClib/XMC_Peripheral_Library_v2.1.16/ThirdPartyLibraries/USBlib/USB/Class/Device/CDCClassDevice.c **** 	  return;
 1317              		.loc 1 45 2 is_stmt 1 view .LVU340
  41:/opt/XMClib/XMC_Peripheral_Library_v2.1.16/ThirdPartyLibraries/USBlib/USB/Class/Device/CDCClassDevice.c **** 	if (!(Endpoint_IsSETUPReceived()))
 1318              		.loc 1 41 1 is_stmt 0 view .LVU341
 1319 000a 10B5     		push	{r4, lr}
 1320              	.LCFI29:
 1321              		.cfi_def_cfa_offset 8
 1322              		.cfi_offset 4, -8
 1323              		.cfi_offset 14, -4
  45:/opt/XMClib/XMC_Peripheral_Library_v2.1.16/ThirdPartyLibraries/USBlib/USB/Class/Device/CDCClassDevice.c **** 	  return;
 1324              		.loc 1 45 24 view .LVU342
 1325 000c 414A     		ldr	r2, .L152+4
  45:/opt/XMClib/XMC_Peripheral_Library_v2.1.16/ThirdPartyLibraries/USBlib/USB/Class/Device/CDCClassDevice.c **** 	  return;
 1326              		.loc 1 45 5 view .LVU343
 1327 000e 0178     		ldrb	r1, [r0]	@ zero_extendqisi2
 1328 0010 0446     		mov	r4, r0
 1329 0012 9088     		ldrh	r0, [r2, #4]	@ unaligned
 1330              	.LVL101:
  45:/opt/XMClib/XMC_Peripheral_Library_v2.1.16/ThirdPartyLibraries/USBlib/USB/Class/Device/CDCClassDevice.c **** 	  return;
 1331              		.loc 1 45 5 view .LVU344
 1332 0014 8842     		cmp	r0, r1
 1333 0016 00D0     		beq	.L151
 1334              	.L129:
 113:/opt/XMClib/XMC_Peripheral_Library_v2.1.16/ThirdPartyLibraries/USBlib/USB/Class/Device/CDCClassDevice.c **** 
 1335              		.loc 1 113 1 view .LVU345
 1336 0018 10BD     		pop	{r4, pc}
 1337              	.LVL102:
 1338              	.L151:
  48:/opt/XMClib/XMC_Peripheral_Library_v2.1.16/ThirdPartyLibraries/USBlib/USB/Class/Device/CDCClassDevice.c **** 	{
 1339              		.loc 1 48 2 is_stmt 1 view .LVU346
 1340 001a 5178     		ldrb	r1, [r2, #1]	@ zero_extendqisi2
 1341 001c 2039     		subs	r1, r1, #32
 1342 001e 0329     		cmp	r1, #3
 1343 0020 FAD8     		bhi	.L129
 1344 0022 DFE801F0 		tbb	[pc, r1]
 1345              	.L134:
 1346 0026 4C       		.byte	(.L137-.L134)/2
 1347 0027 28       		.byte	(.L136-.L134)/2
 1348 0028 13       		.byte	(.L135-.L134)/2
 1349 0029 03       		.byte	(.L133-.L134)/2
 1350              	.LVL103:
 1351              		.p2align 1
 1352              	.L148:
 1353              	.LCFI30:
 1354              		.cfi_def_cfa_offset 0
 1355              		.cfi_restore 4
 1356              		.cfi_restore 14
  48:/opt/XMClib/XMC_Peripheral_Library_v2.1.16/ThirdPartyLibraries/USBlib/USB/Class/Device/CDCClassDevice.c **** 	{
 1357              		.loc 1 48 2 is_stmt 0 view .LVU347
 1358 002a 7047     		bx	lr
 1359              	.LVL104:
 1360              	.L133:
 1361              	.LCFI31:
 1362              		.cfi_def_cfa_offset 8
 1363              		.cfi_offset 4, -8
 1364              		.cfi_offset 14, -4
 103:/opt/XMClib/XMC_Peripheral_Library_v2.1.16/ThirdPartyLibraries/USBlib/USB/Class/Device/CDCClassDevice.c **** 			{
 1365              		.loc 1 103 4 is_stmt 1 view .LVU348
 103:/opt/XMClib/XMC_Peripheral_Library_v2.1.16/ThirdPartyLibraries/USBlib/USB/Class/Device/CDCClassDevice.c **** 			{
 1366              		.loc 1 103 7 is_stmt 0 view .LVU349
 1367 002c 1178     		ldrb	r1, [r2]	@ zero_extendqisi2
 1368 002e 2129     		cmp	r1, #33
 1369 0030 F2D1     		bne	.L129
 105:/opt/XMClib/XMC_Peripheral_Library_v2.1.16/ThirdPartyLibraries/USBlib/USB/Class/Device/CDCClassDevice.c **** 				Endpoint_ClearStatusStage();
 1370              		.loc 1 105 5 is_stmt 1 view .LVU350
 1371              	.LBB156:
 1372              	.LBI156:
 156:/opt/XMClib/XMC_Peripheral_Library_v2.1.16/ThirdPartyLibraries/USBlib/USB/Class/Device/../../Core/XMC4000/../XMC4000/Endpoint_XMC4000.h **** 	{
 1373              		.loc 2 156 21 view .LVU351
 1374              	.LBB157:
 158:/opt/XMClib/XMC_Peripheral_Library_v2.1.16/ThirdPartyLibraries/USBlib/USB/Class/Device/../../Core/XMC4000/../XMC4000/Endpoint_XMC4000.h **** 	}
 1375              		.loc 2 158 3 view .LVU352
 158:/opt/XMClib/XMC_Peripheral_Library_v2.1.16/ThirdPartyLibraries/USBlib/USB/Class/Device/../../Core/XMC4000/../XMC4000/Endpoint_XMC4000.h **** 	}
 1376              		.loc 2 158 26 is_stmt 0 view .LVU353
 1377 0032 93F83E01 		ldrb	r0, [r3, #318]	@ zero_extendqisi2
 1378              	.LBE157:
 1379              	.LBE156:
 108:/opt/XMClib/XMC_Peripheral_Library_v2.1.16/ThirdPartyLibraries/USBlib/USB/Class/Device/CDCClassDevice.c **** 			}
 1380              		.loc 1 108 77 view .LVU354
 1381 0036 5188     		ldrh	r1, [r2, #2]	@ unaligned
 1382              	.LBB160:
 1383              	.LBB158:
 158:/opt/XMClib/XMC_Peripheral_Library_v2.1.16/ThirdPartyLibraries/USBlib/USB/Class/Device/../../Core/XMC4000/../XMC4000/Endpoint_XMC4000.h **** 	}
 1384              		.loc 2 158 26 view .LVU355
 1385 0038 0246     		mov	r2, r0
 1386 003a 6FF34102 		bfc	r2, #1, #1
 1387              	.LBE158:
 1388              	.LBE160:
 108:/opt/XMClib/XMC_Peripheral_Library_v2.1.16/ThirdPartyLibraries/USBlib/USB/Class/Device/CDCClassDevice.c **** 			}
 1389              		.loc 1 108 5 view .LVU356
 1390 003e C9B2     		uxtb	r1, r1
 1391 0040 2046     		mov	r0, r4
 1392              	.LBB161:
 1393              	.LBB159:
 158:/opt/XMClib/XMC_Peripheral_Library_v2.1.16/ThirdPartyLibraries/USBlib/USB/Class/Device/../../Core/XMC4000/../XMC4000/Endpoint_XMC4000.h **** 	}
 1394              		.loc 2 158 26 view .LVU357
 1395 0042 83F83E21 		strb	r2, [r3, #318]
 1396              	.LBE159:
 1397              	.LBE161:
 106:/opt/XMClib/XMC_Peripheral_Library_v2.1.16/ThirdPartyLibraries/USBlib/USB/Class/Device/CDCClassDevice.c **** 
 1398              		.loc 1 106 5 is_stmt 1 view .LVU358
 168:/opt/XMClib/XMC_Peripheral_Library_v2.1.16/ThirdPartyLibraries/USBlib/USB/Class/Device/../../Core/XMC4000/../XMC4000/Endpoint_XMC4000.h **** 
 1399              		.loc 2 168 2 view .LVU359
 108:/opt/XMClib/XMC_Peripheral_Library_v2.1.16/ThirdPartyLibraries/USBlib/USB/Class/Device/CDCClassDevice.c **** 			}
 1400              		.loc 1 108 5 view .LVU360
 1401 0046 FFF7FEFF 		bl	EVENT_CDC_Device_BreakSent
 1402              	.LVL105:
 113:/opt/XMClib/XMC_Peripheral_Library_v2.1.16/ThirdPartyLibraries/USBlib/USB/Class/Device/CDCClassDevice.c **** 
 1403              		.loc 1 113 1 is_stmt 0 view .LVU361
 1404 004a 10BD     		pop	{r4, pc}
 1405              	.LVL106:
 1406              	.L135:
  91:/opt/XMClib/XMC_Peripheral_Library_v2.1.16/ThirdPartyLibraries/USBlib/USB/Class/Device/CDCClassDevice.c **** 			{
 1407              		.loc 1 91 4 is_stmt 1 view .LVU362
  91:/opt/XMClib/XMC_Peripheral_Library_v2.1.16/ThirdPartyLibraries/USBlib/USB/Class/Device/CDCClassDevice.c **** 			{
 1408              		.loc 1 91 7 is_stmt 0 view .LVU363
 1409 004c 1178     		ldrb	r1, [r2]	@ zero_extendqisi2
 1410 004e 2129     		cmp	r1, #33
 1411 0050 E2D1     		bne	.L129
  93:/opt/XMClib/XMC_Peripheral_Library_v2.1.16/ThirdPartyLibraries/USBlib/USB/Class/Device/CDCClassDevice.c **** 				Endpoint_ClearStatusStage();
 1412              		.loc 1 93 5 is_stmt 1 view .LVU364
 1413              	.LBB162:
 1414              	.LBI162:
 156:/opt/XMClib/XMC_Peripheral_Library_v2.1.16/ThirdPartyLibraries/USBlib/USB/Class/Device/../../Core/XMC4000/../XMC4000/Endpoint_XMC4000.h **** 	{
 1415              		.loc 2 156 21 view .LVU365
 1416              	.LBB163:
 158:/opt/XMClib/XMC_Peripheral_Library_v2.1.16/ThirdPartyLibraries/USBlib/USB/Class/Device/../../Core/XMC4000/../XMC4000/Endpoint_XMC4000.h **** 	}
 1417              		.loc 2 158 3 view .LVU366
 158:/opt/XMClib/XMC_Peripheral_Library_v2.1.16/ThirdPartyLibraries/USBlib/USB/Class/Device/../../Core/XMC4000/../XMC4000/Endpoint_XMC4000.h **** 	}
 1418              		.loc 2 158 26 is_stmt 0 view .LVU367
 1419 0052 93F83E11 		ldrb	r1, [r3, #318]	@ zero_extendqisi2
 1420              	.LBE163:
 1421              	.LBE162:
  96:/opt/XMClib/XMC_Peripheral_Library_v2.1.16/ThirdPartyLibraries/USBlib/USB/Class/Device/CDCClassDevice.c **** 
 1422              		.loc 1 96 80 view .LVU368
 1423 0056 92F802C0 		ldrb	ip, [r2, #2]	@ zero_extendqisi2
 1424 005a D278     		ldrb	r2, [r2, #3]	@ zero_extendqisi2
 1425 005c 4CEA022C 		orr	ip, ip, r2, lsl #8
 1426              	.LBB165:
 1427              	.LBB164:
 158:/opt/XMClib/XMC_Peripheral_Library_v2.1.16/ThirdPartyLibraries/USBlib/USB/Class/Device/../../Core/XMC4000/../XMC4000/Endpoint_XMC4000.h **** 	}
 1428              		.loc 2 158 26 view .LVU369
 1429 0060 0A46     		mov	r2, r1
 1430 0062 6FF34102 		bfc	r2, #1, #1
 1431 0066 83F83E21 		strb	r2, [r3, #318]
 1432              	.LBE164:
 1433              	.LBE165:
  94:/opt/XMClib/XMC_Peripheral_Library_v2.1.16/ThirdPartyLibraries/USBlib/USB/Class/Device/CDCClassDevice.c **** 
 1434              		.loc 1 94 5 is_stmt 1 view .LVU370
 168:/opt/XMClib/XMC_Peripheral_Library_v2.1.16/ThirdPartyLibraries/USBlib/USB/Class/Device/../../Core/XMC4000/../XMC4000/Endpoint_XMC4000.h **** 
 1435              		.loc 2 168 2 view .LVU371
  96:/opt/XMClib/XMC_Peripheral_Library_v2.1.16/ThirdPartyLibraries/USBlib/USB/Class/Device/CDCClassDevice.c **** 
 1436              		.loc 1 96 5 view .LVU372
  98:/opt/XMClib/XMC_Peripheral_Library_v2.1.16/ThirdPartyLibraries/USBlib/USB/Class/Device/CDCClassDevice.c **** 			}
 1437              		.loc 1 98 5 is_stmt 0 view .LVU373
 1438 006a 2046     		mov	r0, r4
  96:/opt/XMClib/XMC_Peripheral_Library_v2.1.16/ThirdPartyLibraries/USBlib/USB/Class/Device/CDCClassDevice.c **** 
 1439              		.loc 1 96 60 view .LVU374
 1440 006c A4F814C0 		strh	ip, [r4, #20]	@ movhi
  98:/opt/XMClib/XMC_Peripheral_Library_v2.1.16/ThirdPartyLibraries/USBlib/USB/Class/Device/CDCClassDevice.c **** 			}
 1441              		.loc 1 98 5 is_stmt 1 view .LVU375
 1442 0070 FFF7FEFF 		bl	EVENT_CDC_Device_ControLineStateChanged
 1443              	.LVL107:
 113:/opt/XMClib/XMC_Peripheral_Library_v2.1.16/ThirdPartyLibraries/USBlib/USB/Class/Device/CDCClassDevice.c **** 
 1444              		.loc 1 113 1 is_stmt 0 view .LVU376
 1445 0074 10BD     		pop	{r4, pc}
 1446              	.LVL108:
 1447              	.L136:
  51:/opt/XMClib/XMC_Peripheral_Library_v2.1.16/ThirdPartyLibraries/USBlib/USB/Class/Device/CDCClassDevice.c **** 			{
 1448              		.loc 1 51 4 is_stmt 1 view .LVU377
  51:/opt/XMClib/XMC_Peripheral_Library_v2.1.16/ThirdPartyLibraries/USBlib/USB/Class/Device/CDCClassDevice.c **** 			{
 1449              		.loc 1 51 7 is_stmt 0 view .LVU378
 1450 0076 1278     		ldrb	r2, [r2]	@ zero_extendqisi2
 1451 0078 A12A     		cmp	r2, #161
 1452 007a CDD1     		bne	.L129
  53:/opt/XMClib/XMC_Peripheral_Library_v2.1.16/ThirdPartyLibraries/USBlib/USB/Class/Device/CDCClassDevice.c **** 
 1453              		.loc 1 53 5 is_stmt 1 view .LVU379
 1454              	.LBB166:
 1455              	.LBI166:
 156:/opt/XMClib/XMC_Peripheral_Library_v2.1.16/ThirdPartyLibraries/USBlib/USB/Class/Device/../../Core/XMC4000/../XMC4000/Endpoint_XMC4000.h **** 	{
 1456              		.loc 2 156 21 view .LVU380
 1457              	.LBB167:
 158:/opt/XMClib/XMC_Peripheral_Library_v2.1.16/ThirdPartyLibraries/USBlib/USB/Class/Device/../../Core/XMC4000/../XMC4000/Endpoint_XMC4000.h **** 	}
 1458              		.loc 2 158 3 view .LVU381
 158:/opt/XMClib/XMC_Peripheral_Library_v2.1.16/ThirdPartyLibraries/USBlib/USB/Class/Device/../../Core/XMC4000/../XMC4000/Endpoint_XMC4000.h **** 	}
 1459              		.loc 2 158 26 is_stmt 0 view .LVU382
 1460 007c 93F83E11 		ldrb	r1, [r3, #318]	@ zero_extendqisi2
 1461              	.LBE167:
 1462              	.LBE166:
 1463              	.LBB170:
 1464              	.LBB171:
 179:/opt/XMClib/XMC_Peripheral_Library_v2.1.16/ThirdPartyLibraries/USBlib/USB/Class/Device/../../Core/XMC4000/../XMC4000/Endpoint_XMC4000.h **** 		return ep->InInUse == 0 && ep->IsEnabled;
 1465              		.loc 2 179 49 view .LVU383
 1466 0080 93F83C21 		ldrb	r2, [r3, #316]	@ zero_extendqisi2
 1467              	.LBE171:
 1468              	.LBE170:
 1469              	.LBB175:
 1470              	.LBB168:
 158:/opt/XMClib/XMC_Peripheral_Library_v2.1.16/ThirdPartyLibraries/USBlib/USB/Class/Device/../../Core/XMC4000/../XMC4000/Endpoint_XMC4000.h **** 	}
 1471              		.loc 2 158 26 view .LVU384
 1472 0084 6FF34101 		bfc	r1, #1, #1
 1473              	.LBE168:
 1474              	.LBE175:
 1475              	.LBB176:
 1476              	.LBB172:
 180:/opt/XMClib/XMC_Peripheral_Library_v2.1.16/ThirdPartyLibraries/USBlib/USB/Class/Device/../../Core/XMC4000/../XMC4000/Endpoint_XMC4000.h **** 	}
 1477              		.loc 2 180 12 view .LVU385
 1478 0088 2C20     		movs	r0, #44
 1479              	.LBE172:
 1480              	.LBE176:
 1481              	.LBB177:
 1482              	.LBB169:
 158:/opt/XMClib/XMC_Peripheral_Library_v2.1.16/ThirdPartyLibraries/USBlib/USB/Class/Device/../../Core/XMC4000/../XMC4000/Endpoint_XMC4000.h **** 	}
 1483              		.loc 2 158 26 view .LVU386
 1484 008a 83F83E11 		strb	r1, [r3, #318]
 1485              	.LBE169:
 1486              	.LBE177:
 1487              	.LBB178:
 1488              	.LBB173:
 180:/opt/XMClib/XMC_Peripheral_Library_v2.1.16/ThirdPartyLibraries/USBlib/USB/Class/Device/../../Core/XMC4000/../XMC4000/Endpoint_XMC4000.h **** 	}
 1489              		.loc 2 180 12 view .LVU387
 1490 008e 00FB0233 		mla	r3, r0, r2, r3
 1491              	.L138:
 1492              	.LBE173:
 1493              	.LBE178:
  55:/opt/XMClib/XMC_Peripheral_Library_v2.1.16/ThirdPartyLibraries/USBlib/USB/Class/Device/CDCClassDevice.c **** 
 1494              		.loc 1 55 36 is_stmt 1 discriminator 1 view .LVU388
  55:/opt/XMClib/XMC_Peripheral_Library_v2.1.16/ThirdPartyLibraries/USBlib/USB/Class/Device/CDCClassDevice.c **** 
 1495              		.loc 1 55 11 discriminator 1 view .LVU389
 1496              	.LBB179:
 1497              	.LBI170:
 177:/opt/XMClib/XMC_Peripheral_Library_v2.1.16/ThirdPartyLibraries/USBlib/USB/Class/Device/../../Core/XMC4000/../XMC4000/Endpoint_XMC4000.h **** 	{
 1498              		.loc 2 177 21 discriminator 1 view .LVU390
 1499              	.LBB174:
 179:/opt/XMClib/XMC_Peripheral_Library_v2.1.16/ThirdPartyLibraries/USBlib/USB/Class/Device/../../Core/XMC4000/../XMC4000/Endpoint_XMC4000.h **** 		return ep->InInUse == 0 && ep->IsEnabled;
 1500              		.loc 2 179 3 discriminator 1 view .LVU391
 1501              	.LVL109:
 180:/opt/XMClib/XMC_Peripheral_Library_v2.1.16/ThirdPartyLibraries/USBlib/USB/Class/Device/../../Core/XMC4000/../XMC4000/Endpoint_XMC4000.h **** 	}
 1502              		.loc 2 180 3 discriminator 1 view .LVU392
 180:/opt/XMClib/XMC_Peripheral_Library_v2.1.16/ThirdPartyLibraries/USBlib/USB/Class/Device/../../Core/XMC4000/../XMC4000/Endpoint_XMC4000.h **** 	}
 1503              		.loc 2 180 12 is_stmt 0 discriminator 1 view .LVU393
 1504 0092 9A68     		ldr	r2, [r3, #8]
 180:/opt/XMClib/XMC_Peripheral_Library_v2.1.16/ThirdPartyLibraries/USBlib/USB/Class/Device/../../Core/XMC4000/../XMC4000/Endpoint_XMC4000.h **** 	}
 1505              		.loc 2 180 27 discriminator 1 view .LVU394
 1506 0094 D006     		lsls	r0, r2, #27
 1507 0096 FCD4     		bmi	.L138
 180:/opt/XMClib/XMC_Peripheral_Library_v2.1.16/ThirdPartyLibraries/USBlib/USB/Class/Device/../../Core/XMC4000/../XMC4000/Endpoint_XMC4000.h **** 	}
 1508              		.loc 2 180 27 view .LVU395
 1509 0098 1A7A     		ldrb	r2, [r3, #8]	@ zero_extendqisi2
 1510 009a 9107     		lsls	r1, r2, #30
 1511 009c F9D5     		bpl	.L138
 1512              	.LBE174:
 1513              	.LBE179:
  57:/opt/XMClib/XMC_Peripheral_Library_v2.1.16/ThirdPartyLibraries/USBlib/USB/Class/Device/CDCClassDevice.c **** 				Endpoint_Write_8(CDCInterfaceInfo->State.LineEncoding.CharFormat);
 1514              		.loc 1 57 5 is_stmt 1 view .LVU396
 1515 009e A069     		ldr	r0, [r4, #24]	@ unaligned
 1516 00a0 FFF7FEFF 		bl	Endpoint_Write_32_LE
 1517              	.LVL110:
  58:/opt/XMClib/XMC_Peripheral_Library_v2.1.16/ThirdPartyLibraries/USBlib/USB/Class/Device/CDCClassDevice.c **** 				Endpoint_Write_8(CDCInterfaceInfo->State.LineEncoding.ParityType);
 1518              		.loc 1 58 5 view .LVU397
 1519 00a4 207F     		ldrb	r0, [r4, #28]	@ zero_extendqisi2
 1520 00a6 FFF7FEFF 		bl	Endpoint_Write_8
 1521              	.LVL111:
  59:/opt/XMClib/XMC_Peripheral_Library_v2.1.16/ThirdPartyLibraries/USBlib/USB/Class/Device/CDCClassDevice.c **** 				Endpoint_Write_8(CDCInterfaceInfo->State.LineEncoding.DataBits);
 1522              		.loc 1 59 5 view .LVU398
 1523 00aa 607F     		ldrb	r0, [r4, #29]	@ zero_extendqisi2
 1524 00ac FFF7FEFF 		bl	Endpoint_Write_8
 1525              	.LVL112:
  60:/opt/XMClib/XMC_Peripheral_Library_v2.1.16/ThirdPartyLibraries/USBlib/USB/Class/Device/CDCClassDevice.c **** 
 1526              		.loc 1 60 5 view .LVU399
 1527 00b0 A07F     		ldrb	r0, [r4, #30]	@ zero_extendqisi2
 1528 00b2 FFF7FEFF 		bl	Endpoint_Write_8
 1529              	.LVL113:
  62:/opt/XMClib/XMC_Peripheral_Library_v2.1.16/ThirdPartyLibraries/USBlib/USB/Class/Device/CDCClassDevice.c **** 				Endpoint_ClearStatusStage();
 1530              		.loc 1 62 5 view .LVU400
 113:/opt/XMClib/XMC_Peripheral_Library_v2.1.16/ThirdPartyLibraries/USBlib/USB/Class/Device/CDCClassDevice.c **** 
 1531              		.loc 1 113 1 is_stmt 0 view .LVU401
 1532 00b6 BDE81040 		pop	{r4, lr}
 1533              	.LCFI32:
 1534              		.cfi_remember_state
 1535              		.cfi_restore 14
 1536              		.cfi_restore 4
 1537              		.cfi_def_cfa_offset 0
 1538              	.LVL114:
  62:/opt/XMClib/XMC_Peripheral_Library_v2.1.16/ThirdPartyLibraries/USBlib/USB/Class/Device/CDCClassDevice.c **** 				Endpoint_ClearStatusStage();
 1539              		.loc 1 62 5 view .LVU402
 1540 00ba FFF7FEBF 		b	Endpoint_ClearIN
 1541              	.LVL115:
 1542              	.L137:
 1543              	.LCFI33:
 1544              		.cfi_restore_state
  68:/opt/XMClib/XMC_Peripheral_Library_v2.1.16/ThirdPartyLibraries/USBlib/USB/Class/Device/CDCClassDevice.c **** 			{
 1545              		.loc 1 68 4 is_stmt 1 view .LVU403
  68:/opt/XMClib/XMC_Peripheral_Library_v2.1.16/ThirdPartyLibraries/USBlib/USB/Class/Device/CDCClassDevice.c **** 			{
 1546              		.loc 1 68 7 is_stmt 0 view .LVU404
 1547 00be 1278     		ldrb	r2, [r2]	@ zero_extendqisi2
 1548 00c0 212A     		cmp	r2, #33
 1549 00c2 A9D1     		bne	.L129
  70:/opt/XMClib/XMC_Peripheral_Library_v2.1.16/ThirdPartyLibraries/USBlib/USB/Class/Device/CDCClassDevice.c **** 
 1550              		.loc 1 70 5 is_stmt 1 view .LVU405
 1551              	.LBB180:
 1552              	.LBI180:
 156:/opt/XMClib/XMC_Peripheral_Library_v2.1.16/ThirdPartyLibraries/USBlib/USB/Class/Device/../../Core/XMC4000/../XMC4000/Endpoint_XMC4000.h **** 	{
 1553              		.loc 2 156 21 view .LVU406
 1554              	.LBB181:
 158:/opt/XMClib/XMC_Peripheral_Library_v2.1.16/ThirdPartyLibraries/USBlib/USB/Class/Device/../../Core/XMC4000/../XMC4000/Endpoint_XMC4000.h **** 	}
 1555              		.loc 2 158 3 view .LVU407
 158:/opt/XMClib/XMC_Peripheral_Library_v2.1.16/ThirdPartyLibraries/USBlib/USB/Class/Device/../../Core/XMC4000/../XMC4000/Endpoint_XMC4000.h **** 	}
 1556              		.loc 2 158 26 is_stmt 0 view .LVU408
 1557 00c4 93F83E11 		ldrb	r1, [r3, #318]	@ zero_extendqisi2
 1558              	.LBE181:
 1559              	.LBE180:
 1560              	.LBB185:
 1561              	.LBB186:
 192:/opt/XMClib/XMC_Peripheral_Library_v2.1.16/ThirdPartyLibraries/USBlib/USB/Class/Device/../../Core/XMC4000/../XMC4000/Endpoint_XMC4000.h **** 		return ep->IsOutRecieved;
 1562              		.loc 2 192 49 view .LVU409
 1563 00c8 93F83C21 		ldrb	r2, [r3, #316]	@ zero_extendqisi2
 1564              	.LBE186:
 1565              	.LBE185:
 1566              	.LBB190:
 1567              	.LBB182:
 158:/opt/XMClib/XMC_Peripheral_Library_v2.1.16/ThirdPartyLibraries/USBlib/USB/Class/Device/../../Core/XMC4000/../XMC4000/Endpoint_XMC4000.h **** 	}
 1568              		.loc 2 158 26 view .LVU410
 1569 00cc 6FF34101 		bfc	r1, #1, #1
 1570              	.LBE182:
 1571              	.LBE190:
 1572              	.LBB191:
 1573              	.LBB187:
 193:/opt/XMClib/XMC_Peripheral_Library_v2.1.16/ThirdPartyLibraries/USBlib/USB/Class/Device/../../Core/XMC4000/../XMC4000/Endpoint_XMC4000.h **** 	}
 1574              		.loc 2 193 12 view .LVU411
 1575 00d0 2C20     		movs	r0, #44
 1576              	.LBE187:
 1577              	.LBE191:
 1578              	.LBB192:
 1579              	.LBB183:
 158:/opt/XMClib/XMC_Peripheral_Library_v2.1.16/ThirdPartyLibraries/USBlib/USB/Class/Device/../../Core/XMC4000/../XMC4000/Endpoint_XMC4000.h **** 	}
 1580              		.loc 2 158 26 view .LVU412
 1581 00d2 83F83E11 		strb	r1, [r3, #318]
 1582              	.LBE183:
 1583              	.LBE192:
  74:/opt/XMClib/XMC_Peripheral_Library_v2.1.16/ThirdPartyLibraries/USBlib/USB/Class/Device/CDCClassDevice.c **** 					  return;
 1584              		.loc 1 74 26 view .LVU413
 1585 00d6 1049     		ldr	r1, .L152+8
 1586              	.LBB193:
 1587              	.LBB188:
 193:/opt/XMClib/XMC_Peripheral_Library_v2.1.16/ThirdPartyLibraries/USBlib/USB/Class/Device/../../Core/XMC4000/../XMC4000/Endpoint_XMC4000.h **** 	}
 1588              		.loc 2 193 12 view .LVU414
 1589 00d8 00FB0233 		mla	r3, r0, r2, r3
 1590              	.LBE188:
 1591              	.LBE193:
 1592              	.LBB194:
 1593              	.LBB184:
 159:/opt/XMClib/XMC_Peripheral_Library_v2.1.16/ThirdPartyLibraries/USBlib/USB/Class/Device/../../Core/XMC4000/../XMC4000/Endpoint_XMC4000.h **** 
 1594              		.loc 2 159 2 view .LVU415
 1595 00dc 02E0     		b	.L141
 1596              	.LVL116:
 1597              	.L142:
 159:/opt/XMClib/XMC_Peripheral_Library_v2.1.16/ThirdPartyLibraries/USBlib/USB/Class/Device/../../Core/XMC4000/../XMC4000/Endpoint_XMC4000.h **** 
 1598              		.loc 2 159 2 view .LVU416
 1599              	.LBE184:
 1600              	.LBE194:
  74:/opt/XMClib/XMC_Peripheral_Library_v2.1.16/ThirdPartyLibraries/USBlib/USB/Class/Device/CDCClassDevice.c **** 					  return;
 1601              		.loc 1 74 26 view .LVU417
 1602 00de 0A78     		ldrb	r2, [r1]	@ zero_extendqisi2
  74:/opt/XMClib/XMC_Peripheral_Library_v2.1.16/ThirdPartyLibraries/USBlib/USB/Class/Device/CDCClassDevice.c **** 					  return;
 1603              		.loc 1 74 9 view .LVU418
 1604 00e0 002A     		cmp	r2, #0
 1605 00e2 99D0     		beq	.L129
 1606              	.LVL117:
 1607              	.L141:
  74:/opt/XMClib/XMC_Peripheral_Library_v2.1.16/ThirdPartyLibraries/USBlib/USB/Class/Device/CDCClassDevice.c **** 					  return;
 1608              		.loc 1 74 6 is_stmt 1 view .LVU419
  72:/opt/XMClib/XMC_Peripheral_Library_v2.1.16/ThirdPartyLibraries/USBlib/USB/Class/Device/CDCClassDevice.c **** 				{
 1609              		.loc 1 72 11 view .LVU420
 1610              	.LBB195:
 1611              	.LBI185:
 190:/opt/XMClib/XMC_Peripheral_Library_v2.1.16/ThirdPartyLibraries/USBlib/USB/Class/Device/../../Core/XMC4000/../XMC4000/Endpoint_XMC4000.h **** 	{
 1612              		.loc 2 190 21 view .LVU421
 1613              	.LBB189:
 192:/opt/XMClib/XMC_Peripheral_Library_v2.1.16/ThirdPartyLibraries/USBlib/USB/Class/Device/../../Core/XMC4000/../XMC4000/Endpoint_XMC4000.h **** 		return ep->IsOutRecieved;
 1614              		.loc 2 192 3 view .LVU422
 193:/opt/XMClib/XMC_Peripheral_Library_v2.1.16/ThirdPartyLibraries/USBlib/USB/Class/Device/../../Core/XMC4000/../XMC4000/Endpoint_XMC4000.h **** 	}
 1615              		.loc 2 193 3 view .LVU423
 193:/opt/XMClib/XMC_Peripheral_Library_v2.1.16/ThirdPartyLibraries/USBlib/USB/Class/Device/../../Core/XMC4000/../XMC4000/Endpoint_XMC4000.h **** 	}
 1616              		.loc 2 193 12 is_stmt 0 view .LVU424
 1617 00e4 9A68     		ldr	r2, [r3, #8]
 1618              	.LBE189:
 1619              	.LBE195:
  72:/opt/XMClib/XMC_Peripheral_Library_v2.1.16/ThirdPartyLibraries/USBlib/USB/Class/Device/CDCClassDevice.c **** 				{
 1620              		.loc 1 72 11 view .LVU425
 1621 00e6 9206     		lsls	r2, r2, #26
 1622 00e8 F9D5     		bpl	.L142
  78:/opt/XMClib/XMC_Peripheral_Library_v2.1.16/ThirdPartyLibraries/USBlib/USB/Class/Device/CDCClassDevice.c **** 				CDCInterfaceInfo->State.LineEncoding.CharFormat  = Endpoint_Read_8();
 1623              		.loc 1 78 5 is_stmt 1 view .LVU426
  78:/opt/XMClib/XMC_Peripheral_Library_v2.1.16/ThirdPartyLibraries/USBlib/USB/Class/Device/CDCClassDevice.c **** 				CDCInterfaceInfo->State.LineEncoding.CharFormat  = Endpoint_Read_8();
 1624              		.loc 1 78 56 is_stmt 0 view .LVU427
 1625 00ea FFF7FEFF 		bl	Endpoint_Read_32_LE
 1626              	.LVL118:
  78:/opt/XMClib/XMC_Peripheral_Library_v2.1.16/ThirdPartyLibraries/USBlib/USB/Class/Device/CDCClassDevice.c **** 				CDCInterfaceInfo->State.LineEncoding.CharFormat  = Endpoint_Read_8();
 1627              		.loc 1 78 54 view .LVU428
 1628 00ee A061     		str	r0, [r4, #24]	@ unaligned
  79:/opt/XMClib/XMC_Peripheral_Library_v2.1.16/ThirdPartyLibraries/USBlib/USB/Class/Device/CDCClassDevice.c **** 				CDCInterfaceInfo->State.LineEncoding.ParityType  = Endpoint_Read_8();
 1629              		.loc 1 79 5 is_stmt 1 view .LVU429
  79:/opt/XMClib/XMC_Peripheral_Library_v2.1.16/ThirdPartyLibraries/USBlib/USB/Class/Device/CDCClassDevice.c **** 				CDCInterfaceInfo->State.LineEncoding.ParityType  = Endpoint_Read_8();
 1630              		.loc 1 79 56 is_stmt 0 view .LVU430
 1631 00f0 FFF7FEFF 		bl	Endpoint_Read_8
 1632              	.LVL119:
  79:/opt/XMClib/XMC_Peripheral_Library_v2.1.16/ThirdPartyLibraries/USBlib/USB/Class/Device/CDCClassDevice.c **** 				CDCInterfaceInfo->State.LineEncoding.ParityType  = Endpoint_Read_8();
 1633              		.loc 1 79 54 view .LVU431
 1634 00f4 2077     		strb	r0, [r4, #28]
  80:/opt/XMClib/XMC_Peripheral_Library_v2.1.16/ThirdPartyLibraries/USBlib/USB/Class/Device/CDCClassDevice.c **** 				CDCInterfaceInfo->State.LineEncoding.DataBits    = Endpoint_Read_8();
 1635              		.loc 1 80 5 is_stmt 1 view .LVU432
  80:/opt/XMClib/XMC_Peripheral_Library_v2.1.16/ThirdPartyLibraries/USBlib/USB/Class/Device/CDCClassDevice.c **** 				CDCInterfaceInfo->State.LineEncoding.DataBits    = Endpoint_Read_8();
 1636              		.loc 1 80 56 is_stmt 0 view .LVU433
 1637 00f6 FFF7FEFF 		bl	Endpoint_Read_8
 1638              	.LVL120:
  80:/opt/XMClib/XMC_Peripheral_Library_v2.1.16/ThirdPartyLibraries/USBlib/USB/Class/Device/CDCClassDevice.c **** 				CDCInterfaceInfo->State.LineEncoding.DataBits    = Endpoint_Read_8();
 1639              		.loc 1 80 54 view .LVU434
 1640 00fa 6077     		strb	r0, [r4, #29]
  81:/opt/XMClib/XMC_Peripheral_Library_v2.1.16/ThirdPartyLibraries/USBlib/USB/Class/Device/CDCClassDevice.c **** 
 1641              		.loc 1 81 5 is_stmt 1 view .LVU435
  81:/opt/XMClib/XMC_Peripheral_Library_v2.1.16/ThirdPartyLibraries/USBlib/USB/Class/Device/CDCClassDevice.c **** 
 1642              		.loc 1 81 56 is_stmt 0 view .LVU436
 1643 00fc FFF7FEFF 		bl	Endpoint_Read_8
 1644              	.LVL121:
  81:/opt/XMClib/XMC_Peripheral_Library_v2.1.16/ThirdPartyLibraries/USBlib/USB/Class/Device/CDCClassDevice.c **** 
 1645              		.loc 1 81 54 view .LVU437
 1646 0100 A077     		strb	r0, [r4, #30]
  83:/opt/XMClib/XMC_Peripheral_Library_v2.1.16/ThirdPartyLibraries/USBlib/USB/Class/Device/CDCClassDevice.c **** 				Endpoint_ClearStatusStage();
 1647              		.loc 1 83 5 is_stmt 1 view .LVU438
 1648 0102 FFF7FEFF 		bl	Endpoint_ClearOUT
 1649              	.LVL122:
  84:/opt/XMClib/XMC_Peripheral_Library_v2.1.16/ThirdPartyLibraries/USBlib/USB/Class/Device/CDCClassDevice.c **** 
 1650              		.loc 1 84 5 view .LVU439
 168:/opt/XMClib/XMC_Peripheral_Library_v2.1.16/ThirdPartyLibraries/USBlib/USB/Class/Device/../../Core/XMC4000/../XMC4000/Endpoint_XMC4000.h **** 
 1651              		.loc 2 168 2 view .LVU440
  86:/opt/XMClib/XMC_Peripheral_Library_v2.1.16/ThirdPartyLibraries/USBlib/USB/Class/Device/CDCClassDevice.c **** 			}
 1652              		.loc 1 86 5 view .LVU441
 1653 0106 2046     		mov	r0, r4
 1654 0108 FFF7FEFF 		bl	EVENT_CDC_Device_LineEncodingChanged
 1655              	.LVL123:
 113:/opt/XMClib/XMC_Peripheral_Library_v2.1.16/ThirdPartyLibraries/USBlib/USB/Class/Device/CDCClassDevice.c **** 
 1656              		.loc 1 113 1 is_stmt 0 view .LVU442
 1657 010c 10BD     		pop	{r4, pc}
 1658              	.LVL124:
 1659              	.L153:
 113:/opt/XMClib/XMC_Peripheral_Library_v2.1.16/ThirdPartyLibraries/USBlib/USB/Class/Device/CDCClassDevice.c **** 
 1660              		.loc 1 113 1 view .LVU443
 1661 010e 00BF     		.align	2
 1662              	.L152:
 1663 0110 00000000 		.word	device
 1664 0114 00000000 		.word	USB_ControlRequest
 1665 0118 00000000 		.word	USB_DeviceState
 1666              		.cfi_endproc
 1667              	.LFE193:
 1669              		.section	.rodata
 1670              		.align	2
 1671              		.set	.LANCHOR0,. + 0
 1672              	.LC0:
 1673 0000 A1       		.byte	-95
 1674 0001 20       		.byte	32
 1675 0002 0000     		.short	0
 1676 0004 0000     		.short	0
 1677 0006 0200     		.short	2
 1678              		.text
 1679              	.Letext0:
 1680              		.file 3 "/usr/share/gcc-arm-none-eabi-10.3-2021.10/arm-none-eabi/include/machine/_default_types.h"
 1681              		.file 4 "/usr/share/gcc-arm-none-eabi-10.3-2021.10/arm-none-eabi/include/sys/_stdint.h"
 1682              		.file 5 "/opt/XMClib/XMC_Peripheral_Library_v2.1.16/CMSIS/Infineon/XMC4500_series/Include/XMC4500.
 1683              		.file 6 "/opt/XMClib/XMC_Peripheral_Library_v2.1.16/XMCLib/inc/xmc_usbd.h"
 1684              		.file 7 "/opt/XMClib/XMC_Peripheral_Library_v2.1.16/ThirdPartyLibraries/USBlib/USB/Class/Device/..
 1685              		.file 8 "/opt/XMClib/XMC_Peripheral_Library_v2.1.16/ThirdPartyLibraries/USBlib/USB/Class/Device/..
 1686              		.file 9 "/opt/XMClib/XMC_Peripheral_Library_v2.1.16/ThirdPartyLibraries/USBlib/USB/Class/Device/..
 1687              		.file 10 "/opt/XMClib/XMC_Peripheral_Library_v2.1.16/ThirdPartyLibraries/USBlib/USB/Class/Device/.
 1688              		.file 11 "/opt/XMClib/XMC_Peripheral_Library_v2.1.16/ThirdPartyLibraries/USBlib/USB/Class/Device/.
 1689              		.file 12 "/opt/XMClib/XMC_Peripheral_Library_v2.1.16/ThirdPartyLibraries/USBlib/USB/Class/Device/.
 1690              		.file 13 "/opt/XMClib/XMC_Peripheral_Library_v2.1.16/ThirdPartyLibraries/USBlib/USB/Class/Device/.
 1691              		.file 14 "/opt/XMClib/XMC_Peripheral_Library_v2.1.16/ThirdPartyLibraries/USBlib/USB/Class/Device/C
 1692              		.file 15 "/opt/XMClib/XMC_Peripheral_Library_v2.1.16/ThirdPartyLibraries/USBlib/USB/Class/Device/.
 1693              		.file 16 "/usr/share/gcc-arm-none-eabi-10.3-2021.10/arm-none-eabi/include/string.h"