   1              		.cpu cortex-m4
   2              		.arch armv7e-m
   3              		.fpu fpv4-sp-d16
   4              		.eabi_attribute 27, 1
   5              		.eabi_attribute 20, 1
   6              		.eabi_attribute 21, 1
   7              		.eabi_attribute 23, 3
   8              		.eabi_attribute 24, 1
   9              		.eabi_attribute 25, 1
  10              		.eabi_attribute 26, 1
  11              		.eabi_attribute 30, 2
  12              		.eabi_attribute 34, 1
  13              		.eabi_attribute 18, 4
  14              		.file	"USBController_XMC4000.c"
  15              		.text
  16              	.Ltext0:
  17              		.cfi_sections	.debug_frame
  18              		.section	.text.USBD_HandleEP0_Stall,"ax",%progbits
  19              		.align	1
  20              		.p2align 2,,3
  21              		.global	USBD_HandleEP0_Stall
  22              		.syntax unified
  23              		.thumb
  24              		.thumb_func
  26              	USBD_HandleEP0_Stall:
  27              	.LFB188:
  28              		.file 1 "/opt/XMClib/XMC_Peripheral_Library_v2.1.16/ThirdPartyLibraries/USBlib/USB/Core/XMC4000/US
   1:/opt/XMClib/XMC_Peripheral_Library_v2.1.16/ThirdPartyLibraries/USBlib/USB/Core/XMC4000/USBController_XMC4000.c **** /*
   2:/opt/XMClib/XMC_Peripheral_Library_v2.1.16/ThirdPartyLibraries/USBlib/USB/Core/XMC4000/USBController_XMC4000.c ****              LUFA Library
   3:/opt/XMClib/XMC_Peripheral_Library_v2.1.16/ThirdPartyLibraries/USBlib/USB/Core/XMC4000/USBController_XMC4000.c ****      Copyright (C) Dean Camera, 2014.
   4:/opt/XMClib/XMC_Peripheral_Library_v2.1.16/ThirdPartyLibraries/USBlib/USB/Core/XMC4000/USBController_XMC4000.c **** 
   5:/opt/XMClib/XMC_Peripheral_Library_v2.1.16/ThirdPartyLibraries/USBlib/USB/Core/XMC4000/USBController_XMC4000.c ****   dean [at] fourwalledcubicle [dot] com
   6:/opt/XMClib/XMC_Peripheral_Library_v2.1.16/ThirdPartyLibraries/USBlib/USB/Core/XMC4000/USBController_XMC4000.c ****            www.lufa-lib.org
   7:/opt/XMClib/XMC_Peripheral_Library_v2.1.16/ThirdPartyLibraries/USBlib/USB/Core/XMC4000/USBController_XMC4000.c **** */
   8:/opt/XMClib/XMC_Peripheral_Library_v2.1.16/ThirdPartyLibraries/USBlib/USB/Core/XMC4000/USBController_XMC4000.c **** 
   9:/opt/XMClib/XMC_Peripheral_Library_v2.1.16/ThirdPartyLibraries/USBlib/USB/Core/XMC4000/USBController_XMC4000.c **** /*
  10:/opt/XMClib/XMC_Peripheral_Library_v2.1.16/ThirdPartyLibraries/USBlib/USB/Core/XMC4000/USBController_XMC4000.c ****   Copyright 2014  Dean Camera (dean [at] fourwalledcubicle [dot] com)
  11:/opt/XMClib/XMC_Peripheral_Library_v2.1.16/ThirdPartyLibraries/USBlib/USB/Core/XMC4000/USBController_XMC4000.c **** 
  12:/opt/XMClib/XMC_Peripheral_Library_v2.1.16/ThirdPartyLibraries/USBlib/USB/Core/XMC4000/USBController_XMC4000.c ****   Permission to use, copy, modify, distribute, and sell this
  13:/opt/XMClib/XMC_Peripheral_Library_v2.1.16/ThirdPartyLibraries/USBlib/USB/Core/XMC4000/USBController_XMC4000.c ****   software and its documentation for any purpose is hereby granted
  14:/opt/XMClib/XMC_Peripheral_Library_v2.1.16/ThirdPartyLibraries/USBlib/USB/Core/XMC4000/USBController_XMC4000.c ****   without fee, provided that the above copyright notice appear in
  15:/opt/XMClib/XMC_Peripheral_Library_v2.1.16/ThirdPartyLibraries/USBlib/USB/Core/XMC4000/USBController_XMC4000.c ****   all copies and that both that the copyright notice and this
  16:/opt/XMClib/XMC_Peripheral_Library_v2.1.16/ThirdPartyLibraries/USBlib/USB/Core/XMC4000/USBController_XMC4000.c ****   permission notice and warranty disclaimer appear in supporting
  17:/opt/XMClib/XMC_Peripheral_Library_v2.1.16/ThirdPartyLibraries/USBlib/USB/Core/XMC4000/USBController_XMC4000.c ****   documentation, and that the name of the author not be used in
  18:/opt/XMClib/XMC_Peripheral_Library_v2.1.16/ThirdPartyLibraries/USBlib/USB/Core/XMC4000/USBController_XMC4000.c ****   advertising or publicity pertaining to distribution of the
  19:/opt/XMClib/XMC_Peripheral_Library_v2.1.16/ThirdPartyLibraries/USBlib/USB/Core/XMC4000/USBController_XMC4000.c ****   software without specific, written prior permission.
  20:/opt/XMClib/XMC_Peripheral_Library_v2.1.16/ThirdPartyLibraries/USBlib/USB/Core/XMC4000/USBController_XMC4000.c **** 
  21:/opt/XMClib/XMC_Peripheral_Library_v2.1.16/ThirdPartyLibraries/USBlib/USB/Core/XMC4000/USBController_XMC4000.c ****   The author disclaims all warranties with regard to this
  22:/opt/XMClib/XMC_Peripheral_Library_v2.1.16/ThirdPartyLibraries/USBlib/USB/Core/XMC4000/USBController_XMC4000.c ****   software, including all implied warranties of merchantability
  23:/opt/XMClib/XMC_Peripheral_Library_v2.1.16/ThirdPartyLibraries/USBlib/USB/Core/XMC4000/USBController_XMC4000.c ****   and fitness.  In no event shall the author be liable for any
  24:/opt/XMClib/XMC_Peripheral_Library_v2.1.16/ThirdPartyLibraries/USBlib/USB/Core/XMC4000/USBController_XMC4000.c ****   special, indirect or consequential damages or any damages
  25:/opt/XMClib/XMC_Peripheral_Library_v2.1.16/ThirdPartyLibraries/USBlib/USB/Core/XMC4000/USBController_XMC4000.c ****   whatsoever resulting from loss of use, data or profits, whether
  26:/opt/XMClib/XMC_Peripheral_Library_v2.1.16/ThirdPartyLibraries/USBlib/USB/Core/XMC4000/USBController_XMC4000.c ****   in an action of contract, negligence or other tortious action,
  27:/opt/XMClib/XMC_Peripheral_Library_v2.1.16/ThirdPartyLibraries/USBlib/USB/Core/XMC4000/USBController_XMC4000.c ****   arising out of or in connection with the use or performance of
  28:/opt/XMClib/XMC_Peripheral_Library_v2.1.16/ThirdPartyLibraries/USBlib/USB/Core/XMC4000/USBController_XMC4000.c ****   this software.
  29:/opt/XMClib/XMC_Peripheral_Library_v2.1.16/ThirdPartyLibraries/USBlib/USB/Core/XMC4000/USBController_XMC4000.c **** */
  30:/opt/XMClib/XMC_Peripheral_Library_v2.1.16/ThirdPartyLibraries/USBlib/USB/Core/XMC4000/USBController_XMC4000.c **** 
  31:/opt/XMClib/XMC_Peripheral_Library_v2.1.16/ThirdPartyLibraries/USBlib/USB/Core/XMC4000/USBController_XMC4000.c **** #include "../../Common/Common.h"
  32:/opt/XMClib/XMC_Peripheral_Library_v2.1.16/ThirdPartyLibraries/USBlib/USB/Core/XMC4000/USBController_XMC4000.c **** 
  33:/opt/XMClib/XMC_Peripheral_Library_v2.1.16/ThirdPartyLibraries/USBlib/USB/Core/XMC4000/USBController_XMC4000.c **** #define  __INCLUDE_FROM_USB_DRIVER
  34:/opt/XMClib/XMC_Peripheral_Library_v2.1.16/ThirdPartyLibraries/USBlib/USB/Core/XMC4000/USBController_XMC4000.c **** #define  __INCLUDE_FROM_USB_CONTROLLER_C
  35:/opt/XMClib/XMC_Peripheral_Library_v2.1.16/ThirdPartyLibraries/USBlib/USB/Core/XMC4000/USBController_XMC4000.c **** #include "../USBController.h"
  36:/opt/XMClib/XMC_Peripheral_Library_v2.1.16/ThirdPartyLibraries/USBlib/USB/Core/XMC4000/USBController_XMC4000.c **** 
  37:/opt/XMClib/XMC_Peripheral_Library_v2.1.16/ThirdPartyLibraries/USBlib/USB/Core/XMC4000/USBController_XMC4000.c **** USB_Device_t device;
  38:/opt/XMClib/XMC_Peripheral_Library_v2.1.16/ThirdPartyLibraries/USBlib/USB/Core/XMC4000/USBController_XMC4000.c **** 
  39:/opt/XMClib/XMC_Peripheral_Library_v2.1.16/ThirdPartyLibraries/USBlib/USB/Core/XMC4000/USBController_XMC4000.c **** uint8_t endpoint0_in_buffer[256];
  40:/opt/XMClib/XMC_Peripheral_Library_v2.1.16/ThirdPartyLibraries/USBlib/USB/Core/XMC4000/USBController_XMC4000.c **** uint8_t endpoint0_out_buffer[256];
  41:/opt/XMClib/XMC_Peripheral_Library_v2.1.16/ThirdPartyLibraries/USBlib/USB/Core/XMC4000/USBController_XMC4000.c **** 
  42:/opt/XMClib/XMC_Peripheral_Library_v2.1.16/ThirdPartyLibraries/USBlib/USB/Core/XMC4000/USBController_XMC4000.c **** /**
  43:/opt/XMClib/XMC_Peripheral_Library_v2.1.16/ThirdPartyLibraries/USBlib/USB/Core/XMC4000/USBController_XMC4000.c ****  * \ingroup USBD_Core_Driver
  44:/opt/XMClib/XMC_Peripheral_Library_v2.1.16/ThirdPartyLibraries/USBlib/USB/Core/XMC4000/USBController_XMC4000.c ****  * \defgroup EP0_Handling Handling of EP0 Control Request
  45:/opt/XMClib/XMC_Peripheral_Library_v2.1.16/ThirdPartyLibraries/USBlib/USB/Core/XMC4000/USBController_XMC4000.c ****  * \brief
  46:/opt/XMClib/XMC_Peripheral_Library_v2.1.16/ThirdPartyLibraries/USBlib/USB/Core/XMC4000/USBController_XMC4000.c ****  * @{
  47:/opt/XMClib/XMC_Peripheral_Library_v2.1.16/ThirdPartyLibraries/USBlib/USB/Core/XMC4000/USBController_XMC4000.c ****  */
  48:/opt/XMClib/XMC_Peripheral_Library_v2.1.16/ThirdPartyLibraries/USBlib/USB/Core/XMC4000/USBController_XMC4000.c **** 
  49:/opt/XMClib/XMC_Peripheral_Library_v2.1.16/ThirdPartyLibraries/USBlib/USB/Core/XMC4000/USBController_XMC4000.c **** /**
  50:/opt/XMClib/XMC_Peripheral_Library_v2.1.16/ThirdPartyLibraries/USBlib/USB/Core/XMC4000/USBController_XMC4000.c ****  * \brief Handle protocol stall on EP0
  51:/opt/XMClib/XMC_Peripheral_Library_v2.1.16/ThirdPartyLibraries/USBlib/USB/Core/XMC4000/USBController_XMC4000.c ****  *
  52:/opt/XMClib/XMC_Peripheral_Library_v2.1.16/ThirdPartyLibraries/USBlib/USB/Core/XMC4000/USBController_XMC4000.c ****  * Stalls EP0 and then restarts a new transfer including setting state to \ref IDLE.
  53:/opt/XMClib/XMC_Peripheral_Library_v2.1.16/ThirdPartyLibraries/USBlib/USB/Core/XMC4000/USBController_XMC4000.c ****  */
  54:/opt/XMClib/XMC_Peripheral_Library_v2.1.16/ThirdPartyLibraries/USBlib/USB/Core/XMC4000/USBController_XMC4000.c **** void USBD_HandleEP0_Stall() {
  29              		.loc 1 54 29 view -0
  30              		.cfi_startproc
  31              		@ args = 0, pretend = 0, frame = 0
  32              		@ frame_needed = 0, uses_anonymous_args = 0
  55:/opt/XMClib/XMC_Peripheral_Library_v2.1.16/ThirdPartyLibraries/USBlib/USB/Core/XMC4000/USBController_XMC4000.c **** 	/* When we stall ep0 as protocol stall, we go back into idle state and start a new read */
  56:/opt/XMClib/XMC_Peripheral_Library_v2.1.16/ThirdPartyLibraries/USBlib/USB/Core/XMC4000/USBController_XMC4000.c **** 	device.Driver->EndpointStall(ENDPOINT_DIR_IN | 0,1);
  33              		.loc 1 56 2 view .LVU1
  54:/opt/XMClib/XMC_Peripheral_Library_v2.1.16/ThirdPartyLibraries/USBlib/USB/Core/XMC4000/USBController_XMC4000.c **** 	/* When we stall ep0 as protocol stall, we go back into idle state and start a new read */
  34              		.loc 1 54 29 is_stmt 0 view .LVU2
  35 0000 10B5     		push	{r4, lr}
  36              	.LCFI0:
  37              		.cfi_def_cfa_offset 8
  38              		.cfi_offset 4, -8
  39              		.cfi_offset 14, -4
  40              		.loc 1 56 8 view .LVU3
  41 0002 084C     		ldr	r4, .L4
  42              		.loc 1 56 15 view .LVU4
  43 0004 2368     		ldr	r3, [r4]
  44              		.loc 1 56 2 view .LVU5
  45 0006 0121     		movs	r1, #1
  46 0008 5B6A     		ldr	r3, [r3, #36]
  47 000a 8020     		movs	r0, #128
  48 000c 9847     		blx	r3
  49              	.LVL0:
  57:/opt/XMClib/XMC_Peripheral_Library_v2.1.16/ThirdPartyLibraries/USBlib/USB/Core/XMC4000/USBController_XMC4000.c **** 	device.EP0_State = IDLE;
  50              		.loc 1 57 2 is_stmt 1 view .LVU6
  58:/opt/XMClib/XMC_Peripheral_Library_v2.1.16/ThirdPartyLibraries/USBlib/USB/Core/XMC4000/USBController_XMC4000.c **** 	device.Driver->EndpointReadStart(0,24);
  51              		.loc 1 58 15 is_stmt 0 view .LVU7
  52 000e 2368     		ldr	r3, [r4]
  57:/opt/XMClib/XMC_Peripheral_Library_v2.1.16/ThirdPartyLibraries/USBlib/USB/Core/XMC4000/USBController_XMC4000.c **** 	device.EP0_State = IDLE;
  53              		.loc 1 57 19 view .LVU8
  54 0010 0122     		movs	r2, #1
  55 0012 84F83B21 		strb	r2, [r4, #315]
  56              		.loc 1 58 2 is_stmt 1 view .LVU9
  57 0016 9B6A     		ldr	r3, [r3, #40]
  59:/opt/XMClib/XMC_Peripheral_Library_v2.1.16/ThirdPartyLibraries/USBlib/USB/Core/XMC4000/USBController_XMC4000.c **** }
  58              		.loc 1 59 1 is_stmt 0 view .LVU10
  59 0018 BDE81040 		pop	{r4, lr}
  60              	.LCFI1:
  61              		.cfi_restore 14
  62              		.cfi_restore 4
  63              		.cfi_def_cfa_offset 0
  58:/opt/XMClib/XMC_Peripheral_Library_v2.1.16/ThirdPartyLibraries/USBlib/USB/Core/XMC4000/USBController_XMC4000.c **** 	device.Driver->EndpointReadStart(0,24);
  64              		.loc 1 58 2 view .LVU11
  65 001c 1821     		movs	r1, #24
  66 001e 0020     		movs	r0, #0
  67 0020 1847     		bx	r3
  68              	.LVL1:
  69              	.L5:
  70 0022 00BF     		.align	2
  71              	.L4:
  72 0024 00000000 		.word	.LANCHOR0
  73              		.cfi_endproc
  74              	.LFE188:
  76              		.section	.text.USB_Device_ProcessControlRequest,"ax",%progbits
  77              		.align	1
  78              		.p2align 2,,3
  79              		.global	USB_Device_ProcessControlRequest
  80              		.syntax unified
  81              		.thumb
  82              		.thumb_func
  84              	USB_Device_ProcessControlRequest:
  85              	.LFB189:
  60:/opt/XMClib/XMC_Peripheral_Library_v2.1.16/ThirdPartyLibraries/USBlib/USB/Core/XMC4000/USBController_XMC4000.c **** 
  61:/opt/XMClib/XMC_Peripheral_Library_v2.1.16/ThirdPartyLibraries/USBlib/USB/Core/XMC4000/USBController_XMC4000.c **** /**
  62:/opt/XMClib/XMC_Peripheral_Library_v2.1.16/ThirdPartyLibraries/USBlib/USB/Core/XMC4000/USBController_XMC4000.c ****  * \brief Handle device request on endpoint 0
  63:/opt/XMClib/XMC_Peripheral_Library_v2.1.16/ThirdPartyLibraries/USBlib/USB/Core/XMC4000/USBController_XMC4000.c ****  *
  64:/opt/XMClib/XMC_Peripheral_Library_v2.1.16/ThirdPartyLibraries/USBlib/USB/Core/XMC4000/USBController_XMC4000.c ****  * By default any USB device has to support a subset of device control request defiened by
  65:/opt/XMClib/XMC_Peripheral_Library_v2.1.16/ThirdPartyLibraries/USBlib/USB/Core/XMC4000/USBController_XMC4000.c ****  * the USB specification. All request required by the spec are handle within this function.
  66:/opt/XMClib/XMC_Peripheral_Library_v2.1.16/ThirdPartyLibraries/USBlib/USB/Core/XMC4000/USBController_XMC4000.c ****  * Before a handling of the request is done by this function, it dispatches it to the
  67:/opt/XMClib/XMC_Peripheral_Library_v2.1.16/ThirdPartyLibraries/USBlib/USB/Core/XMC4000/USBController_XMC4000.c ****  * \ref EVENT_USB_Device_ControlRequest function. There the user has the chance to complete
  68:/opt/XMClib/XMC_Peripheral_Library_v2.1.16/ThirdPartyLibraries/USBlib/USB/Core/XMC4000/USBController_XMC4000.c ****  * some custom request or override the handling of this function. If the user has handled the
  69:/opt/XMClib/XMC_Peripheral_Library_v2.1.16/ThirdPartyLibraries/USBlib/USB/Core/XMC4000/USBController_XMC4000.c ****  * request, he has to call \ref Endpoint_ClearSETUP.
  70:/opt/XMClib/XMC_Peripheral_Library_v2.1.16/ThirdPartyLibraries/USBlib/USB/Core/XMC4000/USBController_XMC4000.c ****  *
  71:/opt/XMClib/XMC_Peripheral_Library_v2.1.16/ThirdPartyLibraries/USBlib/USB/Core/XMC4000/USBController_XMC4000.c ****  */
  72:/opt/XMClib/XMC_Peripheral_Library_v2.1.16/ThirdPartyLibraries/USBlib/USB/Core/XMC4000/USBController_XMC4000.c **** void USB_Device_ProcessControlRequest() {
  86              		.loc 1 72 41 is_stmt 1 view -0
  87              		.cfi_startproc
  88              		@ args = 0, pretend = 0, frame = 8
  89              		@ frame_needed = 0, uses_anonymous_args = 0
  73:/opt/XMClib/XMC_Peripheral_Library_v2.1.16/ThirdPartyLibraries/USBlib/USB/Core/XMC4000/USBController_XMC4000.c **** 	uint32_t length = 0,ret;
  90              		.loc 1 73 2 view .LVU13
  91              	.LVL2:
  74:/opt/XMClib/XMC_Peripheral_Library_v2.1.16/ThirdPartyLibraries/USBlib/USB/Core/XMC4000/USBController_XMC4000.c **** 	uint16_t status = 0;
  92              		.loc 1 74 2 view .LVU14
  72:/opt/XMClib/XMC_Peripheral_Library_v2.1.16/ThirdPartyLibraries/USBlib/USB/Core/XMC4000/USBController_XMC4000.c **** 	uint32_t length = 0,ret;
  93              		.loc 1 72 41 is_stmt 0 view .LVU15
  94 0000 70B5     		push	{r4, r5, r6, lr}
  95              	.LCFI2:
  96              		.cfi_def_cfa_offset 16
  97              		.cfi_offset 4, -16
  98              		.cfi_offset 5, -12
  99              		.cfi_offset 6, -8
 100              		.cfi_offset 14, -4
  75:/opt/XMClib/XMC_Peripheral_Library_v2.1.16/ThirdPartyLibraries/USBlib/USB/Core/XMC4000/USBController_XMC4000.c **** 	void *buffer;
  76:/opt/XMClib/XMC_Peripheral_Library_v2.1.16/ThirdPartyLibraries/USBlib/USB/Core/XMC4000/USBController_XMC4000.c **** 	uint8_t Value;
  77:/opt/XMClib/XMC_Peripheral_Library_v2.1.16/ThirdPartyLibraries/USBlib/USB/Core/XMC4000/USBController_XMC4000.c **** 	uint16_t Index;
  78:/opt/XMClib/XMC_Peripheral_Library_v2.1.16/ThirdPartyLibraries/USBlib/USB/Core/XMC4000/USBController_XMC4000.c **** 
  79:/opt/XMClib/XMC_Peripheral_Library_v2.1.16/ThirdPartyLibraries/USBlib/USB/Core/XMC4000/USBController_XMC4000.c **** 	Value = USB_ControlRequest.wValue & 0x00FF;
 101              		.loc 1 79 28 view .LVU16
 102 0002 9A4D     		ldr	r5, .L58
  80:/opt/XMClib/XMC_Peripheral_Library_v2.1.16/ThirdPartyLibraries/USBlib/USB/Core/XMC4000/USBController_XMC4000.c **** 
  81:/opt/XMClib/XMC_Peripheral_Library_v2.1.16/ThirdPartyLibraries/USBlib/USB/Core/XMC4000/USBController_XMC4000.c **** 	/* Handling of descriptors */
  82:/opt/XMClib/XMC_Peripheral_Library_v2.1.16/ThirdPartyLibraries/USBlib/USB/Core/XMC4000/USBController_XMC4000.c **** 	EVENT_USB_Device_ControlRequest();
  83:/opt/XMClib/XMC_Peripheral_Library_v2.1.16/ThirdPartyLibraries/USBlib/USB/Core/XMC4000/USBController_XMC4000.c **** 	if (!device.IsSetupRecieved)
 103              		.loc 1 83 13 view .LVU17
 104 0004 9A4C     		ldr	r4, .L58+4
  79:/opt/XMClib/XMC_Peripheral_Library_v2.1.16/ThirdPartyLibraries/USBlib/USB/Core/XMC4000/USBController_XMC4000.c **** 
 105              		.loc 1 79 28 view .LVU18
 106 0006 6E88     		ldrh	r6, [r5, #2]	@ unaligned
  72:/opt/XMClib/XMC_Peripheral_Library_v2.1.16/ThirdPartyLibraries/USBlib/USB/Core/XMC4000/USBController_XMC4000.c **** 	uint32_t length = 0,ret;
 107              		.loc 1 72 41 view .LVU19
 108 0008 82B0     		sub	sp, sp, #8
 109              	.LCFI3:
 110              		.cfi_def_cfa_offset 24
  74:/opt/XMClib/XMC_Peripheral_Library_v2.1.16/ThirdPartyLibraries/USBlib/USB/Core/XMC4000/USBController_XMC4000.c **** 	void *buffer;
 111              		.loc 1 74 11 view .LVU20
 112 000a 0023     		movs	r3, #0
 113 000c ADF80230 		strh	r3, [sp, #2]	@ movhi
  75:/opt/XMClib/XMC_Peripheral_Library_v2.1.16/ThirdPartyLibraries/USBlib/USB/Core/XMC4000/USBController_XMC4000.c **** 	uint8_t Value;
 114              		.loc 1 75 2 is_stmt 1 view .LVU21
  76:/opt/XMClib/XMC_Peripheral_Library_v2.1.16/ThirdPartyLibraries/USBlib/USB/Core/XMC4000/USBController_XMC4000.c **** 	uint16_t Index;
 115              		.loc 1 76 2 view .LVU22
  77:/opt/XMClib/XMC_Peripheral_Library_v2.1.16/ThirdPartyLibraries/USBlib/USB/Core/XMC4000/USBController_XMC4000.c **** 
 116              		.loc 1 77 2 view .LVU23
  79:/opt/XMClib/XMC_Peripheral_Library_v2.1.16/ThirdPartyLibraries/USBlib/USB/Core/XMC4000/USBController_XMC4000.c **** 
 117              		.loc 1 79 2 view .LVU24
 118              	.LVL3:
  82:/opt/XMClib/XMC_Peripheral_Library_v2.1.16/ThirdPartyLibraries/USBlib/USB/Core/XMC4000/USBController_XMC4000.c **** 	if (!device.IsSetupRecieved)
 119              		.loc 1 82 2 view .LVU25
 120 0010 FFF7FEFF 		bl	EVENT_USB_Device_ControlRequest
 121              	.LVL4:
 122              		.loc 1 83 2 view .LVU26
 123              		.loc 1 83 13 is_stmt 0 view .LVU27
 124 0014 94F83E31 		ldrb	r3, [r4, #318]	@ zero_extendqisi2
 125              		.loc 1 83 5 view .LVU28
 126 0018 9B07     		lsls	r3, r3, #30
 127 001a 29D5     		bpl	.L6
  84:/opt/XMClib/XMC_Peripheral_Library_v2.1.16/ThirdPartyLibraries/USBlib/USB/Core/XMC4000/USBController_XMC4000.c **** 		return;
  85:/opt/XMClib/XMC_Peripheral_Library_v2.1.16/ThirdPartyLibraries/USBlib/USB/Core/XMC4000/USBController_XMC4000.c **** 
  86:/opt/XMClib/XMC_Peripheral_Library_v2.1.16/ThirdPartyLibraries/USBlib/USB/Core/XMC4000/USBController_XMC4000.c **** 	/* default request handling */
  87:/opt/XMClib/XMC_Peripheral_Library_v2.1.16/ThirdPartyLibraries/USBlib/USB/Core/XMC4000/USBController_XMC4000.c **** 	switch (USB_ControlRequest.bRequest) {
 128              		.loc 1 87 2 view .LVU29
 129 001c 6B78     		ldrb	r3, [r5, #1]	@ zero_extendqisi2
  79:/opt/XMClib/XMC_Peripheral_Library_v2.1.16/ThirdPartyLibraries/USBlib/USB/Core/XMC4000/USBController_XMC4000.c **** 
 130              		.loc 1 79 8 view .LVU30
 131 001e F6B2     		uxtb	r6, r6
 132              		.loc 1 87 2 is_stmt 1 view .LVU31
 133 0020 0C2B     		cmp	r3, #12
 134 0022 12D8     		bhi	.L9
 135 0024 DFE803F0 		tbb	[pc, r3]
 136              	.L11:
 137 0028 2F       		.byte	(.L21-.L11)/2
 138 0029 99       		.byte	(.L20-.L11)/2
 139 002a 11       		.byte	(.L9-.L11)/2
 140 002b 74       		.byte	(.L19-.L11)/2
 141 002c 11       		.byte	(.L9-.L11)/2
 142 002d 8F       		.byte	(.L18-.L11)/2
 143 002e 07       		.byte	(.L17-.L11)/2
 144 002f 11       		.byte	(.L9-.L11)/2
 145 0030 5E       		.byte	(.L15-.L11)/2
 146 0031 65       		.byte	(.L14-.L11)/2
 147 0032 26       		.byte	(.L13-.L11)/2
 148 0033 54       		.byte	(.L12-.L11)/2
 149 0034 11       		.byte	(.L9-.L11)/2
 150 0035 00       		.p2align 1
 151              	.L17:
  88:/opt/XMClib/XMC_Peripheral_Library_v2.1.16/ThirdPartyLibraries/USBlib/USB/Core/XMC4000/USBController_XMC4000.c **** 	case REQ_ClearFeature:
  89:/opt/XMClib/XMC_Peripheral_Library_v2.1.16/ThirdPartyLibraries/USBlib/USB/Core/XMC4000/USBController_XMC4000.c **** 		if ((USB_ControlRequest.bmRequestType & 0x3) == REQREC_ENDPOINT) {
  90:/opt/XMClib/XMC_Peripheral_Library_v2.1.16/ThirdPartyLibraries/USBlib/USB/Core/XMC4000/USBController_XMC4000.c **** 			Index = USB_ControlRequest.wIndex & ENDPOINT_EPNUM_MASK;
  91:/opt/XMClib/XMC_Peripheral_Library_v2.1.16/ThirdPartyLibraries/USBlib/USB/Core/XMC4000/USBController_XMC4000.c **** 			if ((USB_DeviceState == DEVICE_STATE_Configured || USB_ControlRequest.wIndex==0)  &&
  92:/opt/XMClib/XMC_Peripheral_Library_v2.1.16/ThirdPartyLibraries/USBlib/USB/Core/XMC4000/USBController_XMC4000.c **** 					device.Endpoints[Index].IsConfigured==1) {
  93:/opt/XMClib/XMC_Peripheral_Library_v2.1.16/ThirdPartyLibraries/USBlib/USB/Core/XMC4000/USBController_XMC4000.c **** 				device.Endpoints[Index].IsHalted = 0;
  94:/opt/XMClib/XMC_Peripheral_Library_v2.1.16/ThirdPartyLibraries/USBlib/USB/Core/XMC4000/USBController_XMC4000.c **** 				device.Driver->EndpointStall(USB_ControlRequest.wIndex,0);
  95:/opt/XMClib/XMC_Peripheral_Library_v2.1.16/ThirdPartyLibraries/USBlib/USB/Core/XMC4000/USBController_XMC4000.c **** 			} else {
  96:/opt/XMClib/XMC_Peripheral_Library_v2.1.16/ThirdPartyLibraries/USBlib/USB/Core/XMC4000/USBController_XMC4000.c **** 				USBD_HandleEP0_Stall();
  97:/opt/XMClib/XMC_Peripheral_Library_v2.1.16/ThirdPartyLibraries/USBlib/USB/Core/XMC4000/USBController_XMC4000.c **** 			}
  98:/opt/XMClib/XMC_Peripheral_Library_v2.1.16/ThirdPartyLibraries/USBlib/USB/Core/XMC4000/USBController_XMC4000.c **** 			break;
  99:/opt/XMClib/XMC_Peripheral_Library_v2.1.16/ThirdPartyLibraries/USBlib/USB/Core/XMC4000/USBController_XMC4000.c **** 		}
 100:/opt/XMClib/XMC_Peripheral_Library_v2.1.16/ThirdPartyLibraries/USBlib/USB/Core/XMC4000/USBController_XMC4000.c **** 		if ((USB_ControlRequest.bmRequestType & 0x3) == REQREC_DEVICE) {
 101:/opt/XMClib/XMC_Peripheral_Library_v2.1.16/ThirdPartyLibraries/USBlib/USB/Core/XMC4000/USBController_XMC4000.c **** 			 device.RemoteWakeUp = 0;
 102:/opt/XMClib/XMC_Peripheral_Library_v2.1.16/ThirdPartyLibraries/USBlib/USB/Core/XMC4000/USBController_XMC4000.c **** 			 break;
 103:/opt/XMClib/XMC_Peripheral_Library_v2.1.16/ThirdPartyLibraries/USBlib/USB/Core/XMC4000/USBController_XMC4000.c **** 		}
 104:/opt/XMClib/XMC_Peripheral_Library_v2.1.16/ThirdPartyLibraries/USBlib/USB/Core/XMC4000/USBController_XMC4000.c **** 		USBD_HandleEP0_Stall();
 105:/opt/XMClib/XMC_Peripheral_Library_v2.1.16/ThirdPartyLibraries/USBlib/USB/Core/XMC4000/USBController_XMC4000.c **** 		break;
 106:/opt/XMClib/XMC_Peripheral_Library_v2.1.16/ThirdPartyLibraries/USBlib/USB/Core/XMC4000/USBController_XMC4000.c **** 
 107:/opt/XMClib/XMC_Peripheral_Library_v2.1.16/ThirdPartyLibraries/USBlib/USB/Core/XMC4000/USBController_XMC4000.c **** 	case REQ_GetConfiguration:
 108:/opt/XMClib/XMC_Peripheral_Library_v2.1.16/ThirdPartyLibraries/USBlib/USB/Core/XMC4000/USBController_XMC4000.c **** 		device.Driver->EndpointWrite(0,&device.Configuration,1);
 109:/opt/XMClib/XMC_Peripheral_Library_v2.1.16/ThirdPartyLibraries/USBlib/USB/Core/XMC4000/USBController_XMC4000.c **** 		break;
 110:/opt/XMClib/XMC_Peripheral_Library_v2.1.16/ThirdPartyLibraries/USBlib/USB/Core/XMC4000/USBController_XMC4000.c **** 
 111:/opt/XMClib/XMC_Peripheral_Library_v2.1.16/ThirdPartyLibraries/USBlib/USB/Core/XMC4000/USBController_XMC4000.c **** 	case REQ_GetDescriptor:
 112:/opt/XMClib/XMC_Peripheral_Library_v2.1.16/ThirdPartyLibraries/USBlib/USB/Core/XMC4000/USBController_XMC4000.c **** 		length = CALLBACK_USB_GetDescriptor(USB_ControlRequest.wValue,USB_ControlRequest.wIndex,(void*)&b
 152              		.loc 1 112 3 view .LVU32
 153              		.loc 1 112 83 is_stmt 0 view .LVU33
 154 0036 A988     		ldrh	r1, [r5, #4]	@ unaligned
 155              		.loc 1 112 12 view .LVU34
 156 0038 6888     		ldrh	r0, [r5, #2]	@ unaligned
 157 003a 01AA     		add	r2, sp, #4
 158 003c C9B2     		uxtb	r1, r1
 159 003e FFF7FEFF 		bl	CALLBACK_USB_GetDescriptor
 160              	.LVL5:
 113:/opt/XMClib/XMC_Peripheral_Library_v2.1.16/ThirdPartyLibraries/USBlib/USB/Core/XMC4000/USBController_XMC4000.c **** 		if (length==0)
 161              		.loc 1 113 3 is_stmt 1 view .LVU35
 162              		.loc 1 113 6 is_stmt 0 view .LVU36
 163 0042 0646     		mov	r6, r0
 164              	.LVL6:
 165              		.loc 1 113 6 view .LVU37
 166 0044 0028     		cmp	r0, #0
 167 0046 40F09780 		bne	.L27
 168              	.LVL7:
 169              	.L9:
 114:/opt/XMClib/XMC_Peripheral_Library_v2.1.16/ThirdPartyLibraries/USBlib/USB/Core/XMC4000/USBController_XMC4000.c **** 			USBD_HandleEP0_Stall();
 115:/opt/XMClib/XMC_Peripheral_Library_v2.1.16/ThirdPartyLibraries/USBlib/USB/Core/XMC4000/USBController_XMC4000.c **** 		else {
 116:/opt/XMClib/XMC_Peripheral_Library_v2.1.16/ThirdPartyLibraries/USBlib/USB/Core/XMC4000/USBController_XMC4000.c **** 			length = length < USB_ControlRequest.wLength ?
 117:/opt/XMClib/XMC_Peripheral_Library_v2.1.16/ThirdPartyLibraries/USBlib/USB/Core/XMC4000/USBController_XMC4000.c **** 					length : USB_ControlRequest.wLength;
 118:/opt/XMClib/XMC_Peripheral_Library_v2.1.16/ThirdPartyLibraries/USBlib/USB/Core/XMC4000/USBController_XMC4000.c **** 			ret = device.Driver->EndpointWrite(0,buffer,length);
 119:/opt/XMClib/XMC_Peripheral_Library_v2.1.16/ThirdPartyLibraries/USBlib/USB/Core/XMC4000/USBController_XMC4000.c **** 			device.Endpoints[0].InDataLeft = length - ret;
 120:/opt/XMClib/XMC_Peripheral_Library_v2.1.16/ThirdPartyLibraries/USBlib/USB/Core/XMC4000/USBController_XMC4000.c **** 			device.Endpoints[0].InDataBuffer = (uint8_t *)((uint32_t)buffer + ret);
 121:/opt/XMClib/XMC_Peripheral_Library_v2.1.16/ThirdPartyLibraries/USBlib/USB/Core/XMC4000/USBController_XMC4000.c **** 		}
 122:/opt/XMClib/XMC_Peripheral_Library_v2.1.16/ThirdPartyLibraries/USBlib/USB/Core/XMC4000/USBController_XMC4000.c **** 		break;
 123:/opt/XMClib/XMC_Peripheral_Library_v2.1.16/ThirdPartyLibraries/USBlib/USB/Core/XMC4000/USBController_XMC4000.c **** 
 124:/opt/XMClib/XMC_Peripheral_Library_v2.1.16/ThirdPartyLibraries/USBlib/USB/Core/XMC4000/USBController_XMC4000.c **** 	case REQ_GetInterface:
 125:/opt/XMClib/XMC_Peripheral_Library_v2.1.16/ThirdPartyLibraries/USBlib/USB/Core/XMC4000/USBController_XMC4000.c **** 		if (USB_DeviceState == DEVICE_STATE_Configured) {
 126:/opt/XMClib/XMC_Peripheral_Library_v2.1.16/ThirdPartyLibraries/USBlib/USB/Core/XMC4000/USBController_XMC4000.c **** 			device.Driver->EndpointWrite(0,&device.InterfaceSettings[USB_ControlRequest.wIndex],1);
 127:/opt/XMClib/XMC_Peripheral_Library_v2.1.16/ThirdPartyLibraries/USBlib/USB/Core/XMC4000/USBController_XMC4000.c **** 			break;
 128:/opt/XMClib/XMC_Peripheral_Library_v2.1.16/ThirdPartyLibraries/USBlib/USB/Core/XMC4000/USBController_XMC4000.c **** 		}
 129:/opt/XMClib/XMC_Peripheral_Library_v2.1.16/ThirdPartyLibraries/USBlib/USB/Core/XMC4000/USBController_XMC4000.c **** 		if (USB_DeviceState == DEVICE_STATE_Addressed) {
 130:/opt/XMClib/XMC_Peripheral_Library_v2.1.16/ThirdPartyLibraries/USBlib/USB/Core/XMC4000/USBController_XMC4000.c **** 			USBD_HandleEP0_Stall();
 131:/opt/XMClib/XMC_Peripheral_Library_v2.1.16/ThirdPartyLibraries/USBlib/USB/Core/XMC4000/USBController_XMC4000.c **** 			break;
 132:/opt/XMClib/XMC_Peripheral_Library_v2.1.16/ThirdPartyLibraries/USBlib/USB/Core/XMC4000/USBController_XMC4000.c **** 		}
 133:/opt/XMClib/XMC_Peripheral_Library_v2.1.16/ThirdPartyLibraries/USBlib/USB/Core/XMC4000/USBController_XMC4000.c **** 		break;
 134:/opt/XMClib/XMC_Peripheral_Library_v2.1.16/ThirdPartyLibraries/USBlib/USB/Core/XMC4000/USBController_XMC4000.c **** 
 135:/opt/XMClib/XMC_Peripheral_Library_v2.1.16/ThirdPartyLibraries/USBlib/USB/Core/XMC4000/USBController_XMC4000.c **** 	case REQ_GetStatus:
 136:/opt/XMClib/XMC_Peripheral_Library_v2.1.16/ThirdPartyLibraries/USBlib/USB/Core/XMC4000/USBController_XMC4000.c **** 		if ((USB_ControlRequest.bmRequestType & 0x3) == REQREC_DEVICE) {
 137:/opt/XMClib/XMC_Peripheral_Library_v2.1.16/ThirdPartyLibraries/USBlib/USB/Core/XMC4000/USBController_XMC4000.c **** 			status = device.RemoteWakeUp << 1 | device.SelfPowered;
 138:/opt/XMClib/XMC_Peripheral_Library_v2.1.16/ThirdPartyLibraries/USBlib/USB/Core/XMC4000/USBController_XMC4000.c **** 			device.Driver->EndpointWrite(0,(uint8_t*)&status,2);
 139:/opt/XMClib/XMC_Peripheral_Library_v2.1.16/ThirdPartyLibraries/USBlib/USB/Core/XMC4000/USBController_XMC4000.c **** 			break;
 140:/opt/XMClib/XMC_Peripheral_Library_v2.1.16/ThirdPartyLibraries/USBlib/USB/Core/XMC4000/USBController_XMC4000.c **** 		}
 141:/opt/XMClib/XMC_Peripheral_Library_v2.1.16/ThirdPartyLibraries/USBlib/USB/Core/XMC4000/USBController_XMC4000.c **** 		if ((USB_ControlRequest.bmRequestType & 0x3) == REQREC_INTERFACE && USB_DeviceState == DEVICE_STA
 142:/opt/XMClib/XMC_Peripheral_Library_v2.1.16/ThirdPartyLibraries/USBlib/USB/Core/XMC4000/USBController_XMC4000.c **** 			status = 0;
 143:/opt/XMClib/XMC_Peripheral_Library_v2.1.16/ThirdPartyLibraries/USBlib/USB/Core/XMC4000/USBController_XMC4000.c **** 			device.Driver->EndpointWrite(0,(uint8_t*)&status,2);
 144:/opt/XMClib/XMC_Peripheral_Library_v2.1.16/ThirdPartyLibraries/USBlib/USB/Core/XMC4000/USBController_XMC4000.c **** 			break;
 145:/opt/XMClib/XMC_Peripheral_Library_v2.1.16/ThirdPartyLibraries/USBlib/USB/Core/XMC4000/USBController_XMC4000.c **** 		}
 146:/opt/XMClib/XMC_Peripheral_Library_v2.1.16/ThirdPartyLibraries/USBlib/USB/Core/XMC4000/USBController_XMC4000.c **** 		/* print endpoint status only when(or):
 147:/opt/XMClib/XMC_Peripheral_Library_v2.1.16/ThirdPartyLibraries/USBlib/USB/Core/XMC4000/USBController_XMC4000.c **** 		 * - Device_Address_state and ep == 0
 148:/opt/XMClib/XMC_Peripheral_Library_v2.1.16/ThirdPartyLibraries/USBlib/USB/Core/XMC4000/USBController_XMC4000.c **** 		 * - Device_configured_state and ep is configured
 149:/opt/XMClib/XMC_Peripheral_Library_v2.1.16/ThirdPartyLibraries/USBlib/USB/Core/XMC4000/USBController_XMC4000.c **** 		 */
 150:/opt/XMClib/XMC_Peripheral_Library_v2.1.16/ThirdPartyLibraries/USBlib/USB/Core/XMC4000/USBController_XMC4000.c **** 		if ((USB_ControlRequest.bmRequestType & 0x3) == REQREC_ENDPOINT) {
 151:/opt/XMClib/XMC_Peripheral_Library_v2.1.16/ThirdPartyLibraries/USBlib/USB/Core/XMC4000/USBController_XMC4000.c **** 			Index = USB_ControlRequest.wIndex & 0xFF & ENDPOINT_EPNUM_MASK;
 152:/opt/XMClib/XMC_Peripheral_Library_v2.1.16/ThirdPartyLibraries/USBlib/USB/Core/XMC4000/USBController_XMC4000.c **** 			if ((USB_DeviceState == DEVICE_STATE_Configured || USB_ControlRequest.wIndex==0) &&
 153:/opt/XMClib/XMC_Peripheral_Library_v2.1.16/ThirdPartyLibraries/USBlib/USB/Core/XMC4000/USBController_XMC4000.c **** 					device.Endpoints[Index].IsConfigured==1) {
 154:/opt/XMClib/XMC_Peripheral_Library_v2.1.16/ThirdPartyLibraries/USBlib/USB/Core/XMC4000/USBController_XMC4000.c **** 				status = device.Endpoints[Index].IsHalted;
 155:/opt/XMClib/XMC_Peripheral_Library_v2.1.16/ThirdPartyLibraries/USBlib/USB/Core/XMC4000/USBController_XMC4000.c **** 				device.Driver->EndpointWrite(0,(uint8_t*)&status,2);
 156:/opt/XMClib/XMC_Peripheral_Library_v2.1.16/ThirdPartyLibraries/USBlib/USB/Core/XMC4000/USBController_XMC4000.c **** 				break;
 157:/opt/XMClib/XMC_Peripheral_Library_v2.1.16/ThirdPartyLibraries/USBlib/USB/Core/XMC4000/USBController_XMC4000.c **** 			}
 158:/opt/XMClib/XMC_Peripheral_Library_v2.1.16/ThirdPartyLibraries/USBlib/USB/Core/XMC4000/USBController_XMC4000.c **** 		}
 159:/opt/XMClib/XMC_Peripheral_Library_v2.1.16/ThirdPartyLibraries/USBlib/USB/Core/XMC4000/USBController_XMC4000.c **** 		/* default stall */
 160:/opt/XMClib/XMC_Peripheral_Library_v2.1.16/ThirdPartyLibraries/USBlib/USB/Core/XMC4000/USBController_XMC4000.c **** 		USBD_HandleEP0_Stall();
 161:/opt/XMClib/XMC_Peripheral_Library_v2.1.16/ThirdPartyLibraries/USBlib/USB/Core/XMC4000/USBController_XMC4000.c **** 		break;
 162:/opt/XMClib/XMC_Peripheral_Library_v2.1.16/ThirdPartyLibraries/USBlib/USB/Core/XMC4000/USBController_XMC4000.c **** 
 163:/opt/XMClib/XMC_Peripheral_Library_v2.1.16/ThirdPartyLibraries/USBlib/USB/Core/XMC4000/USBController_XMC4000.c **** 	case REQ_SetAddress:
 164:/opt/XMClib/XMC_Peripheral_Library_v2.1.16/ThirdPartyLibraries/USBlib/USB/Core/XMC4000/USBController_XMC4000.c **** 		if (Value == 0)
 165:/opt/XMClib/XMC_Peripheral_Library_v2.1.16/ThirdPartyLibraries/USBlib/USB/Core/XMC4000/USBController_XMC4000.c **** 			USB_DeviceState = DEVICE_STATE_Default;
 166:/opt/XMClib/XMC_Peripheral_Library_v2.1.16/ThirdPartyLibraries/USBlib/USB/Core/XMC4000/USBController_XMC4000.c **** 		else
 167:/opt/XMClib/XMC_Peripheral_Library_v2.1.16/ThirdPartyLibraries/USBlib/USB/Core/XMC4000/USBController_XMC4000.c **** 			USB_DeviceState = DEVICE_STATE_Addressed;
 168:/opt/XMClib/XMC_Peripheral_Library_v2.1.16/ThirdPartyLibraries/USBlib/USB/Core/XMC4000/USBController_XMC4000.c **** 		device.Driver->DeviceSetAddress(Value,XMC_USBD_SET_ADDRESS_STAGE_SETUP);
 169:/opt/XMClib/XMC_Peripheral_Library_v2.1.16/ThirdPartyLibraries/USBlib/USB/Core/XMC4000/USBController_XMC4000.c **** 		break;
 170:/opt/XMClib/XMC_Peripheral_Library_v2.1.16/ThirdPartyLibraries/USBlib/USB/Core/XMC4000/USBController_XMC4000.c **** 
 171:/opt/XMClib/XMC_Peripheral_Library_v2.1.16/ThirdPartyLibraries/USBlib/USB/Core/XMC4000/USBController_XMC4000.c **** 	case REQ_SetConfiguration:
 172:/opt/XMClib/XMC_Peripheral_Library_v2.1.16/ThirdPartyLibraries/USBlib/USB/Core/XMC4000/USBController_XMC4000.c **** 		/* Regardless the state update the configuration to unconfigure endpoints */
 173:/opt/XMClib/XMC_Peripheral_Library_v2.1.16/ThirdPartyLibraries/USBlib/USB/Core/XMC4000/USBController_XMC4000.c **** 		device.Configuration = Value;
 174:/opt/XMClib/XMC_Peripheral_Library_v2.1.16/ThirdPartyLibraries/USBlib/USB/Core/XMC4000/USBController_XMC4000.c **** 		EVENT_USB_Device_ConfigurationChanged();
 175:/opt/XMClib/XMC_Peripheral_Library_v2.1.16/ThirdPartyLibraries/USBlib/USB/Core/XMC4000/USBController_XMC4000.c **** 		/* when config 0 is choosen, we are back in address state */
 176:/opt/XMClib/XMC_Peripheral_Library_v2.1.16/ThirdPartyLibraries/USBlib/USB/Core/XMC4000/USBController_XMC4000.c **** 		if (Value == 0) {
 177:/opt/XMClib/XMC_Peripheral_Library_v2.1.16/ThirdPartyLibraries/USBlib/USB/Core/XMC4000/USBController_XMC4000.c **** 			USB_DeviceState = DEVICE_STATE_Addressed;
 178:/opt/XMClib/XMC_Peripheral_Library_v2.1.16/ThirdPartyLibraries/USBlib/USB/Core/XMC4000/USBController_XMC4000.c **** 			break;
 179:/opt/XMClib/XMC_Peripheral_Library_v2.1.16/ThirdPartyLibraries/USBlib/USB/Core/XMC4000/USBController_XMC4000.c **** 		}
 180:/opt/XMClib/XMC_Peripheral_Library_v2.1.16/ThirdPartyLibraries/USBlib/USB/Core/XMC4000/USBController_XMC4000.c **** 		/* go ahead only with vailid config. (must be set in event) */
 181:/opt/XMClib/XMC_Peripheral_Library_v2.1.16/ThirdPartyLibraries/USBlib/USB/Core/XMC4000/USBController_XMC4000.c **** 		if (device.IsConfigured == 1)
 182:/opt/XMClib/XMC_Peripheral_Library_v2.1.16/ThirdPartyLibraries/USBlib/USB/Core/XMC4000/USBController_XMC4000.c **** 			USB_DeviceState = DEVICE_STATE_Configured;
 183:/opt/XMClib/XMC_Peripheral_Library_v2.1.16/ThirdPartyLibraries/USBlib/USB/Core/XMC4000/USBController_XMC4000.c **** 		else
 184:/opt/XMClib/XMC_Peripheral_Library_v2.1.16/ThirdPartyLibraries/USBlib/USB/Core/XMC4000/USBController_XMC4000.c **** 			USBD_HandleEP0_Stall();
 185:/opt/XMClib/XMC_Peripheral_Library_v2.1.16/ThirdPartyLibraries/USBlib/USB/Core/XMC4000/USBController_XMC4000.c **** 		break;
 186:/opt/XMClib/XMC_Peripheral_Library_v2.1.16/ThirdPartyLibraries/USBlib/USB/Core/XMC4000/USBController_XMC4000.c **** 
 187:/opt/XMClib/XMC_Peripheral_Library_v2.1.16/ThirdPartyLibraries/USBlib/USB/Core/XMC4000/USBController_XMC4000.c **** 	case REQ_SetDescriptor:
 188:/opt/XMClib/XMC_Peripheral_Library_v2.1.16/ThirdPartyLibraries/USBlib/USB/Core/XMC4000/USBController_XMC4000.c **** 		/* Set Descriptor not supported, so stall */
 189:/opt/XMClib/XMC_Peripheral_Library_v2.1.16/ThirdPartyLibraries/USBlib/USB/Core/XMC4000/USBController_XMC4000.c **** 		USBD_HandleEP0_Stall();
 190:/opt/XMClib/XMC_Peripheral_Library_v2.1.16/ThirdPartyLibraries/USBlib/USB/Core/XMC4000/USBController_XMC4000.c **** 		break;
 191:/opt/XMClib/XMC_Peripheral_Library_v2.1.16/ThirdPartyLibraries/USBlib/USB/Core/XMC4000/USBController_XMC4000.c **** 
 192:/opt/XMClib/XMC_Peripheral_Library_v2.1.16/ThirdPartyLibraries/USBlib/USB/Core/XMC4000/USBController_XMC4000.c **** 	case REQ_SetInterface:
 193:/opt/XMClib/XMC_Peripheral_Library_v2.1.16/ThirdPartyLibraries/USBlib/USB/Core/XMC4000/USBController_XMC4000.c **** 		if (USB_DeviceState == DEVICE_STATE_Configured) {
 194:/opt/XMClib/XMC_Peripheral_Library_v2.1.16/ThirdPartyLibraries/USBlib/USB/Core/XMC4000/USBController_XMC4000.c **** 			/* TODO: Check if interface and altsetting exists and configuration is allowed, else stall */
 195:/opt/XMClib/XMC_Peripheral_Library_v2.1.16/ThirdPartyLibraries/USBlib/USB/Core/XMC4000/USBController_XMC4000.c **** 			device.InterfaceSettings[USB_ControlRequest.wIndex] = USB_ControlRequest.wValue;
 196:/opt/XMClib/XMC_Peripheral_Library_v2.1.16/ThirdPartyLibraries/USBlib/USB/Core/XMC4000/USBController_XMC4000.c **** 			break;
 197:/opt/XMClib/XMC_Peripheral_Library_v2.1.16/ThirdPartyLibraries/USBlib/USB/Core/XMC4000/USBController_XMC4000.c **** 		}
 198:/opt/XMClib/XMC_Peripheral_Library_v2.1.16/ThirdPartyLibraries/USBlib/USB/Core/XMC4000/USBController_XMC4000.c **** 		if (USB_DeviceState == DEVICE_STATE_Addressed) {
 199:/opt/XMClib/XMC_Peripheral_Library_v2.1.16/ThirdPartyLibraries/USBlib/USB/Core/XMC4000/USBController_XMC4000.c **** 			USBD_HandleEP0_Stall();
 200:/opt/XMClib/XMC_Peripheral_Library_v2.1.16/ThirdPartyLibraries/USBlib/USB/Core/XMC4000/USBController_XMC4000.c **** 			break;
 201:/opt/XMClib/XMC_Peripheral_Library_v2.1.16/ThirdPartyLibraries/USBlib/USB/Core/XMC4000/USBController_XMC4000.c **** 		}
 202:/opt/XMClib/XMC_Peripheral_Library_v2.1.16/ThirdPartyLibraries/USBlib/USB/Core/XMC4000/USBController_XMC4000.c **** 		break;
 203:/opt/XMClib/XMC_Peripheral_Library_v2.1.16/ThirdPartyLibraries/USBlib/USB/Core/XMC4000/USBController_XMC4000.c **** 
 204:/opt/XMClib/XMC_Peripheral_Library_v2.1.16/ThirdPartyLibraries/USBlib/USB/Core/XMC4000/USBController_XMC4000.c **** 	case REQ_SetFeature:
 205:/opt/XMClib/XMC_Peripheral_Library_v2.1.16/ThirdPartyLibraries/USBlib/USB/Core/XMC4000/USBController_XMC4000.c **** 		/* we do not support test mode */
 206:/opt/XMClib/XMC_Peripheral_Library_v2.1.16/ThirdPartyLibraries/USBlib/USB/Core/XMC4000/USBController_XMC4000.c **** 		if (Value == FEATURE_SEL_TestMode) {
 207:/opt/XMClib/XMC_Peripheral_Library_v2.1.16/ThirdPartyLibraries/USBlib/USB/Core/XMC4000/USBController_XMC4000.c **** 			USBD_HandleEP0_Stall();
 208:/opt/XMClib/XMC_Peripheral_Library_v2.1.16/ThirdPartyLibraries/USBlib/USB/Core/XMC4000/USBController_XMC4000.c **** 			break;
 209:/opt/XMClib/XMC_Peripheral_Library_v2.1.16/ThirdPartyLibraries/USBlib/USB/Core/XMC4000/USBController_XMC4000.c **** 		}
 210:/opt/XMClib/XMC_Peripheral_Library_v2.1.16/ThirdPartyLibraries/USBlib/USB/Core/XMC4000/USBController_XMC4000.c **** 		/* configured state */
 211:/opt/XMClib/XMC_Peripheral_Library_v2.1.16/ThirdPartyLibraries/USBlib/USB/Core/XMC4000/USBController_XMC4000.c **** 		if (USB_DeviceState == DEVICE_STATE_Configured) {
 212:/opt/XMClib/XMC_Peripheral_Library_v2.1.16/ThirdPartyLibraries/USBlib/USB/Core/XMC4000/USBController_XMC4000.c **** 			switch (Value) {
 213:/opt/XMClib/XMC_Peripheral_Library_v2.1.16/ThirdPartyLibraries/USBlib/USB/Core/XMC4000/USBController_XMC4000.c **** 			case FEATURE_SEL_DeviceRemoteWakeup:
 214:/opt/XMClib/XMC_Peripheral_Library_v2.1.16/ThirdPartyLibraries/USBlib/USB/Core/XMC4000/USBController_XMC4000.c **** 				device.RemoteWakeUp = 1;
 215:/opt/XMClib/XMC_Peripheral_Library_v2.1.16/ThirdPartyLibraries/USBlib/USB/Core/XMC4000/USBController_XMC4000.c **** 				break;
 216:/opt/XMClib/XMC_Peripheral_Library_v2.1.16/ThirdPartyLibraries/USBlib/USB/Core/XMC4000/USBController_XMC4000.c **** 			case FEATURE_SEL_EndpointHalt:
 217:/opt/XMClib/XMC_Peripheral_Library_v2.1.16/ThirdPartyLibraries/USBlib/USB/Core/XMC4000/USBController_XMC4000.c **** 				Index = USB_ControlRequest.wIndex & 0xFF & (uint8_t)XMC_USBD_ENDPOINT_NUMBER_MASK;
 218:/opt/XMClib/XMC_Peripheral_Library_v2.1.16/ThirdPartyLibraries/USBlib/USB/Core/XMC4000/USBController_XMC4000.c **** 				if (device.Endpoints[Index].IsConfigured == 0)
 219:/opt/XMClib/XMC_Peripheral_Library_v2.1.16/ThirdPartyLibraries/USBlib/USB/Core/XMC4000/USBController_XMC4000.c **** 					USBD_HandleEP0_Stall();
 220:/opt/XMClib/XMC_Peripheral_Library_v2.1.16/ThirdPartyLibraries/USBlib/USB/Core/XMC4000/USBController_XMC4000.c **** 				else {
 221:/opt/XMClib/XMC_Peripheral_Library_v2.1.16/ThirdPartyLibraries/USBlib/USB/Core/XMC4000/USBController_XMC4000.c **** 					device.Endpoints[Index].IsHalted = 1;
 222:/opt/XMClib/XMC_Peripheral_Library_v2.1.16/ThirdPartyLibraries/USBlib/USB/Core/XMC4000/USBController_XMC4000.c **** 					device.Driver->EndpointStall(USB_ControlRequest.wIndex,1);
 223:/opt/XMClib/XMC_Peripheral_Library_v2.1.16/ThirdPartyLibraries/USBlib/USB/Core/XMC4000/USBController_XMC4000.c **** 				}
 224:/opt/XMClib/XMC_Peripheral_Library_v2.1.16/ThirdPartyLibraries/USBlib/USB/Core/XMC4000/USBController_XMC4000.c **** 				break;
 225:/opt/XMClib/XMC_Peripheral_Library_v2.1.16/ThirdPartyLibraries/USBlib/USB/Core/XMC4000/USBController_XMC4000.c **** 			}
 226:/opt/XMClib/XMC_Peripheral_Library_v2.1.16/ThirdPartyLibraries/USBlib/USB/Core/XMC4000/USBController_XMC4000.c **** 			break;
 227:/opt/XMClib/XMC_Peripheral_Library_v2.1.16/ThirdPartyLibraries/USBlib/USB/Core/XMC4000/USBController_XMC4000.c **** 		}
 228:/opt/XMClib/XMC_Peripheral_Library_v2.1.16/ThirdPartyLibraries/USBlib/USB/Core/XMC4000/USBController_XMC4000.c **** 		/* when addressed, only ep0 can be halted */
 229:/opt/XMClib/XMC_Peripheral_Library_v2.1.16/ThirdPartyLibraries/USBlib/USB/Core/XMC4000/USBController_XMC4000.c **** 		if (USB_DeviceState == DEVICE_STATE_Addressed) {
 230:/opt/XMClib/XMC_Peripheral_Library_v2.1.16/ThirdPartyLibraries/USBlib/USB/Core/XMC4000/USBController_XMC4000.c **** 			if (Value == FEATURE_SEL_EndpointHalt &&
 231:/opt/XMClib/XMC_Peripheral_Library_v2.1.16/ThirdPartyLibraries/USBlib/USB/Core/XMC4000/USBController_XMC4000.c **** 					(USB_ControlRequest.bmRequestType & 0x3) == REQREC_ENDPOINT &&
 232:/opt/XMClib/XMC_Peripheral_Library_v2.1.16/ThirdPartyLibraries/USBlib/USB/Core/XMC4000/USBController_XMC4000.c **** 					(USB_ControlRequest.wIndex & 0x00FF) == 0x0) {
 233:/opt/XMClib/XMC_Peripheral_Library_v2.1.16/ThirdPartyLibraries/USBlib/USB/Core/XMC4000/USBController_XMC4000.c **** 				device.Endpoints[0].IsHalted = 1;
 234:/opt/XMClib/XMC_Peripheral_Library_v2.1.16/ThirdPartyLibraries/USBlib/USB/Core/XMC4000/USBController_XMC4000.c **** 				USBD_HandleEP0_Stall();
 235:/opt/XMClib/XMC_Peripheral_Library_v2.1.16/ThirdPartyLibraries/USBlib/USB/Core/XMC4000/USBController_XMC4000.c **** 				break;
 236:/opt/XMClib/XMC_Peripheral_Library_v2.1.16/ThirdPartyLibraries/USBlib/USB/Core/XMC4000/USBController_XMC4000.c **** 			}
 237:/opt/XMClib/XMC_Peripheral_Library_v2.1.16/ThirdPartyLibraries/USBlib/USB/Core/XMC4000/USBController_XMC4000.c **** 		}
 238:/opt/XMClib/XMC_Peripheral_Library_v2.1.16/ThirdPartyLibraries/USBlib/USB/Core/XMC4000/USBController_XMC4000.c **** 		/* default behaviour is stall */
 239:/opt/XMClib/XMC_Peripheral_Library_v2.1.16/ThirdPartyLibraries/USBlib/USB/Core/XMC4000/USBController_XMC4000.c **** 		USBD_HandleEP0_Stall();
 240:/opt/XMClib/XMC_Peripheral_Library_v2.1.16/ThirdPartyLibraries/USBlib/USB/Core/XMC4000/USBController_XMC4000.c **** 		break;
 241:/opt/XMClib/XMC_Peripheral_Library_v2.1.16/ThirdPartyLibraries/USBlib/USB/Core/XMC4000/USBController_XMC4000.c **** 
 242:/opt/XMClib/XMC_Peripheral_Library_v2.1.16/ThirdPartyLibraries/USBlib/USB/Core/XMC4000/USBController_XMC4000.c **** 	case REQ_SynchFrame:
 243:/opt/XMClib/XMC_Peripheral_Library_v2.1.16/ThirdPartyLibraries/USBlib/USB/Core/XMC4000/USBController_XMC4000.c **** 		/* Not yet supported */
 244:/opt/XMClib/XMC_Peripheral_Library_v2.1.16/ThirdPartyLibraries/USBlib/USB/Core/XMC4000/USBController_XMC4000.c **** 		USBD_HandleEP0_Stall();
 245:/opt/XMClib/XMC_Peripheral_Library_v2.1.16/ThirdPartyLibraries/USBlib/USB/Core/XMC4000/USBController_XMC4000.c **** 		break;
 246:/opt/XMClib/XMC_Peripheral_Library_v2.1.16/ThirdPartyLibraries/USBlib/USB/Core/XMC4000/USBController_XMC4000.c **** 
 247:/opt/XMClib/XMC_Peripheral_Library_v2.1.16/ThirdPartyLibraries/USBlib/USB/Core/XMC4000/USBController_XMC4000.c **** 	default:
 248:/opt/XMClib/XMC_Peripheral_Library_v2.1.16/ThirdPartyLibraries/USBlib/USB/Core/XMC4000/USBController_XMC4000.c **** 		USBD_HandleEP0_Stall();
 170              		.loc 1 248 3 is_stmt 1 view .LVU38
 171              	.LBB28:
 172              	.LBI28:
  54:/opt/XMClib/XMC_Peripheral_Library_v2.1.16/ThirdPartyLibraries/USBlib/USB/Core/XMC4000/USBController_XMC4000.c **** 	/* When we stall ep0 as protocol stall, we go back into idle state and start a new read */
 173              		.loc 1 54 6 view .LVU39
 174              	.LBB29:
  56:/opt/XMClib/XMC_Peripheral_Library_v2.1.16/ThirdPartyLibraries/USBlib/USB/Core/XMC4000/USBController_XMC4000.c **** 	device.EP0_State = IDLE;
 175              		.loc 1 56 2 view .LVU40
  56:/opt/XMClib/XMC_Peripheral_Library_v2.1.16/ThirdPartyLibraries/USBlib/USB/Core/XMC4000/USBController_XMC4000.c **** 	device.EP0_State = IDLE;
 176              		.loc 1 56 15 is_stmt 0 view .LVU41
 177 004a 2368     		ldr	r3, [r4]
  56:/opt/XMClib/XMC_Peripheral_Library_v2.1.16/ThirdPartyLibraries/USBlib/USB/Core/XMC4000/USBController_XMC4000.c **** 	device.EP0_State = IDLE;
 178              		.loc 1 56 2 view .LVU42
 179 004c 0121     		movs	r1, #1
 180 004e 5B6A     		ldr	r3, [r3, #36]
 181 0050 8020     		movs	r0, #128
 182 0052 9847     		blx	r3
 183              	.LVL8:
  57:/opt/XMClib/XMC_Peripheral_Library_v2.1.16/ThirdPartyLibraries/USBlib/USB/Core/XMC4000/USBController_XMC4000.c **** 	device.Driver->EndpointReadStart(0,24);
 184              		.loc 1 57 2 is_stmt 1 view .LVU43
  58:/opt/XMClib/XMC_Peripheral_Library_v2.1.16/ThirdPartyLibraries/USBlib/USB/Core/XMC4000/USBController_XMC4000.c **** }
 185              		.loc 1 58 15 is_stmt 0 view .LVU44
 186 0054 2368     		ldr	r3, [r4]
  57:/opt/XMClib/XMC_Peripheral_Library_v2.1.16/ThirdPartyLibraries/USBlib/USB/Core/XMC4000/USBController_XMC4000.c **** 	device.Driver->EndpointReadStart(0,24);
 187              		.loc 1 57 19 view .LVU45
 188 0056 0122     		movs	r2, #1
 189 0058 84F83B21 		strb	r2, [r4, #315]
  58:/opt/XMClib/XMC_Peripheral_Library_v2.1.16/ThirdPartyLibraries/USBlib/USB/Core/XMC4000/USBController_XMC4000.c **** }
 190              		.loc 1 58 2 is_stmt 1 view .LVU46
 191 005c 9B6A     		ldr	r3, [r3, #40]
 192 005e 1821     		movs	r1, #24
 193 0060 0020     		movs	r0, #0
 194 0062 9847     		blx	r3
 195              	.LVL9:
 196              	.L25:
 197              	.LBE29:
 198              	.LBE28:
 249:/opt/XMClib/XMC_Peripheral_Library_v2.1.16/ThirdPartyLibraries/USBlib/USB/Core/XMC4000/USBController_XMC4000.c **** 	}
 250:/opt/XMClib/XMC_Peripheral_Library_v2.1.16/ThirdPartyLibraries/USBlib/USB/Core/XMC4000/USBController_XMC4000.c **** 	device.IsSetupRecieved = 0;
 199              		.loc 1 250 2 discriminator 1 view .LVU47
 200              		.loc 1 250 25 is_stmt 0 discriminator 1 view .LVU48
 201 0064 94F83E31 		ldrb	r3, [r4, #318]	@ zero_extendqisi2
 202 0068 6FF34103 		bfc	r3, #1, #1
 203 006c 84F83E31 		strb	r3, [r4, #318]
 204              	.L6:
 251:/opt/XMClib/XMC_Peripheral_Library_v2.1.16/ThirdPartyLibraries/USBlib/USB/Core/XMC4000/USBController_XMC4000.c **** }
 205              		.loc 1 251 1 view .LVU49
 206 0070 02B0     		add	sp, sp, #8
 207              	.LCFI4:
 208              		.cfi_remember_state
 209              		.cfi_def_cfa_offset 16
 210              		@ sp needed
 211 0072 70BD     		pop	{r4, r5, r6, pc}
 212              	.LVL10:
 213              	.L13:
 214              	.LCFI5:
 215              		.cfi_restore_state
 125:/opt/XMClib/XMC_Peripheral_Library_v2.1.16/ThirdPartyLibraries/USBlib/USB/Core/XMC4000/USBController_XMC4000.c **** 			device.Driver->EndpointWrite(0,&device.InterfaceSettings[USB_ControlRequest.wIndex],1);
 216              		.loc 1 125 3 is_stmt 1 view .LVU50
 125:/opt/XMClib/XMC_Peripheral_Library_v2.1.16/ThirdPartyLibraries/USBlib/USB/Core/XMC4000/USBController_XMC4000.c **** 			device.Driver->EndpointWrite(0,&device.InterfaceSettings[USB_ControlRequest.wIndex],1);
 217              		.loc 1 125 23 is_stmt 0 view .LVU51
 218 0074 7F4B     		ldr	r3, .L58+8
 219 0076 1A78     		ldrb	r2, [r3]	@ zero_extendqisi2
 125:/opt/XMClib/XMC_Peripheral_Library_v2.1.16/ThirdPartyLibraries/USBlib/USB/Core/XMC4000/USBController_XMC4000.c **** 			device.Driver->EndpointWrite(0,&device.InterfaceSettings[USB_ControlRequest.wIndex],1);
 220              		.loc 1 125 6 view .LVU52
 221 0078 042A     		cmp	r2, #4
 222 007a 00F0A580 		beq	.L51
 223              	.L37:
 198:/opt/XMClib/XMC_Peripheral_Library_v2.1.16/ThirdPartyLibraries/USBlib/USB/Core/XMC4000/USBController_XMC4000.c **** 			USBD_HandleEP0_Stall();
 224              		.loc 1 198 3 is_stmt 1 view .LVU53
 198:/opt/XMClib/XMC_Peripheral_Library_v2.1.16/ThirdPartyLibraries/USBlib/USB/Core/XMC4000/USBController_XMC4000.c **** 			USBD_HandleEP0_Stall();
 225              		.loc 1 198 23 is_stmt 0 view .LVU54
 226 007e 1B78     		ldrb	r3, [r3]	@ zero_extendqisi2
 198:/opt/XMClib/XMC_Peripheral_Library_v2.1.16/ThirdPartyLibraries/USBlib/USB/Core/XMC4000/USBController_XMC4000.c **** 			USBD_HandleEP0_Stall();
 227              		.loc 1 198 6 view .LVU55
 228 0080 032B     		cmp	r3, #3
 229 0082 EFD1     		bne	.L25
 230 0084 E1E7     		b	.L9
 231              	.L21:
 136:/opt/XMClib/XMC_Peripheral_Library_v2.1.16/ThirdPartyLibraries/USBlib/USB/Core/XMC4000/USBController_XMC4000.c **** 			status = device.RemoteWakeUp << 1 | device.SelfPowered;
 232              		.loc 1 136 3 is_stmt 1 view .LVU56
 233 0086 2878     		ldrb	r0, [r5]	@ zero_extendqisi2
 136:/opt/XMClib/XMC_Peripheral_Library_v2.1.16/ThirdPartyLibraries/USBlib/USB/Core/XMC4000/USBController_XMC4000.c **** 			status = device.RemoteWakeUp << 1 | device.SelfPowered;
 234              		.loc 1 136 6 is_stmt 0 view .LVU57
 235 0088 10F00300 		ands	r0, r0, #3
 236 008c 00F08B80 		beq	.L52
 141:/opt/XMClib/XMC_Peripheral_Library_v2.1.16/ThirdPartyLibraries/USBlib/USB/Core/XMC4000/USBController_XMC4000.c **** 			status = 0;
 237              		.loc 1 141 3 is_stmt 1 view .LVU58
 141:/opt/XMClib/XMC_Peripheral_Library_v2.1.16/ThirdPartyLibraries/USBlib/USB/Core/XMC4000/USBController_XMC4000.c **** 			status = 0;
 238              		.loc 1 141 6 is_stmt 0 view .LVU59
 239 0090 0128     		cmp	r0, #1
 240 0092 00F0C880 		beq	.L53
 150:/opt/XMClib/XMC_Peripheral_Library_v2.1.16/ThirdPartyLibraries/USBlib/USB/Core/XMC4000/USBController_XMC4000.c **** 			Index = USB_ControlRequest.wIndex & 0xFF & ENDPOINT_EPNUM_MASK;
 241              		.loc 1 150 3 is_stmt 1 view .LVU60
 150:/opt/XMClib/XMC_Peripheral_Library_v2.1.16/ThirdPartyLibraries/USBlib/USB/Core/XMC4000/USBController_XMC4000.c **** 			Index = USB_ControlRequest.wIndex & 0xFF & ENDPOINT_EPNUM_MASK;
 242              		.loc 1 150 6 is_stmt 0 view .LVU61
 243 0096 0228     		cmp	r0, #2
 244 0098 D7D1     		bne	.L9
 151:/opt/XMClib/XMC_Peripheral_Library_v2.1.16/ThirdPartyLibraries/USBlib/USB/Core/XMC4000/USBController_XMC4000.c **** 			if ((USB_DeviceState == DEVICE_STATE_Configured || USB_ControlRequest.wIndex==0) &&
 245              		.loc 1 151 4 is_stmt 1 view .LVU62
 152:/opt/XMClib/XMC_Peripheral_Library_v2.1.16/ThirdPartyLibraries/USBlib/USB/Core/XMC4000/USBController_XMC4000.c **** 					device.Endpoints[Index].IsConfigured==1) {
 246              		.loc 1 152 25 is_stmt 0 view .LVU63
 247 009a 764A     		ldr	r2, .L58+8
 151:/opt/XMClib/XMC_Peripheral_Library_v2.1.16/ThirdPartyLibraries/USBlib/USB/Core/XMC4000/USBController_XMC4000.c **** 			if ((USB_DeviceState == DEVICE_STATE_Configured || USB_ControlRequest.wIndex==0) &&
 248              		.loc 1 151 30 view .LVU64
 249 009c AB88     		ldrh	r3, [r5, #4]	@ unaligned
 250              	.LVL11:
 152:/opt/XMClib/XMC_Peripheral_Library_v2.1.16/ThirdPartyLibraries/USBlib/USB/Core/XMC4000/USBController_XMC4000.c **** 					device.Endpoints[Index].IsConfigured==1) {
 251              		.loc 1 152 4 is_stmt 1 view .LVU65
 152:/opt/XMClib/XMC_Peripheral_Library_v2.1.16/ThirdPartyLibraries/USBlib/USB/Core/XMC4000/USBController_XMC4000.c **** 					device.Endpoints[Index].IsConfigured==1) {
 252              		.loc 1 152 25 is_stmt 0 view .LVU66
 253 009e 1278     		ldrb	r2, [r2]	@ zero_extendqisi2
 152:/opt/XMClib/XMC_Peripheral_Library_v2.1.16/ThirdPartyLibraries/USBlib/USB/Core/XMC4000/USBController_XMC4000.c **** 					device.Endpoints[Index].IsConfigured==1) {
 254              		.loc 1 152 7 view .LVU67
 255 00a0 042A     		cmp	r2, #4
 256 00a2 01D0     		beq	.L32
 152:/opt/XMClib/XMC_Peripheral_Library_v2.1.16/ThirdPartyLibraries/USBlib/USB/Core/XMC4000/USBController_XMC4000.c **** 					device.Endpoints[Index].IsConfigured==1) {
 257              		.loc 1 152 52 discriminator 2 view .LVU68
 258 00a4 002B     		cmp	r3, #0
 259 00a6 D0D1     		bne	.L9
 260              	.L32:
 153:/opt/XMClib/XMC_Peripheral_Library_v2.1.16/ThirdPartyLibraries/USBlib/USB/Core/XMC4000/USBController_XMC4000.c **** 				status = device.Endpoints[Index].IsHalted;
 261              		.loc 1 153 29 discriminator 3 view .LVU69
 262 00a8 03F00F03 		and	r3, r3, #15
 263 00ac 2C22     		movs	r2, #44
 264 00ae 02FB0343 		mla	r3, r2, r3, r4
 265 00b2 1B7A     		ldrb	r3, [r3, #8]	@ zero_extendqisi2
 152:/opt/XMClib/XMC_Peripheral_Library_v2.1.16/ThirdPartyLibraries/USBlib/USB/Core/XMC4000/USBController_XMC4000.c **** 					device.Endpoints[Index].IsConfigured==1) {
 266              		.loc 1 152 85 discriminator 3 view .LVU70
 267 00b4 D807     		lsls	r0, r3, #31
 268 00b6 C8D5     		bpl	.L9
 154:/opt/XMClib/XMC_Peripheral_Library_v2.1.16/ThirdPartyLibraries/USBlib/USB/Core/XMC4000/USBController_XMC4000.c **** 				device.Driver->EndpointWrite(0,(uint8_t*)&status,2);
 269              		.loc 1 154 5 is_stmt 1 view .LVU71
 155:/opt/XMClib/XMC_Peripheral_Library_v2.1.16/ThirdPartyLibraries/USBlib/USB/Core/XMC4000/USBController_XMC4000.c **** 				break;
 270              		.loc 1 155 18 is_stmt 0 view .LVU72
 271 00b8 2268     		ldr	r2, [r4]
 154:/opt/XMClib/XMC_Peripheral_Library_v2.1.16/ThirdPartyLibraries/USBlib/USB/Core/XMC4000/USBController_XMC4000.c **** 				device.Driver->EndpointWrite(0,(uint8_t*)&status,2);
 272              		.loc 1 154 37 view .LVU73
 273 00ba C3F38003 		ubfx	r3, r3, #2, #1
 155:/opt/XMClib/XMC_Peripheral_Library_v2.1.16/ThirdPartyLibraries/USBlib/USB/Core/XMC4000/USBController_XMC4000.c **** 				break;
 274              		.loc 1 155 5 view .LVU74
 275 00be 156B     		ldr	r5, [r2, #48]
 276              	.LVL12:
 154:/opt/XMClib/XMC_Peripheral_Library_v2.1.16/ThirdPartyLibraries/USBlib/USB/Core/XMC4000/USBController_XMC4000.c **** 				device.Driver->EndpointWrite(0,(uint8_t*)&status,2);
 277              		.loc 1 154 37 view .LVU75
 278 00c0 ADF80230 		strh	r3, [sp, #2]	@ movhi
 155:/opt/XMClib/XMC_Peripheral_Library_v2.1.16/ThirdPartyLibraries/USBlib/USB/Core/XMC4000/USBController_XMC4000.c **** 				break;
 279              		.loc 1 155 5 is_stmt 1 view .LVU76
 280 00c4 0222     		movs	r2, #2
 281 00c6 0DEB0201 		add	r1, sp, r2
 282 00ca 0020     		movs	r0, #0
 283 00cc A847     		blx	r5
 284              	.LVL13:
 156:/opt/XMClib/XMC_Peripheral_Library_v2.1.16/ThirdPartyLibraries/USBlib/USB/Core/XMC4000/USBController_XMC4000.c **** 			}
 285              		.loc 1 156 5 view .LVU77
 286 00ce C9E7     		b	.L25
 287              	.L12:
 193:/opt/XMClib/XMC_Peripheral_Library_v2.1.16/ThirdPartyLibraries/USBlib/USB/Core/XMC4000/USBController_XMC4000.c **** 			/* TODO: Check if interface and altsetting exists and configuration is allowed, else stall */
 288              		.loc 1 193 3 view .LVU78
 193:/opt/XMClib/XMC_Peripheral_Library_v2.1.16/ThirdPartyLibraries/USBlib/USB/Core/XMC4000/USBController_XMC4000.c **** 			/* TODO: Check if interface and altsetting exists and configuration is allowed, else stall */
 289              		.loc 1 193 23 is_stmt 0 view .LVU79
 290 00d0 684B     		ldr	r3, .L58+8
 291 00d2 1A78     		ldrb	r2, [r3]	@ zero_extendqisi2
 193:/opt/XMClib/XMC_Peripheral_Library_v2.1.16/ThirdPartyLibraries/USBlib/USB/Core/XMC4000/USBController_XMC4000.c **** 			/* TODO: Check if interface and altsetting exists and configuration is allowed, else stall */
 292              		.loc 1 193 6 view .LVU80
 293 00d4 042A     		cmp	r2, #4
 294 00d6 D2D1     		bne	.L37
 195:/opt/XMClib/XMC_Peripheral_Library_v2.1.16/ThirdPartyLibraries/USBlib/USB/Core/XMC4000/USBController_XMC4000.c **** 			break;
 295              		.loc 1 195 4 is_stmt 1 view .LVU81
 195:/opt/XMClib/XMC_Peripheral_Library_v2.1.16/ThirdPartyLibraries/USBlib/USB/Core/XMC4000/USBController_XMC4000.c **** 			break;
 296              		.loc 1 195 47 is_stmt 0 view .LVU82
 297 00d8 AB88     		ldrh	r3, [r5, #4]	@ unaligned
 195:/opt/XMClib/XMC_Peripheral_Library_v2.1.16/ThirdPartyLibraries/USBlib/USB/Core/XMC4000/USBController_XMC4000.c **** 			break;
 298              		.loc 1 195 76 view .LVU83
 299 00da 6A88     		ldrh	r2, [r5, #2]	@ unaligned
 195:/opt/XMClib/XMC_Peripheral_Library_v2.1.16/ThirdPartyLibraries/USBlib/USB/Core/XMC4000/USBController_XMC4000.c **** 			break;
 300              		.loc 1 195 56 view .LVU84
 301 00dc 2344     		add	r3, r3, r4
 302 00de 83F83821 		strb	r2, [r3, #312]
 196:/opt/XMClib/XMC_Peripheral_Library_v2.1.16/ThirdPartyLibraries/USBlib/USB/Core/XMC4000/USBController_XMC4000.c **** 		}
 303              		.loc 1 196 4 is_stmt 1 view .LVU85
 304 00e2 BFE7     		b	.L25
 305              	.L15:
 108:/opt/XMClib/XMC_Peripheral_Library_v2.1.16/ThirdPartyLibraries/USBlib/USB/Core/XMC4000/USBController_XMC4000.c **** 		break;
 306              		.loc 1 108 3 view .LVU86
 108:/opt/XMClib/XMC_Peripheral_Library_v2.1.16/ThirdPartyLibraries/USBlib/USB/Core/XMC4000/USBController_XMC4000.c **** 		break;
 307              		.loc 1 108 16 is_stmt 0 view .LVU87
 308 00e4 2368     		ldr	r3, [r4]
 108:/opt/XMClib/XMC_Peripheral_Library_v2.1.16/ThirdPartyLibraries/USBlib/USB/Core/XMC4000/USBController_XMC4000.c **** 		break;
 309              		.loc 1 108 3 view .LVU88
 310 00e6 6449     		ldr	r1, .L58+12
 311 00e8 1B6B     		ldr	r3, [r3, #48]
 312 00ea 0122     		movs	r2, #1
 313 00ec 0020     		movs	r0, #0
 314 00ee 9847     		blx	r3
 315              	.LVL14:
 109:/opt/XMClib/XMC_Peripheral_Library_v2.1.16/ThirdPartyLibraries/USBlib/USB/Core/XMC4000/USBController_XMC4000.c **** 
 316              		.loc 1 109 3 is_stmt 1 view .LVU89
 317 00f0 B8E7     		b	.L25
 318              	.L14:
 173:/opt/XMClib/XMC_Peripheral_Library_v2.1.16/ThirdPartyLibraries/USBlib/USB/Core/XMC4000/USBController_XMC4000.c **** 		EVENT_USB_Device_ConfigurationChanged();
 319              		.loc 1 173 3 view .LVU90
 173:/opt/XMClib/XMC_Peripheral_Library_v2.1.16/ThirdPartyLibraries/USBlib/USB/Core/XMC4000/USBController_XMC4000.c **** 		EVENT_USB_Device_ConfigurationChanged();
 320              		.loc 1 173 24 is_stmt 0 view .LVU91
 321 00f2 84F83961 		strb	r6, [r4, #313]
 174:/opt/XMClib/XMC_Peripheral_Library_v2.1.16/ThirdPartyLibraries/USBlib/USB/Core/XMC4000/USBController_XMC4000.c **** 		/* when config 0 is choosen, we are back in address state */
 322              		.loc 1 174 3 is_stmt 1 view .LVU92
 323 00f6 FFF7FEFF 		bl	EVENT_USB_Device_ConfigurationChanged
 324              	.LVL15:
 176:/opt/XMClib/XMC_Peripheral_Library_v2.1.16/ThirdPartyLibraries/USBlib/USB/Core/XMC4000/USBController_XMC4000.c **** 			USB_DeviceState = DEVICE_STATE_Addressed;
 325              		.loc 1 176 3 view .LVU93
 176:/opt/XMClib/XMC_Peripheral_Library_v2.1.16/ThirdPartyLibraries/USBlib/USB/Core/XMC4000/USBController_XMC4000.c **** 			USB_DeviceState = DEVICE_STATE_Addressed;
 326              		.loc 1 176 6 is_stmt 0 view .LVU94
 327 00fa 002E     		cmp	r6, #0
 328 00fc 4CD0     		beq	.L54
 181:/opt/XMClib/XMC_Peripheral_Library_v2.1.16/ThirdPartyLibraries/USBlib/USB/Core/XMC4000/USBController_XMC4000.c **** 			USB_DeviceState = DEVICE_STATE_Configured;
 329              		.loc 1 181 3 is_stmt 1 view .LVU95
 181:/opt/XMClib/XMC_Peripheral_Library_v2.1.16/ThirdPartyLibraries/USBlib/USB/Core/XMC4000/USBController_XMC4000.c **** 			USB_DeviceState = DEVICE_STATE_Configured;
 330              		.loc 1 181 27 is_stmt 0 view .LVU96
 331 00fe 94F83E31 		ldrb	r3, [r4, #318]	@ zero_extendqisi2
 181:/opt/XMClib/XMC_Peripheral_Library_v2.1.16/ThirdPartyLibraries/USBlib/USB/Core/XMC4000/USBController_XMC4000.c **** 			USB_DeviceState = DEVICE_STATE_Configured;
 332              		.loc 1 181 6 view .LVU97
 333 0102 13F00105 		ands	r5, r3, #1
 334 0106 A0D0     		beq	.L9
 182:/opt/XMClib/XMC_Peripheral_Library_v2.1.16/ThirdPartyLibraries/USBlib/USB/Core/XMC4000/USBController_XMC4000.c **** 		else
 335              		.loc 1 182 4 is_stmt 1 view .LVU98
 182:/opt/XMClib/XMC_Peripheral_Library_v2.1.16/ThirdPartyLibraries/USBlib/USB/Core/XMC4000/USBController_XMC4000.c **** 		else
 336              		.loc 1 182 20 is_stmt 0 view .LVU99
 337 0108 5A4B     		ldr	r3, .L58+8
 338 010a 0422     		movs	r2, #4
 339 010c 1A70     		strb	r2, [r3]
 340 010e A9E7     		b	.L25
 341              	.L19:
 206:/opt/XMClib/XMC_Peripheral_Library_v2.1.16/ThirdPartyLibraries/USBlib/USB/Core/XMC4000/USBController_XMC4000.c **** 			USBD_HandleEP0_Stall();
 342              		.loc 1 206 3 is_stmt 1 view .LVU100
 206:/opt/XMClib/XMC_Peripheral_Library_v2.1.16/ThirdPartyLibraries/USBlib/USB/Core/XMC4000/USBController_XMC4000.c **** 			USBD_HandleEP0_Stall();
 343              		.loc 1 206 6 is_stmt 0 view .LVU101
 344 0110 022E     		cmp	r6, #2
 345 0112 9AD0     		beq	.L9
 211:/opt/XMClib/XMC_Peripheral_Library_v2.1.16/ThirdPartyLibraries/USBlib/USB/Core/XMC4000/USBController_XMC4000.c **** 			switch (Value) {
 346              		.loc 1 211 3 is_stmt 1 view .LVU102
 211:/opt/XMClib/XMC_Peripheral_Library_v2.1.16/ThirdPartyLibraries/USBlib/USB/Core/XMC4000/USBController_XMC4000.c **** 			switch (Value) {
 347              		.loc 1 211 23 is_stmt 0 view .LVU103
 348 0114 574B     		ldr	r3, .L58+8
 349 0116 1A78     		ldrb	r2, [r3]	@ zero_extendqisi2
 211:/opt/XMClib/XMC_Peripheral_Library_v2.1.16/ThirdPartyLibraries/USBlib/USB/Core/XMC4000/USBController_XMC4000.c **** 			switch (Value) {
 350              		.loc 1 211 6 view .LVU104
 351 0118 042A     		cmp	r2, #4
 352 011a 79D0     		beq	.L55
 229:/opt/XMClib/XMC_Peripheral_Library_v2.1.16/ThirdPartyLibraries/USBlib/USB/Core/XMC4000/USBController_XMC4000.c **** 			if (Value == FEATURE_SEL_EndpointHalt &&
 353              		.loc 1 229 3 is_stmt 1 view .LVU105
 229:/opt/XMClib/XMC_Peripheral_Library_v2.1.16/ThirdPartyLibraries/USBlib/USB/Core/XMC4000/USBController_XMC4000.c **** 			if (Value == FEATURE_SEL_EndpointHalt &&
 354              		.loc 1 229 23 is_stmt 0 view .LVU106
 355 011c 1B78     		ldrb	r3, [r3]	@ zero_extendqisi2
 229:/opt/XMClib/XMC_Peripheral_Library_v2.1.16/ThirdPartyLibraries/USBlib/USB/Core/XMC4000/USBController_XMC4000.c **** 			if (Value == FEATURE_SEL_EndpointHalt &&
 356              		.loc 1 229 6 view .LVU107
 357 011e 032B     		cmp	r3, #3
 358 0120 93D1     		bne	.L9
 230:/opt/XMClib/XMC_Peripheral_Library_v2.1.16/ThirdPartyLibraries/USBlib/USB/Core/XMC4000/USBController_XMC4000.c **** 					(USB_ControlRequest.bmRequestType & 0x3) == REQREC_ENDPOINT &&
 359              		.loc 1 230 4 is_stmt 1 view .LVU108
 230:/opt/XMClib/XMC_Peripheral_Library_v2.1.16/ThirdPartyLibraries/USBlib/USB/Core/XMC4000/USBController_XMC4000.c **** 					(USB_ControlRequest.bmRequestType & 0x3) == REQREC_ENDPOINT &&
 360              		.loc 1 230 7 is_stmt 0 view .LVU109
 361 0122 002E     		cmp	r6, #0
 362 0124 91D1     		bne	.L9
 230:/opt/XMClib/XMC_Peripheral_Library_v2.1.16/ThirdPartyLibraries/USBlib/USB/Core/XMC4000/USBController_XMC4000.c **** 					(USB_ControlRequest.bmRequestType & 0x3) == REQREC_ENDPOINT &&
 363              		.loc 1 230 42 discriminator 1 view .LVU110
 364 0126 2B78     		ldrb	r3, [r5]	@ zero_extendqisi2
 365 0128 03F00303 		and	r3, r3, #3
 366 012c 022B     		cmp	r3, #2
 367 012e 8CD1     		bne	.L9
 232:/opt/XMClib/XMC_Peripheral_Library_v2.1.16/ThirdPartyLibraries/USBlib/USB/Core/XMC4000/USBController_XMC4000.c **** 				device.Endpoints[0].IsHalted = 1;
 368              		.loc 1 232 25 view .LVU111
 369 0130 AB88     		ldrh	r3, [r5, #4]	@ unaligned
 231:/opt/XMClib/XMC_Peripheral_Library_v2.1.16/ThirdPartyLibraries/USBlib/USB/Core/XMC4000/USBController_XMC4000.c **** 					(USB_ControlRequest.wIndex & 0x00FF) == 0x0) {
 370              		.loc 1 231 66 view .LVU112
 371 0132 DBB2     		uxtb	r3, r3
 372 0134 002B     		cmp	r3, #0
 373 0136 88D1     		bne	.L9
 233:/opt/XMClib/XMC_Peripheral_Library_v2.1.16/ThirdPartyLibraries/USBlib/USB/Core/XMC4000/USBController_XMC4000.c **** 				USBD_HandleEP0_Stall();
 374              		.loc 1 233 5 is_stmt 1 view .LVU113
 233:/opt/XMClib/XMC_Peripheral_Library_v2.1.16/ThirdPartyLibraries/USBlib/USB/Core/XMC4000/USBController_XMC4000.c **** 				USBD_HandleEP0_Stall();
 375              		.loc 1 233 34 is_stmt 0 view .LVU114
 376 0138 237A     		ldrb	r3, [r4, #8]	@ zero_extendqisi2
 377 013a 43F00403 		orr	r3, r3, #4
 378 013e 2372     		strb	r3, [r4, #8]
 234:/opt/XMClib/XMC_Peripheral_Library_v2.1.16/ThirdPartyLibraries/USBlib/USB/Core/XMC4000/USBController_XMC4000.c **** 				break;
 379              		.loc 1 234 5 is_stmt 1 view .LVU115
 380 0140 FFF7FEFF 		bl	USBD_HandleEP0_Stall
 381              	.LVL16:
 235:/opt/XMClib/XMC_Peripheral_Library_v2.1.16/ThirdPartyLibraries/USBlib/USB/Core/XMC4000/USBController_XMC4000.c **** 			}
 382              		.loc 1 235 5 view .LVU116
 383 0144 8EE7     		b	.L25
 384              	.L18:
 164:/opt/XMClib/XMC_Peripheral_Library_v2.1.16/ThirdPartyLibraries/USBlib/USB/Core/XMC4000/USBController_XMC4000.c **** 			USB_DeviceState = DEVICE_STATE_Default;
 385              		.loc 1 164 3 view .LVU117
 165:/opt/XMClib/XMC_Peripheral_Library_v2.1.16/ThirdPartyLibraries/USBlib/USB/Core/XMC4000/USBController_XMC4000.c **** 		else
 386              		.loc 1 165 20 is_stmt 0 view .LVU118
 387 0146 4B4B     		ldr	r3, .L58+8
 164:/opt/XMClib/XMC_Peripheral_Library_v2.1.16/ThirdPartyLibraries/USBlib/USB/Core/XMC4000/USBController_XMC4000.c **** 			USB_DeviceState = DEVICE_STATE_Default;
 388              		.loc 1 164 6 view .LVU119
 389 0148 56B3     		cbz	r6, .L56
 167:/opt/XMClib/XMC_Peripheral_Library_v2.1.16/ThirdPartyLibraries/USBlib/USB/Core/XMC4000/USBController_XMC4000.c **** 		device.Driver->DeviceSetAddress(Value,XMC_USBD_SET_ADDRESS_STAGE_SETUP);
 390              		.loc 1 167 4 is_stmt 1 view .LVU120
 167:/opt/XMClib/XMC_Peripheral_Library_v2.1.16/ThirdPartyLibraries/USBlib/USB/Core/XMC4000/USBController_XMC4000.c **** 		device.Driver->DeviceSetAddress(Value,XMC_USBD_SET_ADDRESS_STAGE_SETUP);
 391              		.loc 1 167 20 is_stmt 0 view .LVU121
 392 014a 0322     		movs	r2, #3
 393 014c 1A70     		strb	r2, [r3]
 394              	.L34:
 168:/opt/XMClib/XMC_Peripheral_Library_v2.1.16/ThirdPartyLibraries/USBlib/USB/Core/XMC4000/USBController_XMC4000.c **** 		break;
 395              		.loc 1 168 3 is_stmt 1 view .LVU122
 168:/opt/XMClib/XMC_Peripheral_Library_v2.1.16/ThirdPartyLibraries/USBlib/USB/Core/XMC4000/USBController_XMC4000.c **** 		break;
 396              		.loc 1 168 16 is_stmt 0 view .LVU123
 397 014e 2368     		ldr	r3, [r4]
 168:/opt/XMClib/XMC_Peripheral_Library_v2.1.16/ThirdPartyLibraries/USBlib/USB/Core/XMC4000/USBController_XMC4000.c **** 		break;
 398              		.loc 1 168 3 view .LVU124
 399 0150 0021     		movs	r1, #0
 400 0152 9B69     		ldr	r3, [r3, #24]
 401 0154 3046     		mov	r0, r6
 402 0156 9847     		blx	r3
 403              	.LVL17:
 169:/opt/XMClib/XMC_Peripheral_Library_v2.1.16/ThirdPartyLibraries/USBlib/USB/Core/XMC4000/USBController_XMC4000.c **** 
 404              		.loc 1 169 3 is_stmt 1 view .LVU125
 405 0158 84E7     		b	.L25
 406              	.L20:
  89:/opt/XMClib/XMC_Peripheral_Library_v2.1.16/ThirdPartyLibraries/USBlib/USB/Core/XMC4000/USBController_XMC4000.c **** 			Index = USB_ControlRequest.wIndex & ENDPOINT_EPNUM_MASK;
 407              		.loc 1 89 3 view .LVU126
 408 015a 2B78     		ldrb	r3, [r5]	@ zero_extendqisi2
 409 015c 03F00303 		and	r3, r3, #3
  89:/opt/XMClib/XMC_Peripheral_Library_v2.1.16/ThirdPartyLibraries/USBlib/USB/Core/XMC4000/USBController_XMC4000.c **** 			Index = USB_ControlRequest.wIndex & ENDPOINT_EPNUM_MASK;
 410              		.loc 1 89 6 is_stmt 0 view .LVU127
 411 0160 022B     		cmp	r3, #2
 412 0162 3BD0     		beq	.L57
 100:/opt/XMClib/XMC_Peripheral_Library_v2.1.16/ThirdPartyLibraries/USBlib/USB/Core/XMC4000/USBController_XMC4000.c **** 			 device.RemoteWakeUp = 0;
 413              		.loc 1 100 3 is_stmt 1 view .LVU128
 100:/opt/XMClib/XMC_Peripheral_Library_v2.1.16/ThirdPartyLibraries/USBlib/USB/Core/XMC4000/USBController_XMC4000.c **** 			 device.RemoteWakeUp = 0;
 414              		.loc 1 100 6 is_stmt 0 view .LVU129
 415 0164 002B     		cmp	r3, #0
 416 0166 7FF470AF 		bne	.L9
 101:/opt/XMClib/XMC_Peripheral_Library_v2.1.16/ThirdPartyLibraries/USBlib/USB/Core/XMC4000/USBController_XMC4000.c **** 			 break;
 417              		.loc 1 101 5 is_stmt 1 view .LVU130
 101:/opt/XMClib/XMC_Peripheral_Library_v2.1.16/ThirdPartyLibraries/USBlib/USB/Core/XMC4000/USBController_XMC4000.c **** 			 break;
 418              		.loc 1 101 25 is_stmt 0 view .LVU131
 419 016a 94F83E21 		ldrb	r2, [r4, #318]	@ zero_extendqisi2
 420 016e 63F38202 		bfi	r2, r3, #2, #1
 421 0172 84F83E21 		strb	r2, [r4, #318]
 102:/opt/XMClib/XMC_Peripheral_Library_v2.1.16/ThirdPartyLibraries/USBlib/USB/Core/XMC4000/USBController_XMC4000.c **** 		}
 422              		.loc 1 102 5 is_stmt 1 view .LVU132
 423 0176 75E7     		b	.L25
 424              	.LVL18:
 425              	.L27:
 116:/opt/XMClib/XMC_Peripheral_Library_v2.1.16/ThirdPartyLibraries/USBlib/USB/Core/XMC4000/USBController_XMC4000.c **** 					length : USB_ControlRequest.wLength;
 426              		.loc 1 116 4 view .LVU133
 116:/opt/XMClib/XMC_Peripheral_Library_v2.1.16/ThirdPartyLibraries/USBlib/USB/Core/XMC4000/USBController_XMC4000.c **** 					length : USB_ControlRequest.wLength;
 427              		.loc 1 116 40 is_stmt 0 view .LVU134
 428 0178 EA88     		ldrh	r2, [r5, #6]	@ unaligned
 118:/opt/XMClib/XMC_Peripheral_Library_v2.1.16/ThirdPartyLibraries/USBlib/USB/Core/XMC4000/USBController_XMC4000.c **** 			device.Endpoints[0].InDataLeft = length - ret;
 429              		.loc 1 118 23 view .LVU135
 430 017a 2368     		ldr	r3, [r4]
 118:/opt/XMClib/XMC_Peripheral_Library_v2.1.16/ThirdPartyLibraries/USBlib/USB/Core/XMC4000/USBController_XMC4000.c **** 			device.Endpoints[0].InDataLeft = length - ret;
 431              		.loc 1 118 10 view .LVU136
 432 017c 0199     		ldr	r1, [sp, #4]
 433 017e 1B6B     		ldr	r3, [r3, #48]
 116:/opt/XMClib/XMC_Peripheral_Library_v2.1.16/ThirdPartyLibraries/USBlib/USB/Core/XMC4000/USBController_XMC4000.c **** 					length : USB_ControlRequest.wLength;
 434              		.loc 1 116 11 view .LVU137
 435 0180 9042     		cmp	r0, r2
 436 0182 28BF     		it	cs
 437 0184 1646     		movcs	r6, r2
 438              	.LVL19:
 118:/opt/XMClib/XMC_Peripheral_Library_v2.1.16/ThirdPartyLibraries/USBlib/USB/Core/XMC4000/USBController_XMC4000.c **** 			device.Endpoints[0].InDataLeft = length - ret;
 439              		.loc 1 118 4 is_stmt 1 view .LVU138
 118:/opt/XMClib/XMC_Peripheral_Library_v2.1.16/ThirdPartyLibraries/USBlib/USB/Core/XMC4000/USBController_XMC4000.c **** 			device.Endpoints[0].InDataLeft = length - ret;
 440              		.loc 1 118 10 is_stmt 0 view .LVU139
 441 0186 3246     		mov	r2, r6
 442 0188 0020     		movs	r0, #0
 443 018a 9847     		blx	r3
 444              	.LVL20:
 120:/opt/XMClib/XMC_Peripheral_Library_v2.1.16/ThirdPartyLibraries/USBlib/USB/Core/XMC4000/USBController_XMC4000.c **** 		}
 445              		.loc 1 120 68 view .LVU140
 446 018c 019B     		ldr	r3, [sp, #4]
 447              	.LVL21:
 119:/opt/XMClib/XMC_Peripheral_Library_v2.1.16/ThirdPartyLibraries/USBlib/USB/Core/XMC4000/USBController_XMC4000.c **** 			device.Endpoints[0].InDataBuffer = (uint8_t *)((uint32_t)buffer + ret);
 448              		.loc 1 119 4 is_stmt 1 view .LVU141
 119:/opt/XMClib/XMC_Peripheral_Library_v2.1.16/ThirdPartyLibraries/USBlib/USB/Core/XMC4000/USBController_XMC4000.c **** 			device.Endpoints[0].InDataBuffer = (uint8_t *)((uint32_t)buffer + ret);
 449              		.loc 1 119 44 is_stmt 0 view .LVU142
 450 018e 361A     		subs	r6, r6, r0
 451              	.LVL22:
 120:/opt/XMClib/XMC_Peripheral_Library_v2.1.16/ThirdPartyLibraries/USBlib/USB/Core/XMC4000/USBController_XMC4000.c **** 		}
 452              		.loc 1 120 68 view .LVU143
 453 0190 1844     		add	r0, r0, r3
 454              	.LVL23:
 120:/opt/XMClib/XMC_Peripheral_Library_v2.1.16/ThirdPartyLibraries/USBlib/USB/Core/XMC4000/USBController_XMC4000.c **** 		}
 455              		.loc 1 120 37 view .LVU144
 456 0192 C4E90A60 		strd	r6, r0, [r4, #40]
 457 0196 65E7     		b	.L25
 458              	.LVL24:
 459              	.L54:
 177:/opt/XMClib/XMC_Peripheral_Library_v2.1.16/ThirdPartyLibraries/USBlib/USB/Core/XMC4000/USBController_XMC4000.c **** 			break;
 460              		.loc 1 177 4 is_stmt 1 view .LVU145
 177:/opt/XMClib/XMC_Peripheral_Library_v2.1.16/ThirdPartyLibraries/USBlib/USB/Core/XMC4000/USBController_XMC4000.c **** 			break;
 461              		.loc 1 177 20 is_stmt 0 view .LVU146
 462 0198 364B     		ldr	r3, .L58+8
 463 019a 0322     		movs	r2, #3
 464 019c 1A70     		strb	r2, [r3]
 178:/opt/XMClib/XMC_Peripheral_Library_v2.1.16/ThirdPartyLibraries/USBlib/USB/Core/XMC4000/USBController_XMC4000.c **** 		}
 465              		.loc 1 178 4 is_stmt 1 view .LVU147
 466 019e 61E7     		b	.L25
 467              	.L56:
 165:/opt/XMClib/XMC_Peripheral_Library_v2.1.16/ThirdPartyLibraries/USBlib/USB/Core/XMC4000/USBController_XMC4000.c **** 		else
 468              		.loc 1 165 4 view .LVU148
 165:/opt/XMClib/XMC_Peripheral_Library_v2.1.16/ThirdPartyLibraries/USBlib/USB/Core/XMC4000/USBController_XMC4000.c **** 		else
 469              		.loc 1 165 20 is_stmt 0 view .LVU149
 470 01a0 0222     		movs	r2, #2
 471 01a2 1A70     		strb	r2, [r3]
 472 01a4 D3E7     		b	.L34
 473              	.L52:
 137:/opt/XMClib/XMC_Peripheral_Library_v2.1.16/ThirdPartyLibraries/USBlib/USB/Core/XMC4000/USBController_XMC4000.c **** 			device.Driver->EndpointWrite(0,(uint8_t*)&status,2);
 474              		.loc 1 137 4 is_stmt 1 view .LVU150
 137:/opt/XMClib/XMC_Peripheral_Library_v2.1.16/ThirdPartyLibraries/USBlib/USB/Core/XMC4000/USBController_XMC4000.c **** 			device.Driver->EndpointWrite(0,(uint8_t*)&status,2);
 475              		.loc 1 137 19 is_stmt 0 view .LVU151
 476 01a6 94F83E31 		ldrb	r3, [r4, #318]	@ zero_extendqisi2
 477 01aa C3F38002 		ubfx	r2, r3, #2, #1
 137:/opt/XMClib/XMC_Peripheral_Library_v2.1.16/ThirdPartyLibraries/USBlib/USB/Core/XMC4000/USBController_XMC4000.c **** 			device.Driver->EndpointWrite(0,(uint8_t*)&status,2);
 478              		.loc 1 137 46 view .LVU152
 479 01ae C3F3C003 		ubfx	r3, r3, #3, #1
 137:/opt/XMClib/XMC_Peripheral_Library_v2.1.16/ThirdPartyLibraries/USBlib/USB/Core/XMC4000/USBController_XMC4000.c **** 			device.Driver->EndpointWrite(0,(uint8_t*)&status,2);
 480              		.loc 1 137 38 view .LVU153
 481 01b2 43EA4203 		orr	r3, r3, r2, lsl #1
 138:/opt/XMClib/XMC_Peripheral_Library_v2.1.16/ThirdPartyLibraries/USBlib/USB/Core/XMC4000/USBController_XMC4000.c **** 			break;
 482              		.loc 1 138 17 view .LVU154
 483 01b6 2268     		ldr	r2, [r4]
 137:/opt/XMClib/XMC_Peripheral_Library_v2.1.16/ThirdPartyLibraries/USBlib/USB/Core/XMC4000/USBController_XMC4000.c **** 			device.Driver->EndpointWrite(0,(uint8_t*)&status,2);
 484              		.loc 1 137 11 view .LVU155
 485 01b8 ADF80230 		strh	r3, [sp, #2]	@ movhi
 138:/opt/XMClib/XMC_Peripheral_Library_v2.1.16/ThirdPartyLibraries/USBlib/USB/Core/XMC4000/USBController_XMC4000.c **** 			break;
 486              		.loc 1 138 4 is_stmt 1 view .LVU156
 487 01bc 136B     		ldr	r3, [r2, #48]
 488 01be 0222     		movs	r2, #2
 489 01c0 0DEB0201 		add	r1, sp, r2
 490 01c4 9847     		blx	r3
 491              	.LVL25:
 139:/opt/XMClib/XMC_Peripheral_Library_v2.1.16/ThirdPartyLibraries/USBlib/USB/Core/XMC4000/USBController_XMC4000.c **** 		}
 492              		.loc 1 139 4 view .LVU157
 493 01c6 4DE7     		b	.L25
 494              	.L51:
 126:/opt/XMClib/XMC_Peripheral_Library_v2.1.16/ThirdPartyLibraries/USBlib/USB/Core/XMC4000/USBController_XMC4000.c **** 			break;
 495              		.loc 1 126 4 view .LVU158
 126:/opt/XMClib/XMC_Peripheral_Library_v2.1.16/ThirdPartyLibraries/USBlib/USB/Core/XMC4000/USBController_XMC4000.c **** 			break;
 496              		.loc 1 126 35 is_stmt 0 view .LVU159
 497 01c8 A988     		ldrh	r1, [r5, #4]	@ unaligned
 126:/opt/XMClib/XMC_Peripheral_Library_v2.1.16/ThirdPartyLibraries/USBlib/USB/Core/XMC4000/USBController_XMC4000.c **** 			break;
 498              		.loc 1 126 17 view .LVU160
 499 01ca 2368     		ldr	r3, [r4]
 126:/opt/XMClib/XMC_Peripheral_Library_v2.1.16/ThirdPartyLibraries/USBlib/USB/Core/XMC4000/USBController_XMC4000.c **** 			break;
 500              		.loc 1 126 35 view .LVU161
 501 01cc 01F59C71 		add	r1, r1, #312
 126:/opt/XMClib/XMC_Peripheral_Library_v2.1.16/ThirdPartyLibraries/USBlib/USB/Core/XMC4000/USBController_XMC4000.c **** 			break;
 502              		.loc 1 126 4 view .LVU162
 503 01d0 1B6B     		ldr	r3, [r3, #48]
 504 01d2 0122     		movs	r2, #1
 505 01d4 2144     		add	r1, r1, r4
 506 01d6 0020     		movs	r0, #0
 507 01d8 9847     		blx	r3
 508              	.LVL26:
 127:/opt/XMClib/XMC_Peripheral_Library_v2.1.16/ThirdPartyLibraries/USBlib/USB/Core/XMC4000/USBController_XMC4000.c **** 		}
 509              		.loc 1 127 4 is_stmt 1 view .LVU163
 510 01da 43E7     		b	.L25
 511              	.L57:
  90:/opt/XMClib/XMC_Peripheral_Library_v2.1.16/ThirdPartyLibraries/USBlib/USB/Core/XMC4000/USBController_XMC4000.c **** 			if ((USB_DeviceState == DEVICE_STATE_Configured || USB_ControlRequest.wIndex==0)  &&
 512              		.loc 1 90 4 view .LVU164
  91:/opt/XMClib/XMC_Peripheral_Library_v2.1.16/ThirdPartyLibraries/USBlib/USB/Core/XMC4000/USBController_XMC4000.c **** 					device.Endpoints[Index].IsConfigured==1) {
 513              		.loc 1 91 25 is_stmt 0 view .LVU165
 514 01dc 254B     		ldr	r3, .L58+8
  90:/opt/XMClib/XMC_Peripheral_Library_v2.1.16/ThirdPartyLibraries/USBlib/USB/Core/XMC4000/USBController_XMC4000.c **** 			if ((USB_DeviceState == DEVICE_STATE_Configured || USB_ControlRequest.wIndex==0)  &&
 515              		.loc 1 90 30 view .LVU166
 516 01de A888     		ldrh	r0, [r5, #4]	@ unaligned
 517              	.LVL27:
  91:/opt/XMClib/XMC_Peripheral_Library_v2.1.16/ThirdPartyLibraries/USBlib/USB/Core/XMC4000/USBController_XMC4000.c **** 					device.Endpoints[Index].IsConfigured==1) {
 518              		.loc 1 91 4 is_stmt 1 view .LVU167
  91:/opt/XMClib/XMC_Peripheral_Library_v2.1.16/ThirdPartyLibraries/USBlib/USB/Core/XMC4000/USBController_XMC4000.c **** 					device.Endpoints[Index].IsConfigured==1) {
 519              		.loc 1 91 25 is_stmt 0 view .LVU168
 520 01e0 1B78     		ldrb	r3, [r3]	@ zero_extendqisi2
  91:/opt/XMClib/XMC_Peripheral_Library_v2.1.16/ThirdPartyLibraries/USBlib/USB/Core/XMC4000/USBController_XMC4000.c **** 					device.Endpoints[Index].IsConfigured==1) {
 521              		.loc 1 91 7 view .LVU169
 522 01e2 042B     		cmp	r3, #4
 523 01e4 02D0     		beq	.L23
  91:/opt/XMClib/XMC_Peripheral_Library_v2.1.16/ThirdPartyLibraries/USBlib/USB/Core/XMC4000/USBController_XMC4000.c **** 					device.Endpoints[Index].IsConfigured==1) {
 524              		.loc 1 91 52 discriminator 2 view .LVU170
 525 01e6 0028     		cmp	r0, #0
 526 01e8 7FF42FAF 		bne	.L9
 527              	.L23:
  92:/opt/XMClib/XMC_Peripheral_Library_v2.1.16/ThirdPartyLibraries/USBlib/USB/Core/XMC4000/USBController_XMC4000.c **** 				device.Endpoints[Index].IsHalted = 0;
 528              		.loc 1 92 29 discriminator 3 view .LVU171
 529 01ec 2C22     		movs	r2, #44
 530 01ee 00F00F03 		and	r3, r0, #15
 531 01f2 02FB0343 		mla	r3, r2, r3, r4
 532 01f6 1A7A     		ldrb	r2, [r3, #8]	@ zero_extendqisi2
  91:/opt/XMClib/XMC_Peripheral_Library_v2.1.16/ThirdPartyLibraries/USBlib/USB/Core/XMC4000/USBController_XMC4000.c **** 					device.Endpoints[Index].IsConfigured==1) {
 533              		.loc 1 91 86 discriminator 3 view .LVU172
 534 01f8 D507     		lsls	r5, r2, #31
 535              	.LVL28:
  91:/opt/XMClib/XMC_Peripheral_Library_v2.1.16/ThirdPartyLibraries/USBlib/USB/Core/XMC4000/USBController_XMC4000.c **** 					device.Endpoints[Index].IsConfigured==1) {
 536              		.loc 1 91 86 discriminator 3 view .LVU173
 537 01fa 7FF526AF 		bpl	.L9
  93:/opt/XMClib/XMC_Peripheral_Library_v2.1.16/ThirdPartyLibraries/USBlib/USB/Core/XMC4000/USBController_XMC4000.c **** 				device.Driver->EndpointStall(USB_ControlRequest.wIndex,0);
 538              		.loc 1 93 5 is_stmt 1 view .LVU174
  94:/opt/XMClib/XMC_Peripheral_Library_v2.1.16/ThirdPartyLibraries/USBlib/USB/Core/XMC4000/USBController_XMC4000.c **** 			} else {
 539              		.loc 1 94 18 is_stmt 0 view .LVU175
 540 01fe 2168     		ldr	r1, [r4]
  93:/opt/XMClib/XMC_Peripheral_Library_v2.1.16/ThirdPartyLibraries/USBlib/USB/Core/XMC4000/USBController_XMC4000.c **** 				device.Driver->EndpointStall(USB_ControlRequest.wIndex,0);
 541              		.loc 1 93 38 view .LVU176
 542 0200 6FF38202 		bfc	r2, #2, #1
  94:/opt/XMClib/XMC_Peripheral_Library_v2.1.16/ThirdPartyLibraries/USBlib/USB/Core/XMC4000/USBController_XMC4000.c **** 			} else {
 543              		.loc 1 94 5 view .LVU177
 544 0204 4D6A     		ldr	r5, [r1, #36]
  93:/opt/XMClib/XMC_Peripheral_Library_v2.1.16/ThirdPartyLibraries/USBlib/USB/Core/XMC4000/USBController_XMC4000.c **** 				device.Driver->EndpointStall(USB_ControlRequest.wIndex,0);
 545              		.loc 1 93 38 view .LVU178
 546 0206 1A72     		strb	r2, [r3, #8]
 547              	.LVL29:
  94:/opt/XMClib/XMC_Peripheral_Library_v2.1.16/ThirdPartyLibraries/USBlib/USB/Core/XMC4000/USBController_XMC4000.c **** 			} else {
 548              		.loc 1 94 5 is_stmt 1 view .LVU179
 549 0208 0021     		movs	r1, #0
 550 020a C0B2     		uxtb	r0, r0
 551 020c A847     		blx	r5
 552              	.LVL30:
 553 020e 29E7     		b	.L25
 554              	.L55:
 212:/opt/XMClib/XMC_Peripheral_Library_v2.1.16/ThirdPartyLibraries/USBlib/USB/Core/XMC4000/USBController_XMC4000.c **** 			case FEATURE_SEL_DeviceRemoteWakeup:
 555              		.loc 1 212 4 view .LVU180
 556 0210 C6B1     		cbz	r6, .L40
 557 0212 012E     		cmp	r6, #1
 558 0214 7FF426AF 		bne	.L25
 214:/opt/XMClib/XMC_Peripheral_Library_v2.1.16/ThirdPartyLibraries/USBlib/USB/Core/XMC4000/USBController_XMC4000.c **** 				break;
 559              		.loc 1 214 5 view .LVU181
 214:/opt/XMClib/XMC_Peripheral_Library_v2.1.16/ThirdPartyLibraries/USBlib/USB/Core/XMC4000/USBController_XMC4000.c **** 				break;
 560              		.loc 1 214 25 is_stmt 0 view .LVU182
 561 0218 94F83E31 		ldrb	r3, [r4, #318]	@ zero_extendqisi2
 562 021c 43F00403 		orr	r3, r3, #4
 563 0220 84F83E31 		strb	r3, [r4, #318]
 215:/opt/XMClib/XMC_Peripheral_Library_v2.1.16/ThirdPartyLibraries/USBlib/USB/Core/XMC4000/USBController_XMC4000.c **** 			case FEATURE_SEL_EndpointHalt:
 564              		.loc 1 215 5 is_stmt 1 view .LVU183
 565 0224 1EE7     		b	.L25
 566              	.L53:
 141:/opt/XMClib/XMC_Peripheral_Library_v2.1.16/ThirdPartyLibraries/USBlib/USB/Core/XMC4000/USBController_XMC4000.c **** 			status = 0;
 567              		.loc 1 141 87 is_stmt 0 discriminator 1 view .LVU184
 568 0226 134B     		ldr	r3, .L58+8
 569 0228 1B78     		ldrb	r3, [r3]	@ zero_extendqisi2
 141:/opt/XMClib/XMC_Peripheral_Library_v2.1.16/ThirdPartyLibraries/USBlib/USB/Core/XMC4000/USBController_XMC4000.c **** 			status = 0;
 570              		.loc 1 141 68 discriminator 1 view .LVU185
 571 022a 042B     		cmp	r3, #4
 572 022c 7FF40DAF 		bne	.L9
 142:/opt/XMClib/XMC_Peripheral_Library_v2.1.16/ThirdPartyLibraries/USBlib/USB/Core/XMC4000/USBController_XMC4000.c **** 			device.Driver->EndpointWrite(0,(uint8_t*)&status,2);
 573              		.loc 1 142 4 is_stmt 1 view .LVU186
 143:/opt/XMClib/XMC_Peripheral_Library_v2.1.16/ThirdPartyLibraries/USBlib/USB/Core/XMC4000/USBController_XMC4000.c **** 			break;
 574              		.loc 1 143 17 is_stmt 0 view .LVU187
 575 0230 2368     		ldr	r3, [r4]
 143:/opt/XMClib/XMC_Peripheral_Library_v2.1.16/ThirdPartyLibraries/USBlib/USB/Core/XMC4000/USBController_XMC4000.c **** 			break;
 576              		.loc 1 143 4 view .LVU188
 577 0232 0222     		movs	r2, #2
 142:/opt/XMClib/XMC_Peripheral_Library_v2.1.16/ThirdPartyLibraries/USBlib/USB/Core/XMC4000/USBController_XMC4000.c **** 			device.Driver->EndpointWrite(0,(uint8_t*)&status,2);
 578              		.loc 1 142 11 view .LVU189
 579 0234 0020     		movs	r0, #0
 143:/opt/XMClib/XMC_Peripheral_Library_v2.1.16/ThirdPartyLibraries/USBlib/USB/Core/XMC4000/USBController_XMC4000.c **** 			break;
 580              		.loc 1 143 4 view .LVU190
 581 0236 1B6B     		ldr	r3, [r3, #48]
 142:/opt/XMClib/XMC_Peripheral_Library_v2.1.16/ThirdPartyLibraries/USBlib/USB/Core/XMC4000/USBController_XMC4000.c **** 			device.Driver->EndpointWrite(0,(uint8_t*)&status,2);
 582              		.loc 1 142 11 view .LVU191
 583 0238 ADF80200 		strh	r0, [sp, #2]	@ movhi
 143:/opt/XMClib/XMC_Peripheral_Library_v2.1.16/ThirdPartyLibraries/USBlib/USB/Core/XMC4000/USBController_XMC4000.c **** 			break;
 584              		.loc 1 143 4 is_stmt 1 view .LVU192
 585 023c 0DEB0201 		add	r1, sp, r2
 586 0240 9847     		blx	r3
 587              	.LVL31:
 144:/opt/XMClib/XMC_Peripheral_Library_v2.1.16/ThirdPartyLibraries/USBlib/USB/Core/XMC4000/USBController_XMC4000.c **** 		}
 588              		.loc 1 144 4 view .LVU193
 589 0242 0FE7     		b	.L25
 590              	.L40:
 217:/opt/XMClib/XMC_Peripheral_Library_v2.1.16/ThirdPartyLibraries/USBlib/USB/Core/XMC4000/USBController_XMC4000.c **** 				if (device.Endpoints[Index].IsConfigured == 0)
 591              		.loc 1 217 5 view .LVU194
 217:/opt/XMClib/XMC_Peripheral_Library_v2.1.16/ThirdPartyLibraries/USBlib/USB/Core/XMC4000/USBController_XMC4000.c **** 				if (device.Endpoints[Index].IsConfigured == 0)
 592              		.loc 1 217 31 is_stmt 0 view .LVU195
 593 0244 A888     		ldrh	r0, [r5, #4]	@ unaligned
 594              	.LVL32:
 218:/opt/XMClib/XMC_Peripheral_Library_v2.1.16/ThirdPartyLibraries/USBlib/USB/Core/XMC4000/USBController_XMC4000.c **** 					USBD_HandleEP0_Stall();
 595              		.loc 1 218 5 is_stmt 1 view .LVU196
 218:/opt/XMClib/XMC_Peripheral_Library_v2.1.16/ThirdPartyLibraries/USBlib/USB/Core/XMC4000/USBController_XMC4000.c **** 					USBD_HandleEP0_Stall();
 596              		.loc 1 218 32 is_stmt 0 view .LVU197
 597 0246 2C22     		movs	r2, #44
 598 0248 00F00F03 		and	r3, r0, #15
 599 024c 02FB0343 		mla	r3, r2, r3, r4
 600 0250 1A7A     		ldrb	r2, [r3, #8]	@ zero_extendqisi2
 218:/opt/XMClib/XMC_Peripheral_Library_v2.1.16/ThirdPartyLibraries/USBlib/USB/Core/XMC4000/USBController_XMC4000.c **** 					USBD_HandleEP0_Stall();
 601              		.loc 1 218 8 view .LVU198
 602 0252 D107     		lsls	r1, r2, #31
 603 0254 7FF5F9AE 		bpl	.L9
 221:/opt/XMClib/XMC_Peripheral_Library_v2.1.16/ThirdPartyLibraries/USBlib/USB/Core/XMC4000/USBController_XMC4000.c **** 					device.Driver->EndpointStall(USB_ControlRequest.wIndex,1);
 604              		.loc 1 221 6 is_stmt 1 view .LVU199
 222:/opt/XMClib/XMC_Peripheral_Library_v2.1.16/ThirdPartyLibraries/USBlib/USB/Core/XMC4000/USBController_XMC4000.c **** 				}
 605              		.loc 1 222 19 is_stmt 0 view .LVU200
 606 0258 2168     		ldr	r1, [r4]
 221:/opt/XMClib/XMC_Peripheral_Library_v2.1.16/ThirdPartyLibraries/USBlib/USB/Core/XMC4000/USBController_XMC4000.c **** 					device.Driver->EndpointStall(USB_ControlRequest.wIndex,1);
 607              		.loc 1 221 39 view .LVU201
 608 025a 42F00402 		orr	r2, r2, #4
 222:/opt/XMClib/XMC_Peripheral_Library_v2.1.16/ThirdPartyLibraries/USBlib/USB/Core/XMC4000/USBController_XMC4000.c **** 				}
 609              		.loc 1 222 6 view .LVU202
 610 025e 4D6A     		ldr	r5, [r1, #36]
 611              	.LVL33:
 221:/opt/XMClib/XMC_Peripheral_Library_v2.1.16/ThirdPartyLibraries/USBlib/USB/Core/XMC4000/USBController_XMC4000.c **** 					device.Driver->EndpointStall(USB_ControlRequest.wIndex,1);
 612              		.loc 1 221 39 view .LVU203
 613 0260 1A72     		strb	r2, [r3, #8]
 614              	.LVL34:
 222:/opt/XMClib/XMC_Peripheral_Library_v2.1.16/ThirdPartyLibraries/USBlib/USB/Core/XMC4000/USBController_XMC4000.c **** 				}
 615              		.loc 1 222 6 is_stmt 1 view .LVU204
 616 0262 0121     		movs	r1, #1
 617 0264 C0B2     		uxtb	r0, r0
 618 0266 A847     		blx	r5
 619              	.LVL35:
 620 0268 FCE6     		b	.L25
 621              	.L59:
 622 026a 00BF     		.align	2
 623              	.L58:
 624 026c 00000000 		.word	USB_ControlRequest
 625 0270 00000000 		.word	.LANCHOR0
 626 0274 00000000 		.word	USB_DeviceState
 627 0278 39010000 		.word	.LANCHOR0+313
 628              		.cfi_endproc
 629              	.LFE189:
 631              		.section	.text.USBD_HandleEP0_IN,"ax",%progbits
 632              		.align	1
 633              		.p2align 2,,3
 634              		.global	USBD_HandleEP0_IN
 635              		.syntax unified
 636              		.thumb
 637              		.thumb_func
 639              	USBD_HandleEP0_IN:
 640              	.LFB190:
 252:/opt/XMClib/XMC_Peripheral_Library_v2.1.16/ThirdPartyLibraries/USBlib/USB/Core/XMC4000/USBController_XMC4000.c **** 
 253:/opt/XMClib/XMC_Peripheral_Library_v2.1.16/ThirdPartyLibraries/USBlib/USB/Core/XMC4000/USBController_XMC4000.c **** /**
 254:/opt/XMClib/XMC_Peripheral_Library_v2.1.16/ThirdPartyLibraries/USBlib/USB/Core/XMC4000/USBController_XMC4000.c ****  * \brief Handle complete IN transfer on EP0
 255:/opt/XMClib/XMC_Peripheral_Library_v2.1.16/ThirdPartyLibraries/USBlib/USB/Core/XMC4000/USBController_XMC4000.c ****  *
 256:/opt/XMClib/XMC_Peripheral_Library_v2.1.16/ThirdPartyLibraries/USBlib/USB/Core/XMC4000/USBController_XMC4000.c ****  * In \ref IN_DATA state it starts a receive and switches to \ref OUT_STATUS state.
 257:/opt/XMClib/XMC_Peripheral_Library_v2.1.16/ThirdPartyLibraries/USBlib/USB/Core/XMC4000/USBController_XMC4000.c ****  * In \ref IN_STATUS state its starts a new read of setup packets and switches to \ref IDLE.
 258:/opt/XMClib/XMC_Peripheral_Library_v2.1.16/ThirdPartyLibraries/USBlib/USB/Core/XMC4000/USBController_XMC4000.c ****  */
 259:/opt/XMClib/XMC_Peripheral_Library_v2.1.16/ThirdPartyLibraries/USBlib/USB/Core/XMC4000/USBController_XMC4000.c **** void USBD_HandleEP0_IN() {
 641              		.loc 1 259 26 view -0
 642              		.cfi_startproc
 643              		@ args = 0, pretend = 0, frame = 0
 644              		@ frame_needed = 0, uses_anonymous_args = 0
 260:/opt/XMClib/XMC_Peripheral_Library_v2.1.16/ThirdPartyLibraries/USBlib/USB/Core/XMC4000/USBController_XMC4000.c **** 	if (device.EP0_State == IN_DATA) {
 645              		.loc 1 260 2 view .LVU206
 259:/opt/XMClib/XMC_Peripheral_Library_v2.1.16/ThirdPartyLibraries/USBlib/USB/Core/XMC4000/USBController_XMC4000.c **** 	if (device.EP0_State == IN_DATA) {
 646              		.loc 1 259 26 is_stmt 0 view .LVU207
 647 0000 10B5     		push	{r4, lr}
 648              	.LCFI6:
 649              		.cfi_def_cfa_offset 8
 650              		.cfi_offset 4, -8
 651              		.cfi_offset 14, -4
 652              		.loc 1 260 12 view .LVU208
 653 0002 0C4C     		ldr	r4, .L65
 654 0004 94F83B31 		ldrb	r3, [r4, #315]	@ zero_extendqisi2
 655              		.loc 1 260 5 view .LVU209
 656 0008 022B     		cmp	r3, #2
 657 000a 0AD0     		beq	.L64
 261:/opt/XMClib/XMC_Peripheral_Library_v2.1.16/ThirdPartyLibraries/USBlib/USB/Core/XMC4000/USBController_XMC4000.c **** 		/* Read zero length out data packet */
 262:/opt/XMClib/XMC_Peripheral_Library_v2.1.16/ThirdPartyLibraries/USBlib/USB/Core/XMC4000/USBController_XMC4000.c **** 		device.Driver->EndpointReadStart(0,0);
 263:/opt/XMClib/XMC_Peripheral_Library_v2.1.16/ThirdPartyLibraries/USBlib/USB/Core/XMC4000/USBController_XMC4000.c **** 		device.EP0_State = OUT_STATUS;
 264:/opt/XMClib/XMC_Peripheral_Library_v2.1.16/ThirdPartyLibraries/USBlib/USB/Core/XMC4000/USBController_XMC4000.c **** 	}
 265:/opt/XMClib/XMC_Peripheral_Library_v2.1.16/ThirdPartyLibraries/USBlib/USB/Core/XMC4000/USBController_XMC4000.c **** 	if (device.EP0_State == IN_STATUS) {
 658              		.loc 1 265 2 is_stmt 1 view .LVU210
 659              		.loc 1 265 5 is_stmt 0 view .LVU211
 660 000c 032B     		cmp	r3, #3
 661 000e 07D1     		bne	.L60
 662              	.LBB32:
 663              	.LBI32:
 259:/opt/XMClib/XMC_Peripheral_Library_v2.1.16/ThirdPartyLibraries/USBlib/USB/Core/XMC4000/USBController_XMC4000.c **** 	if (device.EP0_State == IN_DATA) {
 664              		.loc 1 259 6 is_stmt 1 view .LVU212
 665              	.LBB33:
 266:/opt/XMClib/XMC_Peripheral_Library_v2.1.16/ThirdPartyLibraries/USBlib/USB/Core/XMC4000/USBController_XMC4000.c **** 		/* Request new setup packet */
 267:/opt/XMClib/XMC_Peripheral_Library_v2.1.16/ThirdPartyLibraries/USBlib/USB/Core/XMC4000/USBController_XMC4000.c **** 		device.Driver->EndpointReadStart(device.Endpoints[0].Address,24);
 666              		.loc 1 267 3 view .LVU213
 667              		.loc 1 267 16 is_stmt 0 view .LVU214
 668 0010 2368     		ldr	r3, [r4]
 669              		.loc 1 267 3 view .LVU215
 670 0012 2079     		ldrb	r0, [r4, #4]	@ zero_extendqisi2
 671 0014 9B6A     		ldr	r3, [r3, #40]
 672 0016 1821     		movs	r1, #24
 673 0018 9847     		blx	r3
 674              	.LVL36:
 268:/opt/XMClib/XMC_Peripheral_Library_v2.1.16/ThirdPartyLibraries/USBlib/USB/Core/XMC4000/USBController_XMC4000.c **** 		device.EP0_State = IDLE;
 675              		.loc 1 268 3 is_stmt 1 view .LVU216
 676              		.loc 1 268 20 is_stmt 0 view .LVU217
 677 001a 0123     		movs	r3, #1
 678 001c 84F83B31 		strb	r3, [r4, #315]
 679              	.L60:
 680              	.LBE33:
 681              	.LBE32:
 269:/opt/XMClib/XMC_Peripheral_Library_v2.1.16/ThirdPartyLibraries/USBlib/USB/Core/XMC4000/USBController_XMC4000.c **** 	}
 270:/opt/XMClib/XMC_Peripheral_Library_v2.1.16/ThirdPartyLibraries/USBlib/USB/Core/XMC4000/USBController_XMC4000.c **** }
 682              		.loc 1 270 1 view .LVU218
 683 0020 10BD     		pop	{r4, pc}
 684              	.L64:
 262:/opt/XMClib/XMC_Peripheral_Library_v2.1.16/ThirdPartyLibraries/USBlib/USB/Core/XMC4000/USBController_XMC4000.c **** 		device.EP0_State = OUT_STATUS;
 685              		.loc 1 262 3 is_stmt 1 view .LVU219
 262:/opt/XMClib/XMC_Peripheral_Library_v2.1.16/ThirdPartyLibraries/USBlib/USB/Core/XMC4000/USBController_XMC4000.c **** 		device.EP0_State = OUT_STATUS;
 686              		.loc 1 262 16 is_stmt 0 view .LVU220
 687 0022 2368     		ldr	r3, [r4]
 262:/opt/XMClib/XMC_Peripheral_Library_v2.1.16/ThirdPartyLibraries/USBlib/USB/Core/XMC4000/USBController_XMC4000.c **** 		device.EP0_State = OUT_STATUS;
 688              		.loc 1 262 3 view .LVU221
 689 0024 0021     		movs	r1, #0
 690 0026 9B6A     		ldr	r3, [r3, #40]
 691 0028 0846     		mov	r0, r1
 692 002a 9847     		blx	r3
 693              	.LVL37:
 263:/opt/XMClib/XMC_Peripheral_Library_v2.1.16/ThirdPartyLibraries/USBlib/USB/Core/XMC4000/USBController_XMC4000.c **** 	}
 694              		.loc 1 263 3 is_stmt 1 view .LVU222
 263:/opt/XMClib/XMC_Peripheral_Library_v2.1.16/ThirdPartyLibraries/USBlib/USB/Core/XMC4000/USBController_XMC4000.c **** 	}
 695              		.loc 1 263 20 is_stmt 0 view .LVU223
 696 002c 0523     		movs	r3, #5
 697 002e 84F83B31 		strb	r3, [r4, #315]
 265:/opt/XMClib/XMC_Peripheral_Library_v2.1.16/ThirdPartyLibraries/USBlib/USB/Core/XMC4000/USBController_XMC4000.c **** 		/* Request new setup packet */
 698              		.loc 1 265 2 is_stmt 1 view .LVU224
 699              		.loc 1 270 1 is_stmt 0 view .LVU225
 700 0032 10BD     		pop	{r4, pc}
 701              	.L66:
 702              		.align	2
 703              	.L65:
 704 0034 00000000 		.word	.LANCHOR0
 705              		.cfi_endproc
 706              	.LFE190:
 708              		.section	.text.USBD_HandleEP0_OUT,"ax",%progbits
 709              		.align	1
 710              		.p2align 2,,3
 711              		.global	USBD_HandleEP0_OUT
 712              		.syntax unified
 713              		.thumb
 714              		.thumb_func
 716              	USBD_HandleEP0_OUT:
 717              	.LFB191:
 271:/opt/XMClib/XMC_Peripheral_Library_v2.1.16/ThirdPartyLibraries/USBlib/USB/Core/XMC4000/USBController_XMC4000.c **** 
 272:/opt/XMClib/XMC_Peripheral_Library_v2.1.16/ThirdPartyLibraries/USBlib/USB/Core/XMC4000/USBController_XMC4000.c **** 
 273:/opt/XMClib/XMC_Peripheral_Library_v2.1.16/ThirdPartyLibraries/USBlib/USB/Core/XMC4000/USBController_XMC4000.c **** /**
 274:/opt/XMClib/XMC_Peripheral_Library_v2.1.16/ThirdPartyLibraries/USBlib/USB/Core/XMC4000/USBController_XMC4000.c ****  * \brief Handle complete OUT transfer on EP0
 275:/opt/XMClib/XMC_Peripheral_Library_v2.1.16/ThirdPartyLibraries/USBlib/USB/Core/XMC4000/USBController_XMC4000.c ****  *
 276:/opt/XMClib/XMC_Peripheral_Library_v2.1.16/ThirdPartyLibraries/USBlib/USB/Core/XMC4000/USBController_XMC4000.c ****  * Handles the OUT packet based on the state of endpoint 0. Starts a new read for new SETUP packets
 277:/opt/XMClib/XMC_Peripheral_Library_v2.1.16/ThirdPartyLibraries/USBlib/USB/Core/XMC4000/USBController_XMC4000.c ****  * When endpoint 0 is in \ref OUT_DATA state, it handles the received data and starts a write trans
 278:/opt/XMClib/XMC_Peripheral_Library_v2.1.16/ThirdPartyLibraries/USBlib/USB/Core/XMC4000/USBController_XMC4000.c ****  */
 279:/opt/XMClib/XMC_Peripheral_Library_v2.1.16/ThirdPartyLibraries/USBlib/USB/Core/XMC4000/USBController_XMC4000.c **** void USBD_HandleEP0_OUT() {
 718              		.loc 1 279 27 is_stmt 1 view -0
 719              		.cfi_startproc
 720              		@ args = 0, pretend = 0, frame = 0
 721              		@ frame_needed = 0, uses_anonymous_args = 0
 280:/opt/XMClib/XMC_Peripheral_Library_v2.1.16/ThirdPartyLibraries/USBlib/USB/Core/XMC4000/USBController_XMC4000.c **** 	if (device.EP0_State == OUT_DATA) {
 722              		.loc 1 280 2 view .LVU227
 279:/opt/XMClib/XMC_Peripheral_Library_v2.1.16/ThirdPartyLibraries/USBlib/USB/Core/XMC4000/USBController_XMC4000.c **** 	if (device.EP0_State == OUT_DATA) {
 723              		.loc 1 279 27 is_stmt 0 view .LVU228
 724 0000 10B5     		push	{r4, lr}
 725              	.LCFI7:
 726              		.cfi_def_cfa_offset 8
 727              		.cfi_offset 4, -8
 728              		.cfi_offset 14, -4
 729              		.loc 1 280 12 view .LVU229
 730 0002 0E4C     		ldr	r4, .L73
 731 0004 94F83B31 		ldrb	r3, [r4, #315]	@ zero_extendqisi2
 732              		.loc 1 280 5 view .LVU230
 733 0008 042B     		cmp	r3, #4
 734 000a 0BD0     		beq	.L71
 281:/opt/XMClib/XMC_Peripheral_Library_v2.1.16/ThirdPartyLibraries/USBlib/USB/Core/XMC4000/USBController_XMC4000.c **** 		/* Now we have the data for handling the request */
 282:/opt/XMClib/XMC_Peripheral_Library_v2.1.16/ThirdPartyLibraries/USBlib/USB/Core/XMC4000/USBController_XMC4000.c **** 		USB_Device_ProcessControlRequest();
 283:/opt/XMClib/XMC_Peripheral_Library_v2.1.16/ThirdPartyLibraries/USBlib/USB/Core/XMC4000/USBController_XMC4000.c **** 		/* Zero length packet for status stage */
 284:/opt/XMClib/XMC_Peripheral_Library_v2.1.16/ThirdPartyLibraries/USBlib/USB/Core/XMC4000/USBController_XMC4000.c **** 		device.Driver->EndpointWrite(ENDPOINT_DIR_MASK & 0,0,0);
 285:/opt/XMClib/XMC_Peripheral_Library_v2.1.16/ThirdPartyLibraries/USBlib/USB/Core/XMC4000/USBController_XMC4000.c **** 		device.EP0_State = IN_STATUS;
 286:/opt/XMClib/XMC_Peripheral_Library_v2.1.16/ThirdPartyLibraries/USBlib/USB/Core/XMC4000/USBController_XMC4000.c **** 	}
 287:/opt/XMClib/XMC_Peripheral_Library_v2.1.16/ThirdPartyLibraries/USBlib/USB/Core/XMC4000/USBController_XMC4000.c **** 	if (device.EP0_State == OUT_STATUS) {
 735              		.loc 1 287 2 is_stmt 1 view .LVU231
 736              		.loc 1 287 5 is_stmt 0 view .LVU232
 737 000c 052B     		cmp	r3, #5
 738 000e 00D0     		beq	.L72
 288:/opt/XMClib/XMC_Peripheral_Library_v2.1.16/ThirdPartyLibraries/USBlib/USB/Core/XMC4000/USBController_XMC4000.c **** 		/* Request new setup packet */
 289:/opt/XMClib/XMC_Peripheral_Library_v2.1.16/ThirdPartyLibraries/USBlib/USB/Core/XMC4000/USBController_XMC4000.c **** 		device.Driver->EndpointReadStart(device.Endpoints[0].Address,24);
 290:/opt/XMClib/XMC_Peripheral_Library_v2.1.16/ThirdPartyLibraries/USBlib/USB/Core/XMC4000/USBController_XMC4000.c **** 		device.EP0_State = IDLE;
 291:/opt/XMClib/XMC_Peripheral_Library_v2.1.16/ThirdPartyLibraries/USBlib/USB/Core/XMC4000/USBController_XMC4000.c **** 	}
 292:/opt/XMClib/XMC_Peripheral_Library_v2.1.16/ThirdPartyLibraries/USBlib/USB/Core/XMC4000/USBController_XMC4000.c **** }
 739              		.loc 1 292 1 view .LVU233
 740 0010 10BD     		pop	{r4, pc}
 741              	.L72:
 742              	.LBB36:
 743              	.LBI36:
 259:/opt/XMClib/XMC_Peripheral_Library_v2.1.16/ThirdPartyLibraries/USBlib/USB/Core/XMC4000/USBController_XMC4000.c **** 	if (device.EP0_State == IN_DATA) {
 744              		.loc 1 259 6 is_stmt 1 view .LVU234
 745              	.LBB37:
 267:/opt/XMClib/XMC_Peripheral_Library_v2.1.16/ThirdPartyLibraries/USBlib/USB/Core/XMC4000/USBController_XMC4000.c **** 		device.EP0_State = IDLE;
 746              		.loc 1 267 3 view .LVU235
 267:/opt/XMClib/XMC_Peripheral_Library_v2.1.16/ThirdPartyLibraries/USBlib/USB/Core/XMC4000/USBController_XMC4000.c **** 		device.EP0_State = IDLE;
 747              		.loc 1 267 16 is_stmt 0 view .LVU236
 748 0012 2368     		ldr	r3, [r4]
 267:/opt/XMClib/XMC_Peripheral_Library_v2.1.16/ThirdPartyLibraries/USBlib/USB/Core/XMC4000/USBController_XMC4000.c **** 		device.EP0_State = IDLE;
 749              		.loc 1 267 3 view .LVU237
 750 0014 2079     		ldrb	r0, [r4, #4]	@ zero_extendqisi2
 751 0016 9B6A     		ldr	r3, [r3, #40]
 752 0018 1821     		movs	r1, #24
 753 001a 9847     		blx	r3
 754              	.LVL38:
 268:/opt/XMClib/XMC_Peripheral_Library_v2.1.16/ThirdPartyLibraries/USBlib/USB/Core/XMC4000/USBController_XMC4000.c **** 	}
 755              		.loc 1 268 3 is_stmt 1 view .LVU238
 268:/opt/XMClib/XMC_Peripheral_Library_v2.1.16/ThirdPartyLibraries/USBlib/USB/Core/XMC4000/USBController_XMC4000.c **** 	}
 756              		.loc 1 268 20 is_stmt 0 view .LVU239
 757 001c 0123     		movs	r3, #1
 758 001e 84F83B31 		strb	r3, [r4, #315]
 759              	.LBE37:
 760              	.LBE36:
 761              		.loc 1 292 1 view .LVU240
 762 0022 10BD     		pop	{r4, pc}
 763              	.L71:
 282:/opt/XMClib/XMC_Peripheral_Library_v2.1.16/ThirdPartyLibraries/USBlib/USB/Core/XMC4000/USBController_XMC4000.c **** 		/* Zero length packet for status stage */
 764              		.loc 1 282 3 is_stmt 1 view .LVU241
 765 0024 FFF7FEFF 		bl	USB_Device_ProcessControlRequest
 766              	.LVL39:
 284:/opt/XMClib/XMC_Peripheral_Library_v2.1.16/ThirdPartyLibraries/USBlib/USB/Core/XMC4000/USBController_XMC4000.c **** 		device.EP0_State = IN_STATUS;
 767              		.loc 1 284 3 view .LVU242
 284:/opt/XMClib/XMC_Peripheral_Library_v2.1.16/ThirdPartyLibraries/USBlib/USB/Core/XMC4000/USBController_XMC4000.c **** 		device.EP0_State = IN_STATUS;
 768              		.loc 1 284 16 is_stmt 0 view .LVU243
 769 0028 2368     		ldr	r3, [r4]
 284:/opt/XMClib/XMC_Peripheral_Library_v2.1.16/ThirdPartyLibraries/USBlib/USB/Core/XMC4000/USBController_XMC4000.c **** 		device.EP0_State = IN_STATUS;
 770              		.loc 1 284 3 view .LVU244
 771 002a 0022     		movs	r2, #0
 772 002c 1B6B     		ldr	r3, [r3, #48]
 773 002e 1146     		mov	r1, r2
 774 0030 1046     		mov	r0, r2
 775 0032 9847     		blx	r3
 776              	.LVL40:
 285:/opt/XMClib/XMC_Peripheral_Library_v2.1.16/ThirdPartyLibraries/USBlib/USB/Core/XMC4000/USBController_XMC4000.c **** 	}
 777              		.loc 1 285 3 is_stmt 1 view .LVU245
 285:/opt/XMClib/XMC_Peripheral_Library_v2.1.16/ThirdPartyLibraries/USBlib/USB/Core/XMC4000/USBController_XMC4000.c **** 	}
 778              		.loc 1 285 20 is_stmt 0 view .LVU246
 779 0034 0323     		movs	r3, #3
 780 0036 84F83B31 		strb	r3, [r4, #315]
 287:/opt/XMClib/XMC_Peripheral_Library_v2.1.16/ThirdPartyLibraries/USBlib/USB/Core/XMC4000/USBController_XMC4000.c **** 		/* Request new setup packet */
 781              		.loc 1 287 2 is_stmt 1 view .LVU247
 782              		.loc 1 292 1 is_stmt 0 view .LVU248
 783 003a 10BD     		pop	{r4, pc}
 784              	.L74:
 785              		.align	2
 786              	.L73:
 787 003c 00000000 		.word	.LANCHOR0
 788              		.cfi_endproc
 789              	.LFE191:
 791              		.section	.text.USBD_HandleEP0_SETUP,"ax",%progbits
 792              		.align	1
 793              		.p2align 2,,3
 794              		.global	USBD_HandleEP0_SETUP
 795              		.syntax unified
 796              		.thumb
 797              		.thumb_func
 799              	USBD_HandleEP0_SETUP:
 800              	.LFB192:
 293:/opt/XMClib/XMC_Peripheral_Library_v2.1.16/ThirdPartyLibraries/USBlib/USB/Core/XMC4000/USBController_XMC4000.c **** 
 294:/opt/XMClib/XMC_Peripheral_Library_v2.1.16/ThirdPartyLibraries/USBlib/USB/Core/XMC4000/USBController_XMC4000.c **** /**
 295:/opt/XMClib/XMC_Peripheral_Library_v2.1.16/ThirdPartyLibraries/USBlib/USB/Core/XMC4000/USBController_XMC4000.c ****  * \brief Handle SETUP packet on EP0
 296:/opt/XMClib/XMC_Peripheral_Library_v2.1.16/ThirdPartyLibraries/USBlib/USB/Core/XMC4000/USBController_XMC4000.c ****  *
 297:/opt/XMClib/XMC_Peripheral_Library_v2.1.16/ThirdPartyLibraries/USBlib/USB/Core/XMC4000/USBController_XMC4000.c ****  * Handles the setup package an switches to correct state. If data is send from host to device it s
 298:/opt/XMClib/XMC_Peripheral_Library_v2.1.16/ThirdPartyLibraries/USBlib/USB/Core/XMC4000/USBController_XMC4000.c ****  * When the hosts sends all data within the setup package and \ref wLength equals zero, starts proc
 299:/opt/XMClib/XMC_Peripheral_Library_v2.1.16/ThirdPartyLibraries/USBlib/USB/Core/XMC4000/USBController_XMC4000.c ****  * in status reponse including the switch to \ref IN_STATUS.
 300:/opt/XMClib/XMC_Peripheral_Library_v2.1.16/ThirdPartyLibraries/USBlib/USB/Core/XMC4000/USBController_XMC4000.c ****  * When the host expects data from the device, the function processes the control request and switc
 301:/opt/XMClib/XMC_Peripheral_Library_v2.1.16/ThirdPartyLibraries/USBlib/USB/Core/XMC4000/USBController_XMC4000.c ****  */
 302:/opt/XMClib/XMC_Peripheral_Library_v2.1.16/ThirdPartyLibraries/USBlib/USB/Core/XMC4000/USBController_XMC4000.c **** void USBD_HandleEP0_SETUP() {
 801              		.loc 1 302 29 is_stmt 1 view -0
 802              		.cfi_startproc
 803              		@ args = 0, pretend = 0, frame = 0
 804              		@ frame_needed = 0, uses_anonymous_args = 0
 303:/opt/XMClib/XMC_Peripheral_Library_v2.1.16/ThirdPartyLibraries/USBlib/USB/Core/XMC4000/USBController_XMC4000.c **** 	/* read setup package from ep0 */
 304:/opt/XMClib/XMC_Peripheral_Library_v2.1.16/ThirdPartyLibraries/USBlib/USB/Core/XMC4000/USBController_XMC4000.c **** 	int32_t ret_val = device.Driver->EndpointRead(0,(void*)&USB_ControlRequest,8);
 805              		.loc 1 304 2 view .LVU250
 302:/opt/XMClib/XMC_Peripheral_Library_v2.1.16/ThirdPartyLibraries/USBlib/USB/Core/XMC4000/USBController_XMC4000.c **** 	/* read setup package from ep0 */
 806              		.loc 1 302 29 is_stmt 0 view .LVU251
 807 0000 70B5     		push	{r4, r5, r6, lr}
 808              	.LCFI8:
 809              		.cfi_def_cfa_offset 16
 810              		.cfi_offset 4, -16
 811              		.cfi_offset 5, -12
 812              		.cfi_offset 6, -8
 813              		.cfi_offset 14, -4
 814              		.loc 1 304 26 view .LVU252
 815 0002 1A4C     		ldr	r4, .L82
 816              		.loc 1 304 20 view .LVU253
 817 0004 1A4D     		ldr	r5, .L82+4
 818              		.loc 1 304 33 view .LVU254
 819 0006 2368     		ldr	r3, [r4]
 820              		.loc 1 304 20 view .LVU255
 821 0008 0822     		movs	r2, #8
 822 000a DB6A     		ldr	r3, [r3, #44]
 823 000c 2946     		mov	r1, r5
 824 000e 0020     		movs	r0, #0
 825 0010 9847     		blx	r3
 826              	.LVL41:
 305:/opt/XMClib/XMC_Peripheral_Library_v2.1.16/ThirdPartyLibraries/USBlib/USB/Core/XMC4000/USBController_XMC4000.c **** #if NO_COPY_DRIVER
 306:/opt/XMClib/XMC_Peripheral_Library_v2.1.16/ThirdPartyLibraries/USBlib/USB/Core/XMC4000/USBController_XMC4000.c **** 	MEMCPY(&USB_ControlRequest,device.Endpoints[0].OutBuffer,sizeof(USB_ControlRequest));
 307:/opt/XMClib/XMC_Peripheral_Library_v2.1.16/ThirdPartyLibraries/USBlib/USB/Core/XMC4000/USBController_XMC4000.c **** #endif
 308:/opt/XMClib/XMC_Peripheral_Library_v2.1.16/ThirdPartyLibraries/USBlib/USB/Core/XMC4000/USBController_XMC4000.c **** 	device.IsSetupRecieved = true;
 827              		.loc 1 308 2 is_stmt 1 view .LVU256
 828              		.loc 1 308 25 is_stmt 0 view .LVU257
 829 0012 94F83E31 		ldrb	r3, [r4, #318]	@ zero_extendqisi2
 309:/opt/XMClib/XMC_Peripheral_Library_v2.1.16/ThirdPartyLibraries/USBlib/USB/Core/XMC4000/USBController_XMC4000.c **** 	if (ret_val != 8 )
 830              		.loc 1 309 5 view .LVU258
 831 0016 0828     		cmp	r0, #8
 308:/opt/XMClib/XMC_Peripheral_Library_v2.1.16/ThirdPartyLibraries/USBlib/USB/Core/XMC4000/USBController_XMC4000.c **** 	if (ret_val != 8 )
 832              		.loc 1 308 25 view .LVU259
 833 0018 43F00203 		orr	r3, r3, #2
 834 001c 84F83E31 		strb	r3, [r4, #318]
 835              		.loc 1 309 2 is_stmt 1 view .LVU260
 836              		.loc 1 309 5 is_stmt 0 view .LVU261
 837 0020 0FD1     		bne	.L75
 838              	.LBB40:
 839              	.LBI40:
 302:/opt/XMClib/XMC_Peripheral_Library_v2.1.16/ThirdPartyLibraries/USBlib/USB/Core/XMC4000/USBController_XMC4000.c **** 	/* read setup package from ep0 */
 840              		.loc 1 302 6 is_stmt 1 view .LVU262
 841              	.LBB41:
 310:/opt/XMClib/XMC_Peripheral_Library_v2.1.16/ThirdPartyLibraries/USBlib/USB/Core/XMC4000/USBController_XMC4000.c **** 		return;
 311:/opt/XMClib/XMC_Peripheral_Library_v2.1.16/ThirdPartyLibraries/USBlib/USB/Core/XMC4000/USBController_XMC4000.c **** 
 312:/opt/XMClib/XMC_Peripheral_Library_v2.1.16/ThirdPartyLibraries/USBlib/USB/Core/XMC4000/USBController_XMC4000.c **** 	/* preprocess */
 313:/opt/XMClib/XMC_Peripheral_Library_v2.1.16/ThirdPartyLibraries/USBlib/USB/Core/XMC4000/USBController_XMC4000.c **** 	/* if length is zero we have only a in_status phase */
 314:/opt/XMClib/XMC_Peripheral_Library_v2.1.16/ThirdPartyLibraries/USBlib/USB/Core/XMC4000/USBController_XMC4000.c **** 	if (USB_ControlRequest.wLength==0) {
 842              		.loc 1 314 2 view .LVU263
 843              		.loc 1 314 24 is_stmt 0 view .LVU264
 844 0022 EE88     		ldrh	r6, [r5, #6]	@ unaligned
 845              		.loc 1 314 5 view .LVU265
 846 0024 76B1     		cbz	r6, .L80
 315:/opt/XMClib/XMC_Peripheral_Library_v2.1.16/ThirdPartyLibraries/USBlib/USB/Core/XMC4000/USBController_XMC4000.c **** 		device.EP0_State = IN_STATUS;
 316:/opt/XMClib/XMC_Peripheral_Library_v2.1.16/ThirdPartyLibraries/USBlib/USB/Core/XMC4000/USBController_XMC4000.c **** 		USB_Device_ProcessControlRequest();
 317:/opt/XMClib/XMC_Peripheral_Library_v2.1.16/ThirdPartyLibraries/USBlib/USB/Core/XMC4000/USBController_XMC4000.c **** 		device.Driver->EndpointWrite(0,0,0);
 318:/opt/XMClib/XMC_Peripheral_Library_v2.1.16/ThirdPartyLibraries/USBlib/USB/Core/XMC4000/USBController_XMC4000.c **** 	} else {
 319:/opt/XMClib/XMC_Peripheral_Library_v2.1.16/ThirdPartyLibraries/USBlib/USB/Core/XMC4000/USBController_XMC4000.c **** 		if (USB_ControlRequest.bmRequestType & CONTROL_REQTYPE_DIRECTION) {
 847              		.loc 1 319 3 is_stmt 1 view .LVU266
 848              		.loc 1 319 6 is_stmt 0 view .LVU267
 849 0026 95F90030 		ldrsb	r3, [r5]
 850 002a 002B     		cmp	r3, #0
 851 002c 17DB     		blt	.L81
 320:/opt/XMClib/XMC_Peripheral_Library_v2.1.16/ThirdPartyLibraries/USBlib/USB/Core/XMC4000/USBController_XMC4000.c **** 			device.EP0_State = IN_DATA;
 321:/opt/XMClib/XMC_Peripheral_Library_v2.1.16/ThirdPartyLibraries/USBlib/USB/Core/XMC4000/USBController_XMC4000.c **** 			USB_Device_ProcessControlRequest();
 322:/opt/XMClib/XMC_Peripheral_Library_v2.1.16/ThirdPartyLibraries/USBlib/USB/Core/XMC4000/USBController_XMC4000.c **** 		}
 323:/opt/XMClib/XMC_Peripheral_Library_v2.1.16/ThirdPartyLibraries/USBlib/USB/Core/XMC4000/USBController_XMC4000.c **** 		else {
 324:/opt/XMClib/XMC_Peripheral_Library_v2.1.16/ThirdPartyLibraries/USBlib/USB/Core/XMC4000/USBController_XMC4000.c **** 			device.EP0_State = OUT_DATA;
 852              		.loc 1 324 4 is_stmt 1 view .LVU268
 325:/opt/XMClib/XMC_Peripheral_Library_v2.1.16/ThirdPartyLibraries/USBlib/USB/Core/XMC4000/USBController_XMC4000.c **** 			/* Do not process request here, first read data */
 326:/opt/XMClib/XMC_Peripheral_Library_v2.1.16/ThirdPartyLibraries/USBlib/USB/Core/XMC4000/USBController_XMC4000.c **** 			device.Driver->EndpointReadStart(0,USB_ControlRequest.wLength);
 853              		.loc 1 326 17 is_stmt 0 view .LVU269
 854 002e 2368     		ldr	r3, [r4]
 324:/opt/XMClib/XMC_Peripheral_Library_v2.1.16/ThirdPartyLibraries/USBlib/USB/Core/XMC4000/USBController_XMC4000.c **** 			/* Do not process request here, first read data */
 855              		.loc 1 324 21 view .LVU270
 856 0030 0422     		movs	r2, #4
 857 0032 84F83B21 		strb	r2, [r4, #315]
 858              		.loc 1 326 4 is_stmt 1 view .LVU271
 859 0036 3146     		mov	r1, r6
 860 0038 9B6A     		ldr	r3, [r3, #40]
 861              	.LBE41:
 862              	.LBE40:
 327:/opt/XMClib/XMC_Peripheral_Library_v2.1.16/ThirdPartyLibraries/USBlib/USB/Core/XMC4000/USBController_XMC4000.c **** 		}
 328:/opt/XMClib/XMC_Peripheral_Library_v2.1.16/ThirdPartyLibraries/USBlib/USB/Core/XMC4000/USBController_XMC4000.c **** 	}
 329:/opt/XMClib/XMC_Peripheral_Library_v2.1.16/ThirdPartyLibraries/USBlib/USB/Core/XMC4000/USBController_XMC4000.c **** }
 863              		.loc 1 329 1 is_stmt 0 view .LVU272
 864 003a BDE87040 		pop	{r4, r5, r6, lr}
 865              	.LCFI9:
 866              		.cfi_remember_state
 867              		.cfi_restore 14
 868              		.cfi_restore 6
 869              		.cfi_restore 5
 870              		.cfi_restore 4
 871              		.cfi_def_cfa_offset 0
 872              	.LBB46:
 873              	.LBB42:
 326:/opt/XMClib/XMC_Peripheral_Library_v2.1.16/ThirdPartyLibraries/USBlib/USB/Core/XMC4000/USBController_XMC4000.c **** 		}
 874              		.loc 1 326 4 view .LVU273
 875 003e 0020     		movs	r0, #0
 876              	.LVL42:
 326:/opt/XMClib/XMC_Peripheral_Library_v2.1.16/ThirdPartyLibraries/USBlib/USB/Core/XMC4000/USBController_XMC4000.c **** 		}
 877              		.loc 1 326 4 view .LVU274
 878 0040 1847     		bx	r3
 879              	.LVL43:
 880              	.L75:
 881              	.LCFI10:
 882              		.cfi_restore_state
 326:/opt/XMClib/XMC_Peripheral_Library_v2.1.16/ThirdPartyLibraries/USBlib/USB/Core/XMC4000/USBController_XMC4000.c **** 		}
 883              		.loc 1 326 4 view .LVU275
 884              	.LBE42:
 885              	.LBE46:
 886              		.loc 1 329 1 view .LVU276
 887 0042 70BD     		pop	{r4, r5, r6, pc}
 888              	.L80:
 889              	.LBB47:
 890              	.LBB43:
 315:/opt/XMClib/XMC_Peripheral_Library_v2.1.16/ThirdPartyLibraries/USBlib/USB/Core/XMC4000/USBController_XMC4000.c **** 		USB_Device_ProcessControlRequest();
 891              		.loc 1 315 3 is_stmt 1 view .LVU277
 315:/opt/XMClib/XMC_Peripheral_Library_v2.1.16/ThirdPartyLibraries/USBlib/USB/Core/XMC4000/USBController_XMC4000.c **** 		USB_Device_ProcessControlRequest();
 892              		.loc 1 315 20 is_stmt 0 view .LVU278
 893 0044 0323     		movs	r3, #3
 894 0046 84F83B31 		strb	r3, [r4, #315]
 316:/opt/XMClib/XMC_Peripheral_Library_v2.1.16/ThirdPartyLibraries/USBlib/USB/Core/XMC4000/USBController_XMC4000.c **** 		device.Driver->EndpointWrite(0,0,0);
 895              		.loc 1 316 3 is_stmt 1 view .LVU279
 896 004a FFF7FEFF 		bl	USB_Device_ProcessControlRequest
 897              	.LVL44:
 317:/opt/XMClib/XMC_Peripheral_Library_v2.1.16/ThirdPartyLibraries/USBlib/USB/Core/XMC4000/USBController_XMC4000.c **** 	} else {
 898              		.loc 1 317 3 view .LVU280
 317:/opt/XMClib/XMC_Peripheral_Library_v2.1.16/ThirdPartyLibraries/USBlib/USB/Core/XMC4000/USBController_XMC4000.c **** 	} else {
 899              		.loc 1 317 16 is_stmt 0 view .LVU281
 900 004e 2368     		ldr	r3, [r4]
 317:/opt/XMClib/XMC_Peripheral_Library_v2.1.16/ThirdPartyLibraries/USBlib/USB/Core/XMC4000/USBController_XMC4000.c **** 	} else {
 901              		.loc 1 317 3 view .LVU282
 902 0050 3246     		mov	r2, r6
 903 0052 3146     		mov	r1, r6
 904 0054 3046     		mov	r0, r6
 905 0056 1B6B     		ldr	r3, [r3, #48]
 906              	.LBE43:
 907              	.LBE47:
 908              		.loc 1 329 1 view .LVU283
 909 0058 BDE87040 		pop	{r4, r5, r6, lr}
 910              	.LCFI11:
 911              		.cfi_remember_state
 912              		.cfi_restore 14
 913              		.cfi_restore 6
 914              		.cfi_restore 5
 915              		.cfi_restore 4
 916              		.cfi_def_cfa_offset 0
 917              	.LBB48:
 918              	.LBB44:
 317:/opt/XMClib/XMC_Peripheral_Library_v2.1.16/ThirdPartyLibraries/USBlib/USB/Core/XMC4000/USBController_XMC4000.c **** 	} else {
 919              		.loc 1 317 3 view .LVU284
 920 005c 1847     		bx	r3
 921              	.LVL45:
 922              	.L81:
 923              	.LCFI12:
 924              		.cfi_restore_state
 320:/opt/XMClib/XMC_Peripheral_Library_v2.1.16/ThirdPartyLibraries/USBlib/USB/Core/XMC4000/USBController_XMC4000.c **** 			USB_Device_ProcessControlRequest();
 925              		.loc 1 320 4 is_stmt 1 view .LVU285
 320:/opt/XMClib/XMC_Peripheral_Library_v2.1.16/ThirdPartyLibraries/USBlib/USB/Core/XMC4000/USBController_XMC4000.c **** 			USB_Device_ProcessControlRequest();
 926              		.loc 1 320 21 is_stmt 0 view .LVU286
 927 005e 0223     		movs	r3, #2
 928 0060 84F83B31 		strb	r3, [r4, #315]
 321:/opt/XMClib/XMC_Peripheral_Library_v2.1.16/ThirdPartyLibraries/USBlib/USB/Core/XMC4000/USBController_XMC4000.c **** 		}
 929              		.loc 1 321 4 is_stmt 1 view .LVU287
 930              	.LBE44:
 931              	.LBE48:
 932              		.loc 1 329 1 is_stmt 0 view .LVU288
 933 0064 BDE87040 		pop	{r4, r5, r6, lr}
 934              	.LCFI13:
 935              		.cfi_restore 14
 936              		.cfi_restore 6
 937              		.cfi_restore 5
 938              		.cfi_restore 4
 939              		.cfi_def_cfa_offset 0
 940              	.LBB49:
 941              	.LBB45:
 321:/opt/XMClib/XMC_Peripheral_Library_v2.1.16/ThirdPartyLibraries/USBlib/USB/Core/XMC4000/USBController_XMC4000.c **** 		}
 942              		.loc 1 321 4 view .LVU289
 943 0068 FFF7FEBF 		b	USB_Device_ProcessControlRequest
 944              	.LVL46:
 945              	.L83:
 321:/opt/XMClib/XMC_Peripheral_Library_v2.1.16/ThirdPartyLibraries/USBlib/USB/Core/XMC4000/USBController_XMC4000.c **** 		}
 946              		.loc 1 321 4 view .LVU290
 947              		.align	2
 948              	.L82:
 949 006c 00000000 		.word	.LANCHOR0
 950 0070 00000000 		.word	USB_ControlRequest
 951              	.LBE45:
 952              	.LBE49:
 953              		.cfi_endproc
 954              	.LFE192:
 956              		.section	.text.USBD_SignalDeviceEventHandler,"ax",%progbits
 957              		.align	1
 958              		.p2align 2,,3
 959              		.global	USBD_SignalDeviceEventHandler
 960              		.syntax unified
 961              		.thumb
 962              		.thumb_func
 964              	USBD_SignalDeviceEventHandler:
 965              	.LVL47:
 966              	.LFB193:
 330:/opt/XMClib/XMC_Peripheral_Library_v2.1.16/ThirdPartyLibraries/USBlib/USB/Core/XMC4000/USBController_XMC4000.c **** 
 331:/opt/XMClib/XMC_Peripheral_Library_v2.1.16/ThirdPartyLibraries/USBlib/USB/Core/XMC4000/USBController_XMC4000.c **** /**
 332:/opt/XMClib/XMC_Peripheral_Library_v2.1.16/ThirdPartyLibraries/USBlib/USB/Core/XMC4000/USBController_XMC4000.c ****  * @}
 333:/opt/XMClib/XMC_Peripheral_Library_v2.1.16/ThirdPartyLibraries/USBlib/USB/Core/XMC4000/USBController_XMC4000.c ****  */
 334:/opt/XMClib/XMC_Peripheral_Library_v2.1.16/ThirdPartyLibraries/USBlib/USB/Core/XMC4000/USBController_XMC4000.c **** 
 335:/opt/XMClib/XMC_Peripheral_Library_v2.1.16/ThirdPartyLibraries/USBlib/USB/Core/XMC4000/USBController_XMC4000.c **** /**
 336:/opt/XMClib/XMC_Peripheral_Library_v2.1.16/ThirdPartyLibraries/USBlib/USB/Core/XMC4000/USBController_XMC4000.c ****  * \brief Device event handler for XMC Driver
 337:/opt/XMClib/XMC_Peripheral_Library_v2.1.16/ThirdPartyLibraries/USBlib/USB/Core/XMC4000/USBController_XMC4000.c ****  *
 338:/opt/XMClib/XMC_Peripheral_Library_v2.1.16/ThirdPartyLibraries/USBlib/USB/Core/XMC4000/USBController_XMC4000.c ****  * The device can have several events, where it notifies the application about.
 339:/opt/XMClib/XMC_Peripheral_Library_v2.1.16/ThirdPartyLibraries/USBlib/USB/Core/XMC4000/USBController_XMC4000.c ****  *
 340:/opt/XMClib/XMC_Peripheral_Library_v2.1.16/ThirdPartyLibraries/USBlib/USB/Core/XMC4000/USBController_XMC4000.c ****  * \note Not all events are available on all chip series. (Power Events are only supported on XMC45
 341:/opt/XMClib/XMC_Peripheral_Library_v2.1.16/ThirdPartyLibraries/USBlib/USB/Core/XMC4000/USBController_XMC4000.c ****  * \see USB_USBD_EVENT
 342:/opt/XMClib/XMC_Peripheral_Library_v2.1.16/ThirdPartyLibraries/USBlib/USB/Core/XMC4000/USBController_XMC4000.c ****  */
 343:/opt/XMClib/XMC_Peripheral_Library_v2.1.16/ThirdPartyLibraries/USBlib/USB/Core/XMC4000/USBController_XMC4000.c **** void USBD_SignalDeviceEventHandler(XMC_USBD_EVENT_t event) {
 967              		.loc 1 343 60 is_stmt 1 view -0
 968              		.cfi_startproc
 969              		@ args = 0, pretend = 0, frame = 8
 970              		@ frame_needed = 0, uses_anonymous_args = 0
 344:/opt/XMClib/XMC_Peripheral_Library_v2.1.16/ThirdPartyLibraries/USBlib/USB/Core/XMC4000/USBController_XMC4000.c **** 	int i;
 971              		.loc 1 344 2 view .LVU292
 345:/opt/XMClib/XMC_Peripheral_Library_v2.1.16/ThirdPartyLibraries/USBlib/USB/Core/XMC4000/USBController_XMC4000.c **** 	switch (event) {
 972              		.loc 1 345 2 view .LVU293
 343:/opt/XMClib/XMC_Peripheral_Library_v2.1.16/ThirdPartyLibraries/USBlib/USB/Core/XMC4000/USBController_XMC4000.c **** 	int i;
 973              		.loc 1 343 60 is_stmt 0 view .LVU294
 974 0000 2DE9F041 		push	{r4, r5, r6, r7, r8, lr}
 975              	.LCFI14:
 976              		.cfi_def_cfa_offset 24
 977              		.cfi_offset 4, -24
 978              		.cfi_offset 5, -20
 979              		.cfi_offset 6, -16
 980              		.cfi_offset 7, -12
 981              		.cfi_offset 8, -8
 982              		.cfi_offset 14, -4
 983 0004 82B0     		sub	sp, sp, #8
 984              	.LCFI15:
 985              		.cfi_def_cfa_offset 32
 986              		.loc 1 345 2 view .LVU295
 987 0006 0928     		cmp	r0, #9
 988 0008 0BD8     		bhi	.L84
 989 000a DFE800F0 		tbb	[pc, r0]
 990              	.L87:
 991 000e 0D       		.byte	(.L94-.L87)/2
 992 000f 36       		.byte	(.L93-.L87)/2
 993 0010 40       		.byte	(.L92-.L87)/2
 994 0011 45       		.byte	(.L91-.L87)/2
 995 0012 4D       		.byte	(.L90-.L87)/2
 996 0013 0A       		.byte	(.L84-.L87)/2
 997 0014 88       		.byte	(.L89-.L87)/2
 998 0015 94       		.byte	(.L88-.L87)/2
 999 0016 0A       		.byte	(.L84-.L87)/2
 1000 0017 05       		.byte	(.L86-.L87)/2
 1001              		.p2align 1
 1002              	.L86:
 346:/opt/XMClib/XMC_Peripheral_Library_v2.1.16/ThirdPartyLibraries/USBlib/USB/Core/XMC4000/USBController_XMC4000.c **** 	case XMC_USBD_EVENT_RESET:
 347:/opt/XMClib/XMC_Peripheral_Library_v2.1.16/ThirdPartyLibraries/USBlib/USB/Core/XMC4000/USBController_XMC4000.c **** 		USB_DeviceState = DEVICE_STATE_Default;
 348:/opt/XMClib/XMC_Peripheral_Library_v2.1.16/ThirdPartyLibraries/USBlib/USB/Core/XMC4000/USBController_XMC4000.c **** 		device.EP0_State = IDLE;
 349:/opt/XMClib/XMC_Peripheral_Library_v2.1.16/ThirdPartyLibraries/USBlib/USB/Core/XMC4000/USBController_XMC4000.c **** 		device.RemoteWakeUp = 0;
 350:/opt/XMClib/XMC_Peripheral_Library_v2.1.16/ThirdPartyLibraries/USBlib/USB/Core/XMC4000/USBController_XMC4000.c **** 		/* Reset endpoints and configuration */
 351:/opt/XMClib/XMC_Peripheral_Library_v2.1.16/ThirdPartyLibraries/USBlib/USB/Core/XMC4000/USBController_XMC4000.c **** 		for (i=0;i<(uint8_t)XMC_USBD_NUM_EPS; i++) {
 352:/opt/XMClib/XMC_Peripheral_Library_v2.1.16/ThirdPartyLibraries/USBlib/USB/Core/XMC4000/USBController_XMC4000.c **** 			device.Endpoints[i].InInUse = 0;
 353:/opt/XMClib/XMC_Peripheral_Library_v2.1.16/ThirdPartyLibraries/USBlib/USB/Core/XMC4000/USBController_XMC4000.c **** 			device.Endpoints[i].OutInUse = 0;
 354:/opt/XMClib/XMC_Peripheral_Library_v2.1.16/ThirdPartyLibraries/USBlib/USB/Core/XMC4000/USBController_XMC4000.c **** 			device.Endpoints[i].IsHalted = 0;
 355:/opt/XMClib/XMC_Peripheral_Library_v2.1.16/ThirdPartyLibraries/USBlib/USB/Core/XMC4000/USBController_XMC4000.c **** 			if (i!=0 && device.Endpoints[i].IsConfigured) {
 356:/opt/XMClib/XMC_Peripheral_Library_v2.1.16/ThirdPartyLibraries/USBlib/USB/Core/XMC4000/USBController_XMC4000.c **** 				device.Driver->EndpointUnconfigure(device.Endpoints[i].Address);
 357:/opt/XMClib/XMC_Peripheral_Library_v2.1.16/ThirdPartyLibraries/USBlib/USB/Core/XMC4000/USBController_XMC4000.c **** 				device.Endpoints[i].IsConfigured = 0;
 358:/opt/XMClib/XMC_Peripheral_Library_v2.1.16/ThirdPartyLibraries/USBlib/USB/Core/XMC4000/USBController_XMC4000.c **** 				device.Endpoints[i].IsEnabled = 0;
 359:/opt/XMClib/XMC_Peripheral_Library_v2.1.16/ThirdPartyLibraries/USBlib/USB/Core/XMC4000/USBController_XMC4000.c **** 			}
 360:/opt/XMClib/XMC_Peripheral_Library_v2.1.16/ThirdPartyLibraries/USBlib/USB/Core/XMC4000/USBController_XMC4000.c **** 		}
 361:/opt/XMClib/XMC_Peripheral_Library_v2.1.16/ThirdPartyLibraries/USBlib/USB/Core/XMC4000/USBController_XMC4000.c **** 		device.Configuration = 0;
 362:/opt/XMClib/XMC_Peripheral_Library_v2.1.16/ThirdPartyLibraries/USBlib/USB/Core/XMC4000/USBController_XMC4000.c **** 		for (i=0;i<NUM_INTERFACES;i++) {
 363:/opt/XMClib/XMC_Peripheral_Library_v2.1.16/ThirdPartyLibraries/USBlib/USB/Core/XMC4000/USBController_XMC4000.c **** 			device.InterfaceSettings[i] = 0;
 364:/opt/XMClib/XMC_Peripheral_Library_v2.1.16/ThirdPartyLibraries/USBlib/USB/Core/XMC4000/USBController_XMC4000.c **** 		}
 365:/opt/XMClib/XMC_Peripheral_Library_v2.1.16/ThirdPartyLibraries/USBlib/USB/Core/XMC4000/USBController_XMC4000.c **** 		device.Driver->EndpointReadStart(device.Endpoints[0].Address,24);
 366:/opt/XMClib/XMC_Peripheral_Library_v2.1.16/ThirdPartyLibraries/USBlib/USB/Core/XMC4000/USBController_XMC4000.c **** 		break;
 367:/opt/XMClib/XMC_Peripheral_Library_v2.1.16/ThirdPartyLibraries/USBlib/USB/Core/XMC4000/USBController_XMC4000.c **** 	case XMC_USBD_EVENT_SOF:
 368:/opt/XMClib/XMC_Peripheral_Library_v2.1.16/ThirdPartyLibraries/USBlib/USB/Core/XMC4000/USBController_XMC4000.c **** 		EVENT_USB_Device_StartOfFrame();
 1003              		.loc 1 368 3 is_stmt 1 view .LVU296
 369:/opt/XMClib/XMC_Peripheral_Library_v2.1.16/ThirdPartyLibraries/USBlib/USB/Core/XMC4000/USBController_XMC4000.c **** 		break;
 370:/opt/XMClib/XMC_Peripheral_Library_v2.1.16/ThirdPartyLibraries/USBlib/USB/Core/XMC4000/USBController_XMC4000.c **** 	case XMC_USBD_EVENT_CONNECT:
 371:/opt/XMClib/XMC_Peripheral_Library_v2.1.16/ThirdPartyLibraries/USBlib/USB/Core/XMC4000/USBController_XMC4000.c **** 		EVENT_USB_Device_Connect();
 372:/opt/XMClib/XMC_Peripheral_Library_v2.1.16/ThirdPartyLibraries/USBlib/USB/Core/XMC4000/USBController_XMC4000.c **** 		break;
 373:/opt/XMClib/XMC_Peripheral_Library_v2.1.16/ThirdPartyLibraries/USBlib/USB/Core/XMC4000/USBController_XMC4000.c **** 	case XMC_USBD_EVENT_DISCONNECT:
 374:/opt/XMClib/XMC_Peripheral_Library_v2.1.16/ThirdPartyLibraries/USBlib/USB/Core/XMC4000/USBController_XMC4000.c **** 		USB_DeviceState = DEVICE_STATE_Powered;
 375:/opt/XMClib/XMC_Peripheral_Library_v2.1.16/ThirdPartyLibraries/USBlib/USB/Core/XMC4000/USBController_XMC4000.c **** 		EVENT_USB_Device_Disconnect();
 376:/opt/XMClib/XMC_Peripheral_Library_v2.1.16/ThirdPartyLibraries/USBlib/USB/Core/XMC4000/USBController_XMC4000.c **** 		break;
 377:/opt/XMClib/XMC_Peripheral_Library_v2.1.16/ThirdPartyLibraries/USBlib/USB/Core/XMC4000/USBController_XMC4000.c **** 	case XMC_USBD_EVENT_POWER_OFF:
 378:/opt/XMClib/XMC_Peripheral_Library_v2.1.16/ThirdPartyLibraries/USBlib/USB/Core/XMC4000/USBController_XMC4000.c **** 		 USB_DeviceState = DEVICE_STATE_Unattached;
 379:/opt/XMClib/XMC_Peripheral_Library_v2.1.16/ThirdPartyLibraries/USBlib/USB/Core/XMC4000/USBController_XMC4000.c **** 		 device.Driver->EndpointUnconfigure(0);
 380:/opt/XMClib/XMC_Peripheral_Library_v2.1.16/ThirdPartyLibraries/USBlib/USB/Core/XMC4000/USBController_XMC4000.c **** 		 break;
 381:/opt/XMClib/XMC_Peripheral_Library_v2.1.16/ThirdPartyLibraries/USBlib/USB/Core/XMC4000/USBController_XMC4000.c ****     case XMC_USBD_EVENT_POWER_ON:
 382:/opt/XMClib/XMC_Peripheral_Library_v2.1.16/ThirdPartyLibraries/USBlib/USB/Core/XMC4000/USBController_XMC4000.c **** 		 USB_DeviceState = DEVICE_STATE_Powered;
 383:/opt/XMClib/XMC_Peripheral_Library_v2.1.16/ThirdPartyLibraries/USBlib/USB/Core/XMC4000/USBController_XMC4000.c **** 		 memset(&device,0x0,sizeof(USB_Device_t));
 384:/opt/XMClib/XMC_Peripheral_Library_v2.1.16/ThirdPartyLibraries/USBlib/USB/Core/XMC4000/USBController_XMC4000.c **** 		 device.Driver = &Driver_USBD0;
 385:/opt/XMClib/XMC_Peripheral_Library_v2.1.16/ThirdPartyLibraries/USBlib/USB/Core/XMC4000/USBController_XMC4000.c **** 		 device.EP0_State = IDLE;
 386:/opt/XMClib/XMC_Peripheral_Library_v2.1.16/ThirdPartyLibraries/USBlib/USB/Core/XMC4000/USBController_XMC4000.c **** 		 device.Endpoints[0].InBuffer = endpoint0_in_buffer;
 387:/opt/XMClib/XMC_Peripheral_Library_v2.1.16/ThirdPartyLibraries/USBlib/USB/Core/XMC4000/USBController_XMC4000.c **** 		 device.Endpoints[0].InBufferLength = 256;
 388:/opt/XMClib/XMC_Peripheral_Library_v2.1.16/ThirdPartyLibraries/USBlib/USB/Core/XMC4000/USBController_XMC4000.c **** 		 device.Endpoints[0].OutBuffer = endpoint0_out_buffer;
 389:/opt/XMClib/XMC_Peripheral_Library_v2.1.16/ThirdPartyLibraries/USBlib/USB/Core/XMC4000/USBController_XMC4000.c **** 		 device.Endpoints[0].OutBufferLength = 256;
 390:/opt/XMClib/XMC_Peripheral_Library_v2.1.16/ThirdPartyLibraries/USBlib/USB/Core/XMC4000/USBController_XMC4000.c **** 		 device.Endpoints[0].Direction = 0;
 391:/opt/XMClib/XMC_Peripheral_Library_v2.1.16/ThirdPartyLibraries/USBlib/USB/Core/XMC4000/USBController_XMC4000.c **** 		 device.Endpoints[0].IsConfigured = 1;
 392:/opt/XMClib/XMC_Peripheral_Library_v2.1.16/ThirdPartyLibraries/USBlib/USB/Core/XMC4000/USBController_XMC4000.c **** 		 device.Endpoints[0].IsEnabled = 1;
 393:/opt/XMClib/XMC_Peripheral_Library_v2.1.16/ThirdPartyLibraries/USBlib/USB/Core/XMC4000/USBController_XMC4000.c **** 		 device.Endpoints[0].MaxPacketSize = 64;
 394:/opt/XMClib/XMC_Peripheral_Library_v2.1.16/ThirdPartyLibraries/USBlib/USB/Core/XMC4000/USBController_XMC4000.c **** 
 395:/opt/XMClib/XMC_Peripheral_Library_v2.1.16/ThirdPartyLibraries/USBlib/USB/Core/XMC4000/USBController_XMC4000.c **** 		  /* then configure endpoint 0 */
 396:/opt/XMClib/XMC_Peripheral_Library_v2.1.16/ThirdPartyLibraries/USBlib/USB/Core/XMC4000/USBController_XMC4000.c **** 		 device.Driver->EndpointConfigure(0,XMC_USBD_ENDPOINT_TYPE_CONTROL,
 397:/opt/XMClib/XMC_Peripheral_Library_v2.1.16/ThirdPartyLibraries/USBlib/USB/Core/XMC4000/USBController_XMC4000.c **** 					   (uint8_t)XMC_USBD_MAX_PACKET_SIZE);
 398:/opt/XMClib/XMC_Peripheral_Library_v2.1.16/ThirdPartyLibraries/USBlib/USB/Core/XMC4000/USBController_XMC4000.c **** 
 399:/opt/XMClib/XMC_Peripheral_Library_v2.1.16/ThirdPartyLibraries/USBlib/USB/Core/XMC4000/USBController_XMC4000.c **** 		break;
 400:/opt/XMClib/XMC_Peripheral_Library_v2.1.16/ThirdPartyLibraries/USBlib/USB/Core/XMC4000/USBController_XMC4000.c **** 	case XMC_USBD_EVENT_REMOTE_WAKEUP:
 401:/opt/XMClib/XMC_Peripheral_Library_v2.1.16/ThirdPartyLibraries/USBlib/USB/Core/XMC4000/USBController_XMC4000.c **** 		break;
 402:/opt/XMClib/XMC_Peripheral_Library_v2.1.16/ThirdPartyLibraries/USBlib/USB/Core/XMC4000/USBController_XMC4000.c **** 	case XMC_USBD_EVENT_RESUME:
 403:/opt/XMClib/XMC_Peripheral_Library_v2.1.16/ThirdPartyLibraries/USBlib/USB/Core/XMC4000/USBController_XMC4000.c **** 		USB_DeviceState = device.PreSuspendDeviceState;
 404:/opt/XMClib/XMC_Peripheral_Library_v2.1.16/ThirdPartyLibraries/USBlib/USB/Core/XMC4000/USBController_XMC4000.c **** 		EVENT_USB_Device_WakeUp();
 405:/opt/XMClib/XMC_Peripheral_Library_v2.1.16/ThirdPartyLibraries/USBlib/USB/Core/XMC4000/USBController_XMC4000.c **** 		break;
 406:/opt/XMClib/XMC_Peripheral_Library_v2.1.16/ThirdPartyLibraries/USBlib/USB/Core/XMC4000/USBController_XMC4000.c **** 	case XMC_USBD_EVENT_SUSPEND:
 407:/opt/XMClib/XMC_Peripheral_Library_v2.1.16/ThirdPartyLibraries/USBlib/USB/Core/XMC4000/USBController_XMC4000.c **** 		device.PreSuspendDeviceState = USB_DeviceState;
 408:/opt/XMClib/XMC_Peripheral_Library_v2.1.16/ThirdPartyLibraries/USBlib/USB/Core/XMC4000/USBController_XMC4000.c **** 		USB_DeviceState = DEVICE_STATE_Suspended;
 409:/opt/XMClib/XMC_Peripheral_Library_v2.1.16/ThirdPartyLibraries/USBlib/USB/Core/XMC4000/USBController_XMC4000.c **** 		EVENT_USB_Device_Suspend();
 410:/opt/XMClib/XMC_Peripheral_Library_v2.1.16/ThirdPartyLibraries/USBlib/USB/Core/XMC4000/USBController_XMC4000.c **** 		break;
 411:/opt/XMClib/XMC_Peripheral_Library_v2.1.16/ThirdPartyLibraries/USBlib/USB/Core/XMC4000/USBController_XMC4000.c **** 	default:
 412:/opt/XMClib/XMC_Peripheral_Library_v2.1.16/ThirdPartyLibraries/USBlib/USB/Core/XMC4000/USBController_XMC4000.c **** 		return;
 413:/opt/XMClib/XMC_Peripheral_Library_v2.1.16/ThirdPartyLibraries/USBlib/USB/Core/XMC4000/USBController_XMC4000.c **** 	}
 414:/opt/XMClib/XMC_Peripheral_Library_v2.1.16/ThirdPartyLibraries/USBlib/USB/Core/XMC4000/USBController_XMC4000.c **** }
 1004              		.loc 1 414 1 is_stmt 0 view .LVU297
 1005 0018 02B0     		add	sp, sp, #8
 1006              	.LCFI16:
 1007              		.cfi_remember_state
 1008              		.cfi_def_cfa_offset 24
 1009              		@ sp needed
 1010 001a BDE8F041 		pop	{r4, r5, r6, r7, r8, lr}
 1011              	.LCFI17:
 1012              		.cfi_restore 14
 1013              		.cfi_restore 8
 1014              		.cfi_restore 7
 1015              		.cfi_restore 6
 1016              		.cfi_restore 5
 1017              		.cfi_restore 4
 1018              		.cfi_def_cfa_offset 0
 368:/opt/XMClib/XMC_Peripheral_Library_v2.1.16/ThirdPartyLibraries/USBlib/USB/Core/XMC4000/USBController_XMC4000.c **** 		break;
 1019              		.loc 1 368 3 view .LVU298
 1020 001e FFF7FEBF 		b	EVENT_USB_Device_StartOfFrame
 1021              	.LVL48:
 1022              	.L84:
 1023              	.LCFI18:
 1024              		.cfi_restore_state
 1025              		.loc 1 414 1 view .LVU299
 1026 0022 02B0     		add	sp, sp, #8
 1027              	.LCFI19:
 1028              		.cfi_remember_state
 1029              		.cfi_def_cfa_offset 24
 1030              		@ sp needed
 1031 0024 BDE8F081 		pop	{r4, r5, r6, r7, r8, pc}
 1032              	.L94:
 1033              	.LCFI20:
 1034              		.cfi_restore_state
 382:/opt/XMClib/XMC_Peripheral_Library_v2.1.16/ThirdPartyLibraries/USBlib/USB/Core/XMC4000/USBController_XMC4000.c **** 		 memset(&device,0x0,sizeof(USB_Device_t));
 1035              		.loc 1 382 4 is_stmt 1 view .LVU300
 383:/opt/XMClib/XMC_Peripheral_Library_v2.1.16/ThirdPartyLibraries/USBlib/USB/Core/XMC4000/USBController_XMC4000.c **** 		 device.Driver = &Driver_USBD0;
 1036              		.loc 1 383 4 is_stmt 0 view .LVU301
 1037 0028 484B     		ldr	r3, .L106
 382:/opt/XMClib/XMC_Peripheral_Library_v2.1.16/ThirdPartyLibraries/USBlib/USB/Core/XMC4000/USBController_XMC4000.c **** 		 memset(&device,0x0,sizeof(USB_Device_t));
 1038              		.loc 1 382 20 view .LVU302
 1039 002a 4948     		ldr	r0, .L106+4
 1040              	.LVL49:
 382:/opt/XMClib/XMC_Peripheral_Library_v2.1.16/ThirdPartyLibraries/USBlib/USB/Core/XMC4000/USBController_XMC4000.c **** 		 memset(&device,0x0,sizeof(USB_Device_t));
 1041              		.loc 1 382 20 view .LVU303
 1042 002c 0124     		movs	r4, #1
 1043 002e 0470     		strb	r4, [r0]
 383:/opt/XMClib/XMC_Peripheral_Library_v2.1.16/ThirdPartyLibraries/USBlib/USB/Core/XMC4000/USBController_XMC4000.c **** 		 device.Driver = &Driver_USBD0;
 1044              		.loc 1 383 4 is_stmt 1 view .LVU304
 1045 0030 4FF4A072 		mov	r2, #320
 1046 0034 0021     		movs	r1, #0
 1047 0036 1846     		mov	r0, r3
 1048 0038 FFF7FEFF 		bl	memset
 1049              	.LVL50:
 384:/opt/XMClib/XMC_Peripheral_Library_v2.1.16/ThirdPartyLibraries/USBlib/USB/Core/XMC4000/USBController_XMC4000.c **** 		 device.EP0_State = IDLE;
 1050              		.loc 1 384 18 is_stmt 0 view .LVU305
 1051 003c 4549     		ldr	r1, .L106+8
 383:/opt/XMClib/XMC_Peripheral_Library_v2.1.16/ThirdPartyLibraries/USBlib/USB/Core/XMC4000/USBController_XMC4000.c **** 		 device.Driver = &Driver_USBD0;
 1052              		.loc 1 383 4 view .LVU306
 1053 003e 0346     		mov	r3, r0
 384:/opt/XMClib/XMC_Peripheral_Library_v2.1.16/ThirdPartyLibraries/USBlib/USB/Core/XMC4000/USBController_XMC4000.c **** 		 device.EP0_State = IDLE;
 1054              		.loc 1 384 4 is_stmt 1 view .LVU307
 387:/opt/XMClib/XMC_Peripheral_Library_v2.1.16/ThirdPartyLibraries/USBlib/USB/Core/XMC4000/USBController_XMC4000.c **** 		 device.Endpoints[0].OutBuffer = endpoint0_out_buffer;
 1055              		.loc 1 387 39 is_stmt 0 view .LVU308
 1056 0040 4FF48072 		mov	r2, #256
 384:/opt/XMClib/XMC_Peripheral_Library_v2.1.16/ThirdPartyLibraries/USBlib/USB/Core/XMC4000/USBController_XMC4000.c **** 		 device.EP0_State = IDLE;
 1057              		.loc 1 384 18 view .LVU309
 1058 0044 1960     		str	r1, [r3]
 385:/opt/XMClib/XMC_Peripheral_Library_v2.1.16/ThirdPartyLibraries/USBlib/USB/Core/XMC4000/USBController_XMC4000.c **** 		 device.Endpoints[0].InBuffer = endpoint0_in_buffer;
 1059              		.loc 1 385 4 is_stmt 1 view .LVU310
 396:/opt/XMClib/XMC_Peripheral_Library_v2.1.16/ThirdPartyLibraries/USBlib/USB/Core/XMC4000/USBController_XMC4000.c **** 					   (uint8_t)XMC_USBD_MAX_PACKET_SIZE);
 1060              		.loc 1 396 4 is_stmt 0 view .LVU311
 1061 0046 C969     		ldr	r1, [r1, #28]
 1062 0048 0191     		str	r1, [sp, #4]
 1063 004a DDED017A 		vldr.32	s15, [sp, #4]	@ int
 389:/opt/XMClib/XMC_Peripheral_Library_v2.1.16/ThirdPartyLibraries/USBlib/USB/Core/XMC4000/USBController_XMC4000.c **** 		 device.Endpoints[0].Direction = 0;
 1064              		.loc 1 389 40 view .LVU312
 1065 004e 9A61     		str	r2, [r3, #24]
 386:/opt/XMClib/XMC_Peripheral_Library_v2.1.16/ThirdPartyLibraries/USBlib/USB/Core/XMC4000/USBController_XMC4000.c **** 		 device.Endpoints[0].InBufferLength = 256;
 1066              		.loc 1 386 33 view .LVU313
 1067 0050 00F5A070 		add	r0, r0, #320
 387:/opt/XMClib/XMC_Peripheral_Library_v2.1.16/ThirdPartyLibraries/USBlib/USB/Core/XMC4000/USBController_XMC4000.c **** 		 device.Endpoints[0].OutBuffer = endpoint0_out_buffer;
 1068              		.loc 1 387 39 view .LVU314
 1069 0054 C3E90802 		strd	r0, r2, [r3, #32]
 388:/opt/XMClib/XMC_Peripheral_Library_v2.1.16/ThirdPartyLibraries/USBlib/USB/Core/XMC4000/USBController_XMC4000.c **** 		 device.Endpoints[0].OutBufferLength = 256;
 1070              		.loc 1 388 34 view .LVU315
 1071 0058 03F51071 		add	r1, r3, #576
 391:/opt/XMClib/XMC_Peripheral_Library_v2.1.16/ThirdPartyLibraries/USBlib/USB/Core/XMC4000/USBController_XMC4000.c **** 		 device.Endpoints[0].IsEnabled = 1;
 1072              		.loc 1 391 37 view .LVU316
 1073 005c 41F20300 		movw	r0, #4099
 388:/opt/XMClib/XMC_Peripheral_Library_v2.1.16/ThirdPartyLibraries/USBlib/USB/Core/XMC4000/USBController_XMC4000.c **** 		 device.Endpoints[0].OutBufferLength = 256;
 1074              		.loc 1 388 34 view .LVU317
 1075 0060 5961     		str	r1, [r3, #20]
 391:/opt/XMClib/XMC_Peripheral_Library_v2.1.16/ThirdPartyLibraries/USBlib/USB/Core/XMC4000/USBController_XMC4000.c **** 		 device.Endpoints[0].IsEnabled = 1;
 1076              		.loc 1 391 37 view .LVU318
 1077 0062 1881     		strh	r0, [r3, #8]	@ movhi
 385:/opt/XMClib/XMC_Peripheral_Library_v2.1.16/ThirdPartyLibraries/USBlib/USB/Core/XMC4000/USBController_XMC4000.c **** 		 device.Endpoints[0].InBuffer = endpoint0_in_buffer;
 1078              		.loc 1 385 21 view .LVU319
 1079 0064 83F83B41 		strb	r4, [r3, #315]
 386:/opt/XMClib/XMC_Peripheral_Library_v2.1.16/ThirdPartyLibraries/USBlib/USB/Core/XMC4000/USBController_XMC4000.c **** 		 device.Endpoints[0].InBufferLength = 256;
 1080              		.loc 1 386 4 is_stmt 1 view .LVU320
 388:/opt/XMClib/XMC_Peripheral_Library_v2.1.16/ThirdPartyLibraries/USBlib/USB/Core/XMC4000/USBController_XMC4000.c **** 		 device.Endpoints[0].OutBufferLength = 256;
 1081              		.loc 1 388 4 view .LVU321
 389:/opt/XMClib/XMC_Peripheral_Library_v2.1.16/ThirdPartyLibraries/USBlib/USB/Core/XMC4000/USBController_XMC4000.c **** 		 device.Endpoints[0].Direction = 0;
 1082              		.loc 1 389 4 view .LVU322
 390:/opt/XMClib/XMC_Peripheral_Library_v2.1.16/ThirdPartyLibraries/USBlib/USB/Core/XMC4000/USBController_XMC4000.c **** 		 device.Endpoints[0].IsConfigured = 1;
 1083              		.loc 1 390 4 view .LVU323
 391:/opt/XMClib/XMC_Peripheral_Library_v2.1.16/ThirdPartyLibraries/USBlib/USB/Core/XMC4000/USBController_XMC4000.c **** 		 device.Endpoints[0].IsEnabled = 1;
 1084              		.loc 1 391 4 view .LVU324
 392:/opt/XMClib/XMC_Peripheral_Library_v2.1.16/ThirdPartyLibraries/USBlib/USB/Core/XMC4000/USBController_XMC4000.c **** 		 device.Endpoints[0].MaxPacketSize = 64;
 1085              		.loc 1 392 4 view .LVU325
 393:/opt/XMClib/XMC_Peripheral_Library_v2.1.16/ThirdPartyLibraries/USBlib/USB/Core/XMC4000/USBController_XMC4000.c **** 
 1086              		.loc 1 393 4 view .LVU326
 396:/opt/XMClib/XMC_Peripheral_Library_v2.1.16/ThirdPartyLibraries/USBlib/USB/Core/XMC4000/USBController_XMC4000.c **** 					   (uint8_t)XMC_USBD_MAX_PACKET_SIZE);
 1087              		.loc 1 396 4 view .LVU327
 1088 0068 0021     		movs	r1, #0
 1089 006a 17EE903A 		vmov	r3, s15	@ int
 1090 006e 4022     		movs	r2, #64
 1091 0070 0846     		mov	r0, r1
 1092              		.loc 1 414 1 is_stmt 0 view .LVU328
 1093 0072 02B0     		add	sp, sp, #8
 1094              	.LCFI21:
 1095              		.cfi_remember_state
 1096              		.cfi_def_cfa_offset 24
 1097              		@ sp needed
 1098 0074 BDE8F041 		pop	{r4, r5, r6, r7, r8, lr}
 1099              	.LCFI22:
 1100              		.cfi_restore 14
 1101              		.cfi_restore 8
 1102              		.cfi_restore 7
 1103              		.cfi_restore 6
 1104              		.cfi_restore 5
 1105              		.cfi_restore 4
 1106              		.cfi_def_cfa_offset 0
 396:/opt/XMClib/XMC_Peripheral_Library_v2.1.16/ThirdPartyLibraries/USBlib/USB/Core/XMC4000/USBController_XMC4000.c **** 					   (uint8_t)XMC_USBD_MAX_PACKET_SIZE);
 1107              		.loc 1 396 4 view .LVU329
 1108 0078 1847     		bx	r3
 1109              	.LVL51:
 1110              	.L93:
 1111              	.LCFI23:
 1112              		.cfi_restore_state
 378:/opt/XMClib/XMC_Peripheral_Library_v2.1.16/ThirdPartyLibraries/USBlib/USB/Core/XMC4000/USBController_XMC4000.c **** 		 device.Driver->EndpointUnconfigure(0);
 1113              		.loc 1 378 4 is_stmt 1 view .LVU330
 379:/opt/XMClib/XMC_Peripheral_Library_v2.1.16/ThirdPartyLibraries/USBlib/USB/Core/XMC4000/USBController_XMC4000.c **** 		 break;
 1114              		.loc 1 379 10 is_stmt 0 view .LVU331
 1115 007a 344B     		ldr	r3, .L106
 378:/opt/XMClib/XMC_Peripheral_Library_v2.1.16/ThirdPartyLibraries/USBlib/USB/Core/XMC4000/USBController_XMC4000.c **** 		 device.Driver->EndpointUnconfigure(0);
 1116              		.loc 1 378 20 view .LVU332
 1117 007c 344A     		ldr	r2, .L106+4
 379:/opt/XMClib/XMC_Peripheral_Library_v2.1.16/ThirdPartyLibraries/USBlib/USB/Core/XMC4000/USBController_XMC4000.c **** 		 break;
 1118              		.loc 1 379 17 view .LVU333
 1119 007e 1B68     		ldr	r3, [r3]
 379:/opt/XMClib/XMC_Peripheral_Library_v2.1.16/ThirdPartyLibraries/USBlib/USB/Core/XMC4000/USBController_XMC4000.c **** 		 break;
 1120              		.loc 1 379 4 view .LVU334
 1121 0080 1B6A     		ldr	r3, [r3, #32]
 378:/opt/XMClib/XMC_Peripheral_Library_v2.1.16/ThirdPartyLibraries/USBlib/USB/Core/XMC4000/USBController_XMC4000.c **** 		 device.Driver->EndpointUnconfigure(0);
 1122              		.loc 1 378 20 view .LVU335
 1123 0082 0020     		movs	r0, #0
 1124              	.LVL52:
 378:/opt/XMClib/XMC_Peripheral_Library_v2.1.16/ThirdPartyLibraries/USBlib/USB/Core/XMC4000/USBController_XMC4000.c **** 		 device.Driver->EndpointUnconfigure(0);
 1125              		.loc 1 378 20 view .LVU336
 1126 0084 1070     		strb	r0, [r2]
 379:/opt/XMClib/XMC_Peripheral_Library_v2.1.16/ThirdPartyLibraries/USBlib/USB/Core/XMC4000/USBController_XMC4000.c **** 		 break;
 1127              		.loc 1 379 4 is_stmt 1 view .LVU337
 1128              		.loc 1 414 1 is_stmt 0 view .LVU338
 1129 0086 02B0     		add	sp, sp, #8
 1130              	.LCFI24:
 1131              		.cfi_remember_state
 1132              		.cfi_def_cfa_offset 24
 1133              		@ sp needed
 1134 0088 BDE8F041 		pop	{r4, r5, r6, r7, r8, lr}
 1135              	.LCFI25:
 1136              		.cfi_restore 14
 1137              		.cfi_restore 8
 1138              		.cfi_restore 7
 1139              		.cfi_restore 6
 1140              		.cfi_restore 5
 1141              		.cfi_restore 4
 1142              		.cfi_def_cfa_offset 0
 379:/opt/XMClib/XMC_Peripheral_Library_v2.1.16/ThirdPartyLibraries/USBlib/USB/Core/XMC4000/USBController_XMC4000.c **** 		 break;
 1143              		.loc 1 379 4 view .LVU339
 1144 008c 1847     		bx	r3
 1145              	.LVL53:
 1146              	.L92:
 1147              	.LCFI26:
 1148              		.cfi_restore_state
 371:/opt/XMClib/XMC_Peripheral_Library_v2.1.16/ThirdPartyLibraries/USBlib/USB/Core/XMC4000/USBController_XMC4000.c **** 		break;
 1149              		.loc 1 371 3 is_stmt 1 view .LVU340
 1150              		.loc 1 414 1 is_stmt 0 view .LVU341
 1151 008e 02B0     		add	sp, sp, #8
 1152              	.LCFI27:
 1153              		.cfi_remember_state
 1154              		.cfi_def_cfa_offset 24
 1155              		@ sp needed
 1156 0090 BDE8F041 		pop	{r4, r5, r6, r7, r8, lr}
 1157              	.LCFI28:
 1158              		.cfi_restore 14
 1159              		.cfi_restore 8
 1160              		.cfi_restore 7
 1161              		.cfi_restore 6
 1162              		.cfi_restore 5
 1163              		.cfi_restore 4
 1164              		.cfi_def_cfa_offset 0
 371:/opt/XMClib/XMC_Peripheral_Library_v2.1.16/ThirdPartyLibraries/USBlib/USB/Core/XMC4000/USBController_XMC4000.c **** 		break;
 1165              		.loc 1 371 3 view .LVU342
 1166 0094 FFF7FEBF 		b	EVENT_USB_Device_Connect
 1167              	.LVL54:
 1168              	.L91:
 1169              	.LCFI29:
 1170              		.cfi_restore_state
 374:/opt/XMClib/XMC_Peripheral_Library_v2.1.16/ThirdPartyLibraries/USBlib/USB/Core/XMC4000/USBController_XMC4000.c **** 		EVENT_USB_Device_Disconnect();
 1171              		.loc 1 374 3 is_stmt 1 view .LVU343
 374:/opt/XMClib/XMC_Peripheral_Library_v2.1.16/ThirdPartyLibraries/USBlib/USB/Core/XMC4000/USBController_XMC4000.c **** 		EVENT_USB_Device_Disconnect();
 1172              		.loc 1 374 19 is_stmt 0 view .LVU344
 1173 0098 2D4B     		ldr	r3, .L106+4
 1174 009a 0122     		movs	r2, #1
 1175 009c 1A70     		strb	r2, [r3]
 375:/opt/XMClib/XMC_Peripheral_Library_v2.1.16/ThirdPartyLibraries/USBlib/USB/Core/XMC4000/USBController_XMC4000.c **** 		break;
 1176              		.loc 1 375 3 is_stmt 1 view .LVU345
 1177              		.loc 1 414 1 is_stmt 0 view .LVU346
 1178 009e 02B0     		add	sp, sp, #8
 1179              	.LCFI30:
 1180              		.cfi_remember_state
 1181              		.cfi_def_cfa_offset 24
 1182              		@ sp needed
 1183 00a0 BDE8F041 		pop	{r4, r5, r6, r7, r8, lr}
 1184              	.LCFI31:
 1185              		.cfi_restore 14
 1186              		.cfi_restore 8
 1187              		.cfi_restore 7
 1188              		.cfi_restore 6
 1189              		.cfi_restore 5
 1190              		.cfi_restore 4
 1191              		.cfi_def_cfa_offset 0
 375:/opt/XMClib/XMC_Peripheral_Library_v2.1.16/ThirdPartyLibraries/USBlib/USB/Core/XMC4000/USBController_XMC4000.c **** 		break;
 1192              		.loc 1 375 3 view .LVU347
 1193 00a4 FFF7FEBF 		b	EVENT_USB_Device_Disconnect
 1194              	.LVL55:
 1195              	.L90:
 1196              	.LCFI32:
 1197              		.cfi_restore_state
 347:/opt/XMClib/XMC_Peripheral_Library_v2.1.16/ThirdPartyLibraries/USBlib/USB/Core/XMC4000/USBController_XMC4000.c **** 		device.EP0_State = IDLE;
 1198              		.loc 1 347 3 is_stmt 1 view .LVU348
 348:/opt/XMClib/XMC_Peripheral_Library_v2.1.16/ThirdPartyLibraries/USBlib/USB/Core/XMC4000/USBController_XMC4000.c **** 		device.RemoteWakeUp = 0;
 1199              		.loc 1 348 20 is_stmt 0 view .LVU349
 1200 00a8 284F     		ldr	r7, .L106
 347:/opt/XMClib/XMC_Peripheral_Library_v2.1.16/ThirdPartyLibraries/USBlib/USB/Core/XMC4000/USBController_XMC4000.c **** 		device.EP0_State = IDLE;
 1201              		.loc 1 347 19 view .LVU350
 1202 00aa 294A     		ldr	r2, .L106+4
 349:/opt/XMClib/XMC_Peripheral_Library_v2.1.16/ThirdPartyLibraries/USBlib/USB/Core/XMC4000/USBController_XMC4000.c **** 		/* Reset endpoints and configuration */
 1203              		.loc 1 349 23 view .LVU351
 1204 00ac 97F83E31 		ldrb	r3, [r7, #318]	@ zero_extendqisi2
 348:/opt/XMClib/XMC_Peripheral_Library_v2.1.16/ThirdPartyLibraries/USBlib/USB/Core/XMC4000/USBController_XMC4000.c **** 		device.RemoteWakeUp = 0;
 1205              		.loc 1 348 20 view .LVU352
 1206 00b0 0126     		movs	r6, #1
 347:/opt/XMClib/XMC_Peripheral_Library_v2.1.16/ThirdPartyLibraries/USBlib/USB/Core/XMC4000/USBController_XMC4000.c **** 		device.EP0_State = IDLE;
 1207              		.loc 1 347 19 view .LVU353
 1208 00b2 0221     		movs	r1, #2
 349:/opt/XMClib/XMC_Peripheral_Library_v2.1.16/ThirdPartyLibraries/USBlib/USB/Core/XMC4000/USBController_XMC4000.c **** 		/* Reset endpoints and configuration */
 1209              		.loc 1 349 23 view .LVU354
 1210 00b4 6FF38203 		bfc	r3, #2, #1
 347:/opt/XMClib/XMC_Peripheral_Library_v2.1.16/ThirdPartyLibraries/USBlib/USB/Core/XMC4000/USBController_XMC4000.c **** 		device.EP0_State = IDLE;
 1211              		.loc 1 347 19 view .LVU355
 1212 00b8 1170     		strb	r1, [r2]
 348:/opt/XMClib/XMC_Peripheral_Library_v2.1.16/ThirdPartyLibraries/USBlib/USB/Core/XMC4000/USBController_XMC4000.c **** 		device.RemoteWakeUp = 0;
 1213              		.loc 1 348 3 is_stmt 1 view .LVU356
 348:/opt/XMClib/XMC_Peripheral_Library_v2.1.16/ThirdPartyLibraries/USBlib/USB/Core/XMC4000/USBController_XMC4000.c **** 		device.RemoteWakeUp = 0;
 1214              		.loc 1 348 20 is_stmt 0 view .LVU357
 1215 00ba 87F83B61 		strb	r6, [r7, #315]
 349:/opt/XMClib/XMC_Peripheral_Library_v2.1.16/ThirdPartyLibraries/USBlib/USB/Core/XMC4000/USBController_XMC4000.c **** 		/* Reset endpoints and configuration */
 1216              		.loc 1 349 3 is_stmt 1 view .LVU358
 349:/opt/XMClib/XMC_Peripheral_Library_v2.1.16/ThirdPartyLibraries/USBlib/USB/Core/XMC4000/USBController_XMC4000.c **** 		/* Reset endpoints and configuration */
 1217              		.loc 1 349 23 is_stmt 0 view .LVU359
 1218 00be 87F83E31 		strb	r3, [r7, #318]
 351:/opt/XMClib/XMC_Peripheral_Library_v2.1.16/ThirdPartyLibraries/USBlib/USB/Core/XMC4000/USBController_XMC4000.c **** 			device.Endpoints[i].InInUse = 0;
 1219              		.loc 1 351 3 is_stmt 1 view .LVU360
 1220              	.LVL56:
 351:/opt/XMClib/XMC_Peripheral_Library_v2.1.16/ThirdPartyLibraries/USBlib/USB/Core/XMC4000/USBController_XMC4000.c **** 			device.Endpoints[i].InInUse = 0;
 1221              		.loc 1 351 12 view .LVU361
 349:/opt/XMClib/XMC_Peripheral_Library_v2.1.16/ThirdPartyLibraries/USBlib/USB/Core/XMC4000/USBController_XMC4000.c **** 		/* Reset endpoints and configuration */
 1222              		.loc 1 349 23 is_stmt 0 view .LVU362
 1223 00c2 0025     		movs	r5, #0
 352:/opt/XMClib/XMC_Peripheral_Library_v2.1.16/ThirdPartyLibraries/USBlib/USB/Core/XMC4000/USBController_XMC4000.c **** 			device.Endpoints[i].OutInUse = 0;
 1224              		.loc 1 352 32 view .LVU363
 1225 00c4 4FF02C08 		mov	r8, #44
 1226 00c8 01E0     		b	.L98
 1227              	.LVL57:
 1228              	.L95:
 352:/opt/XMClib/XMC_Peripheral_Library_v2.1.16/ThirdPartyLibraries/USBlib/USB/Core/XMC4000/USBController_XMC4000.c **** 			device.Endpoints[i].OutInUse = 0;
 1229              		.loc 1 352 32 view .LVU364
 1230 00ca 0135     		adds	r5, r5, #1
 1231 00cc 0136     		adds	r6, r6, #1
 1232              	.L98:
 1233              	.LVL58:
 352:/opt/XMClib/XMC_Peripheral_Library_v2.1.16/ThirdPartyLibraries/USBlib/USB/Core/XMC4000/USBController_XMC4000.c **** 			device.Endpoints[i].OutInUse = 0;
 1234              		.loc 1 352 4 is_stmt 1 view .LVU365
 352:/opt/XMClib/XMC_Peripheral_Library_v2.1.16/ThirdPartyLibraries/USBlib/USB/Core/XMC4000/USBController_XMC4000.c **** 			device.Endpoints[i].OutInUse = 0;
 1235              		.loc 1 352 32 is_stmt 0 view .LVU366
 1236 00ce 08FB0574 		mla	r4, r8, r5, r7
 1237 00d2 2389     		ldrh	r3, [r4, #8]
 1238 00d4 6FF30413 		bfc	r3, #4, #1
 1239 00d8 2381     		strh	r3, [r4, #8]	@ movhi
 353:/opt/XMClib/XMC_Peripheral_Library_v2.1.16/ThirdPartyLibraries/USBlib/USB/Core/XMC4000/USBController_XMC4000.c **** 			device.Endpoints[i].IsHalted = 0;
 1240              		.loc 1 353 4 is_stmt 1 view .LVU367
 353:/opt/XMClib/XMC_Peripheral_Library_v2.1.16/ThirdPartyLibraries/USBlib/USB/Core/XMC4000/USBController_XMC4000.c **** 			device.Endpoints[i].IsHalted = 0;
 1241              		.loc 1 353 33 is_stmt 0 view .LVU368
 1242 00da 2389     		ldrh	r3, [r4, #8]
 1243 00dc 6FF3C303 		bfc	r3, #3, #1
 1244 00e0 2381     		strh	r3, [r4, #8]	@ movhi
 354:/opt/XMClib/XMC_Peripheral_Library_v2.1.16/ThirdPartyLibraries/USBlib/USB/Core/XMC4000/USBController_XMC4000.c **** 			if (i!=0 && device.Endpoints[i].IsConfigured) {
 1245              		.loc 1 354 4 is_stmt 1 view .LVU369
 354:/opt/XMClib/XMC_Peripheral_Library_v2.1.16/ThirdPartyLibraries/USBlib/USB/Core/XMC4000/USBController_XMC4000.c **** 			if (i!=0 && device.Endpoints[i].IsConfigured) {
 1246              		.loc 1 354 33 is_stmt 0 view .LVU370
 1247 00e2 237A     		ldrb	r3, [r4, #8]	@ zero_extendqisi2
 1248 00e4 6FF38203 		bfc	r3, #2, #1
 1249 00e8 2372     		strb	r3, [r4, #8]
 355:/opt/XMClib/XMC_Peripheral_Library_v2.1.16/ThirdPartyLibraries/USBlib/USB/Core/XMC4000/USBController_XMC4000.c **** 				device.Driver->EndpointUnconfigure(device.Endpoints[i].Address);
 1250              		.loc 1 355 4 is_stmt 1 view .LVU371
 355:/opt/XMClib/XMC_Peripheral_Library_v2.1.16/ThirdPartyLibraries/USBlib/USB/Core/XMC4000/USBController_XMC4000.c **** 				device.Driver->EndpointUnconfigure(device.Endpoints[i].Address);
 1251              		.loc 1 355 7 is_stmt 0 view .LVU372
 1252 00ea 002D     		cmp	r5, #0
 1253 00ec EDD0     		beq	.L95
 356:/opt/XMClib/XMC_Peripheral_Library_v2.1.16/ThirdPartyLibraries/USBlib/USB/Core/XMC4000/USBController_XMC4000.c **** 				device.Endpoints[i].IsConfigured = 0;
 1254              		.loc 1 356 5 is_stmt 1 discriminator 1 view .LVU373
 355:/opt/XMClib/XMC_Peripheral_Library_v2.1.16/ThirdPartyLibraries/USBlib/USB/Core/XMC4000/USBController_XMC4000.c **** 				device.Driver->EndpointUnconfigure(device.Endpoints[i].Address);
 1255              		.loc 1 355 35 is_stmt 0 discriminator 1 view .LVU374
 1256 00ee DBB2     		uxtb	r3, r3
 355:/opt/XMClib/XMC_Peripheral_Library_v2.1.16/ThirdPartyLibraries/USBlib/USB/Core/XMC4000/USBController_XMC4000.c **** 				device.Driver->EndpointUnconfigure(device.Endpoints[i].Address);
 1257              		.loc 1 355 13 discriminator 1 view .LVU375
 1258 00f0 DB07     		lsls	r3, r3, #31
 1259 00f2 07D5     		bpl	.L96
 356:/opt/XMClib/XMC_Peripheral_Library_v2.1.16/ThirdPartyLibraries/USBlib/USB/Core/XMC4000/USBController_XMC4000.c **** 				device.Endpoints[i].IsConfigured = 0;
 1260              		.loc 1 356 18 view .LVU376
 1261 00f4 3B68     		ldr	r3, [r7]
 356:/opt/XMClib/XMC_Peripheral_Library_v2.1.16/ThirdPartyLibraries/USBlib/USB/Core/XMC4000/USBController_XMC4000.c **** 				device.Endpoints[i].IsConfigured = 0;
 1262              		.loc 1 356 5 view .LVU377
 1263 00f6 2079     		ldrb	r0, [r4, #4]	@ zero_extendqisi2
 1264 00f8 1B6A     		ldr	r3, [r3, #32]
 1265 00fa 9847     		blx	r3
 1266              	.LVL59:
 357:/opt/XMClib/XMC_Peripheral_Library_v2.1.16/ThirdPartyLibraries/USBlib/USB/Core/XMC4000/USBController_XMC4000.c **** 				device.Endpoints[i].IsEnabled = 0;
 1267              		.loc 1 357 5 is_stmt 1 view .LVU378
 358:/opt/XMClib/XMC_Peripheral_Library_v2.1.16/ThirdPartyLibraries/USBlib/USB/Core/XMC4000/USBController_XMC4000.c **** 			}
 1268              		.loc 1 358 5 view .LVU379
 357:/opt/XMClib/XMC_Peripheral_Library_v2.1.16/ThirdPartyLibraries/USBlib/USB/Core/XMC4000/USBController_XMC4000.c **** 				device.Endpoints[i].IsEnabled = 0;
 1269              		.loc 1 357 38 is_stmt 0 view .LVU380
 1270 00fc 237A     		ldrb	r3, [r4, #8]	@ zero_extendqisi2
 1271 00fe 23F00303 		bic	r3, r3, #3
 1272 0102 2372     		strb	r3, [r4, #8]
 1273              	.L96:
 351:/opt/XMClib/XMC_Peripheral_Library_v2.1.16/ThirdPartyLibraries/USBlib/USB/Core/XMC4000/USBController_XMC4000.c **** 			device.Endpoints[i].InInUse = 0;
 1274              		.loc 1 351 41 is_stmt 1 discriminator 2 view .LVU381
 1275              	.LVL60:
 351:/opt/XMClib/XMC_Peripheral_Library_v2.1.16/ThirdPartyLibraries/USBlib/USB/Core/XMC4000/USBController_XMC4000.c **** 			device.Endpoints[i].InInUse = 0;
 1276              		.loc 1 351 12 discriminator 2 view .LVU382
 351:/opt/XMClib/XMC_Peripheral_Library_v2.1.16/ThirdPartyLibraries/USBlib/USB/Core/XMC4000/USBController_XMC4000.c **** 			device.Endpoints[i].InInUse = 0;
 1277              		.loc 1 351 3 is_stmt 0 discriminator 2 view .LVU383
 1278 0104 072E     		cmp	r6, #7
 1279 0106 E0D1     		bne	.L95
 361:/opt/XMClib/XMC_Peripheral_Library_v2.1.16/ThirdPartyLibraries/USBlib/USB/Core/XMC4000/USBController_XMC4000.c **** 		for (i=0;i<NUM_INTERFACES;i++) {
 1280              		.loc 1 361 3 is_stmt 1 view .LVU384
 362:/opt/XMClib/XMC_Peripheral_Library_v2.1.16/ThirdPartyLibraries/USBlib/USB/Core/XMC4000/USBController_XMC4000.c **** 			device.InterfaceSettings[i] = 0;
 1281              		.loc 1 362 3 view .LVU385
 1282              	.LVL61:
 362:/opt/XMClib/XMC_Peripheral_Library_v2.1.16/ThirdPartyLibraries/USBlib/USB/Core/XMC4000/USBController_XMC4000.c **** 			device.InterfaceSettings[i] = 0;
 1283              		.loc 1 362 12 view .LVU386
 363:/opt/XMClib/XMC_Peripheral_Library_v2.1.16/ThirdPartyLibraries/USBlib/USB/Core/XMC4000/USBController_XMC4000.c **** 		}
 1284              		.loc 1 363 4 view .LVU387
 365:/opt/XMClib/XMC_Peripheral_Library_v2.1.16/ThirdPartyLibraries/USBlib/USB/Core/XMC4000/USBController_XMC4000.c **** 		break;
 1285              		.loc 1 365 16 is_stmt 0 view .LVU388
 1286 0108 3B68     		ldr	r3, [r7]
 365:/opt/XMClib/XMC_Peripheral_Library_v2.1.16/ThirdPartyLibraries/USBlib/USB/Core/XMC4000/USBController_XMC4000.c **** 		break;
 1287              		.loc 1 365 3 view .LVU389
 1288 010a 3879     		ldrb	r0, [r7, #4]	@ zero_extendqisi2
 363:/opt/XMClib/XMC_Peripheral_Library_v2.1.16/ThirdPartyLibraries/USBlib/USB/Core/XMC4000/USBController_XMC4000.c **** 		}
 1289              		.loc 1 363 32 view .LVU390
 1290 010c 0022     		movs	r2, #0
 1291 010e A7F83821 		strh	r2, [r7, #312]	@ movhi
 362:/opt/XMClib/XMC_Peripheral_Library_v2.1.16/ThirdPartyLibraries/USBlib/USB/Core/XMC4000/USBController_XMC4000.c **** 			device.InterfaceSettings[i] = 0;
 1292              		.loc 1 362 29 is_stmt 1 view .LVU391
 1293              	.LVL62:
 362:/opt/XMClib/XMC_Peripheral_Library_v2.1.16/ThirdPartyLibraries/USBlib/USB/Core/XMC4000/USBController_XMC4000.c **** 			device.InterfaceSettings[i] = 0;
 1294              		.loc 1 362 12 view .LVU392
 365:/opt/XMClib/XMC_Peripheral_Library_v2.1.16/ThirdPartyLibraries/USBlib/USB/Core/XMC4000/USBController_XMC4000.c **** 		break;
 1295              		.loc 1 365 3 view .LVU393
 1296 0112 9B6A     		ldr	r3, [r3, #40]
 1297 0114 1821     		movs	r1, #24
 1298              		.loc 1 414 1 is_stmt 0 view .LVU394
 1299 0116 02B0     		add	sp, sp, #8
 1300              	.LCFI33:
 1301              		.cfi_remember_state
 1302              		.cfi_def_cfa_offset 24
 1303              		@ sp needed
 1304 0118 BDE8F041 		pop	{r4, r5, r6, r7, r8, lr}
 1305              	.LCFI34:
 1306              		.cfi_restore 14
 1307              		.cfi_restore 8
 1308              		.cfi_restore 7
 1309              		.cfi_restore 6
 1310              		.cfi_restore 5
 1311              		.cfi_restore 4
 1312              		.cfi_def_cfa_offset 0
 365:/opt/XMClib/XMC_Peripheral_Library_v2.1.16/ThirdPartyLibraries/USBlib/USB/Core/XMC4000/USBController_XMC4000.c **** 		break;
 1313              		.loc 1 365 3 view .LVU395
 1314 011c 1847     		bx	r3
 1315              	.LVL63:
 1316              	.L89:
 1317              	.LCFI35:
 1318              		.cfi_restore_state
 407:/opt/XMClib/XMC_Peripheral_Library_v2.1.16/ThirdPartyLibraries/USBlib/USB/Core/XMC4000/USBController_XMC4000.c **** 		USB_DeviceState = DEVICE_STATE_Suspended;
 1319              		.loc 1 407 3 is_stmt 1 view .LVU396
 407:/opt/XMClib/XMC_Peripheral_Library_v2.1.16/ThirdPartyLibraries/USBlib/USB/Core/XMC4000/USBController_XMC4000.c **** 		USB_DeviceState = DEVICE_STATE_Suspended;
 1320              		.loc 1 407 32 is_stmt 0 view .LVU397
 1321 011e 0C4B     		ldr	r3, .L106+4
 1322 0120 0A49     		ldr	r1, .L106
 1323 0122 1878     		ldrb	r0, [r3]	@ zero_extendqisi2
 1324              	.LVL64:
 407:/opt/XMClib/XMC_Peripheral_Library_v2.1.16/ThirdPartyLibraries/USBlib/USB/Core/XMC4000/USBController_XMC4000.c **** 		USB_DeviceState = DEVICE_STATE_Suspended;
 1325              		.loc 1 407 32 view .LVU398
 1326 0124 81F83A01 		strb	r0, [r1, #314]
 408:/opt/XMClib/XMC_Peripheral_Library_v2.1.16/ThirdPartyLibraries/USBlib/USB/Core/XMC4000/USBController_XMC4000.c **** 		EVENT_USB_Device_Suspend();
 1327              		.loc 1 408 3 is_stmt 1 view .LVU399
 408:/opt/XMClib/XMC_Peripheral_Library_v2.1.16/ThirdPartyLibraries/USBlib/USB/Core/XMC4000/USBController_XMC4000.c **** 		EVENT_USB_Device_Suspend();
 1328              		.loc 1 408 19 is_stmt 0 view .LVU400
 1329 0128 0522     		movs	r2, #5
 1330 012a 1A70     		strb	r2, [r3]
 409:/opt/XMClib/XMC_Peripheral_Library_v2.1.16/ThirdPartyLibraries/USBlib/USB/Core/XMC4000/USBController_XMC4000.c **** 		break;
 1331              		.loc 1 409 3 is_stmt 1 view .LVU401
 1332              		.loc 1 414 1 is_stmt 0 view .LVU402
 1333 012c 02B0     		add	sp, sp, #8
 1334              	.LCFI36:
 1335              		.cfi_remember_state
 1336              		.cfi_def_cfa_offset 24
 1337              		@ sp needed
 1338 012e BDE8F041 		pop	{r4, r5, r6, r7, r8, lr}
 1339              	.LCFI37:
 1340              		.cfi_restore 14
 1341              		.cfi_restore 8
 1342              		.cfi_restore 7
 1343              		.cfi_restore 6
 1344              		.cfi_restore 5
 1345              		.cfi_restore 4
 1346              		.cfi_def_cfa_offset 0
 409:/opt/XMClib/XMC_Peripheral_Library_v2.1.16/ThirdPartyLibraries/USBlib/USB/Core/XMC4000/USBController_XMC4000.c **** 		break;
 1347              		.loc 1 409 3 view .LVU403
 1348 0132 FFF7FEBF 		b	EVENT_USB_Device_Suspend
 1349              	.LVL65:
 1350              	.L88:
 1351              	.LCFI38:
 1352              		.cfi_restore_state
 403:/opt/XMClib/XMC_Peripheral_Library_v2.1.16/ThirdPartyLibraries/USBlib/USB/Core/XMC4000/USBController_XMC4000.c **** 		EVENT_USB_Device_WakeUp();
 1353              		.loc 1 403 3 is_stmt 1 view .LVU404
 403:/opt/XMClib/XMC_Peripheral_Library_v2.1.16/ThirdPartyLibraries/USBlib/USB/Core/XMC4000/USBController_XMC4000.c **** 		EVENT_USB_Device_WakeUp();
 1354              		.loc 1 403 27 is_stmt 0 view .LVU405
 1355 0136 054A     		ldr	r2, .L106
 403:/opt/XMClib/XMC_Peripheral_Library_v2.1.16/ThirdPartyLibraries/USBlib/USB/Core/XMC4000/USBController_XMC4000.c **** 		EVENT_USB_Device_WakeUp();
 1356              		.loc 1 403 19 view .LVU406
 1357 0138 054B     		ldr	r3, .L106+4
 403:/opt/XMClib/XMC_Peripheral_Library_v2.1.16/ThirdPartyLibraries/USBlib/USB/Core/XMC4000/USBController_XMC4000.c **** 		EVENT_USB_Device_WakeUp();
 1358              		.loc 1 403 27 view .LVU407
 1359 013a 92F83A21 		ldrb	r2, [r2, #314]	@ zero_extendqisi2
 403:/opt/XMClib/XMC_Peripheral_Library_v2.1.16/ThirdPartyLibraries/USBlib/USB/Core/XMC4000/USBController_XMC4000.c **** 		EVENT_USB_Device_WakeUp();
 1360              		.loc 1 403 19 view .LVU408
 1361 013e 1A70     		strb	r2, [r3]
 404:/opt/XMClib/XMC_Peripheral_Library_v2.1.16/ThirdPartyLibraries/USBlib/USB/Core/XMC4000/USBController_XMC4000.c **** 		break;
 1362              		.loc 1 404 3 is_stmt 1 view .LVU409
 1363              		.loc 1 414 1 is_stmt 0 view .LVU410
 1364 0140 02B0     		add	sp, sp, #8
 1365              	.LCFI39:
 1366              		.cfi_def_cfa_offset 24
 1367              		@ sp needed
 1368 0142 BDE8F041 		pop	{r4, r5, r6, r7, r8, lr}
 1369              	.LCFI40:
 1370              		.cfi_restore 14
 1371              		.cfi_restore 8
 1372              		.cfi_restore 7
 1373              		.cfi_restore 6
 1374              		.cfi_restore 5
 1375              		.cfi_restore 4
 1376              		.cfi_def_cfa_offset 0
 404:/opt/XMClib/XMC_Peripheral_Library_v2.1.16/ThirdPartyLibraries/USBlib/USB/Core/XMC4000/USBController_XMC4000.c **** 		break;
 1377              		.loc 1 404 3 view .LVU411
 1378 0146 FFF7FEBF 		b	EVENT_USB_Device_WakeUp
 1379              	.LVL66:
 1380              	.L107:
 404:/opt/XMClib/XMC_Peripheral_Library_v2.1.16/ThirdPartyLibraries/USBlib/USB/Core/XMC4000/USBController_XMC4000.c **** 		break;
 1381              		.loc 1 404 3 view .LVU412
 1382 014a 00BF     		.align	2
 1383              	.L106:
 1384 014c 00000000 		.word	.LANCHOR0
 1385 0150 00000000 		.word	USB_DeviceState
 1386 0154 00000000 		.word	Driver_USBD0
 1387              		.cfi_endproc
 1388              	.LFE193:
 1390              		.section	.text.USBD_SignalEndpointEvent_Handler,"ax",%progbits
 1391              		.align	1
 1392              		.p2align 2,,3
 1393              		.global	USBD_SignalEndpointEvent_Handler
 1394              		.syntax unified
 1395              		.thumb
 1396              		.thumb_func
 1398              	USBD_SignalEndpointEvent_Handler:
 1399              	.LVL67:
 1400              	.LFB194:
 415:/opt/XMClib/XMC_Peripheral_Library_v2.1.16/ThirdPartyLibraries/USBlib/USB/Core/XMC4000/USBController_XMC4000.c **** 
 416:/opt/XMClib/XMC_Peripheral_Library_v2.1.16/ThirdPartyLibraries/USBlib/USB/Core/XMC4000/USBController_XMC4000.c **** /**
 417:/opt/XMClib/XMC_Peripheral_Library_v2.1.16/ThirdPartyLibraries/USBlib/USB/Core/XMC4000/USBController_XMC4000.c ****  * \brief Endpoint event handler for the XMC driver
 418:/opt/XMClib/XMC_Peripheral_Library_v2.1.16/ThirdPartyLibraries/USBlib/USB/Core/XMC4000/USBController_XMC4000.c ****  *
 419:/opt/XMClib/XMC_Peripheral_Library_v2.1.16/ThirdPartyLibraries/USBlib/USB/Core/XMC4000/USBController_XMC4000.c ****  * If the driver detects an event (See \ref USB_USBD_EP_EVENT) for a specified endpoint it
 420:/opt/XMClib/XMC_Peripheral_Library_v2.1.16/ThirdPartyLibraries/USBlib/USB/Core/XMC4000/USBController_XMC4000.c ****  * calls this function. Based on the event some further action is taken, e.g. process control
 421:/opt/XMClib/XMC_Peripheral_Library_v2.1.16/ThirdPartyLibraries/USBlib/USB/Core/XMC4000/USBController_XMC4000.c ****  * request or update transfer information and read data from the driver into the core buffer.
 422:/opt/XMClib/XMC_Peripheral_Library_v2.1.16/ThirdPartyLibraries/USBlib/USB/Core/XMC4000/USBController_XMC4000.c ****  *
 423:/opt/XMClib/XMC_Peripheral_Library_v2.1.16/ThirdPartyLibraries/USBlib/USB/Core/XMC4000/USBController_XMC4000.c ****  * \param[in] ep_addr Endpoint address
 424:/opt/XMClib/XMC_Peripheral_Library_v2.1.16/ThirdPartyLibraries/USBlib/USB/Core/XMC4000/USBController_XMC4000.c ****  * \param[in] ep_event Endpoint event type
 425:/opt/XMClib/XMC_Peripheral_Library_v2.1.16/ThirdPartyLibraries/USBlib/USB/Core/XMC4000/USBController_XMC4000.c ****  *
 426:/opt/XMClib/XMC_Peripheral_Library_v2.1.16/ThirdPartyLibraries/USBlib/USB/Core/XMC4000/USBController_XMC4000.c ****  */
 427:/opt/XMClib/XMC_Peripheral_Library_v2.1.16/ThirdPartyLibraries/USBlib/USB/Core/XMC4000/USBController_XMC4000.c **** void USBD_SignalEndpointEvent_Handler (uint8_t ep_addr, XMC_USBD_EP_EVENT_t ep_event) {
 1401              		.loc 1 427 87 is_stmt 1 view -0
 1402              		.cfi_startproc
 1403              		@ args = 0, pretend = 0, frame = 0
 1404              		@ frame_needed = 0, uses_anonymous_args = 0
 428:/opt/XMClib/XMC_Peripheral_Library_v2.1.16/ThirdPartyLibraries/USBlib/USB/Core/XMC4000/USBController_XMC4000.c **** 	USBD_Endpoint_t *ep =  &device.Endpoints[ep_addr & ENDPOINT_EPNUM_MASK];
 1405              		.loc 1 428 2 view .LVU414
 427:/opt/XMClib/XMC_Peripheral_Library_v2.1.16/ThirdPartyLibraries/USBlib/USB/Core/XMC4000/USBController_XMC4000.c **** 	USBD_Endpoint_t *ep =  &device.Endpoints[ep_addr & ENDPOINT_EPNUM_MASK];
 1406              		.loc 1 427 87 is_stmt 0 view .LVU415
 1407 0000 F8B5     		push	{r3, r4, r5, r6, r7, lr}
 1408              	.LCFI41:
 1409              		.cfi_def_cfa_offset 24
 1410              		.cfi_offset 3, -24
 1411              		.cfi_offset 4, -20
 1412              		.cfi_offset 5, -16
 1413              		.cfi_offset 6, -12
 1414              		.cfi_offset 7, -8
 1415              		.cfi_offset 14, -4
 429:/opt/XMClib/XMC_Peripheral_Library_v2.1.16/ThirdPartyLibraries/USBlib/USB/Core/XMC4000/USBController_XMC4000.c **** 	uint8_t temp_num,temp_dir;
 430:/opt/XMClib/XMC_Peripheral_Library_v2.1.16/ThirdPartyLibraries/USBlib/USB/Core/XMC4000/USBController_XMC4000.c **** 	int32_t data_count;
 431:/opt/XMClib/XMC_Peripheral_Library_v2.1.16/ThirdPartyLibraries/USBlib/USB/Core/XMC4000/USBController_XMC4000.c **** 	/* store CurrentEndpoint and direction for restore after handling */
 432:/opt/XMClib/XMC_Peripheral_Library_v2.1.16/ThirdPartyLibraries/USBlib/USB/Core/XMC4000/USBController_XMC4000.c **** 	temp_num = device.CurrentEndpoint;
 1416              		.loc 1 432 11 view .LVU416
 1417 0002 3A4C     		ldr	r4, .L124
 1418 0004 00F00F03 		and	r3, r0, #15
 433:/opt/XMClib/XMC_Peripheral_Library_v2.1.16/ThirdPartyLibraries/USBlib/USB/Core/XMC4000/USBController_XMC4000.c **** 	temp_dir = device.CurrentDirection;
 434:/opt/XMClib/XMC_Peripheral_Library_v2.1.16/ThirdPartyLibraries/USBlib/USB/Core/XMC4000/USBController_XMC4000.c **** 	/* select the given endpoint */
 435:/opt/XMClib/XMC_Peripheral_Library_v2.1.16/ThirdPartyLibraries/USBlib/USB/Core/XMC4000/USBController_XMC4000.c **** 	device.CurrentEndpoint = ep_addr & ENDPOINT_EPNUM_MASK;
 436:/opt/XMClib/XMC_Peripheral_Library_v2.1.16/ThirdPartyLibraries/USBlib/USB/Core/XMC4000/USBController_XMC4000.c **** 	device.CurrentDirection = ep_addr & ENDPOINT_DIR_MASK;
 437:/opt/XMClib/XMC_Peripheral_Library_v2.1.16/ThirdPartyLibraries/USBlib/USB/Core/XMC4000/USBController_XMC4000.c **** 	/* choose what to do based on the event */
 438:/opt/XMClib/XMC_Peripheral_Library_v2.1.16/ThirdPartyLibraries/USBlib/USB/Core/XMC4000/USBController_XMC4000.c **** 	switch (ep_event) {
 1419              		.loc 1 438 2 view .LVU417
 1420 0008 0129     		cmp	r1, #1
 436:/opt/XMClib/XMC_Peripheral_Library_v2.1.16/ThirdPartyLibraries/USBlib/USB/Core/XMC4000/USBController_XMC4000.c **** 	/* choose what to do based on the event */
 1421              		.loc 1 436 36 view .LVU418
 1422 000a 20F07F00 		bic	r0, r0, #127
 1423              	.LVL68:
 432:/opt/XMClib/XMC_Peripheral_Library_v2.1.16/ThirdPartyLibraries/USBlib/USB/Core/XMC4000/USBController_XMC4000.c **** 	temp_dir = device.CurrentDirection;
 1424              		.loc 1 432 11 view .LVU419
 1425 000e B4F83C71 		ldrh	r7, [r4, #316]
 436:/opt/XMClib/XMC_Peripheral_Library_v2.1.16/ThirdPartyLibraries/USBlib/USB/Core/XMC4000/USBController_XMC4000.c **** 	/* choose what to do based on the event */
 1426              		.loc 1 436 26 view .LVU420
 1427 0012 84F83D01 		strb	r0, [r4, #317]
 428:/opt/XMClib/XMC_Peripheral_Library_v2.1.16/ThirdPartyLibraries/USBlib/USB/Core/XMC4000/USBController_XMC4000.c **** 	uint8_t temp_num,temp_dir;
 1428              		.loc 1 428 51 view .LVU421
 1429 0016 1E46     		mov	r6, r3
 1430              	.LVL69:
 429:/opt/XMClib/XMC_Peripheral_Library_v2.1.16/ThirdPartyLibraries/USBlib/USB/Core/XMC4000/USBController_XMC4000.c **** 	int32_t data_count;
 1431              		.loc 1 429 2 is_stmt 1 view .LVU422
 430:/opt/XMClib/XMC_Peripheral_Library_v2.1.16/ThirdPartyLibraries/USBlib/USB/Core/XMC4000/USBController_XMC4000.c **** 	/* store CurrentEndpoint and direction for restore after handling */
 1432              		.loc 1 430 2 view .LVU423
 432:/opt/XMClib/XMC_Peripheral_Library_v2.1.16/ThirdPartyLibraries/USBlib/USB/Core/XMC4000/USBController_XMC4000.c **** 	temp_dir = device.CurrentDirection;
 1433              		.loc 1 432 2 view .LVU424
 433:/opt/XMClib/XMC_Peripheral_Library_v2.1.16/ThirdPartyLibraries/USBlib/USB/Core/XMC4000/USBController_XMC4000.c **** 	/* select the given endpoint */
 1434              		.loc 1 433 2 view .LVU425
 435:/opt/XMClib/XMC_Peripheral_Library_v2.1.16/ThirdPartyLibraries/USBlib/USB/Core/XMC4000/USBController_XMC4000.c **** 	device.CurrentDirection = ep_addr & ENDPOINT_DIR_MASK;
 1435              		.loc 1 435 2 view .LVU426
 435:/opt/XMClib/XMC_Peripheral_Library_v2.1.16/ThirdPartyLibraries/USBlib/USB/Core/XMC4000/USBController_XMC4000.c **** 	device.CurrentDirection = ep_addr & ENDPOINT_DIR_MASK;
 1436              		.loc 1 435 25 is_stmt 0 view .LVU427
 1437 0018 84F83C31 		strb	r3, [r4, #316]
 1438              	.LVL70:
 436:/opt/XMClib/XMC_Peripheral_Library_v2.1.16/ThirdPartyLibraries/USBlib/USB/Core/XMC4000/USBController_XMC4000.c **** 	/* choose what to do based on the event */
 1439              		.loc 1 436 2 is_stmt 1 view .LVU428
 1440              		.loc 1 438 2 view .LVU429
 1441 001c 05D0     		beq	.L109
 1442 001e 0229     		cmp	r1, #2
 1443 0020 2ED0     		beq	.L110
 1444 0022 09B3     		cbz	r1, .L122
 1445              	.LVL71:
 1446              	.L111:
 439:/opt/XMClib/XMC_Peripheral_Library_v2.1.16/ThirdPartyLibraries/USBlib/USB/Core/XMC4000/USBController_XMC4000.c **** 	case XMC_USBD_EP_EVENT_SETUP:
 440:/opt/XMClib/XMC_Peripheral_Library_v2.1.16/ThirdPartyLibraries/USBlib/USB/Core/XMC4000/USBController_XMC4000.c **** 		ep->OutInUse = 0;
 441:/opt/XMClib/XMC_Peripheral_Library_v2.1.16/ThirdPartyLibraries/USBlib/USB/Core/XMC4000/USBController_XMC4000.c **** 		switch(device.CurrentEndpoint) {
 442:/opt/XMClib/XMC_Peripheral_Library_v2.1.16/ThirdPartyLibraries/USBlib/USB/Core/XMC4000/USBController_XMC4000.c **** 		case 0:
 443:/opt/XMClib/XMC_Peripheral_Library_v2.1.16/ThirdPartyLibraries/USBlib/USB/Core/XMC4000/USBController_XMC4000.c **** 			USBD_HandleEP0_SETUP();
 444:/opt/XMClib/XMC_Peripheral_Library_v2.1.16/ThirdPartyLibraries/USBlib/USB/Core/XMC4000/USBController_XMC4000.c **** 			break;
 445:/opt/XMClib/XMC_Peripheral_Library_v2.1.16/ThirdPartyLibraries/USBlib/USB/Core/XMC4000/USBController_XMC4000.c **** 		default:
 446:/opt/XMClib/XMC_Peripheral_Library_v2.1.16/ThirdPartyLibraries/USBlib/USB/Core/XMC4000/USBController_XMC4000.c **** 			break;
 447:/opt/XMClib/XMC_Peripheral_Library_v2.1.16/ThirdPartyLibraries/USBlib/USB/Core/XMC4000/USBController_XMC4000.c **** 		}
 448:/opt/XMClib/XMC_Peripheral_Library_v2.1.16/ThirdPartyLibraries/USBlib/USB/Core/XMC4000/USBController_XMC4000.c **** 		break;
 449:/opt/XMClib/XMC_Peripheral_Library_v2.1.16/ThirdPartyLibraries/USBlib/USB/Core/XMC4000/USBController_XMC4000.c **** 	case XMC_USBD_EP_EVENT_OUT:
 450:/opt/XMClib/XMC_Peripheral_Library_v2.1.16/ThirdPartyLibraries/USBlib/USB/Core/XMC4000/USBController_XMC4000.c **** 		ep->IsOutRecieved = 1;
 451:/opt/XMClib/XMC_Peripheral_Library_v2.1.16/ThirdPartyLibraries/USBlib/USB/Core/XMC4000/USBController_XMC4000.c **** 		if (ep->OutBytesAvailable == 0) {
 452:/opt/XMClib/XMC_Peripheral_Library_v2.1.16/ThirdPartyLibraries/USBlib/USB/Core/XMC4000/USBController_XMC4000.c **** 			ep->OutOffset = 0; /* clear offset, new data is there */
 453:/opt/XMClib/XMC_Peripheral_Library_v2.1.16/ThirdPartyLibraries/USBlib/USB/Core/XMC4000/USBController_XMC4000.c **** 			ep->OutBytesAvailable = device.Driver->EndpointRead(ep->Address,ep->OutBuffer,ep->OutBufferLengt
 454:/opt/XMClib/XMC_Peripheral_Library_v2.1.16/ThirdPartyLibraries/USBlib/USB/Core/XMC4000/USBController_XMC4000.c **** 		}
 455:/opt/XMClib/XMC_Peripheral_Library_v2.1.16/ThirdPartyLibraries/USBlib/USB/Core/XMC4000/USBController_XMC4000.c **** 		ep->OutInUse = 0;
 456:/opt/XMClib/XMC_Peripheral_Library_v2.1.16/ThirdPartyLibraries/USBlib/USB/Core/XMC4000/USBController_XMC4000.c **** 		switch(device.CurrentEndpoint) {
 457:/opt/XMClib/XMC_Peripheral_Library_v2.1.16/ThirdPartyLibraries/USBlib/USB/Core/XMC4000/USBController_XMC4000.c **** 		case 0:
 458:/opt/XMClib/XMC_Peripheral_Library_v2.1.16/ThirdPartyLibraries/USBlib/USB/Core/XMC4000/USBController_XMC4000.c **** 			USBD_HandleEP0_OUT();
 459:/opt/XMClib/XMC_Peripheral_Library_v2.1.16/ThirdPartyLibraries/USBlib/USB/Core/XMC4000/USBController_XMC4000.c **** 			break;
 460:/opt/XMClib/XMC_Peripheral_Library_v2.1.16/ThirdPartyLibraries/USBlib/USB/Core/XMC4000/USBController_XMC4000.c **** 		default:
 461:/opt/XMClib/XMC_Peripheral_Library_v2.1.16/ThirdPartyLibraries/USBlib/USB/Core/XMC4000/USBController_XMC4000.c **** 			break;
 462:/opt/XMClib/XMC_Peripheral_Library_v2.1.16/ThirdPartyLibraries/USBlib/USB/Core/XMC4000/USBController_XMC4000.c **** 		}
 463:/opt/XMClib/XMC_Peripheral_Library_v2.1.16/ThirdPartyLibraries/USBlib/USB/Core/XMC4000/USBController_XMC4000.c **** 		break;
 464:/opt/XMClib/XMC_Peripheral_Library_v2.1.16/ThirdPartyLibraries/USBlib/USB/Core/XMC4000/USBController_XMC4000.c **** 	case XMC_USBD_EP_EVENT_IN:
 465:/opt/XMClib/XMC_Peripheral_Library_v2.1.16/ThirdPartyLibraries/USBlib/USB/Core/XMC4000/USBController_XMC4000.c **** 		/* loop write transfers */
 466:/opt/XMClib/XMC_Peripheral_Library_v2.1.16/ThirdPartyLibraries/USBlib/USB/Core/XMC4000/USBController_XMC4000.c **** 		if (ep->InDataLeft> 0) {
 467:/opt/XMClib/XMC_Peripheral_Library_v2.1.16/ThirdPartyLibraries/USBlib/USB/Core/XMC4000/USBController_XMC4000.c **** 			data_count = device.Driver->EndpointWrite(ep->Address,ep->InDataBuffer,ep->InDataLeft);
 468:/opt/XMClib/XMC_Peripheral_Library_v2.1.16/ThirdPartyLibraries/USBlib/USB/Core/XMC4000/USBController_XMC4000.c **** 			ep->InDataLeft -= data_count;
 469:/opt/XMClib/XMC_Peripheral_Library_v2.1.16/ThirdPartyLibraries/USBlib/USB/Core/XMC4000/USBController_XMC4000.c **** 			ep->InDataBuffer+= data_count;
 470:/opt/XMClib/XMC_Peripheral_Library_v2.1.16/ThirdPartyLibraries/USBlib/USB/Core/XMC4000/USBController_XMC4000.c **** 			return;
 471:/opt/XMClib/XMC_Peripheral_Library_v2.1.16/ThirdPartyLibraries/USBlib/USB/Core/XMC4000/USBController_XMC4000.c **** 		} else if (ep->Number == 0 && ep->InBytesAvailable > 0 && ep->InBytesAvailable!=USB_ControlReques
 472:/opt/XMClib/XMC_Peripheral_Library_v2.1.16/ThirdPartyLibraries/USBlib/USB/Core/XMC4000/USBController_XMC4000.c **** 			/* if the amount of data for endpoint 0 is exact the requested amount, then no zlp has to be sen
 473:/opt/XMClib/XMC_Peripheral_Library_v2.1.16/ThirdPartyLibraries/USBlib/USB/Core/XMC4000/USBController_XMC4000.c **** 			device.Driver->EndpointWrite(ep->Address,0,0);
 474:/opt/XMClib/XMC_Peripheral_Library_v2.1.16/ThirdPartyLibraries/USBlib/USB/Core/XMC4000/USBController_XMC4000.c **** 		}
 475:/opt/XMClib/XMC_Peripheral_Library_v2.1.16/ThirdPartyLibraries/USBlib/USB/Core/XMC4000/USBController_XMC4000.c **** 		ep->InBytesAvailable = 0;
 476:/opt/XMClib/XMC_Peripheral_Library_v2.1.16/ThirdPartyLibraries/USBlib/USB/Core/XMC4000/USBController_XMC4000.c **** 		ep->InInUse = 0;
 477:/opt/XMClib/XMC_Peripheral_Library_v2.1.16/ThirdPartyLibraries/USBlib/USB/Core/XMC4000/USBController_XMC4000.c **** 		switch(device.CurrentEndpoint) {
 478:/opt/XMClib/XMC_Peripheral_Library_v2.1.16/ThirdPartyLibraries/USBlib/USB/Core/XMC4000/USBController_XMC4000.c **** 		case 0:
 479:/opt/XMClib/XMC_Peripheral_Library_v2.1.16/ThirdPartyLibraries/USBlib/USB/Core/XMC4000/USBController_XMC4000.c **** 			USBD_HandleEP0_IN();
 480:/opt/XMClib/XMC_Peripheral_Library_v2.1.16/ThirdPartyLibraries/USBlib/USB/Core/XMC4000/USBController_XMC4000.c **** 			break;
 481:/opt/XMClib/XMC_Peripheral_Library_v2.1.16/ThirdPartyLibraries/USBlib/USB/Core/XMC4000/USBController_XMC4000.c **** 		default:
 482:/opt/XMClib/XMC_Peripheral_Library_v2.1.16/ThirdPartyLibraries/USBlib/USB/Core/XMC4000/USBController_XMC4000.c **** 			break;
 483:/opt/XMClib/XMC_Peripheral_Library_v2.1.16/ThirdPartyLibraries/USBlib/USB/Core/XMC4000/USBController_XMC4000.c **** 		}
 484:/opt/XMClib/XMC_Peripheral_Library_v2.1.16/ThirdPartyLibraries/USBlib/USB/Core/XMC4000/USBController_XMC4000.c **** 		break;
 485:/opt/XMClib/XMC_Peripheral_Library_v2.1.16/ThirdPartyLibraries/USBlib/USB/Core/XMC4000/USBController_XMC4000.c **** 	}
 486:/opt/XMClib/XMC_Peripheral_Library_v2.1.16/ThirdPartyLibraries/USBlib/USB/Core/XMC4000/USBController_XMC4000.c **** 	device.CurrentEndpoint = temp_num;
 1447              		.loc 1 486 2 view .LVU430
 487:/opt/XMClib/XMC_Peripheral_Library_v2.1.16/ThirdPartyLibraries/USBlib/USB/Core/XMC4000/USBController_XMC4000.c **** 	device.CurrentDirection = temp_dir;
 1448              		.loc 1 487 2 view .LVU431
 486:/opt/XMClib/XMC_Peripheral_Library_v2.1.16/ThirdPartyLibraries/USBlib/USB/Core/XMC4000/USBController_XMC4000.c **** 	device.CurrentDirection = temp_dir;
 1449              		.loc 1 486 25 is_stmt 0 view .LVU432
 1450 0024 A4F83C71 		strh	r7, [r4, #316]	@ movhi
 488:/opt/XMClib/XMC_Peripheral_Library_v2.1.16/ThirdPartyLibraries/USBlib/USB/Core/XMC4000/USBController_XMC4000.c **** }
 1451              		.loc 1 488 1 view .LVU433
 1452 0028 F8BD     		pop	{r3, r4, r5, r6, r7, pc}
 1453              	.LVL72:
 1454              	.L109:
 450:/opt/XMClib/XMC_Peripheral_Library_v2.1.16/ThirdPartyLibraries/USBlib/USB/Core/XMC4000/USBController_XMC4000.c **** 		if (ep->OutBytesAvailable == 0) {
 1455              		.loc 1 450 3 is_stmt 1 view .LVU434
 450:/opt/XMClib/XMC_Peripheral_Library_v2.1.16/ThirdPartyLibraries/USBlib/USB/Core/XMC4000/USBController_XMC4000.c **** 		if (ep->OutBytesAvailable == 0) {
 1456              		.loc 1 450 21 is_stmt 0 view .LVU435
 1457 002a 2C25     		movs	r5, #44
 1458 002c 05FB0345 		mla	r5, r5, r3, r4
 1459 0030 2A89     		ldrh	r2, [r5, #8]
 1460 0032 42F02002 		orr	r2, r2, #32
 1461 0036 2A81     		strh	r2, [r5, #8]	@ movhi
 451:/opt/XMClib/XMC_Peripheral_Library_v2.1.16/ThirdPartyLibraries/USBlib/USB/Core/XMC4000/USBController_XMC4000.c **** 			ep->OutOffset = 0; /* clear offset, new data is there */
 1462              		.loc 1 451 3 is_stmt 1 view .LVU436
 451:/opt/XMClib/XMC_Peripheral_Library_v2.1.16/ThirdPartyLibraries/USBlib/USB/Core/XMC4000/USBController_XMC4000.c **** 			ep->OutOffset = 0; /* clear offset, new data is there */
 1463              		.loc 1 451 6 is_stmt 0 view .LVU437
 1464 0038 EA68     		ldr	r2, [r5, #12]
 1465 003a 4AB9     		cbnz	r2, .L113
 452:/opt/XMClib/XMC_Peripheral_Library_v2.1.16/ThirdPartyLibraries/USBlib/USB/Core/XMC4000/USBController_XMC4000.c **** 			ep->OutBytesAvailable = device.Driver->EndpointRead(ep->Address,ep->OutBuffer,ep->OutBufferLengt
 1466              		.loc 1 452 4 is_stmt 1 view .LVU438
 453:/opt/XMClib/XMC_Peripheral_Library_v2.1.16/ThirdPartyLibraries/USBlib/USB/Core/XMC4000/USBController_XMC4000.c **** 		}
 1467              		.loc 1 453 41 is_stmt 0 view .LVU439
 1468 003c 2368     		ldr	r3, [r4]
 1469              	.LVL73:
 452:/opt/XMClib/XMC_Peripheral_Library_v2.1.16/ThirdPartyLibraries/USBlib/USB/Core/XMC4000/USBController_XMC4000.c **** 			ep->OutBytesAvailable = device.Driver->EndpointRead(ep->Address,ep->OutBuffer,ep->OutBufferLengt
 1470              		.loc 1 452 18 view .LVU440
 1471 003e 2A61     		str	r2, [r5, #16]
 453:/opt/XMClib/XMC_Peripheral_Library_v2.1.16/ThirdPartyLibraries/USBlib/USB/Core/XMC4000/USBController_XMC4000.c **** 		}
 1472              		.loc 1 453 4 is_stmt 1 view .LVU441
 453:/opt/XMClib/XMC_Peripheral_Library_v2.1.16/ThirdPartyLibraries/USBlib/USB/Core/XMC4000/USBController_XMC4000.c **** 		}
 1473              		.loc 1 453 28 is_stmt 0 view .LVU442
 1474 0040 DB6A     		ldr	r3, [r3, #44]
 1475 0042 2879     		ldrb	r0, [r5, #4]	@ zero_extendqisi2
 1476 0044 D5E90512 		ldrd	r1, r2, [r5, #20]
 1477              	.LVL74:
 453:/opt/XMClib/XMC_Peripheral_Library_v2.1.16/ThirdPartyLibraries/USBlib/USB/Core/XMC4000/USBController_XMC4000.c **** 		}
 1478              		.loc 1 453 28 view .LVU443
 1479 0048 9847     		blx	r3
 1480              	.LVL75:
 456:/opt/XMClib/XMC_Peripheral_Library_v2.1.16/ThirdPartyLibraries/USBlib/USB/Core/XMC4000/USBController_XMC4000.c **** 		case 0:
 1481              		.loc 1 456 16 view .LVU444
 1482 004a 94F83C31 		ldrb	r3, [r4, #316]	@ zero_extendqisi2
 453:/opt/XMClib/XMC_Peripheral_Library_v2.1.16/ThirdPartyLibraries/USBlib/USB/Core/XMC4000/USBController_XMC4000.c **** 		}
 1483              		.loc 1 453 26 view .LVU445
 1484 004e E860     		str	r0, [r5, #12]
 1485              	.L113:
 455:/opt/XMClib/XMC_Peripheral_Library_v2.1.16/ThirdPartyLibraries/USBlib/USB/Core/XMC4000/USBController_XMC4000.c **** 		switch(device.CurrentEndpoint) {
 1486              		.loc 1 455 3 is_stmt 1 view .LVU446
 455:/opt/XMClib/XMC_Peripheral_Library_v2.1.16/ThirdPartyLibraries/USBlib/USB/Core/XMC4000/USBController_XMC4000.c **** 		switch(device.CurrentEndpoint) {
 1487              		.loc 1 455 16 is_stmt 0 view .LVU447
 1488 0050 2C22     		movs	r2, #44
 1489 0052 02FB0646 		mla	r6, r2, r6, r4
 1490              	.LVL76:
 455:/opt/XMClib/XMC_Peripheral_Library_v2.1.16/ThirdPartyLibraries/USBlib/USB/Core/XMC4000/USBController_XMC4000.c **** 		switch(device.CurrentEndpoint) {
 1491              		.loc 1 455 16 view .LVU448
 1492 0056 3289     		ldrh	r2, [r6, #8]
 1493 0058 6FF3C302 		bfc	r2, #3, #1
 1494 005c 3281     		strh	r2, [r6, #8]	@ movhi
 456:/opt/XMClib/XMC_Peripheral_Library_v2.1.16/ThirdPartyLibraries/USBlib/USB/Core/XMC4000/USBController_XMC4000.c **** 		case 0:
 1495              		.loc 1 456 3 is_stmt 1 view .LVU449
 1496 005e 002B     		cmp	r3, #0
 1497 0060 E0D1     		bne	.L111
 458:/opt/XMClib/XMC_Peripheral_Library_v2.1.16/ThirdPartyLibraries/USBlib/USB/Core/XMC4000/USBController_XMC4000.c **** 			break;
 1498              		.loc 1 458 4 view .LVU450
 1499 0062 FFF7FEFF 		bl	USBD_HandleEP0_OUT
 1500              	.LVL77:
 459:/opt/XMClib/XMC_Peripheral_Library_v2.1.16/ThirdPartyLibraries/USBlib/USB/Core/XMC4000/USBController_XMC4000.c **** 		default:
 1501              		.loc 1 459 4 view .LVU451
 1502 0066 DDE7     		b	.L111
 1503              	.LVL78:
 1504              	.L122:
 440:/opt/XMClib/XMC_Peripheral_Library_v2.1.16/ThirdPartyLibraries/USBlib/USB/Core/XMC4000/USBController_XMC4000.c **** 		switch(device.CurrentEndpoint) {
 1505              		.loc 1 440 3 view .LVU452
 440:/opt/XMClib/XMC_Peripheral_Library_v2.1.16/ThirdPartyLibraries/USBlib/USB/Core/XMC4000/USBController_XMC4000.c **** 		switch(device.CurrentEndpoint) {
 1506              		.loc 1 440 16 is_stmt 0 view .LVU453
 1507 0068 2C22     		movs	r2, #44
 1508 006a 02FB0342 		mla	r2, r2, r3, r4
 1509 006e 1089     		ldrh	r0, [r2, #8]
 1510 0070 61F3C300 		bfi	r0, r1, #3, #1
 1511              	.LVL79:
 440:/opt/XMClib/XMC_Peripheral_Library_v2.1.16/ThirdPartyLibraries/USBlib/USB/Core/XMC4000/USBController_XMC4000.c **** 		switch(device.CurrentEndpoint) {
 1512              		.loc 1 440 16 view .LVU454
 1513 0074 1081     		strh	r0, [r2, #8]	@ movhi
 441:/opt/XMClib/XMC_Peripheral_Library_v2.1.16/ThirdPartyLibraries/USBlib/USB/Core/XMC4000/USBController_XMC4000.c **** 		case 0:
 1514              		.loc 1 441 3 is_stmt 1 view .LVU455
 1515 0076 002B     		cmp	r3, #0
 1516 0078 D4D1     		bne	.L111
 443:/opt/XMClib/XMC_Peripheral_Library_v2.1.16/ThirdPartyLibraries/USBlib/USB/Core/XMC4000/USBController_XMC4000.c **** 			break;
 1517              		.loc 1 443 4 view .LVU456
 1518 007a FFF7FEFF 		bl	USBD_HandleEP0_SETUP
 1519              	.LVL80:
 444:/opt/XMClib/XMC_Peripheral_Library_v2.1.16/ThirdPartyLibraries/USBlib/USB/Core/XMC4000/USBController_XMC4000.c **** 		default:
 1520              		.loc 1 444 4 view .LVU457
 1521 007e D1E7     		b	.L111
 1522              	.LVL81:
 1523              	.L110:
 466:/opt/XMClib/XMC_Peripheral_Library_v2.1.16/ThirdPartyLibraries/USBlib/USB/Core/XMC4000/USBController_XMC4000.c **** 			data_count = device.Driver->EndpointWrite(ep->Address,ep->InDataBuffer,ep->InDataLeft);
 1524              		.loc 1 466 3 view .LVU458
 466:/opt/XMClib/XMC_Peripheral_Library_v2.1.16/ThirdPartyLibraries/USBlib/USB/Core/XMC4000/USBController_XMC4000.c **** 			data_count = device.Driver->EndpointWrite(ep->Address,ep->InDataBuffer,ep->InDataLeft);
 1525              		.loc 1 466 9 is_stmt 0 view .LVU459
 1526 0080 2C22     		movs	r2, #44
 1527 0082 02FB0345 		mla	r5, r2, r3, r4
 1528 0086 AA6A     		ldr	r2, [r5, #40]
 466:/opt/XMClib/XMC_Peripheral_Library_v2.1.16/ThirdPartyLibraries/USBlib/USB/Core/XMC4000/USBController_XMC4000.c **** 			data_count = device.Driver->EndpointWrite(ep->Address,ep->InDataBuffer,ep->InDataLeft);
 1529              		.loc 1 466 6 view .LVU460
 1530 0088 22BB     		cbnz	r2, .L123
 471:/opt/XMClib/XMC_Peripheral_Library_v2.1.16/ThirdPartyLibraries/USBlib/USB/Core/XMC4000/USBController_XMC4000.c **** 			/* if the amount of data for endpoint 0 is exact the requested amount, then no zlp has to be sen
 1531              		.loc 1 471 10 is_stmt 1 view .LVU461
 471:/opt/XMClib/XMC_Peripheral_Library_v2.1.16/ThirdPartyLibraries/USBlib/USB/Core/XMC4000/USBController_XMC4000.c **** 			/* if the amount of data for endpoint 0 is exact the requested amount, then no zlp has to be sen
 1532              		.loc 1 471 25 is_stmt 0 view .LVU462
 1533 008a 2879     		ldrb	r0, [r5, #4]	@ zero_extendqisi2
 471:/opt/XMClib/XMC_Peripheral_Library_v2.1.16/ThirdPartyLibraries/USBlib/USB/Core/XMC4000/USBController_XMC4000.c **** 			/* if the amount of data for endpoint 0 is exact the requested amount, then no zlp has to be sen
 1534              		.loc 1 471 13 view .LVU463
 1535 008c 0207     		lsls	r2, r0, #28
 1536 008e 13D1     		bne	.L117
 471:/opt/XMClib/XMC_Peripheral_Library_v2.1.16/ThirdPartyLibraries/USBlib/USB/Core/XMC4000/USBController_XMC4000.c **** 			/* if the amount of data for endpoint 0 is exact the requested amount, then no zlp has to be sen
 1537              		.loc 1 471 35 discriminator 1 view .LVU464
 1538 0090 EA69     		ldr	r2, [r5, #28]
 471:/opt/XMClib/XMC_Peripheral_Library_v2.1.16/ThirdPartyLibraries/USBlib/USB/Core/XMC4000/USBController_XMC4000.c **** 			/* if the amount of data for endpoint 0 is exact the requested amount, then no zlp has to be sen
 1539              		.loc 1 471 30 discriminator 1 view .LVU465
 1540 0092 8AB1     		cbz	r2, .L117
 471:/opt/XMClib/XMC_Peripheral_Library_v2.1.16/ThirdPartyLibraries/USBlib/USB/Core/XMC4000/USBController_XMC4000.c **** 			/* if the amount of data for endpoint 0 is exact the requested amount, then no zlp has to be sen
 1541              		.loc 1 471 101 discriminator 2 view .LVU466
 1542 0094 1649     		ldr	r1, .L124+4
 1543              	.LVL82:
 471:/opt/XMClib/XMC_Peripheral_Library_v2.1.16/ThirdPartyLibraries/USBlib/USB/Core/XMC4000/USBController_XMC4000.c **** 			/* if the amount of data for endpoint 0 is exact the requested amount, then no zlp has to be sen
 1544              		.loc 1 471 81 discriminator 2 view .LVU467
 1545 0096 C988     		ldrh	r1, [r1, #6]	@ unaligned
 471:/opt/XMClib/XMC_Peripheral_Library_v2.1.16/ThirdPartyLibraries/USBlib/USB/Core/XMC4000/USBController_XMC4000.c **** 			/* if the amount of data for endpoint 0 is exact the requested amount, then no zlp has to be sen
 1546              		.loc 1 471 58 discriminator 2 view .LVU468
 1547 0098 8A42     		cmp	r2, r1
 1548 009a 0DD0     		beq	.L117
 471:/opt/XMClib/XMC_Peripheral_Library_v2.1.16/ThirdPartyLibraries/USBlib/USB/Core/XMC4000/USBController_XMC4000.c **** 			/* if the amount of data for endpoint 0 is exact the requested amount, then no zlp has to be sen
 1549              		.loc 1 471 138 discriminator 3 view .LVU469
 1550 009c 2989     		ldrh	r1, [r5, #8]
 1551 009e C1F38611 		ubfx	r1, r1, #6, #7
 471:/opt/XMClib/XMC_Peripheral_Library_v2.1.16/ThirdPartyLibraries/USBlib/USB/Core/XMC4000/USBController_XMC4000.c **** 			/* if the amount of data for endpoint 0 is exact the requested amount, then no zlp has to be sen
 1552              		.loc 1 471 134 discriminator 3 view .LVU470
 1553 00a2 B2FBF1F5 		udiv	r5, r2, r1
 1554 00a6 01FB1522 		mls	r2, r1, r5, r2
 471:/opt/XMClib/XMC_Peripheral_Library_v2.1.16/ThirdPartyLibraries/USBlib/USB/Core/XMC4000/USBController_XMC4000.c **** 			/* if the amount of data for endpoint 0 is exact the requested amount, then no zlp has to be sen
 1555              		.loc 1 471 110 discriminator 3 view .LVU471
 1556 00aa 2AB9     		cbnz	r2, .L117
 473:/opt/XMClib/XMC_Peripheral_Library_v2.1.16/ThirdPartyLibraries/USBlib/USB/Core/XMC4000/USBController_XMC4000.c **** 		}
 1557              		.loc 1 473 4 is_stmt 1 view .LVU472
 473:/opt/XMClib/XMC_Peripheral_Library_v2.1.16/ThirdPartyLibraries/USBlib/USB/Core/XMC4000/USBController_XMC4000.c **** 		}
 1558              		.loc 1 473 17 is_stmt 0 view .LVU473
 1559 00ac 2368     		ldr	r3, [r4]
 1560              	.LVL83:
 473:/opt/XMClib/XMC_Peripheral_Library_v2.1.16/ThirdPartyLibraries/USBlib/USB/Core/XMC4000/USBController_XMC4000.c **** 		}
 1561              		.loc 1 473 4 view .LVU474
 1562 00ae 1146     		mov	r1, r2
 1563 00b0 1B6B     		ldr	r3, [r3, #48]
 1564 00b2 9847     		blx	r3
 1565              	.LVL84:
 477:/opt/XMClib/XMC_Peripheral_Library_v2.1.16/ThirdPartyLibraries/USBlib/USB/Core/XMC4000/USBController_XMC4000.c **** 		case 0:
 1566              		.loc 1 477 16 view .LVU475
 1567 00b4 94F83C31 		ldrb	r3, [r4, #316]	@ zero_extendqisi2
 1568              	.L117:
 475:/opt/XMClib/XMC_Peripheral_Library_v2.1.16/ThirdPartyLibraries/USBlib/USB/Core/XMC4000/USBController_XMC4000.c **** 		ep->InInUse = 0;
 1569              		.loc 1 475 3 is_stmt 1 view .LVU476
 475:/opt/XMClib/XMC_Peripheral_Library_v2.1.16/ThirdPartyLibraries/USBlib/USB/Core/XMC4000/USBController_XMC4000.c **** 		ep->InInUse = 0;
 1570              		.loc 1 475 24 is_stmt 0 view .LVU477
 1571 00b8 2C22     		movs	r2, #44
 1572 00ba 02FB0646 		mla	r6, r2, r6, r4
 1573              	.LVL85:
 475:/opt/XMClib/XMC_Peripheral_Library_v2.1.16/ThirdPartyLibraries/USBlib/USB/Core/XMC4000/USBController_XMC4000.c **** 		ep->InInUse = 0;
 1574              		.loc 1 475 24 view .LVU478
 1575 00be 0021     		movs	r1, #0
 476:/opt/XMClib/XMC_Peripheral_Library_v2.1.16/ThirdPartyLibraries/USBlib/USB/Core/XMC4000/USBController_XMC4000.c **** 		switch(device.CurrentEndpoint) {
 1576              		.loc 1 476 15 view .LVU479
 1577 00c0 3289     		ldrh	r2, [r6, #8]
 475:/opt/XMClib/XMC_Peripheral_Library_v2.1.16/ThirdPartyLibraries/USBlib/USB/Core/XMC4000/USBController_XMC4000.c **** 		ep->InInUse = 0;
 1578              		.loc 1 475 24 view .LVU480
 1579 00c2 F161     		str	r1, [r6, #28]
 476:/opt/XMClib/XMC_Peripheral_Library_v2.1.16/ThirdPartyLibraries/USBlib/USB/Core/XMC4000/USBController_XMC4000.c **** 		switch(device.CurrentEndpoint) {
 1580              		.loc 1 476 3 is_stmt 1 view .LVU481
 476:/opt/XMClib/XMC_Peripheral_Library_v2.1.16/ThirdPartyLibraries/USBlib/USB/Core/XMC4000/USBController_XMC4000.c **** 		switch(device.CurrentEndpoint) {
 1581              		.loc 1 476 15 is_stmt 0 view .LVU482
 1582 00c4 61F30412 		bfi	r2, r1, #4, #1
 1583 00c8 3281     		strh	r2, [r6, #8]	@ movhi
 477:/opt/XMClib/XMC_Peripheral_Library_v2.1.16/ThirdPartyLibraries/USBlib/USB/Core/XMC4000/USBController_XMC4000.c **** 		case 0:
 1584              		.loc 1 477 3 is_stmt 1 view .LVU483
 1585 00ca 002B     		cmp	r3, #0
 1586 00cc AAD1     		bne	.L111
 479:/opt/XMClib/XMC_Peripheral_Library_v2.1.16/ThirdPartyLibraries/USBlib/USB/Core/XMC4000/USBController_XMC4000.c **** 			break;
 1587              		.loc 1 479 4 view .LVU484
 1588 00ce FFF7FEFF 		bl	USBD_HandleEP0_IN
 1589              	.LVL86:
 480:/opt/XMClib/XMC_Peripheral_Library_v2.1.16/ThirdPartyLibraries/USBlib/USB/Core/XMC4000/USBController_XMC4000.c **** 		default:
 1590              		.loc 1 480 4 view .LVU485
 1591 00d2 A7E7     		b	.L111
 1592              	.LVL87:
 1593              	.L123:
 467:/opt/XMClib/XMC_Peripheral_Library_v2.1.16/ThirdPartyLibraries/USBlib/USB/Core/XMC4000/USBController_XMC4000.c **** 			ep->InDataLeft -= data_count;
 1594              		.loc 1 467 4 view .LVU486
 467:/opt/XMClib/XMC_Peripheral_Library_v2.1.16/ThirdPartyLibraries/USBlib/USB/Core/XMC4000/USBController_XMC4000.c **** 			ep->InDataLeft -= data_count;
 1595              		.loc 1 467 30 is_stmt 0 view .LVU487
 1596 00d4 2368     		ldr	r3, [r4]
 1597              	.LVL88:
 467:/opt/XMClib/XMC_Peripheral_Library_v2.1.16/ThirdPartyLibraries/USBlib/USB/Core/XMC4000/USBController_XMC4000.c **** 			ep->InDataLeft -= data_count;
 1598              		.loc 1 467 17 view .LVU488
 1599 00d6 E96A     		ldr	r1, [r5, #44]
 1600              	.LVL89:
 467:/opt/XMClib/XMC_Peripheral_Library_v2.1.16/ThirdPartyLibraries/USBlib/USB/Core/XMC4000/USBController_XMC4000.c **** 			ep->InDataLeft -= data_count;
 1601              		.loc 1 467 17 view .LVU489
 1602 00d8 1B6B     		ldr	r3, [r3, #48]
 1603 00da 2879     		ldrb	r0, [r5, #4]	@ zero_extendqisi2
 1604 00dc 9847     		blx	r3
 1605              	.LVL90:
 469:/opt/XMClib/XMC_Peripheral_Library_v2.1.16/ThirdPartyLibraries/USBlib/USB/Core/XMC4000/USBController_XMC4000.c **** 			return;
 1606              		.loc 1 469 20 view .LVU490
 1607 00de D5E90A23 		ldrd	r2, r3, [r5, #40]
 1608              	.LVL91:
 468:/opt/XMClib/XMC_Peripheral_Library_v2.1.16/ThirdPartyLibraries/USBlib/USB/Core/XMC4000/USBController_XMC4000.c **** 			ep->InDataBuffer+= data_count;
 1609              		.loc 1 468 4 is_stmt 1 view .LVU491
 468:/opt/XMClib/XMC_Peripheral_Library_v2.1.16/ThirdPartyLibraries/USBlib/USB/Core/XMC4000/USBController_XMC4000.c **** 			ep->InDataBuffer+= data_count;
 1610              		.loc 1 468 19 is_stmt 0 view .LVU492
 1611 00e2 121A     		subs	r2, r2, r0
 469:/opt/XMClib/XMC_Peripheral_Library_v2.1.16/ThirdPartyLibraries/USBlib/USB/Core/XMC4000/USBController_XMC4000.c **** 			return;
 1612              		.loc 1 469 20 view .LVU493
 1613 00e4 1844     		add	r0, r0, r3
 1614              	.LVL92:
 469:/opt/XMClib/XMC_Peripheral_Library_v2.1.16/ThirdPartyLibraries/USBlib/USB/Core/XMC4000/USBController_XMC4000.c **** 			return;
 1615              		.loc 1 469 20 view .LVU494
 1616 00e6 C5E90A20 		strd	r2, r0, [r5, #40]
 470:/opt/XMClib/XMC_Peripheral_Library_v2.1.16/ThirdPartyLibraries/USBlib/USB/Core/XMC4000/USBController_XMC4000.c **** 		} else if (ep->Number == 0 && ep->InBytesAvailable > 0 && ep->InBytesAvailable!=USB_ControlReques
 1617              		.loc 1 470 4 is_stmt 1 view .LVU495
 1618              		.loc 1 488 1 is_stmt 0 view .LVU496
 1619 00ea F8BD     		pop	{r3, r4, r5, r6, r7, pc}
 1620              	.LVL93:
 1621              	.L125:
 1622              		.loc 1 488 1 view .LVU497
 1623              		.align	2
 1624              	.L124:
 1625 00ec 00000000 		.word	.LANCHOR0
 1626 00f0 00000000 		.word	USB_ControlRequest
 1627              		.cfi_endproc
 1628              	.LFE194:
 1630              		.section	.text.USBD_Initialize,"ax",%progbits
 1631              		.align	1
 1632              		.p2align 2,,3
 1633              		.global	USBD_Initialize
 1634              		.syntax unified
 1635              		.thumb
 1636              		.thumb_func
 1638              	USBD_Initialize:
 1639              	.LVL94:
 1640              	.LFB195:
 489:/opt/XMClib/XMC_Peripheral_Library_v2.1.16/ThirdPartyLibraries/USBlib/USB/Core/XMC4000/USBController_XMC4000.c **** 
 490:/opt/XMClib/XMC_Peripheral_Library_v2.1.16/ThirdPartyLibraries/USBlib/USB/Core/XMC4000/USBController_XMC4000.c **** /**
 491:/opt/XMClib/XMC_Peripheral_Library_v2.1.16/ThirdPartyLibraries/USBlib/USB/Core/XMC4000/USBController_XMC4000.c ****  * \brief Initialize driver core and driver
 492:/opt/XMClib/XMC_Peripheral_Library_v2.1.16/ThirdPartyLibraries/USBlib/USB/Core/XMC4000/USBController_XMC4000.c ****  *
 493:/opt/XMClib/XMC_Peripheral_Library_v2.1.16/ThirdPartyLibraries/USBlib/USB/Core/XMC4000/USBController_XMC4000.c ****  * Intializes the USB driver core data structures and sets it into default state. Afterwards
 494:/opt/XMClib/XMC_Peripheral_Library_v2.1.16/ThirdPartyLibraries/USBlib/USB/Core/XMC4000/USBController_XMC4000.c ****  * it initializes the USB device controller driver and prepare it for connection via \ref USBD_Conn
 495:/opt/XMClib/XMC_Peripheral_Library_v2.1.16/ThirdPartyLibraries/USBlib/USB/Core/XMC4000/USBController_XMC4000.c ****  */
 496:/opt/XMClib/XMC_Peripheral_Library_v2.1.16/ThirdPartyLibraries/USBlib/USB/Core/XMC4000/USBController_XMC4000.c **** int USBD_Initialize(XMC_USBD_t *usb_init) {
 1641              		.loc 1 496 43 is_stmt 1 view -0
 1642              		.cfi_startproc
 1643              		@ args = 0, pretend = 0, frame = 0
 1644              		@ frame_needed = 0, uses_anonymous_args = 0
 497:/opt/XMClib/XMC_Peripheral_Library_v2.1.16/ThirdPartyLibraries/USBlib/USB/Core/XMC4000/USBController_XMC4000.c **** 	int32_t status = 0;
 1645              		.loc 1 497 2 view .LVU499
 498:/opt/XMClib/XMC_Peripheral_Library_v2.1.16/ThirdPartyLibraries/USBlib/USB/Core/XMC4000/USBController_XMC4000.c **** 	memset(&device,0x0,sizeof(USB_Device_t));
 1646              		.loc 1 498 2 view .LVU500
 496:/opt/XMClib/XMC_Peripheral_Library_v2.1.16/ThirdPartyLibraries/USBlib/USB/Core/XMC4000/USBController_XMC4000.c **** 	int32_t status = 0;
 1647              		.loc 1 496 43 is_stmt 0 view .LVU501
 1648 0000 38B5     		push	{r3, r4, r5, lr}
 1649              	.LCFI42:
 1650              		.cfi_def_cfa_offset 16
 1651              		.cfi_offset 3, -16
 1652              		.cfi_offset 4, -12
 1653              		.cfi_offset 5, -8
 1654              		.cfi_offset 14, -4
 1655              		.loc 1 498 2 view .LVU502
 1656 0002 164C     		ldr	r4, .L130
 496:/opt/XMClib/XMC_Peripheral_Library_v2.1.16/ThirdPartyLibraries/USBlib/USB/Core/XMC4000/USBController_XMC4000.c **** 	int32_t status = 0;
 1657              		.loc 1 496 43 view .LVU503
 1658 0004 0546     		mov	r5, r0
 1659              		.loc 1 498 2 view .LVU504
 1660 0006 4FF4A072 		mov	r2, #320
 1661 000a 0021     		movs	r1, #0
 1662 000c 2046     		mov	r0, r4
 1663              	.LVL95:
 1664              		.loc 1 498 2 view .LVU505
 1665 000e FFF7FEFF 		bl	memset
 1666              	.LVL96:
 499:/opt/XMClib/XMC_Peripheral_Library_v2.1.16/ThirdPartyLibraries/USBlib/USB/Core/XMC4000/USBController_XMC4000.c **** 	USB_DeviceState = DEVICE_STATE_Unattached;
 1667              		.loc 1 499 2 is_stmt 1 view .LVU506
 1668              		.loc 1 499 18 is_stmt 0 view .LVU507
 1669 0012 134B     		ldr	r3, .L130+4
 500:/opt/XMClib/XMC_Peripheral_Library_v2.1.16/ThirdPartyLibraries/USBlib/USB/Core/XMC4000/USBController_XMC4000.c **** 	device.Driver = &Driver_USBD0;
 1670              		.loc 1 500 16 view .LVU508
 1671 0014 134A     		ldr	r2, .L130+8
 1672 0016 2260     		str	r2, [r4]
 499:/opt/XMClib/XMC_Peripheral_Library_v2.1.16/ThirdPartyLibraries/USBlib/USB/Core/XMC4000/USBController_XMC4000.c **** 	USB_DeviceState = DEVICE_STATE_Unattached;
 1673              		.loc 1 499 18 view .LVU509
 1674 0018 0021     		movs	r1, #0
 1675 001a 1970     		strb	r1, [r3]
 1676              		.loc 1 500 2 is_stmt 1 view .LVU510
 501:/opt/XMClib/XMC_Peripheral_Library_v2.1.16/ThirdPartyLibraries/USBlib/USB/Core/XMC4000/USBController_XMC4000.c **** 	device.EP0_State = IDLE;
 1677              		.loc 1 501 2 view .LVU511
 1678              		.loc 1 501 19 is_stmt 0 view .LVU512
 1679 001c 0121     		movs	r1, #1
 1680 001e 84F83B11 		strb	r1, [r4, #315]
 502:/opt/XMClib/XMC_Peripheral_Library_v2.1.16/ThirdPartyLibraries/USBlib/USB/Core/XMC4000/USBController_XMC4000.c **** 	device.Endpoints[0].InBuffer = endpoint0_in_buffer;
 1681              		.loc 1 502 2 is_stmt 1 view .LVU513
 1682              		.loc 1 502 31 is_stmt 0 view .LVU514
 1683 0022 04F5A071 		add	r1, r4, #320
 1684 0026 2162     		str	r1, [r4, #32]
 503:/opt/XMClib/XMC_Peripheral_Library_v2.1.16/ThirdPartyLibraries/USBlib/USB/Core/XMC4000/USBController_XMC4000.c **** 	device.Endpoints[0].InBufferLength = 256;
 1685              		.loc 1 503 2 is_stmt 1 view .LVU515
 504:/opt/XMClib/XMC_Peripheral_Library_v2.1.16/ThirdPartyLibraries/USBlib/USB/Core/XMC4000/USBController_XMC4000.c **** 	device.Endpoints[0].OutBuffer = endpoint0_out_buffer;
 1686              		.loc 1 504 32 is_stmt 0 view .LVU516
 1687 0028 04F51071 		add	r1, r4, #576
 503:/opt/XMClib/XMC_Peripheral_Library_v2.1.16/ThirdPartyLibraries/USBlib/USB/Core/XMC4000/USBController_XMC4000.c **** 	device.Endpoints[0].InBufferLength = 256;
 1688              		.loc 1 503 37 view .LVU517
 1689 002c 4FF48073 		mov	r3, #256
 1690              		.loc 1 504 32 view .LVU518
 1691 0030 6161     		str	r1, [r4, #20]
 505:/opt/XMClib/XMC_Peripheral_Library_v2.1.16/ThirdPartyLibraries/USBlib/USB/Core/XMC4000/USBController_XMC4000.c **** 	device.Endpoints[0].OutBufferLength = 256;
 506:/opt/XMClib/XMC_Peripheral_Library_v2.1.16/ThirdPartyLibraries/USBlib/USB/Core/XMC4000/USBController_XMC4000.c **** 	device.Endpoints[0].Direction = 0;
 507:/opt/XMClib/XMC_Peripheral_Library_v2.1.16/ThirdPartyLibraries/USBlib/USB/Core/XMC4000/USBController_XMC4000.c **** 	device.Endpoints[0].IsConfigured = 1;
 1692              		.loc 1 507 35 view .LVU519
 1693 0032 41F20301 		movw	r1, #4099
 508:/opt/XMClib/XMC_Peripheral_Library_v2.1.16/ThirdPartyLibraries/USBlib/USB/Core/XMC4000/USBController_XMC4000.c **** 	device.Endpoints[0].IsEnabled = 1;
 509:/opt/XMClib/XMC_Peripheral_Library_v2.1.16/ThirdPartyLibraries/USBlib/USB/Core/XMC4000/USBController_XMC4000.c **** 	device.Endpoints[0].MaxPacketSize = 64;
 510:/opt/XMClib/XMC_Peripheral_Library_v2.1.16/ThirdPartyLibraries/USBlib/USB/Core/XMC4000/USBController_XMC4000.c **** 
 511:/opt/XMClib/XMC_Peripheral_Library_v2.1.16/ThirdPartyLibraries/USBlib/USB/Core/XMC4000/USBController_XMC4000.c **** 	/* First initalize the device */
 512:/opt/XMClib/XMC_Peripheral_Library_v2.1.16/ThirdPartyLibraries/USBlib/USB/Core/XMC4000/USBController_XMC4000.c **** 	status = device.Driver->Initialize(usb_init);
 1694              		.loc 1 512 11 view .LVU520
 1695 0036 5268     		ldr	r2, [r2, #4]
 503:/opt/XMClib/XMC_Peripheral_Library_v2.1.16/ThirdPartyLibraries/USBlib/USB/Core/XMC4000/USBController_XMC4000.c **** 	device.Endpoints[0].OutBuffer = endpoint0_out_buffer;
 1696              		.loc 1 503 37 view .LVU521
 1697 0038 6362     		str	r3, [r4, #36]
 504:/opt/XMClib/XMC_Peripheral_Library_v2.1.16/ThirdPartyLibraries/USBlib/USB/Core/XMC4000/USBController_XMC4000.c **** 	device.Endpoints[0].OutBufferLength = 256;
 1698              		.loc 1 504 2 is_stmt 1 view .LVU522
 505:/opt/XMClib/XMC_Peripheral_Library_v2.1.16/ThirdPartyLibraries/USBlib/USB/Core/XMC4000/USBController_XMC4000.c **** 	device.Endpoints[0].Direction = 0;
 1699              		.loc 1 505 2 view .LVU523
 505:/opt/XMClib/XMC_Peripheral_Library_v2.1.16/ThirdPartyLibraries/USBlib/USB/Core/XMC4000/USBController_XMC4000.c **** 	device.Endpoints[0].Direction = 0;
 1700              		.loc 1 505 38 is_stmt 0 view .LVU524
 1701 003a A361     		str	r3, [r4, #24]
 506:/opt/XMClib/XMC_Peripheral_Library_v2.1.16/ThirdPartyLibraries/USBlib/USB/Core/XMC4000/USBController_XMC4000.c **** 	device.Endpoints[0].IsConfigured = 1;
 1702              		.loc 1 506 2 is_stmt 1 view .LVU525
 507:/opt/XMClib/XMC_Peripheral_Library_v2.1.16/ThirdPartyLibraries/USBlib/USB/Core/XMC4000/USBController_XMC4000.c **** 	device.Endpoints[0].IsEnabled = 1;
 1703              		.loc 1 507 2 view .LVU526
 508:/opt/XMClib/XMC_Peripheral_Library_v2.1.16/ThirdPartyLibraries/USBlib/USB/Core/XMC4000/USBController_XMC4000.c **** 	device.Endpoints[0].MaxPacketSize = 64;
 1704              		.loc 1 508 2 view .LVU527
 509:/opt/XMClib/XMC_Peripheral_Library_v2.1.16/ThirdPartyLibraries/USBlib/USB/Core/XMC4000/USBController_XMC4000.c **** 
 1705              		.loc 1 509 2 view .LVU528
 507:/opt/XMClib/XMC_Peripheral_Library_v2.1.16/ThirdPartyLibraries/USBlib/USB/Core/XMC4000/USBController_XMC4000.c **** 	device.Endpoints[0].IsEnabled = 1;
 1706              		.loc 1 507 35 is_stmt 0 view .LVU529
 1707 003c 2181     		strh	r1, [r4, #8]	@ movhi
 1708              		.loc 1 512 2 is_stmt 1 view .LVU530
 1709              		.loc 1 512 11 is_stmt 0 view .LVU531
 1710 003e 2846     		mov	r0, r5
 1711 0040 9047     		blx	r2
 1712              	.LVL97:
 513:/opt/XMClib/XMC_Peripheral_Library_v2.1.16/ThirdPartyLibraries/USBlib/USB/Core/XMC4000/USBController_XMC4000.c **** 	if (status != XMC_USBD_STATUS_OK)
 1713              		.loc 1 513 2 is_stmt 1 view .LVU532
 1714              		.loc 1 513 5 is_stmt 0 view .LVU533
 1715 0042 38B9     		cbnz	r0, .L128
 514:/opt/XMClib/XMC_Peripheral_Library_v2.1.16/ThirdPartyLibraries/USBlib/USB/Core/XMC4000/USBController_XMC4000.c **** 		return -1;
 515:/opt/XMClib/XMC_Peripheral_Library_v2.1.16/ThirdPartyLibraries/USBlib/USB/Core/XMC4000/USBController_XMC4000.c **** 
 516:/opt/XMClib/XMC_Peripheral_Library_v2.1.16/ThirdPartyLibraries/USBlib/USB/Core/XMC4000/USBController_XMC4000.c **** 	/* then configure endpoint 0 */
 517:/opt/XMClib/XMC_Peripheral_Library_v2.1.16/ThirdPartyLibraries/USBlib/USB/Core/XMC4000/USBController_XMC4000.c **** 	device.Driver->EndpointConfigure(0,XMC_USBD_ENDPOINT_TYPE_CONTROL,
 1716              		.loc 1 517 15 view .LVU534
 1717 0044 2368     		ldr	r3, [r4]
 1718 0046 0546     		mov	r5, r0
 1719              	.LVL98:
 1720              		.loc 1 517 2 is_stmt 1 view .LVU535
 1721 0048 DB69     		ldr	r3, [r3, #28]
 1722 004a 4022     		movs	r2, #64
 1723 004c 0146     		mov	r1, r0
 1724 004e 9847     		blx	r3
 1725              	.LVL99:
 518:/opt/XMClib/XMC_Peripheral_Library_v2.1.16/ThirdPartyLibraries/USBlib/USB/Core/XMC4000/USBController_XMC4000.c **** 			(uint8_t)XMC_USBD_MAX_PACKET_SIZE);
 519:/opt/XMClib/XMC_Peripheral_Library_v2.1.16/ThirdPartyLibraries/USBlib/USB/Core/XMC4000/USBController_XMC4000.c **** 	if (status != XMC_USBD_STATUS_OK) {
 1726              		.loc 1 519 2 view .LVU536
 520:/opt/XMClib/XMC_Peripheral_Library_v2.1.16/ThirdPartyLibraries/USBlib/USB/Core/XMC4000/USBController_XMC4000.c **** 		device.Driver->Uninitialize();
 521:/opt/XMClib/XMC_Peripheral_Library_v2.1.16/ThirdPartyLibraries/USBlib/USB/Core/XMC4000/USBController_XMC4000.c **** 		return -1;
 522:/opt/XMClib/XMC_Peripheral_Library_v2.1.16/ThirdPartyLibraries/USBlib/USB/Core/XMC4000/USBController_XMC4000.c **** 	}
 523:/opt/XMClib/XMC_Peripheral_Library_v2.1.16/ThirdPartyLibraries/USBlib/USB/Core/XMC4000/USBController_XMC4000.c **** 
 524:/opt/XMClib/XMC_Peripheral_Library_v2.1.16/ThirdPartyLibraries/USBlib/USB/Core/XMC4000/USBController_XMC4000.c **** 	return 0;
 1727              		.loc 1 524 9 is_stmt 0 view .LVU537
 1728 0050 2846     		mov	r0, r5
 525:/opt/XMClib/XMC_Peripheral_Library_v2.1.16/ThirdPartyLibraries/USBlib/USB/Core/XMC4000/USBController_XMC4000.c **** }
 1729              		.loc 1 525 1 view .LVU538
 1730 0052 38BD     		pop	{r3, r4, r5, pc}
 1731              	.LVL100:
 1732              	.L128:
 514:/opt/XMClib/XMC_Peripheral_Library_v2.1.16/ThirdPartyLibraries/USBlib/USB/Core/XMC4000/USBController_XMC4000.c **** 
 1733              		.loc 1 514 10 view .LVU539
 1734 0054 4FF0FF30 		mov	r0, #-1
 1735              	.LVL101:
 1736              		.loc 1 525 1 view .LVU540
 1737 0058 38BD     		pop	{r3, r4, r5, pc}
 1738              	.LVL102:
 1739              	.L131:
 1740              		.loc 1 525 1 view .LVU541
 1741 005a 00BF     		.align	2
 1742              	.L130:
 1743 005c 00000000 		.word	.LANCHOR0
 1744 0060 00000000 		.word	USB_DeviceState
 1745 0064 00000000 		.word	Driver_USBD0
 1746              		.cfi_endproc
 1747              	.LFE195:
 1749              		.section	.text.USB_IsEnumDone,"ax",%progbits
 1750              		.align	1
 1751              		.p2align 2,,3
 1752              		.global	USB_IsEnumDone
 1753              		.syntax unified
 1754              		.thumb
 1755              		.thumb_func
 1757              	USB_IsEnumDone:
 1758              	.LFB196:
 526:/opt/XMClib/XMC_Peripheral_Library_v2.1.16/ThirdPartyLibraries/USBlib/USB/Core/XMC4000/USBController_XMC4000.c **** 
 527:/opt/XMClib/XMC_Peripheral_Library_v2.1.16/ThirdPartyLibraries/USBlib/USB/Core/XMC4000/USBController_XMC4000.c **** /**
 528:/opt/XMClib/XMC_Peripheral_Library_v2.1.16/ThirdPartyLibraries/USBlib/USB/Core/XMC4000/USBController_XMC4000.c ****  * \brief Is the enumeration finished?
 529:/opt/XMClib/XMC_Peripheral_Library_v2.1.16/ThirdPartyLibraries/USBlib/USB/Core/XMC4000/USBController_XMC4000.c ****  *
 530:/opt/XMClib/XMC_Peripheral_Library_v2.1.16/ThirdPartyLibraries/USBlib/USB/Core/XMC4000/USBController_XMC4000.c ****  * Tell the USB device controller driver if the enumeration interrupt have been reached
 531:/opt/XMClib/XMC_Peripheral_Library_v2.1.16/ThirdPartyLibraries/USBlib/USB/Core/XMC4000/USBController_XMC4000.c ****  */
 532:/opt/XMClib/XMC_Peripheral_Library_v2.1.16/ThirdPartyLibraries/USBlib/USB/Core/XMC4000/USBController_XMC4000.c **** int USB_IsEnumDone(void){
 1759              		.loc 1 532 25 is_stmt 1 view -0
 1760              		.cfi_startproc
 1761              		@ args = 0, pretend = 0, frame = 0
 1762              		@ frame_needed = 0, uses_anonymous_args = 0
 533:/opt/XMClib/XMC_Peripheral_Library_v2.1.16/ThirdPartyLibraries/USBlib/USB/Core/XMC4000/USBController_XMC4000.c **** 	if (device.Driver->IsEnumDone())
 1763              		.loc 1 533 2 view .LVU543
 532:/opt/XMClib/XMC_Peripheral_Library_v2.1.16/ThirdPartyLibraries/USBlib/USB/Core/XMC4000/USBController_XMC4000.c **** 	if (device.Driver->IsEnumDone())
 1764              		.loc 1 532 25 is_stmt 0 view .LVU544
 1765 0000 08B5     		push	{r3, lr}
 1766              	.LCFI43:
 1767              		.cfi_def_cfa_offset 8
 1768              		.cfi_offset 3, -8
 1769              		.cfi_offset 14, -4
 1770              		.loc 1 533 12 view .LVU545
 1771 0002 044B     		ldr	r3, .L134
 1772              		.loc 1 533 19 view .LVU546
 1773 0004 1B68     		ldr	r3, [r3]
 1774              		.loc 1 533 6 view .LVU547
 1775 0006 DB6B     		ldr	r3, [r3, #60]
 1776 0008 9847     		blx	r3
 1777              	.LVL103:
 534:/opt/XMClib/XMC_Peripheral_Library_v2.1.16/ThirdPartyLibraries/USBlib/USB/Core/XMC4000/USBController_XMC4000.c **** 		return 1;
 535:/opt/XMClib/XMC_Peripheral_Library_v2.1.16/ThirdPartyLibraries/USBlib/USB/Core/XMC4000/USBController_XMC4000.c **** 	else
 536:/opt/XMClib/XMC_Peripheral_Library_v2.1.16/ThirdPartyLibraries/USBlib/USB/Core/XMC4000/USBController_XMC4000.c **** 		return 0;
 537:/opt/XMClib/XMC_Peripheral_Library_v2.1.16/ThirdPartyLibraries/USBlib/USB/Core/XMC4000/USBController_XMC4000.c ****  }
 1778              		.loc 1 537 2 view .LVU548
 1779 000a 0038     		subs	r0, r0, #0
 1780 000c 18BF     		it	ne
 1781 000e 0120     		movne	r0, #1
 1782 0010 08BD     		pop	{r3, pc}
 1783              	.L135:
 1784 0012 00BF     		.align	2
 1785              	.L134:
 1786 0014 00000000 		.word	.LANCHOR0
 1787              		.cfi_endproc
 1788              	.LFE196:
 1790              		.section	.text.USBD_SetEndpointBuffer,"ax",%progbits
 1791              		.align	1
 1792              		.p2align 2,,3
 1793              		.global	USBD_SetEndpointBuffer
 1794              		.syntax unified
 1795              		.thumb
 1796              		.thumb_func
 1798              	USBD_SetEndpointBuffer:
 1799              	.LVL104:
 1800              	.LFB197:
 538:/opt/XMClib/XMC_Peripheral_Library_v2.1.16/ThirdPartyLibraries/USBlib/USB/Core/XMC4000/USBController_XMC4000.c **** 
 539:/opt/XMClib/XMC_Peripheral_Library_v2.1.16/ThirdPartyLibraries/USBlib/USB/Core/XMC4000/USBController_XMC4000.c **** 
 540:/opt/XMClib/XMC_Peripheral_Library_v2.1.16/ThirdPartyLibraries/USBlib/USB/Core/XMC4000/USBController_XMC4000.c **** /**
 541:/opt/XMClib/XMC_Peripheral_Library_v2.1.16/ThirdPartyLibraries/USBlib/USB/Core/XMC4000/USBController_XMC4000.c ****  * \brief Set the buffer for an endpoint
 542:/opt/XMClib/XMC_Peripheral_Library_v2.1.16/ThirdPartyLibraries/USBlib/USB/Core/XMC4000/USBController_XMC4000.c ****  *
 543:/opt/XMClib/XMC_Peripheral_Library_v2.1.16/ThirdPartyLibraries/USBlib/USB/Core/XMC4000/USBController_XMC4000.c ****  * The user has to ensure the an endpoint has a valid buffer set
 544:/opt/XMClib/XMC_Peripheral_Library_v2.1.16/ThirdPartyLibraries/USBlib/USB/Core/XMC4000/USBController_XMC4000.c ****  * in order to ensure proper work.
 545:/opt/XMClib/XMC_Peripheral_Library_v2.1.16/ThirdPartyLibraries/USBlib/USB/Core/XMC4000/USBController_XMC4000.c ****  *
 546:/opt/XMClib/XMC_Peripheral_Library_v2.1.16/ThirdPartyLibraries/USBlib/USB/Core/XMC4000/USBController_XMC4000.c ****  * \param[in] addr Endpoint address
 547:/opt/XMClib/XMC_Peripheral_Library_v2.1.16/ThirdPartyLibraries/USBlib/USB/Core/XMC4000/USBController_XMC4000.c ****  * \param[in] buf Buffer pointer
 548:/opt/XMClib/XMC_Peripheral_Library_v2.1.16/ThirdPartyLibraries/USBlib/USB/Core/XMC4000/USBController_XMC4000.c ****  * \param[in] len Buffer length
 549:/opt/XMClib/XMC_Peripheral_Library_v2.1.16/ThirdPartyLibraries/USBlib/USB/Core/XMC4000/USBController_XMC4000.c ****  */
 550:/opt/XMClib/XMC_Peripheral_Library_v2.1.16/ThirdPartyLibraries/USBlib/USB/Core/XMC4000/USBController_XMC4000.c **** void USBD_SetEndpointBuffer(uint8_t addr,uint8_t *buf,uint16_t len) {
 1801              		.loc 1 550 69 is_stmt 1 view -0
 1802              		.cfi_startproc
 1803              		@ args = 0, pretend = 0, frame = 0
 1804              		@ frame_needed = 0, uses_anonymous_args = 0
 1805              		@ link register save eliminated.
 551:/opt/XMClib/XMC_Peripheral_Library_v2.1.16/ThirdPartyLibraries/USBlib/USB/Core/XMC4000/USBController_XMC4000.c **** 	uint8_t number  = addr & ENDPOINT_EPNUM_MASK;
 1806              		.loc 1 551 2 view .LVU550
 552:/opt/XMClib/XMC_Peripheral_Library_v2.1.16/ThirdPartyLibraries/USBlib/USB/Core/XMC4000/USBController_XMC4000.c **** 	if (addr & ENDPOINT_DIR_MASK) {
 553:/opt/XMClib/XMC_Peripheral_Library_v2.1.16/ThirdPartyLibraries/USBlib/USB/Core/XMC4000/USBController_XMC4000.c **** 		device.Endpoints[number].InBuffer = buf;
 1807              		.loc 1 553 37 is_stmt 0 view .LVU551
 1808 0000 074B     		ldr	r3, .L139
 552:/opt/XMClib/XMC_Peripheral_Library_v2.1.16/ThirdPartyLibraries/USBlib/USB/Core/XMC4000/USBController_XMC4000.c **** 	if (addr & ENDPOINT_DIR_MASK) {
 1809              		.loc 1 552 5 view .LVU552
 1810 0002 10F0800F 		tst	r0, #128
 551:/opt/XMClib/XMC_Peripheral_Library_v2.1.16/ThirdPartyLibraries/USBlib/USB/Core/XMC4000/USBController_XMC4000.c **** 	uint8_t number  = addr & ENDPOINT_EPNUM_MASK;
 1811              		.loc 1 551 10 view .LVU553
 1812 0006 00F00F0C 		and	ip, r0, #15
 1813              	.LVL105:
 552:/opt/XMClib/XMC_Peripheral_Library_v2.1.16/ThirdPartyLibraries/USBlib/USB/Core/XMC4000/USBController_XMC4000.c **** 	if (addr & ENDPOINT_DIR_MASK) {
 1814              		.loc 1 552 2 is_stmt 1 view .LVU554
 1815              		.loc 1 553 3 view .LVU555
 554:/opt/XMClib/XMC_Peripheral_Library_v2.1.16/ThirdPartyLibraries/USBlib/USB/Core/XMC4000/USBController_XMC4000.c **** 		device.Endpoints[number].InBufferLength = len;
 555:/opt/XMClib/XMC_Peripheral_Library_v2.1.16/ThirdPartyLibraries/USBlib/USB/Core/XMC4000/USBController_XMC4000.c **** 	} else {
 556:/opt/XMClib/XMC_Peripheral_Library_v2.1.16/ThirdPartyLibraries/USBlib/USB/Core/XMC4000/USBController_XMC4000.c **** 		device.Endpoints[number].OutBuffer = buf;
 1816              		.loc 1 556 3 view .LVU556
 553:/opt/XMClib/XMC_Peripheral_Library_v2.1.16/ThirdPartyLibraries/USBlib/USB/Core/XMC4000/USBController_XMC4000.c **** 		device.Endpoints[number].InBufferLength = len;
 1817              		.loc 1 553 37 is_stmt 0 view .LVU557
 1818 000a 4FF02C00 		mov	r0, #44
 1819              	.LVL106:
 553:/opt/XMClib/XMC_Peripheral_Library_v2.1.16/ThirdPartyLibraries/USBlib/USB/Core/XMC4000/USBController_XMC4000.c **** 		device.Endpoints[number].InBufferLength = len;
 1820              		.loc 1 553 37 view .LVU558
 1821 000e 00FB0C33 		mla	r3, r0, ip, r3
 554:/opt/XMClib/XMC_Peripheral_Library_v2.1.16/ThirdPartyLibraries/USBlib/USB/Core/XMC4000/USBController_XMC4000.c **** 		device.Endpoints[number].InBufferLength = len;
 1822              		.loc 1 554 43 view .LVU559
 1823 0012 14BF     		ite	ne
 1824 0014 C3E90812 		strdne	r1, r2, [r3, #32]
 557:/opt/XMClib/XMC_Peripheral_Library_v2.1.16/ThirdPartyLibraries/USBlib/USB/Core/XMC4000/USBController_XMC4000.c **** 		device.Endpoints[number].OutBufferLength = len;
 1825              		.loc 1 557 44 view .LVU560
 1826 0018 C3E90512 		strdeq	r1, r2, [r3, #20]
 558:/opt/XMClib/XMC_Peripheral_Library_v2.1.16/ThirdPartyLibraries/USBlib/USB/Core/XMC4000/USBController_XMC4000.c **** 	}
 559:/opt/XMClib/XMC_Peripheral_Library_v2.1.16/ThirdPartyLibraries/USBlib/USB/Core/XMC4000/USBController_XMC4000.c **** }
 1827              		.loc 1 559 1 view .LVU561
 1828 001c 7047     		bx	lr
 1829              	.L140:
 1830 001e 00BF     		.align	2
 1831              	.L139:
 1832 0020 00000000 		.word	.LANCHOR0
 1833              		.cfi_endproc
 1834              	.LFE197:
 1836              		.global	endpoint0_out_buffer
 1837              		.global	endpoint0_in_buffer
 1838              		.global	device
 1839              		.bss
 1840              		.align	2
 1841              		.set	.LANCHOR0,. + 0
 1844              	device:
 1845 0000 00000000 		.space	320
 1845      00000000 
 1845      00000000 
 1845      00000000 
 1845      00000000 
 1848              	endpoint0_in_buffer:
 1849 0140 00000000 		.space	256
 1849      00000000 
 1849      00000000 
 1849      00000000 
 1849      00000000 
 1852              	endpoint0_out_buffer:
 1853 0240 00000000 		.space	256
 1853      00000000 
 1853      00000000 
 1853      00000000 
 1853      00000000 
 1854              		.text
 1855              	.Letext0:
 1856              		.file 2 "/usr/share/gcc-arm-none-eabi-10.3-2021.10/arm-none-eabi/include/machine/_default_types.h"
 1857              		.file 3 "/usr/share/gcc-arm-none-eabi-10.3-2021.10/arm-none-eabi/include/sys/_stdint.h"
 1858              		.file 4 "/opt/XMClib/XMC_Peripheral_Library_v2.1.16/CMSIS/Infineon/XMC4500_series/Include/XMC4500.
 1859              		.file 5 "/opt/XMClib/XMC_Peripheral_Library_v2.1.16/XMCLib/inc/xmc_usbd.h"
 1860              		.file 6 "/opt/XMClib/XMC_Peripheral_Library_v2.1.16/ThirdPartyLibraries/USBlib/USB/Core/XMC4000/..
 1861              		.file 7 "/opt/XMClib/XMC_Peripheral_Library_v2.1.16/ThirdPartyLibraries/USBlib/USB/Core/XMC4000/..
 1862              		.file 8 "/opt/XMClib/XMC_Peripheral_Library_v2.1.16/ThirdPartyLibraries/USBlib/USB/Core/XMC4000/..
 1863              		.file 9 "/opt/XMClib/XMC_Peripheral_Library_v2.1.16/ThirdPartyLibraries/USBlib/USB/Core/XMC4000/..
 1864              		.file 10 "/opt/XMClib/XMC_Peripheral_Library_v2.1.16/ThirdPartyLibraries/USBlib/USB/Core/XMC4000/.
 1865              		.file 11 "<built-in>"