   1              		.cpu cortex-m4
   2              		.arch armv7e-m
   3              		.fpu fpv4-sp-d16
   4              		.eabi_attribute 27, 1
   5              		.eabi_attribute 20, 1
   6              		.eabi_attribute 21, 1
   7              		.eabi_attribute 23, 3
   8              		.eabi_attribute 24, 1
   9              		.eabi_attribute 25, 1
  10              		.eabi_attribute 26, 1
  11              		.eabi_attribute 30, 2
  12              		.eabi_attribute 34, 1
  13              		.eabi_attribute 18, 4
  14              		.file	"xmc_usbd.c"
  15              		.text
  16              	.Ltext0:
  17              		.cfi_sections	.debug_frame
  18              		.section	.text.XMC_USBD_lReadFifo,"ax",%progbits
  19              		.align	1
  20              		.p2align 2,,3
  21              		.syntax unified
  22              		.thumb
  23              		.thumb_func
  25              	XMC_USBD_lReadFifo:
  26              	.LVL0:
  27              	.LFB163:
  28              		.file 1 "/opt/XMClib/XMC_Peripheral_Library_v2.1.16/XMCLib/src/xmc_usbd.c"
   1:/opt/XMClib/XMC_Peripheral_Library_v2.1.16/XMCLib/src/xmc_usbd.c **** /**
   2:/opt/XMClib/XMC_Peripheral_Library_v2.1.16/XMCLib/src/xmc_usbd.c ****  * @file xmc_usbd.c
   3:/opt/XMClib/XMC_Peripheral_Library_v2.1.16/XMCLib/src/xmc_usbd.c ****  * @date 2015-06-20
   4:/opt/XMClib/XMC_Peripheral_Library_v2.1.16/XMCLib/src/xmc_usbd.c ****  *
   5:/opt/XMClib/XMC_Peripheral_Library_v2.1.16/XMCLib/src/xmc_usbd.c ****  * @cond
   6:/opt/XMClib/XMC_Peripheral_Library_v2.1.16/XMCLib/src/xmc_usbd.c ****  **********************************************************************************
   7:/opt/XMClib/XMC_Peripheral_Library_v2.1.16/XMCLib/src/xmc_usbd.c ****  * XMClib v2.1.16 - XMC Peripheral Driver Library 
   8:/opt/XMClib/XMC_Peripheral_Library_v2.1.16/XMCLib/src/xmc_usbd.c ****  *
   9:/opt/XMClib/XMC_Peripheral_Library_v2.1.16/XMCLib/src/xmc_usbd.c ****  * Copyright (c) 2015-2017, Infineon Technologies AG
  10:/opt/XMClib/XMC_Peripheral_Library_v2.1.16/XMCLib/src/xmc_usbd.c ****  * All rights reserved.                        
  11:/opt/XMClib/XMC_Peripheral_Library_v2.1.16/XMCLib/src/xmc_usbd.c ****  *                                             
  12:/opt/XMClib/XMC_Peripheral_Library_v2.1.16/XMCLib/src/xmc_usbd.c ****  * Redistribution and use in source and binary forms, with or without           
  13:/opt/XMClib/XMC_Peripheral_Library_v2.1.16/XMCLib/src/xmc_usbd.c ****  * modification,are permitted provided that the following conditions are met:   
  14:/opt/XMClib/XMC_Peripheral_Library_v2.1.16/XMCLib/src/xmc_usbd.c ****  *                                                                              
  15:/opt/XMClib/XMC_Peripheral_Library_v2.1.16/XMCLib/src/xmc_usbd.c ****  *   Redistributions of source code must retain the above copyright notice,      
  16:/opt/XMClib/XMC_Peripheral_Library_v2.1.16/XMCLib/src/xmc_usbd.c ****  *   this list of conditions and the following disclaimer.                        
  17:/opt/XMClib/XMC_Peripheral_Library_v2.1.16/XMCLib/src/xmc_usbd.c ****  * 
  18:/opt/XMClib/XMC_Peripheral_Library_v2.1.16/XMCLib/src/xmc_usbd.c ****  *   Redistributions in binary form must reproduce the above copyright notice,   
  19:/opt/XMClib/XMC_Peripheral_Library_v2.1.16/XMCLib/src/xmc_usbd.c ****  *   this list of conditions and the following disclaimer in the documentation    
  20:/opt/XMClib/XMC_Peripheral_Library_v2.1.16/XMCLib/src/xmc_usbd.c ****  *   and/or other materials provided with the distribution.                       
  21:/opt/XMClib/XMC_Peripheral_Library_v2.1.16/XMCLib/src/xmc_usbd.c ****  * 
  22:/opt/XMClib/XMC_Peripheral_Library_v2.1.16/XMCLib/src/xmc_usbd.c ****  *   Neither the name of the copyright holders nor the names of its contributors 
  23:/opt/XMClib/XMC_Peripheral_Library_v2.1.16/XMCLib/src/xmc_usbd.c ****  *   may be used to endorse or promote products derived from this software without
  24:/opt/XMClib/XMC_Peripheral_Library_v2.1.16/XMCLib/src/xmc_usbd.c ****  *   specific prior written permission.                                           
  25:/opt/XMClib/XMC_Peripheral_Library_v2.1.16/XMCLib/src/xmc_usbd.c ****  *                                                                              
  26:/opt/XMClib/XMC_Peripheral_Library_v2.1.16/XMCLib/src/xmc_usbd.c ****  * THIS SOFTWARE IS PROVIDED BY THE COPYRIGHT HOLDERS AND CONTRIBUTORS "AS IS"  
  27:/opt/XMClib/XMC_Peripheral_Library_v2.1.16/XMCLib/src/xmc_usbd.c ****  * AND ANY EXPRESS OR IMPLIED WARRANTIES, INCLUDING, BUT NOT LIMITED TO, THE    
  28:/opt/XMClib/XMC_Peripheral_Library_v2.1.16/XMCLib/src/xmc_usbd.c ****  * IMPLIED WARRANTIES OF MERCHANTABILITY AND FITNESS FOR A PARTICULAR PURPOSE   
  29:/opt/XMClib/XMC_Peripheral_Library_v2.1.16/XMCLib/src/xmc_usbd.c ****  * ARE  DISCLAIMED. IN NO EVENT SHALL THE COPYRIGHT HOLDER OR CONTRIBUTORS BE   
  30:/opt/XMClib/XMC_Peripheral_Library_v2.1.16/XMCLib/src/xmc_usbd.c ****  * LIABLE  FOR ANY DIRECT, INDIRECT, INCIDENTAL, SPECIAL, EXEMPLARY, OR         
  31:/opt/XMClib/XMC_Peripheral_Library_v2.1.16/XMCLib/src/xmc_usbd.c ****  * CONSEQUENTIAL DAMAGES (INCLUDING, BUT NOT LIMITED TO, PROCUREMENT OF         
  32:/opt/XMClib/XMC_Peripheral_Library_v2.1.16/XMCLib/src/xmc_usbd.c ****  * SUBSTITUTE GOODS OR  SERVICES; LOSS OF USE, DATA, OR PROFITS; OR BUSINESS    
  33:/opt/XMClib/XMC_Peripheral_Library_v2.1.16/XMCLib/src/xmc_usbd.c ****  * INTERRUPTION) HOWEVER CAUSED AND ON ANY THEORY OF LIABILITY, WHETHER IN      
  34:/opt/XMClib/XMC_Peripheral_Library_v2.1.16/XMCLib/src/xmc_usbd.c ****  * CONTRACT, STRICT LIABILITY,OR TORT (INCLUDING NEGLIGENCE OR OTHERWISE)       
  35:/opt/XMClib/XMC_Peripheral_Library_v2.1.16/XMCLib/src/xmc_usbd.c ****  * ARISING IN ANY WAY OUT OF THE USE OF THIS SOFTWARE, EVEN IF ADVISED OF THE   
  36:/opt/XMClib/XMC_Peripheral_Library_v2.1.16/XMCLib/src/xmc_usbd.c ****  * POSSIBILITY OF SUCH DAMAGE.                                                  
  37:/opt/XMClib/XMC_Peripheral_Library_v2.1.16/XMCLib/src/xmc_usbd.c ****  *                                                                              
  38:/opt/XMClib/XMC_Peripheral_Library_v2.1.16/XMCLib/src/xmc_usbd.c ****  * To improve the quality of the software, users are encouraged to share        
  39:/opt/XMClib/XMC_Peripheral_Library_v2.1.16/XMCLib/src/xmc_usbd.c ****  * modifications, enhancements or bug fixes with Infineon Technologies AG       
  40:/opt/XMClib/XMC_Peripheral_Library_v2.1.16/XMCLib/src/xmc_usbd.c ****  * dave@infineon.com).                                                          
  41:/opt/XMClib/XMC_Peripheral_Library_v2.1.16/XMCLib/src/xmc_usbd.c ****  **********************************************************************************
  42:/opt/XMClib/XMC_Peripheral_Library_v2.1.16/XMCLib/src/xmc_usbd.c ****  *
  43:/opt/XMClib/XMC_Peripheral_Library_v2.1.16/XMCLib/src/xmc_usbd.c ****  * Change History
  44:/opt/XMClib/XMC_Peripheral_Library_v2.1.16/XMCLib/src/xmc_usbd.c ****  * --------------
  45:/opt/XMClib/XMC_Peripheral_Library_v2.1.16/XMCLib/src/xmc_usbd.c ****  *
  46:/opt/XMClib/XMC_Peripheral_Library_v2.1.16/XMCLib/src/xmc_usbd.c ****  * 2015-02-16:
  47:/opt/XMClib/XMC_Peripheral_Library_v2.1.16/XMCLib/src/xmc_usbd.c ****  *     - Initial Version.<br>           
  48:/opt/XMClib/XMC_Peripheral_Library_v2.1.16/XMCLib/src/xmc_usbd.c ****  * 2015-03-18:
  49:/opt/XMClib/XMC_Peripheral_Library_v2.1.16/XMCLib/src/xmc_usbd.c ****  *     - Updated the XMC_USBD_EndpointStall() to fix issue on USB clear stall. <br>
  50:/opt/XMClib/XMC_Peripheral_Library_v2.1.16/XMCLib/src/xmc_usbd.c ****  *     - Updated the XMC_USBD_EndpointConfigure() to fix issue in EP0 configuration.<br>
  51:/opt/XMClib/XMC_Peripheral_Library_v2.1.16/XMCLib/src/xmc_usbd.c ****  *     - Updated the XMC_USBD_IRQHandler()(Removed the DAVE_CE check on SOF event).<br>
  52:/opt/XMClib/XMC_Peripheral_Library_v2.1.16/XMCLib/src/xmc_usbd.c ****  * 2015-06-20:
  53:/opt/XMClib/XMC_Peripheral_Library_v2.1.16/XMCLib/src/xmc_usbd.c ****  *     - Removed GetDriverVersion API.<br>
  54:/opt/XMClib/XMC_Peripheral_Library_v2.1.16/XMCLib/src/xmc_usbd.c ****  *     - Updated the XMC_USBD_IsEnumDone() API.<br>
  55:/opt/XMClib/XMC_Peripheral_Library_v2.1.16/XMCLib/src/xmc_usbd.c ****  *     - Updated the copy right in the file header.<br>
  56:/opt/XMClib/XMC_Peripheral_Library_v2.1.16/XMCLib/src/xmc_usbd.c ****  *     - Updated the XMC_USBD_Disable() API to gate the clock after programming the SCU registers.<
  57:/opt/XMClib/XMC_Peripheral_Library_v2.1.16/XMCLib/src/xmc_usbd.c ****  *
  58:/opt/XMClib/XMC_Peripheral_Library_v2.1.16/XMCLib/src/xmc_usbd.c ****  * @endcond 
  59:/opt/XMClib/XMC_Peripheral_Library_v2.1.16/XMCLib/src/xmc_usbd.c ****  *
  60:/opt/XMClib/XMC_Peripheral_Library_v2.1.16/XMCLib/src/xmc_usbd.c ****  */
  61:/opt/XMClib/XMC_Peripheral_Library_v2.1.16/XMCLib/src/xmc_usbd.c **** 
  62:/opt/XMClib/XMC_Peripheral_Library_v2.1.16/XMCLib/src/xmc_usbd.c **** 
  63:/opt/XMClib/XMC_Peripheral_Library_v2.1.16/XMCLib/src/xmc_usbd.c **** /*******************************************************************************
  64:/opt/XMClib/XMC_Peripheral_Library_v2.1.16/XMCLib/src/xmc_usbd.c ****  * HEADER FILES
  65:/opt/XMClib/XMC_Peripheral_Library_v2.1.16/XMCLib/src/xmc_usbd.c ****  *******************************************************************************/
  66:/opt/XMClib/XMC_Peripheral_Library_v2.1.16/XMCLib/src/xmc_usbd.c **** #include <xmc_usbd.h>
  67:/opt/XMClib/XMC_Peripheral_Library_v2.1.16/XMCLib/src/xmc_usbd.c **** 
  68:/opt/XMClib/XMC_Peripheral_Library_v2.1.16/XMCLib/src/xmc_usbd.c **** #if defined(USB0)
  69:/opt/XMClib/XMC_Peripheral_Library_v2.1.16/XMCLib/src/xmc_usbd.c **** 	
  70:/opt/XMClib/XMC_Peripheral_Library_v2.1.16/XMCLib/src/xmc_usbd.c **** /**< macro to check the maximum number of endpoints used*/
  71:/opt/XMClib/XMC_Peripheral_Library_v2.1.16/XMCLib/src/xmc_usbd.c **** #define XMC_USBD_CHECK_INPUT_MAX_NUM_EPS(usbd_max_num_eps) \
  72:/opt/XMClib/XMC_Peripheral_Library_v2.1.16/XMCLib/src/xmc_usbd.c ****   ((usbd_max_num_eps ==  XMC_USBD_MAX_NUM_EPS_1 ) || \
  73:/opt/XMClib/XMC_Peripheral_Library_v2.1.16/XMCLib/src/xmc_usbd.c ****    (usbd_max_num_eps ==  XMC_USBD_MAX_NUM_EPS_2 ) || \
  74:/opt/XMClib/XMC_Peripheral_Library_v2.1.16/XMCLib/src/xmc_usbd.c ****    (usbd_max_num_eps ==  XMC_USBD_MAX_NUM_EPS_3 ) || \
  75:/opt/XMClib/XMC_Peripheral_Library_v2.1.16/XMCLib/src/xmc_usbd.c ****    (usbd_max_num_eps ==  XMC_USBD_MAX_NUM_EPS_4 ) || \
  76:/opt/XMClib/XMC_Peripheral_Library_v2.1.16/XMCLib/src/xmc_usbd.c ****    (usbd_max_num_eps ==  XMC_USBD_MAX_NUM_EPS_5 ) || \
  77:/opt/XMClib/XMC_Peripheral_Library_v2.1.16/XMCLib/src/xmc_usbd.c ****    (usbd_max_num_eps ==  XMC_USBD_MAX_NUM_EPS_6 ) || \
  78:/opt/XMClib/XMC_Peripheral_Library_v2.1.16/XMCLib/src/xmc_usbd.c ****    (usbd_max_num_eps == XMC_USBD_MAX_NUM_EPS_7 ))
  79:/opt/XMClib/XMC_Peripheral_Library_v2.1.16/XMCLib/src/xmc_usbd.c **** 
  80:/opt/XMClib/XMC_Peripheral_Library_v2.1.16/XMCLib/src/xmc_usbd.c **** /*******************************************************************************
  81:/opt/XMClib/XMC_Peripheral_Library_v2.1.16/XMCLib/src/xmc_usbd.c ****  *GLOBAL DATA
  82:/opt/XMClib/XMC_Peripheral_Library_v2.1.16/XMCLib/src/xmc_usbd.c ****  *******************************************************************************/
  83:/opt/XMClib/XMC_Peripheral_Library_v2.1.16/XMCLib/src/xmc_usbd.c **** /*
  84:/opt/XMClib/XMC_Peripheral_Library_v2.1.16/XMCLib/src/xmc_usbd.c ****  * Endpoint Out Fifo Size
  85:/opt/XMClib/XMC_Peripheral_Library_v2.1.16/XMCLib/src/xmc_usbd.c ****  */
  86:/opt/XMClib/XMC_Peripheral_Library_v2.1.16/XMCLib/src/xmc_usbd.c **** uint32_t XMC_USBD_EP_OUT_BUFFERSIZE[7] = {0U,0U,0U,0U,0U,0U,0U};
  87:/opt/XMClib/XMC_Peripheral_Library_v2.1.16/XMCLib/src/xmc_usbd.c **** /*
  88:/opt/XMClib/XMC_Peripheral_Library_v2.1.16/XMCLib/src/xmc_usbd.c ****  * Endpoint In Fifo Size
  89:/opt/XMClib/XMC_Peripheral_Library_v2.1.16/XMCLib/src/xmc_usbd.c ****  */
  90:/opt/XMClib/XMC_Peripheral_Library_v2.1.16/XMCLib/src/xmc_usbd.c **** uint32_t XMC_USBD_EP_IN_BUFFERSIZE[7] = {0U,0U,0U,0U,0U,0U,0U};
  91:/opt/XMClib/XMC_Peripheral_Library_v2.1.16/XMCLib/src/xmc_usbd.c **** /*
  92:/opt/XMClib/XMC_Peripheral_Library_v2.1.16/XMCLib/src/xmc_usbd.c ****  * Device definition
  93:/opt/XMClib/XMC_Peripheral_Library_v2.1.16/XMCLib/src/xmc_usbd.c ****  */
  94:/opt/XMClib/XMC_Peripheral_Library_v2.1.16/XMCLib/src/xmc_usbd.c ****  XMC_USBD_DEVICE_t xmc_device;
  95:/opt/XMClib/XMC_Peripheral_Library_v2.1.16/XMCLib/src/xmc_usbd.c **** #ifdef __GNUC__															  /*GCC*/
  96:/opt/XMClib/XMC_Peripheral_Library_v2.1.16/XMCLib/src/xmc_usbd.c **** /*
  97:/opt/XMClib/XMC_Peripheral_Library_v2.1.16/XMCLib/src/xmc_usbd.c ****  * Endpoint Out Fifo
  98:/opt/XMClib/XMC_Peripheral_Library_v2.1.16/XMCLib/src/xmc_usbd.c ****  */
  99:/opt/XMClib/XMC_Peripheral_Library_v2.1.16/XMCLib/src/xmc_usbd.c **** static __attribute__((aligned(4))) uint8_t XMC_USBD_EP_OUT_BUFFER[7][256] __attribute__((section("U
 100:/opt/XMClib/XMC_Peripheral_Library_v2.1.16/XMCLib/src/xmc_usbd.c **** /*
 101:/opt/XMClib/XMC_Peripheral_Library_v2.1.16/XMCLib/src/xmc_usbd.c ****  * Endpoint In Fifo
 102:/opt/XMClib/XMC_Peripheral_Library_v2.1.16/XMCLib/src/xmc_usbd.c ****  */
 103:/opt/XMClib/XMC_Peripheral_Library_v2.1.16/XMCLib/src/xmc_usbd.c **** static __attribute__((aligned(4))) uint8_t XMC_USBD_EP_IN_BUFFER[7][256] __attribute__((section("US
 104:/opt/XMClib/XMC_Peripheral_Library_v2.1.16/XMCLib/src/xmc_usbd.c **** #endif
 105:/opt/XMClib/XMC_Peripheral_Library_v2.1.16/XMCLib/src/xmc_usbd.c **** #if defined(__ICCARM__)
 106:/opt/XMClib/XMC_Peripheral_Library_v2.1.16/XMCLib/src/xmc_usbd.c **** #pragma data_alignment=4
 107:/opt/XMClib/XMC_Peripheral_Library_v2.1.16/XMCLib/src/xmc_usbd.c **** /*
 108:/opt/XMClib/XMC_Peripheral_Library_v2.1.16/XMCLib/src/xmc_usbd.c ****  * Endpoint Out Fifo
 109:/opt/XMClib/XMC_Peripheral_Library_v2.1.16/XMCLib/src/xmc_usbd.c ****  */
 110:/opt/XMClib/XMC_Peripheral_Library_v2.1.16/XMCLib/src/xmc_usbd.c **** static uint8_t XMC_USBD_EP_OUT_BUFFER[7][256] @ ".dram";
 111:/opt/XMClib/XMC_Peripheral_Library_v2.1.16/XMCLib/src/xmc_usbd.c **** /*
 112:/opt/XMClib/XMC_Peripheral_Library_v2.1.16/XMCLib/src/xmc_usbd.c ****  * Endpoint In Fifo
 113:/opt/XMClib/XMC_Peripheral_Library_v2.1.16/XMCLib/src/xmc_usbd.c ****  */
 114:/opt/XMClib/XMC_Peripheral_Library_v2.1.16/XMCLib/src/xmc_usbd.c **** #pragma data_alignment=4
 115:/opt/XMClib/XMC_Peripheral_Library_v2.1.16/XMCLib/src/xmc_usbd.c **** static uint8_t XMC_USBD_EP_IN_BUFFER[7][256] @ ".dram";
 116:/opt/XMClib/XMC_Peripheral_Library_v2.1.16/XMCLib/src/xmc_usbd.c **** #endif
 117:/opt/XMClib/XMC_Peripheral_Library_v2.1.16/XMCLib/src/xmc_usbd.c **** #if defined(__CC_ARM)
 118:/opt/XMClib/XMC_Peripheral_Library_v2.1.16/XMCLib/src/xmc_usbd.c **** /*
 119:/opt/XMClib/XMC_Peripheral_Library_v2.1.16/XMCLib/src/xmc_usbd.c ****  * Endpoint Out Fifo
 120:/opt/XMClib/XMC_Peripheral_Library_v2.1.16/XMCLib/src/xmc_usbd.c ****  */
 121:/opt/XMClib/XMC_Peripheral_Library_v2.1.16/XMCLib/src/xmc_usbd.c **** static __attribute__((aligned(4))) uint8_t XMC_USBD_EP_OUT_BUFFER[7][256] __attribute__((section ("
 122:/opt/XMClib/XMC_Peripheral_Library_v2.1.16/XMCLib/src/xmc_usbd.c **** /*
 123:/opt/XMClib/XMC_Peripheral_Library_v2.1.16/XMCLib/src/xmc_usbd.c ****  * Endpoint In Fifo
 124:/opt/XMClib/XMC_Peripheral_Library_v2.1.16/XMCLib/src/xmc_usbd.c ****  */
 125:/opt/XMClib/XMC_Peripheral_Library_v2.1.16/XMCLib/src/xmc_usbd.c **** static __attribute__((aligned(4))) uint8_t XMC_USBD_EP_IN_BUFFER[7][256] __attribute__((section ("R
 126:/opt/XMClib/XMC_Peripheral_Library_v2.1.16/XMCLib/src/xmc_usbd.c **** #endif
 127:/opt/XMClib/XMC_Peripheral_Library_v2.1.16/XMCLib/src/xmc_usbd.c **** XMC_USBD_t *usbd_init;
 128:/opt/XMClib/XMC_Peripheral_Library_v2.1.16/XMCLib/src/xmc_usbd.c **** 
 129:/opt/XMClib/XMC_Peripheral_Library_v2.1.16/XMCLib/src/xmc_usbd.c **** /*******************************************************************************
 130:/opt/XMClib/XMC_Peripheral_Library_v2.1.16/XMCLib/src/xmc_usbd.c ****  *LOCAL ROUTINES
 131:/opt/XMClib/XMC_Peripheral_Library_v2.1.16/XMCLib/src/xmc_usbd.c ****  *******************************************************************************/
 132:/opt/XMClib/XMC_Peripheral_Library_v2.1.16/XMCLib/src/xmc_usbd.c **** /*Local routines prototypes*/
 133:/opt/XMClib/XMC_Peripheral_Library_v2.1.16/XMCLib/src/xmc_usbd.c **** uint8_t XMC_USBD_lDeviceActive(const XMC_USBD_t *const obj);
 134:/opt/XMClib/XMC_Peripheral_Library_v2.1.16/XMCLib/src/xmc_usbd.c **** static void XMC_USBD_lReadFifo(const uint32_t ep_num,const uint32_t byte_count);
 135:/opt/XMClib/XMC_Peripheral_Library_v2.1.16/XMCLib/src/xmc_usbd.c **** static uint32_t XMC_USBD_lWriteFifo(XMC_USBD_EP_t *ep);
 136:/opt/XMClib/XMC_Peripheral_Library_v2.1.16/XMCLib/src/xmc_usbd.c **** static void XMC_USBD_lFlushTXFifo(const uint8_t fifo_num);
 137:/opt/XMClib/XMC_Peripheral_Library_v2.1.16/XMCLib/src/xmc_usbd.c **** static void XMC_USBD_lFlushRXFifo(void);
 138:/opt/XMClib/XMC_Peripheral_Library_v2.1.16/XMCLib/src/xmc_usbd.c **** static uint8_t XMC_USBD_lAssignTXFifo(void);
 139:/opt/XMClib/XMC_Peripheral_Library_v2.1.16/XMCLib/src/xmc_usbd.c **** static void XMC_USBD_lStartReadXfer(XMC_USBD_EP_t *const ep);
 140:/opt/XMClib/XMC_Peripheral_Library_v2.1.16/XMCLib/src/xmc_usbd.c **** static void XMC_USBD_lStartWriteXfer(XMC_USBD_EP_t *const ep);
 141:/opt/XMClib/XMC_Peripheral_Library_v2.1.16/XMCLib/src/xmc_usbd.c **** static void XMC_USBD_lHandleEnumDone(void);
 142:/opt/XMClib/XMC_Peripheral_Library_v2.1.16/XMCLib/src/xmc_usbd.c **** static void XMC_USBD_lHandleOEPInt(const XMC_USBD_t *const obj);
 143:/opt/XMClib/XMC_Peripheral_Library_v2.1.16/XMCLib/src/xmc_usbd.c **** static void XMC_USBD_lHandleRxFLvl(void);
 144:/opt/XMClib/XMC_Peripheral_Library_v2.1.16/XMCLib/src/xmc_usbd.c **** static void XMC_USBD_lHandleIEPInt(const XMC_USBD_t *const obj);
 145:/opt/XMClib/XMC_Peripheral_Library_v2.1.16/XMCLib/src/xmc_usbd.c **** static void XMC_USBD_lUnassignFifo(const uint8_t fifo_nr);
 146:/opt/XMClib/XMC_Peripheral_Library_v2.1.16/XMCLib/src/xmc_usbd.c **** static void XMC_USBD_lHandleUSBReset(const XMC_USBD_t *const obj);
 147:/opt/XMClib/XMC_Peripheral_Library_v2.1.16/XMCLib/src/xmc_usbd.c **** static void XMC_USBD_lHandleOTGInt(void);
 148:/opt/XMClib/XMC_Peripheral_Library_v2.1.16/XMCLib/src/xmc_usbd.c **** static void XMC_USBD_lClearEventOTG(uint32_t event);
 149:/opt/XMClib/XMC_Peripheral_Library_v2.1.16/XMCLib/src/xmc_usbd.c **** 
 150:/opt/XMClib/XMC_Peripheral_Library_v2.1.16/XMCLib/src/xmc_usbd.c **** /**
 151:/opt/XMClib/XMC_Peripheral_Library_v2.1.16/XMCLib/src/xmc_usbd.c ****  *  The device driver
 152:/opt/XMClib/XMC_Peripheral_Library_v2.1.16/XMCLib/src/xmc_usbd.c ****  */
 153:/opt/XMClib/XMC_Peripheral_Library_v2.1.16/XMCLib/src/xmc_usbd.c **** const XMC_USBD_DRIVER_t Driver_USBD0 =
 154:/opt/XMClib/XMC_Peripheral_Library_v2.1.16/XMCLib/src/xmc_usbd.c **** {
 155:/opt/XMClib/XMC_Peripheral_Library_v2.1.16/XMCLib/src/xmc_usbd.c ****   .GetCapabilities = XMC_USBD_GetCapabilities,
 156:/opt/XMClib/XMC_Peripheral_Library_v2.1.16/XMCLib/src/xmc_usbd.c ****   .Initialize = XMC_USBD_Init,
 157:/opt/XMClib/XMC_Peripheral_Library_v2.1.16/XMCLib/src/xmc_usbd.c ****   .Uninitialize = XMC_USBD_Uninitialize,
 158:/opt/XMClib/XMC_Peripheral_Library_v2.1.16/XMCLib/src/xmc_usbd.c ****   .DeviceConnect = XMC_USBD_DeviceConnect,
 159:/opt/XMClib/XMC_Peripheral_Library_v2.1.16/XMCLib/src/xmc_usbd.c ****   .DeviceDisconnect = XMC_USBD_DeviceDisconnect,
 160:/opt/XMClib/XMC_Peripheral_Library_v2.1.16/XMCLib/src/xmc_usbd.c ****   .DeviceGetState = XMC_USBD_DeviceGetState,
 161:/opt/XMClib/XMC_Peripheral_Library_v2.1.16/XMCLib/src/xmc_usbd.c ****   .DeviceSetAddress = XMC_USBD_DeviceSetAddress,
 162:/opt/XMClib/XMC_Peripheral_Library_v2.1.16/XMCLib/src/xmc_usbd.c ****   .EndpointConfigure = XMC_USBD_EndpointConfigure,
 163:/opt/XMClib/XMC_Peripheral_Library_v2.1.16/XMCLib/src/xmc_usbd.c ****   .EndpointUnconfigure = XMC_USBD_EndpointUnconfigure,
 164:/opt/XMClib/XMC_Peripheral_Library_v2.1.16/XMCLib/src/xmc_usbd.c ****   .EndpointStall = XMC_USBD_EndpointStall,
 165:/opt/XMClib/XMC_Peripheral_Library_v2.1.16/XMCLib/src/xmc_usbd.c ****   .EndpointReadStart = XMC_USBD_EndpointReadStart,
 166:/opt/XMClib/XMC_Peripheral_Library_v2.1.16/XMCLib/src/xmc_usbd.c ****   .EndpointRead = XMC_USBD_EndpointRead,
 167:/opt/XMClib/XMC_Peripheral_Library_v2.1.16/XMCLib/src/xmc_usbd.c ****   .EndpointWrite = XMC_USBD_EndpointWrite,
 168:/opt/XMClib/XMC_Peripheral_Library_v2.1.16/XMCLib/src/xmc_usbd.c ****   .EndpointAbort = XMC_USBD_EndpointAbort,
 169:/opt/XMClib/XMC_Peripheral_Library_v2.1.16/XMCLib/src/xmc_usbd.c ****   .GetFrameNumber = XMC_USBD_GetFrameNumber,
 170:/opt/XMClib/XMC_Peripheral_Library_v2.1.16/XMCLib/src/xmc_usbd.c ****   .IsEnumDone = XMC_USBD_IsEnumDone
 171:/opt/XMClib/XMC_Peripheral_Library_v2.1.16/XMCLib/src/xmc_usbd.c **** };
 172:/opt/XMClib/XMC_Peripheral_Library_v2.1.16/XMCLib/src/xmc_usbd.c **** 
 173:/opt/XMClib/XMC_Peripheral_Library_v2.1.16/XMCLib/src/xmc_usbd.c **** /**
 174:/opt/XMClib/XMC_Peripheral_Library_v2.1.16/XMCLib/src/xmc_usbd.c ****  * @brief Checks if device is active
 175:/opt/XMClib/XMC_Peripheral_Library_v2.1.16/XMCLib/src/xmc_usbd.c ****  *
 176:/opt/XMClib/XMC_Peripheral_Library_v2.1.16/XMCLib/src/xmc_usbd.c ****  * Therefore the endpoint inInUse flag are checked and if one endpoint is in use, 1 is returned,
 177:/opt/XMClib/XMC_Peripheral_Library_v2.1.16/XMCLib/src/xmc_usbd.c ****  * else 0 is returned.
 178:/opt/XMClib/XMC_Peripheral_Library_v2.1.16/XMCLib/src/xmc_usbd.c ****  * @return 1 if an endpoint is active else 0
 179:/opt/XMClib/XMC_Peripheral_Library_v2.1.16/XMCLib/src/xmc_usbd.c ****  */
 180:/opt/XMClib/XMC_Peripheral_Library_v2.1.16/XMCLib/src/xmc_usbd.c **** uint8_t XMC_USBD_lDeviceActive(const XMC_USBD_t *const obj) 
 181:/opt/XMClib/XMC_Peripheral_Library_v2.1.16/XMCLib/src/xmc_usbd.c **** {
 182:/opt/XMClib/XMC_Peripheral_Library_v2.1.16/XMCLib/src/xmc_usbd.c ****   uint8_t i;
 183:/opt/XMClib/XMC_Peripheral_Library_v2.1.16/XMCLib/src/xmc_usbd.c ****   uint8_t result = 0U;
 184:/opt/XMClib/XMC_Peripheral_Library_v2.1.16/XMCLib/src/xmc_usbd.c ****   for (i = 0U; i < (uint8_t)obj->usbd_max_num_eps; i++)
 185:/opt/XMClib/XMC_Peripheral_Library_v2.1.16/XMCLib/src/xmc_usbd.c ****   {
 186:/opt/XMClib/XMC_Peripheral_Library_v2.1.16/XMCLib/src/xmc_usbd.c ****     if (xmc_device.ep[i].inInUse || xmc_device.ep[i].outInUse)
 187:/opt/XMClib/XMC_Peripheral_Library_v2.1.16/XMCLib/src/xmc_usbd.c ****     {
 188:/opt/XMClib/XMC_Peripheral_Library_v2.1.16/XMCLib/src/xmc_usbd.c ****       result = 1U;
 189:/opt/XMClib/XMC_Peripheral_Library_v2.1.16/XMCLib/src/xmc_usbd.c ****     }
 190:/opt/XMClib/XMC_Peripheral_Library_v2.1.16/XMCLib/src/xmc_usbd.c ****   }
 191:/opt/XMClib/XMC_Peripheral_Library_v2.1.16/XMCLib/src/xmc_usbd.c ****   return result;
 192:/opt/XMClib/XMC_Peripheral_Library_v2.1.16/XMCLib/src/xmc_usbd.c **** }
 193:/opt/XMClib/XMC_Peripheral_Library_v2.1.16/XMCLib/src/xmc_usbd.c **** 
 194:/opt/XMClib/XMC_Peripheral_Library_v2.1.16/XMCLib/src/xmc_usbd.c **** 
 195:/opt/XMClib/XMC_Peripheral_Library_v2.1.16/XMCLib/src/xmc_usbd.c **** /**
 196:/opt/XMClib/XMC_Peripheral_Library_v2.1.16/XMCLib/src/xmc_usbd.c ****  * @brief Read data from the rx fifo
 197:/opt/XMClib/XMC_Peripheral_Library_v2.1.16/XMCLib/src/xmc_usbd.c ****  *
 198:/opt/XMClib/XMC_Peripheral_Library_v2.1.16/XMCLib/src/xmc_usbd.c ****  * The data from the fifo is copied in to the buffer specified by @ref xfer_buffer and
 199:/opt/XMClib/XMC_Peripheral_Library_v2.1.16/XMCLib/src/xmc_usbd.c ****  * the transfer values get updated. If the endpoint is disabled or the buffer not existent
 200:/opt/XMClib/XMC_Peripheral_Library_v2.1.16/XMCLib/src/xmc_usbd.c ****  * the function exits.
 201:/opt/XMClib/XMC_Peripheral_Library_v2.1.16/XMCLib/src/xmc_usbd.c ****  *
 202:/opt/XMClib/XMC_Peripheral_Library_v2.1.16/XMCLib/src/xmc_usbd.c ****  * @arg ep_num the endpoint to read for
 203:/opt/XMClib/XMC_Peripheral_Library_v2.1.16/XMCLib/src/xmc_usbd.c ****  * @arg byte_count the byte count to read
 204:/opt/XMClib/XMC_Peripheral_Library_v2.1.16/XMCLib/src/xmc_usbd.c ****  */
 205:/opt/XMClib/XMC_Peripheral_Library_v2.1.16/XMCLib/src/xmc_usbd.c **** static void XMC_USBD_lReadFifo(const uint32_t ep_num,const uint32_t byte_count) 
 206:/opt/XMClib/XMC_Peripheral_Library_v2.1.16/XMCLib/src/xmc_usbd.c **** {
  29              		.loc 1 206 1 view -0
  30              		.cfi_startproc
  31              		@ args = 0, pretend = 0, frame = 0
  32              		@ frame_needed = 0, uses_anonymous_args = 0
 207:/opt/XMClib/XMC_Peripheral_Library_v2.1.16/XMCLib/src/xmc_usbd.c ****   XMC_USBD_EP_t * ep = &xmc_device.ep[ep_num];
  33              		.loc 1 207 3 view .LVU1
 206:/opt/XMClib/XMC_Peripheral_Library_v2.1.16/XMCLib/src/xmc_usbd.c ****   XMC_USBD_EP_t * ep = &xmc_device.ep[ep_num];
  34              		.loc 1 206 1 is_stmt 0 view .LVU2
  35 0000 2DE9F041 		push	{r4, r5, r6, r7, r8, lr}
  36              	.LCFI0:
  37              		.cfi_def_cfa_offset 24
  38              		.cfi_offset 4, -24
  39              		.cfi_offset 5, -20
  40              		.cfi_offset 6, -16
  41              		.cfi_offset 7, -12
  42              		.cfi_offset 8, -8
  43              		.cfi_offset 14, -4
 208:/opt/XMClib/XMC_Peripheral_Library_v2.1.16/XMCLib/src/xmc_usbd.c ****   uint32_t word_count;
 209:/opt/XMClib/XMC_Peripheral_Library_v2.1.16/XMCLib/src/xmc_usbd.c ****   uint32_t temp_data;
 210:/opt/XMClib/XMC_Peripheral_Library_v2.1.16/XMCLib/src/xmc_usbd.c ****   uint32_t temp_word_count;
 211:/opt/XMClib/XMC_Peripheral_Library_v2.1.16/XMCLib/src/xmc_usbd.c ****   volatile uint32_t *fifo = xmc_device.fifo[0U];
 212:/opt/XMClib/XMC_Peripheral_Library_v2.1.16/XMCLib/src/xmc_usbd.c ****   uint32_t i;
 213:/opt/XMClib/XMC_Peripheral_Library_v2.1.16/XMCLib/src/xmc_usbd.c ****   depctl_data_t data;
 214:/opt/XMClib/XMC_Peripheral_Library_v2.1.16/XMCLib/src/xmc_usbd.c ****   data.d32 = xmc_device.endpoint_out_register[ep_num]->doepctl;
  44              		.loc 1 214 46 view .LVU3
  45 0004 254D     		ldr	r5, .L20
  46              	.LVL1:
 208:/opt/XMClib/XMC_Peripheral_Library_v2.1.16/XMCLib/src/xmc_usbd.c ****   uint32_t word_count;
  47              		.loc 1 208 3 is_stmt 1 view .LVU4
 209:/opt/XMClib/XMC_Peripheral_Library_v2.1.16/XMCLib/src/xmc_usbd.c ****   uint32_t temp_word_count;
  48              		.loc 1 209 3 view .LVU5
 210:/opt/XMClib/XMC_Peripheral_Library_v2.1.16/XMCLib/src/xmc_usbd.c ****   volatile uint32_t *fifo = xmc_device.fifo[0U];
  49              		.loc 1 210 3 view .LVU6
 211:/opt/XMClib/XMC_Peripheral_Library_v2.1.16/XMCLib/src/xmc_usbd.c ****   uint32_t i;
  50              		.loc 1 211 3 view .LVU7
 212:/opt/XMClib/XMC_Peripheral_Library_v2.1.16/XMCLib/src/xmc_usbd.c ****   depctl_data_t data;
  51              		.loc 1 212 3 view .LVU8
 213:/opt/XMClib/XMC_Peripheral_Library_v2.1.16/XMCLib/src/xmc_usbd.c ****   data.d32 = xmc_device.endpoint_out_register[ep_num]->doepctl;
  52              		.loc 1 213 3 view .LVU9
  53              		.loc 1 214 3 view .LVU10
  54              		.loc 1 214 46 is_stmt 0 view .LVU11
  55 0006 05EB8003 		add	r3, r5, r0, lsl #2
  56 000a D3F8C431 		ldr	r3, [r3, #452]
  57              		.loc 1 214 54 view .LVU12
  58 000e 1B68     		ldr	r3, [r3]
  59              	.LVL2:
 215:/opt/XMClib/XMC_Peripheral_Library_v2.1.16/XMCLib/src/xmc_usbd.c ****   word_count = (byte_count >> 2U );
  60              		.loc 1 215 3 is_stmt 1 view .LVU13
 216:/opt/XMClib/XMC_Peripheral_Library_v2.1.16/XMCLib/src/xmc_usbd.c ****   temp_word_count = (word_count << 2U);
  61              		.loc 1 216 3 view .LVU14
 217:/opt/XMClib/XMC_Peripheral_Library_v2.1.16/XMCLib/src/xmc_usbd.c ****   /* Check if ep is enabled and has buffer */
 218:/opt/XMClib/XMC_Peripheral_Library_v2.1.16/XMCLib/src/xmc_usbd.c ****   if (!data.b.usbactep)
  62              		.loc 1 218 3 view .LVU15
  63              		.loc 1 218 6 is_stmt 0 view .LVU16
  64 0010 1B04     		lsls	r3, r3, #16
  65              	.LVL3:
  66              		.loc 1 218 6 view .LVU17
  67 0012 01D4     		bmi	.L18
  68              	.L1:
 219:/opt/XMClib/XMC_Peripheral_Library_v2.1.16/XMCLib/src/xmc_usbd.c ****   {
 220:/opt/XMClib/XMC_Peripheral_Library_v2.1.16/XMCLib/src/xmc_usbd.c ****     /*Do Nothing*/
 221:/opt/XMClib/XMC_Peripheral_Library_v2.1.16/XMCLib/src/xmc_usbd.c ****   }
 222:/opt/XMClib/XMC_Peripheral_Library_v2.1.16/XMCLib/src/xmc_usbd.c ****   else if (ep->xferBuffer == NULL)
 223:/opt/XMClib/XMC_Peripheral_Library_v2.1.16/XMCLib/src/xmc_usbd.c ****   {
 224:/opt/XMClib/XMC_Peripheral_Library_v2.1.16/XMCLib/src/xmc_usbd.c **** 	/*Do Nothing*/
 225:/opt/XMClib/XMC_Peripheral_Library_v2.1.16/XMCLib/src/xmc_usbd.c ****   }
 226:/opt/XMClib/XMC_Peripheral_Library_v2.1.16/XMCLib/src/xmc_usbd.c ****   else
 227:/opt/XMClib/XMC_Peripheral_Library_v2.1.16/XMCLib/src/xmc_usbd.c ****   {
 228:/opt/XMClib/XMC_Peripheral_Library_v2.1.16/XMCLib/src/xmc_usbd.c ****     /* store the data */
 229:/opt/XMClib/XMC_Peripheral_Library_v2.1.16/XMCLib/src/xmc_usbd.c ****     for (i = 0U;i < word_count; i++)
 230:/opt/XMClib/XMC_Peripheral_Library_v2.1.16/XMCLib/src/xmc_usbd.c ****     {
 231:/opt/XMClib/XMC_Peripheral_Library_v2.1.16/XMCLib/src/xmc_usbd.c ****       *(((uint32_t*)ep->xferBuffer)+i) = *fifo;
 232:/opt/XMClib/XMC_Peripheral_Library_v2.1.16/XMCLib/src/xmc_usbd.c ****     }
 233:/opt/XMClib/XMC_Peripheral_Library_v2.1.16/XMCLib/src/xmc_usbd.c ****     /* space is not devidable by 4 */
 234:/opt/XMClib/XMC_Peripheral_Library_v2.1.16/XMCLib/src/xmc_usbd.c ****     if (byte_count!=temp_word_count)
 235:/opt/XMClib/XMC_Peripheral_Library_v2.1.16/XMCLib/src/xmc_usbd.c ****     {
 236:/opt/XMClib/XMC_Peripheral_Library_v2.1.16/XMCLib/src/xmc_usbd.c ****       temp_data = *fifo;
 237:/opt/XMClib/XMC_Peripheral_Library_v2.1.16/XMCLib/src/xmc_usbd.c ****       for (i = 0U;(temp_word_count + i) < byte_count;i++)
 238:/opt/XMClib/XMC_Peripheral_Library_v2.1.16/XMCLib/src/xmc_usbd.c ****       {
 239:/opt/XMClib/XMC_Peripheral_Library_v2.1.16/XMCLib/src/xmc_usbd.c ****         ep->xferBuffer[(word_count << 2)+i] = (uint8_t)((temp_data & ((uint32_t)0xFFU << (i * 8U)))
 240:/opt/XMClib/XMC_Peripheral_Library_v2.1.16/XMCLib/src/xmc_usbd.c ****       }
 241:/opt/XMClib/XMC_Peripheral_Library_v2.1.16/XMCLib/src/xmc_usbd.c ****     }
 242:/opt/XMClib/XMC_Peripheral_Library_v2.1.16/XMCLib/src/xmc_usbd.c **** 
 243:/opt/XMClib/XMC_Peripheral_Library_v2.1.16/XMCLib/src/xmc_usbd.c ****     /* save the amount of data */
 244:/opt/XMClib/XMC_Peripheral_Library_v2.1.16/XMCLib/src/xmc_usbd.c ****     ep->xferCount += byte_count;
 245:/opt/XMClib/XMC_Peripheral_Library_v2.1.16/XMCLib/src/xmc_usbd.c ****     ep->xferBuffer += byte_count;
 246:/opt/XMClib/XMC_Peripheral_Library_v2.1.16/XMCLib/src/xmc_usbd.c ****   }
 247:/opt/XMClib/XMC_Peripheral_Library_v2.1.16/XMCLib/src/xmc_usbd.c **** }
  69              		.loc 1 247 1 view .LVU18
  70 0014 BDE8F081 		pop	{r4, r5, r6, r7, r8, pc}
  71              	.L18:
 222:/opt/XMClib/XMC_Peripheral_Library_v2.1.16/XMCLib/src/xmc_usbd.c ****   {
  72              		.loc 1 222 8 is_stmt 1 view .LVU19
 222:/opt/XMClib/XMC_Peripheral_Library_v2.1.16/XMCLib/src/xmc_usbd.c ****   {
  73              		.loc 1 222 14 is_stmt 0 view .LVU20
  74 0018 4FF0340E 		mov	lr, #52
  75 001c 0EFB005E 		mla	lr, lr, r0, r5
  76 0020 DEF82420 		ldr	r2, [lr, #36]
 222:/opt/XMClib/XMC_Peripheral_Library_v2.1.16/XMCLib/src/xmc_usbd.c ****   {
  77              		.loc 1 222 11 view .LVU21
  78 0024 002A     		cmp	r2, #0
  79 0026 F5D0     		beq	.L1
  80              	.LVL4:
 229:/opt/XMClib/XMC_Peripheral_Library_v2.1.16/XMCLib/src/xmc_usbd.c ****     {
  81              		.loc 1 229 17 is_stmt 1 view .LVU22
 229:/opt/XMClib/XMC_Peripheral_Library_v2.1.16/XMCLib/src/xmc_usbd.c ****     {
  82              		.loc 1 229 5 is_stmt 0 view .LVU23
  83 0028 5FEA9108 		lsrs	r8, r1, #2
 211:/opt/XMClib/XMC_Peripheral_Library_v2.1.16/XMCLib/src/xmc_usbd.c ****   uint32_t i;
  84              		.loc 1 211 22 view .LVU24
  85 002c D5F8E061 		ldr	r6, [r5, #480]
 229:/opt/XMClib/XMC_Peripheral_Library_v2.1.16/XMCLib/src/xmc_usbd.c ****     {
  86              		.loc 1 229 5 view .LVU25
  87 0030 0AD0     		beq	.L3
  88 0032 4FEA880C 		lsl	ip, r8, #2
  89 0036 0023     		movs	r3, #0
  90 0038 01E0     		b	.L4
  91              	.LVL5:
  92              	.L19:
 231:/opt/XMClib/XMC_Peripheral_Library_v2.1.16/XMCLib/src/xmc_usbd.c ****     }
  93              		.loc 1 231 23 view .LVU26
  94 003a DEF82420 		ldr	r2, [lr, #36]
  95              	.L4:
 231:/opt/XMClib/XMC_Peripheral_Library_v2.1.16/XMCLib/src/xmc_usbd.c ****     }
  96              		.loc 1 231 7 is_stmt 1 discriminator 3 view .LVU27
 231:/opt/XMClib/XMC_Peripheral_Library_v2.1.16/XMCLib/src/xmc_usbd.c ****     }
  97              		.loc 1 231 42 is_stmt 0 discriminator 3 view .LVU28
  98 003e 3468     		ldr	r4, [r6]
 231:/opt/XMClib/XMC_Peripheral_Library_v2.1.16/XMCLib/src/xmc_usbd.c ****     }
  99              		.loc 1 231 40 discriminator 3 view .LVU29
 100 0040 D450     		str	r4, [r2, r3]
 229:/opt/XMClib/XMC_Peripheral_Library_v2.1.16/XMCLib/src/xmc_usbd.c ****     {
 101              		.loc 1 229 33 is_stmt 1 discriminator 3 view .LVU30
 229:/opt/XMClib/XMC_Peripheral_Library_v2.1.16/XMCLib/src/xmc_usbd.c ****     {
 102              		.loc 1 229 17 discriminator 3 view .LVU31
 229:/opt/XMClib/XMC_Peripheral_Library_v2.1.16/XMCLib/src/xmc_usbd.c ****     {
 103              		.loc 1 229 5 is_stmt 0 discriminator 3 view .LVU32
 104 0042 0433     		adds	r3, r3, #4
 105 0044 9C45     		cmp	ip, r3
 106 0046 F8D1     		bne	.L19
 107              	.L3:
 216:/opt/XMClib/XMC_Peripheral_Library_v2.1.16/XMCLib/src/xmc_usbd.c ****   /* Check if ep is enabled and has buffer */
 108              		.loc 1 216 19 view .LVU33
 109 0048 21F00303 		bic	r3, r1, #3
 234:/opt/XMClib/XMC_Peripheral_Library_v2.1.16/XMCLib/src/xmc_usbd.c ****     {
 110              		.loc 1 234 5 is_stmt 1 view .LVU34
 234:/opt/XMClib/XMC_Peripheral_Library_v2.1.16/XMCLib/src/xmc_usbd.c ****     {
 111              		.loc 1 234 8 is_stmt 0 view .LVU35
 112 004c 9942     		cmp	r1, r3
 113 004e 19D0     		beq	.L6
 236:/opt/XMClib/XMC_Peripheral_Library_v2.1.16/XMCLib/src/xmc_usbd.c ****       for (i = 0U;(temp_word_count + i) < byte_count;i++)
 114              		.loc 1 236 7 is_stmt 1 view .LVU36
 236:/opt/XMClib/XMC_Peripheral_Library_v2.1.16/XMCLib/src/xmc_usbd.c ****       for (i = 0U;(temp_word_count + i) < byte_count;i++)
 115              		.loc 1 236 17 is_stmt 0 view .LVU37
 116 0050 3768     		ldr	r7, [r6]
 117              	.LVL6:
 237:/opt/XMClib/XMC_Peripheral_Library_v2.1.16/XMCLib/src/xmc_usbd.c ****       {
 118              		.loc 1 237 7 is_stmt 1 view .LVU38
 237:/opt/XMClib/XMC_Peripheral_Library_v2.1.16/XMCLib/src/xmc_usbd.c ****       {
 119              		.loc 1 237 19 view .LVU39
 237:/opt/XMClib/XMC_Peripheral_Library_v2.1.16/XMCLib/src/xmc_usbd.c ****       {
 120              		.loc 1 237 7 is_stmt 0 view .LVU40
 121 0052 17D9     		bls	.L6
 122 0054 CE1A     		subs	r6, r1, r3
 239:/opt/XMClib/XMC_Peripheral_Library_v2.1.16/XMCLib/src/xmc_usbd.c ****       }
 123              		.loc 1 239 11 view .LVU41
 124 0056 4FF0340E 		mov	lr, #52
 239:/opt/XMClib/XMC_Peripheral_Library_v2.1.16/XMCLib/src/xmc_usbd.c ****       }
 125              		.loc 1 239 36 view .LVU42
 126 005a 4FEA880C 		lsl	ip, r8, #2
 127 005e F600     		lsls	r6, r6, #3
 239:/opt/XMClib/XMC_Peripheral_Library_v2.1.16/XMCLib/src/xmc_usbd.c ****       }
 128              		.loc 1 239 11 view .LVU43
 129 0060 0EFB005E 		mla	lr, lr, r0, r5
 239:/opt/XMClib/XMC_Peripheral_Library_v2.1.16/XMCLib/src/xmc_usbd.c ****       }
 130              		.loc 1 239 36 view .LVU44
 131 0064 0022     		movs	r2, #0
 239:/opt/XMClib/XMC_Peripheral_Library_v2.1.16/XMCLib/src/xmc_usbd.c ****       }
 132              		.loc 1 239 87 view .LVU45
 133 0066 4FF0FF08 		mov	r8, #255
 134              	.LVL7:
 135              	.L7:
 239:/opt/XMClib/XMC_Peripheral_Library_v2.1.16/XMCLib/src/xmc_usbd.c ****       }
 136              		.loc 1 239 9 is_stmt 1 discriminator 3 view .LVU46
 239:/opt/XMClib/XMC_Peripheral_Library_v2.1.16/XMCLib/src/xmc_usbd.c ****       }
 137              		.loc 1 239 87 is_stmt 0 discriminator 3 view .LVU47
 138 006a 08FA02F3 		lsl	r3, r8, r2
 239:/opt/XMClib/XMC_Peripheral_Library_v2.1.16/XMCLib/src/xmc_usbd.c ****       }
 139              		.loc 1 239 68 discriminator 3 view .LVU48
 140 006e 3B40     		ands	r3, r3, r7
 239:/opt/XMClib/XMC_Peripheral_Library_v2.1.16/XMCLib/src/xmc_usbd.c ****       }
 141              		.loc 1 239 101 discriminator 3 view .LVU49
 142 0070 D340     		lsrs	r3, r3, r2
 239:/opt/XMClib/XMC_Peripheral_Library_v2.1.16/XMCLib/src/xmc_usbd.c ****       }
 143              		.loc 1 239 45 discriminator 3 view .LVU50
 144 0072 DEF82440 		ldr	r4, [lr, #36]
 237:/opt/XMClib/XMC_Peripheral_Library_v2.1.16/XMCLib/src/xmc_usbd.c ****       {
 145              		.loc 1 237 7 discriminator 3 view .LVU51
 146 0076 0832     		adds	r2, r2, #8
 147 0078 B242     		cmp	r2, r6
 239:/opt/XMClib/XMC_Peripheral_Library_v2.1.16/XMCLib/src/xmc_usbd.c ****       }
 148              		.loc 1 239 47 discriminator 3 view .LVU52
 149 007a 04F80C30 		strb	r3, [r4, ip]
 237:/opt/XMClib/XMC_Peripheral_Library_v2.1.16/XMCLib/src/xmc_usbd.c ****       {
 150              		.loc 1 237 54 is_stmt 1 discriminator 3 view .LVU53
 151              	.LVL8:
 237:/opt/XMClib/XMC_Peripheral_Library_v2.1.16/XMCLib/src/xmc_usbd.c ****       {
 152              		.loc 1 237 19 discriminator 3 view .LVU54
 237:/opt/XMClib/XMC_Peripheral_Library_v2.1.16/XMCLib/src/xmc_usbd.c ****       {
 153              		.loc 1 237 7 is_stmt 0 discriminator 3 view .LVU55
 154 007e 0CF1010C 		add	ip, ip, #1
 155 0082 F2D1     		bne	.L7
 156              	.LVL9:
 157              	.L6:
 244:/opt/XMClib/XMC_Peripheral_Library_v2.1.16/XMCLib/src/xmc_usbd.c ****     ep->xferBuffer += byte_count;
 158              		.loc 1 244 5 is_stmt 1 view .LVU56
 244:/opt/XMClib/XMC_Peripheral_Library_v2.1.16/XMCLib/src/xmc_usbd.c ****     ep->xferBuffer += byte_count;
 159              		.loc 1 244 19 is_stmt 0 view .LVU57
 160 0084 3423     		movs	r3, #52
 161 0086 03FB0050 		mla	r0, r3, r0, r5
 162              	.LVL10:
 244:/opt/XMClib/XMC_Peripheral_Library_v2.1.16/XMCLib/src/xmc_usbd.c ****     ep->xferBuffer += byte_count;
 163              		.loc 1 244 19 view .LVU58
 164 008a C26A     		ldr	r2, [r0, #44]
 245:/opt/XMClib/XMC_Peripheral_Library_v2.1.16/XMCLib/src/xmc_usbd.c ****   }
 165              		.loc 1 245 20 view .LVU59
 166 008c 436A     		ldr	r3, [r0, #36]
 244:/opt/XMClib/XMC_Peripheral_Library_v2.1.16/XMCLib/src/xmc_usbd.c ****     ep->xferBuffer += byte_count;
 167              		.loc 1 244 19 view .LVU60
 168 008e 0A44     		add	r2, r2, r1
 245:/opt/XMClib/XMC_Peripheral_Library_v2.1.16/XMCLib/src/xmc_usbd.c ****   }
 169              		.loc 1 245 20 view .LVU61
 170 0090 1944     		add	r1, r1, r3
 171              	.LVL11:
 244:/opt/XMClib/XMC_Peripheral_Library_v2.1.16/XMCLib/src/xmc_usbd.c ****     ep->xferBuffer += byte_count;
 172              		.loc 1 244 19 view .LVU62
 173 0092 C262     		str	r2, [r0, #44]
 245:/opt/XMClib/XMC_Peripheral_Library_v2.1.16/XMCLib/src/xmc_usbd.c ****   }
 174              		.loc 1 245 5 is_stmt 1 view .LVU63
 245:/opt/XMClib/XMC_Peripheral_Library_v2.1.16/XMCLib/src/xmc_usbd.c ****   }
 175              		.loc 1 245 20 is_stmt 0 view .LVU64
 176 0094 4162     		str	r1, [r0, #36]
 177              		.loc 1 247 1 view .LVU65
 178 0096 BDE8F081 		pop	{r4, r5, r6, r7, r8, pc}
 179              	.L21:
 180 009a 00BF     		.align	2
 181              	.L20:
 182 009c 00000000 		.word	.LANCHOR0
 183              		.cfi_endproc
 184              	.LFE163:
 186              		.section	.text.XMC_USBD_lStartReadXfer,"ax",%progbits
 187              		.align	1
 188              		.p2align 2,,3
 189              		.syntax unified
 190              		.thumb
 191              		.thumb_func
 193              	XMC_USBD_lStartReadXfer:
 194              	.LVL12:
 195              	.LFB169:
 248:/opt/XMClib/XMC_Peripheral_Library_v2.1.16/XMCLib/src/xmc_usbd.c **** 
 249:/opt/XMClib/XMC_Peripheral_Library_v2.1.16/XMCLib/src/xmc_usbd.c **** /**
 250:/opt/XMClib/XMC_Peripheral_Library_v2.1.16/XMCLib/src/xmc_usbd.c ****  * @brief Write data to an endpoint fifo
 251:/opt/XMClib/XMC_Peripheral_Library_v2.1.16/XMCLib/src/xmc_usbd.c ****  *
 252:/opt/XMClib/XMC_Peripheral_Library_v2.1.16/XMCLib/src/xmc_usbd.c ****  * The data from the @ref xfer_buffer gets copied in to the tx fifo of the endpoint until the buffe
 253:/opt/XMClib/XMC_Peripheral_Library_v2.1.16/XMCLib/src/xmc_usbd.c ****  *completely or the tx fifo is full. The transfer values are not updated.
 254:/opt/XMClib/XMC_Peripheral_Library_v2.1.16/XMCLib/src/xmc_usbd.c ****  *
 255:/opt/XMClib/XMC_Peripheral_Library_v2.1.16/XMCLib/src/xmc_usbd.c ****  * @arg[in] ep the endpoint to use
 256:/opt/XMClib/XMC_Peripheral_Library_v2.1.16/XMCLib/src/xmc_usbd.c ****  * @return the number of bytes written to the fifo
 257:/opt/XMClib/XMC_Peripheral_Library_v2.1.16/XMCLib/src/xmc_usbd.c ****  */
 258:/opt/XMClib/XMC_Peripheral_Library_v2.1.16/XMCLib/src/xmc_usbd.c **** static uint32_t XMC_USBD_lWriteFifo(XMC_USBD_EP_t *const ep) 
 259:/opt/XMClib/XMC_Peripheral_Library_v2.1.16/XMCLib/src/xmc_usbd.c **** {
 260:/opt/XMClib/XMC_Peripheral_Library_v2.1.16/XMCLib/src/xmc_usbd.c ****   dtxfsts_data_t freeSpace; 
 261:/opt/XMClib/XMC_Peripheral_Library_v2.1.16/XMCLib/src/xmc_usbd.c ****   volatile uint32_t *fifo;
 262:/opt/XMClib/XMC_Peripheral_Library_v2.1.16/XMCLib/src/xmc_usbd.c ****   uint32_t byte_count;
 263:/opt/XMClib/XMC_Peripheral_Library_v2.1.16/XMCLib/src/xmc_usbd.c ****   uint32_t word_count;
 264:/opt/XMClib/XMC_Peripheral_Library_v2.1.16/XMCLib/src/xmc_usbd.c ****   uint32_t result;
 265:/opt/XMClib/XMC_Peripheral_Library_v2.1.16/XMCLib/src/xmc_usbd.c ****   uint32_t i;
 266:/opt/XMClib/XMC_Peripheral_Library_v2.1.16/XMCLib/src/xmc_usbd.c ****   fifo = xmc_device.fifo[ep->address_u.address_st.number]; /* fifo */
 267:/opt/XMClib/XMC_Peripheral_Library_v2.1.16/XMCLib/src/xmc_usbd.c ****   freeSpace.d32 = xmc_device.endpoint_in_register[ep->address_u.address_st.number]->dtxfsts;
 268:/opt/XMClib/XMC_Peripheral_Library_v2.1.16/XMCLib/src/xmc_usbd.c ****   /* calculate the length and the amount of dwords to copy based on the fifo status */
 269:/opt/XMClib/XMC_Peripheral_Library_v2.1.16/XMCLib/src/xmc_usbd.c ****   byte_count = ep->xferLength - ep->xferCount;
 270:/opt/XMClib/XMC_Peripheral_Library_v2.1.16/XMCLib/src/xmc_usbd.c ****   if (!byte_count)
 271:/opt/XMClib/XMC_Peripheral_Library_v2.1.16/XMCLib/src/xmc_usbd.c ****   {
 272:/opt/XMClib/XMC_Peripheral_Library_v2.1.16/XMCLib/src/xmc_usbd.c ****     result = 0U;
 273:/opt/XMClib/XMC_Peripheral_Library_v2.1.16/XMCLib/src/xmc_usbd.c ****   }
 274:/opt/XMClib/XMC_Peripheral_Library_v2.1.16/XMCLib/src/xmc_usbd.c ****   else
 275:/opt/XMClib/XMC_Peripheral_Library_v2.1.16/XMCLib/src/xmc_usbd.c ****   {
 276:/opt/XMClib/XMC_Peripheral_Library_v2.1.16/XMCLib/src/xmc_usbd.c ****     /* add the unaligned bytes to the word count to compare with the fifo space */
 277:/opt/XMClib/XMC_Peripheral_Library_v2.1.16/XMCLib/src/xmc_usbd.c ****     word_count = ((uint32_t)byte_count + 3U) >> 2U;
 278:/opt/XMClib/XMC_Peripheral_Library_v2.1.16/XMCLib/src/xmc_usbd.c ****     if (word_count > (uint32_t)freeSpace.b.txfspcavail )
 279:/opt/XMClib/XMC_Peripheral_Library_v2.1.16/XMCLib/src/xmc_usbd.c ****     {
 280:/opt/XMClib/XMC_Peripheral_Library_v2.1.16/XMCLib/src/xmc_usbd.c ****       word_count = (uint32_t)freeSpace.b.txfspcavail;
 281:/opt/XMClib/XMC_Peripheral_Library_v2.1.16/XMCLib/src/xmc_usbd.c ****       byte_count = (uint32_t)word_count << (uint32_t)2U;
 282:/opt/XMClib/XMC_Peripheral_Library_v2.1.16/XMCLib/src/xmc_usbd.c ****     }
 283:/opt/XMClib/XMC_Peripheral_Library_v2.1.16/XMCLib/src/xmc_usbd.c **** 
 284:/opt/XMClib/XMC_Peripheral_Library_v2.1.16/XMCLib/src/xmc_usbd.c ****     /* copy data dword wise */
 285:/opt/XMClib/XMC_Peripheral_Library_v2.1.16/XMCLib/src/xmc_usbd.c ****     for (i = 0U; i < word_count;ep->xferBuffer+= 4U)
 286:/opt/XMClib/XMC_Peripheral_Library_v2.1.16/XMCLib/src/xmc_usbd.c ****     {
 287:/opt/XMClib/XMC_Peripheral_Library_v2.1.16/XMCLib/src/xmc_usbd.c ****       *fifo = *(uint32_t*)ep->xferBuffer;
 288:/opt/XMClib/XMC_Peripheral_Library_v2.1.16/XMCLib/src/xmc_usbd.c ****       i++;
 289:/opt/XMClib/XMC_Peripheral_Library_v2.1.16/XMCLib/src/xmc_usbd.c ****     }
 290:/opt/XMClib/XMC_Peripheral_Library_v2.1.16/XMCLib/src/xmc_usbd.c ****     result=byte_count;
 291:/opt/XMClib/XMC_Peripheral_Library_v2.1.16/XMCLib/src/xmc_usbd.c ****   }
 292:/opt/XMClib/XMC_Peripheral_Library_v2.1.16/XMCLib/src/xmc_usbd.c ****   return result;
 293:/opt/XMClib/XMC_Peripheral_Library_v2.1.16/XMCLib/src/xmc_usbd.c **** }
 294:/opt/XMClib/XMC_Peripheral_Library_v2.1.16/XMCLib/src/xmc_usbd.c **** 
 295:/opt/XMClib/XMC_Peripheral_Library_v2.1.16/XMCLib/src/xmc_usbd.c **** /**
 296:/opt/XMClib/XMC_Peripheral_Library_v2.1.16/XMCLib/src/xmc_usbd.c ****  * @brief Flush a tx fifo
 297:/opt/XMClib/XMC_Peripheral_Library_v2.1.16/XMCLib/src/xmc_usbd.c ****  *
 298:/opt/XMClib/XMC_Peripheral_Library_v2.1.16/XMCLib/src/xmc_usbd.c ****  * @param[in] fifo_num Fifo number to flush
 299:/opt/XMClib/XMC_Peripheral_Library_v2.1.16/XMCLib/src/xmc_usbd.c ****  *
 300:/opt/XMClib/XMC_Peripheral_Library_v2.1.16/XMCLib/src/xmc_usbd.c ****  * @note Use 0x10 as parameter to flush all tx fifos.
 301:/opt/XMClib/XMC_Peripheral_Library_v2.1.16/XMCLib/src/xmc_usbd.c ****  */
 302:/opt/XMClib/XMC_Peripheral_Library_v2.1.16/XMCLib/src/xmc_usbd.c **** static void XMC_USBD_lFlushTXFifo(const uint8_t fifo_num) 
 303:/opt/XMClib/XMC_Peripheral_Library_v2.1.16/XMCLib/src/xmc_usbd.c **** {
 304:/opt/XMClib/XMC_Peripheral_Library_v2.1.16/XMCLib/src/xmc_usbd.c ****   volatile grstctl_t data;  
 305:/opt/XMClib/XMC_Peripheral_Library_v2.1.16/XMCLib/src/xmc_usbd.c ****   uint32_t count;
 306:/opt/XMClib/XMC_Peripheral_Library_v2.1.16/XMCLib/src/xmc_usbd.c ****   data.d32 = 0U;
 307:/opt/XMClib/XMC_Peripheral_Library_v2.1.16/XMCLib/src/xmc_usbd.c ****   /*flush fifo */
 308:/opt/XMClib/XMC_Peripheral_Library_v2.1.16/XMCLib/src/xmc_usbd.c ****   data.b.txfflsh = 1U;
 309:/opt/XMClib/XMC_Peripheral_Library_v2.1.16/XMCLib/src/xmc_usbd.c ****   data.b.txfnum = fifo_num;
 310:/opt/XMClib/XMC_Peripheral_Library_v2.1.16/XMCLib/src/xmc_usbd.c ****   xmc_device.global_register->grstctl = data.d32;
 311:/opt/XMClib/XMC_Peripheral_Library_v2.1.16/XMCLib/src/xmc_usbd.c ****   for (count = 0U;count < 1000U; count++){}
 312:/opt/XMClib/XMC_Peripheral_Library_v2.1.16/XMCLib/src/xmc_usbd.c ****   do
 313:/opt/XMClib/XMC_Peripheral_Library_v2.1.16/XMCLib/src/xmc_usbd.c ****   {
 314:/opt/XMClib/XMC_Peripheral_Library_v2.1.16/XMCLib/src/xmc_usbd.c ****    data.d32 = xmc_device.global_register->grstctl;
 315:/opt/XMClib/XMC_Peripheral_Library_v2.1.16/XMCLib/src/xmc_usbd.c ****   } while (data.b.txfflsh);
 316:/opt/XMClib/XMC_Peripheral_Library_v2.1.16/XMCLib/src/xmc_usbd.c ****     count = 0U;
 317:/opt/XMClib/XMC_Peripheral_Library_v2.1.16/XMCLib/src/xmc_usbd.c ****   while (count++ < 1000U)
 318:/opt/XMClib/XMC_Peripheral_Library_v2.1.16/XMCLib/src/xmc_usbd.c ****   {
 319:/opt/XMClib/XMC_Peripheral_Library_v2.1.16/XMCLib/src/xmc_usbd.c ****     /* wait 3 phy clocks */
 320:/opt/XMClib/XMC_Peripheral_Library_v2.1.16/XMCLib/src/xmc_usbd.c ****   }
 321:/opt/XMClib/XMC_Peripheral_Library_v2.1.16/XMCLib/src/xmc_usbd.c **** }
 322:/opt/XMClib/XMC_Peripheral_Library_v2.1.16/XMCLib/src/xmc_usbd.c **** 
 323:/opt/XMClib/XMC_Peripheral_Library_v2.1.16/XMCLib/src/xmc_usbd.c **** /**
 324:/opt/XMClib/XMC_Peripheral_Library_v2.1.16/XMCLib/src/xmc_usbd.c ****  * @brief Flush the rx fifo
 325:/opt/XMClib/XMC_Peripheral_Library_v2.1.16/XMCLib/src/xmc_usbd.c ****  */
 326:/opt/XMClib/XMC_Peripheral_Library_v2.1.16/XMCLib/src/xmc_usbd.c **** static void XMC_USBD_lFlushRXFifo(void) 
 327:/opt/XMClib/XMC_Peripheral_Library_v2.1.16/XMCLib/src/xmc_usbd.c **** {
 328:/opt/XMClib/XMC_Peripheral_Library_v2.1.16/XMCLib/src/xmc_usbd.c ****   volatile grstctl_t data;  
 329:/opt/XMClib/XMC_Peripheral_Library_v2.1.16/XMCLib/src/xmc_usbd.c ****   uint32_t count;
 330:/opt/XMClib/XMC_Peripheral_Library_v2.1.16/XMCLib/src/xmc_usbd.c **** 	
 331:/opt/XMClib/XMC_Peripheral_Library_v2.1.16/XMCLib/src/xmc_usbd.c **** 	data.d32 = 0U;
 332:/opt/XMClib/XMC_Peripheral_Library_v2.1.16/XMCLib/src/xmc_usbd.c ****   data.b.rxfflsh = 1U;
 333:/opt/XMClib/XMC_Peripheral_Library_v2.1.16/XMCLib/src/xmc_usbd.c ****   /* flush FIFO */
 334:/opt/XMClib/XMC_Peripheral_Library_v2.1.16/XMCLib/src/xmc_usbd.c ****   xmc_device.global_register->grstctl = data.d32;
 335:/opt/XMClib/XMC_Peripheral_Library_v2.1.16/XMCLib/src/xmc_usbd.c ****   do
 336:/opt/XMClib/XMC_Peripheral_Library_v2.1.16/XMCLib/src/xmc_usbd.c ****   {
 337:/opt/XMClib/XMC_Peripheral_Library_v2.1.16/XMCLib/src/xmc_usbd.c ****     for (count = 0U; count < 1000U; count++){}
 338:/opt/XMClib/XMC_Peripheral_Library_v2.1.16/XMCLib/src/xmc_usbd.c ****     data.d32 = xmc_device.global_register->grstctl;
 339:/opt/XMClib/XMC_Peripheral_Library_v2.1.16/XMCLib/src/xmc_usbd.c ****   } while (data.b.rxfflsh);
 340:/opt/XMClib/XMC_Peripheral_Library_v2.1.16/XMCLib/src/xmc_usbd.c ****   count = 0U;
 341:/opt/XMClib/XMC_Peripheral_Library_v2.1.16/XMCLib/src/xmc_usbd.c ****   while (count++ < 1000U)
 342:/opt/XMClib/XMC_Peripheral_Library_v2.1.16/XMCLib/src/xmc_usbd.c ****   {
 343:/opt/XMClib/XMC_Peripheral_Library_v2.1.16/XMCLib/src/xmc_usbd.c ****     /* wait 3 phy clocks */
 344:/opt/XMClib/XMC_Peripheral_Library_v2.1.16/XMCLib/src/xmc_usbd.c ****   }
 345:/opt/XMClib/XMC_Peripheral_Library_v2.1.16/XMCLib/src/xmc_usbd.c **** }
 346:/opt/XMClib/XMC_Peripheral_Library_v2.1.16/XMCLib/src/xmc_usbd.c **** 
 347:/opt/XMClib/XMC_Peripheral_Library_v2.1.16/XMCLib/src/xmc_usbd.c **** /*
 348:/opt/XMClib/XMC_Peripheral_Library_v2.1.16/XMCLib/src/xmc_usbd.c ****  * Support Functions
 349:/opt/XMClib/XMC_Peripheral_Library_v2.1.16/XMCLib/src/xmc_usbd.c ****  */
 350:/opt/XMClib/XMC_Peripheral_Library_v2.1.16/XMCLib/src/xmc_usbd.c **** 
 351:/opt/XMClib/XMC_Peripheral_Library_v2.1.16/XMCLib/src/xmc_usbd.c **** /**
 352:/opt/XMClib/XMC_Peripheral_Library_v2.1.16/XMCLib/src/xmc_usbd.c ****  * @brief Assign a free tx fifo
 353:/opt/XMClib/XMC_Peripheral_Library_v2.1.16/XMCLib/src/xmc_usbd.c ****  *
 354:/opt/XMClib/XMC_Peripheral_Library_v2.1.16/XMCLib/src/xmc_usbd.c ****  * A free tx fifo will be searched and the number will be returned.
 355:/opt/XMClib/XMC_Peripheral_Library_v2.1.16/XMCLib/src/xmc_usbd.c ****  *
 356:/opt/XMClib/XMC_Peripheral_Library_v2.1.16/XMCLib/src/xmc_usbd.c ****  * @return Fifo number for a free fifo
 357:/opt/XMClib/XMC_Peripheral_Library_v2.1.16/XMCLib/src/xmc_usbd.c ****  */
 358:/opt/XMClib/XMC_Peripheral_Library_v2.1.16/XMCLib/src/xmc_usbd.c **** static uint8_t XMC_USBD_lAssignTXFifo(void) 
 359:/opt/XMClib/XMC_Peripheral_Library_v2.1.16/XMCLib/src/xmc_usbd.c **** {
 360:/opt/XMClib/XMC_Peripheral_Library_v2.1.16/XMCLib/src/xmc_usbd.c ****   uint16_t mask = 1U;
 361:/opt/XMClib/XMC_Peripheral_Library_v2.1.16/XMCLib/src/xmc_usbd.c ****   uint8_t i = 0U;
 362:/opt/XMClib/XMC_Peripheral_Library_v2.1.16/XMCLib/src/xmc_usbd.c ****   uint8_t result = 0U;
 363:/opt/XMClib/XMC_Peripheral_Library_v2.1.16/XMCLib/src/xmc_usbd.c ****   while( (i < (uint8_t)XMC_USBD_NUM_TX_FIFOS)&&((xmc_device.txfifomsk & mask) != 0U))
 364:/opt/XMClib/XMC_Peripheral_Library_v2.1.16/XMCLib/src/xmc_usbd.c ****   {
 365:/opt/XMClib/XMC_Peripheral_Library_v2.1.16/XMCLib/src/xmc_usbd.c ****     mask = (uint16_t)(mask << 1U);
 366:/opt/XMClib/XMC_Peripheral_Library_v2.1.16/XMCLib/src/xmc_usbd.c ****     i++;
 367:/opt/XMClib/XMC_Peripheral_Library_v2.1.16/XMCLib/src/xmc_usbd.c ****   }
 368:/opt/XMClib/XMC_Peripheral_Library_v2.1.16/XMCLib/src/xmc_usbd.c ****   if ((xmc_device.txfifomsk & mask) == 0U)
 369:/opt/XMClib/XMC_Peripheral_Library_v2.1.16/XMCLib/src/xmc_usbd.c ****   {
 370:/opt/XMClib/XMC_Peripheral_Library_v2.1.16/XMCLib/src/xmc_usbd.c ****     xmc_device.txfifomsk |= mask;
 371:/opt/XMClib/XMC_Peripheral_Library_v2.1.16/XMCLib/src/xmc_usbd.c ****     result=i;
 372:/opt/XMClib/XMC_Peripheral_Library_v2.1.16/XMCLib/src/xmc_usbd.c ****   }
 373:/opt/XMClib/XMC_Peripheral_Library_v2.1.16/XMCLib/src/xmc_usbd.c ****   return result;
 374:/opt/XMClib/XMC_Peripheral_Library_v2.1.16/XMCLib/src/xmc_usbd.c **** }
 375:/opt/XMClib/XMC_Peripheral_Library_v2.1.16/XMCLib/src/xmc_usbd.c **** 
 376:/opt/XMClib/XMC_Peripheral_Library_v2.1.16/XMCLib/src/xmc_usbd.c **** /**
 377:/opt/XMClib/XMC_Peripheral_Library_v2.1.16/XMCLib/src/xmc_usbd.c ****  * @brief Free a tx fifo
 378:/opt/XMClib/XMC_Peripheral_Library_v2.1.16/XMCLib/src/xmc_usbd.c ****  *
 379:/opt/XMClib/XMC_Peripheral_Library_v2.1.16/XMCLib/src/xmc_usbd.c ****  * Mark an used tx fifo as free.
 380:/opt/XMClib/XMC_Peripheral_Library_v2.1.16/XMCLib/src/xmc_usbd.c ****  * @param[in] fifo_nr Fifo number to free
 381:/opt/XMClib/XMC_Peripheral_Library_v2.1.16/XMCLib/src/xmc_usbd.c ****  */
 382:/opt/XMClib/XMC_Peripheral_Library_v2.1.16/XMCLib/src/xmc_usbd.c **** static void XMC_USBD_lUnassignFifo(const uint8_t fifo_nr) 
 383:/opt/XMClib/XMC_Peripheral_Library_v2.1.16/XMCLib/src/xmc_usbd.c **** {
 384:/opt/XMClib/XMC_Peripheral_Library_v2.1.16/XMCLib/src/xmc_usbd.c ****   xmc_device.txfifomsk = (uint16_t)((uint32_t)xmc_device.txfifomsk & (uint32_t)(~((uint32_t)((uint3
 385:/opt/XMClib/XMC_Peripheral_Library_v2.1.16/XMCLib/src/xmc_usbd.c **** }
 386:/opt/XMClib/XMC_Peripheral_Library_v2.1.16/XMCLib/src/xmc_usbd.c **** 
 387:/opt/XMClib/XMC_Peripheral_Library_v2.1.16/XMCLib/src/xmc_usbd.c **** /**
 388:/opt/XMClib/XMC_Peripheral_Library_v2.1.16/XMCLib/src/xmc_usbd.c ****  * @brief Start a transfer for an out endpoint
 389:/opt/XMClib/XMC_Peripheral_Library_v2.1.16/XMCLib/src/xmc_usbd.c ****  *
 390:/opt/XMClib/XMC_Peripheral_Library_v2.1.16/XMCLib/src/xmc_usbd.c ****  * Based on the transfer values of the endpoint, the out endpoint registers will be programmed
 391:/opt/XMClib/XMC_Peripheral_Library_v2.1.16/XMCLib/src/xmc_usbd.c ****  * to start a new out transfer.
 392:/opt/XMClib/XMC_Peripheral_Library_v2.1.16/XMCLib/src/xmc_usbd.c ****  *
 393:/opt/XMClib/XMC_Peripheral_Library_v2.1.16/XMCLib/src/xmc_usbd.c ****  * @note No checking of the transfer values are done in this function. Be sure,
 394:/opt/XMClib/XMC_Peripheral_Library_v2.1.16/XMCLib/src/xmc_usbd.c ****  * that the transfer values are reasonable (e.g. buffer size is not exceeded).
 395:/opt/XMClib/XMC_Peripheral_Library_v2.1.16/XMCLib/src/xmc_usbd.c ****  *
 396:/opt/XMClib/XMC_Peripheral_Library_v2.1.16/XMCLib/src/xmc_usbd.c ****  * @param[in] ep Endpoint to start the transfer
 397:/opt/XMClib/XMC_Peripheral_Library_v2.1.16/XMCLib/src/xmc_usbd.c ****  */
 398:/opt/XMClib/XMC_Peripheral_Library_v2.1.16/XMCLib/src/xmc_usbd.c **** static void XMC_USBD_lStartReadXfer(XMC_USBD_EP_t *const ep) 
 399:/opt/XMClib/XMC_Peripheral_Library_v2.1.16/XMCLib/src/xmc_usbd.c **** {
 196              		.loc 1 399 1 is_stmt 1 view -0
 197              		.cfi_startproc
 198              		@ args = 0, pretend = 0, frame = 0
 199              		@ frame_needed = 0, uses_anonymous_args = 0
 200              		@ link register save eliminated.
 400:/opt/XMClib/XMC_Peripheral_Library_v2.1.16/XMCLib/src/xmc_usbd.c ****   deptsiz_data_t data;
 201              		.loc 1 400 3 view .LVU67
 401:/opt/XMClib/XMC_Peripheral_Library_v2.1.16/XMCLib/src/xmc_usbd.c ****   depctl_data_t epctl;
 202              		.loc 1 401 3 view .LVU68
 402:/opt/XMClib/XMC_Peripheral_Library_v2.1.16/XMCLib/src/xmc_usbd.c **** 	
 403:/opt/XMClib/XMC_Peripheral_Library_v2.1.16/XMCLib/src/xmc_usbd.c ****   data.d32 =  0U;
 203              		.loc 1 403 3 view .LVU69
 404:/opt/XMClib/XMC_Peripheral_Library_v2.1.16/XMCLib/src/xmc_usbd.c ****   if ((ep->xferTotal - ep->xferLength) > ep->maxTransferSize)
 204              		.loc 1 404 3 view .LVU70
 205              		.loc 1 404 26 is_stmt 0 view .LVU71
 206 0000 826A     		ldr	r2, [r0, #40]
 207              		.loc 1 404 10 view .LVU72
 208 0002 036B     		ldr	r3, [r0, #48]
 209              		.loc 1 404 44 view .LVU73
 210 0004 8168     		ldr	r1, [r0, #8]
 399:/opt/XMClib/XMC_Peripheral_Library_v2.1.16/XMCLib/src/xmc_usbd.c ****   deptsiz_data_t data;
 211              		.loc 1 399 1 view .LVU74
 212 0006 10B4     		push	{r4}
 213              	.LCFI1:
 214              		.cfi_def_cfa_offset 4
 215              		.cfi_offset 4, -4
 216              		.loc 1 404 44 view .LVU75
 217 0008 C1F31201 		ubfx	r1, r1, #0, #19
 218              		.loc 1 404 22 view .LVU76
 219 000c 9C1A     		subs	r4, r3, r2
 220              		.loc 1 404 6 view .LVU77
 221 000e 8C42     		cmp	r4, r1
 405:/opt/XMClib/XMC_Peripheral_Library_v2.1.16/XMCLib/src/xmc_usbd.c ****   {
 406:/opt/XMClib/XMC_Peripheral_Library_v2.1.16/XMCLib/src/xmc_usbd.c ****     ep->xferLength += ep->maxTransferSize;
 222              		.loc 1 406 5 is_stmt 1 view .LVU78
 223              		.loc 1 406 20 is_stmt 0 view .LVU79
 224 0010 88BF     		it	hi
 225 0012 5218     		addhi	r2, r2, r1
 407:/opt/XMClib/XMC_Peripheral_Library_v2.1.16/XMCLib/src/xmc_usbd.c ****   }
 408:/opt/XMClib/XMC_Peripheral_Library_v2.1.16/XMCLib/src/xmc_usbd.c ****   else
 409:/opt/XMClib/XMC_Peripheral_Library_v2.1.16/XMCLib/src/xmc_usbd.c ****   {
 410:/opt/XMClib/XMC_Peripheral_Library_v2.1.16/XMCLib/src/xmc_usbd.c ****     ep->xferLength = ep->xferTotal;
 411:/opt/XMClib/XMC_Peripheral_Library_v2.1.16/XMCLib/src/xmc_usbd.c ****   }
 412:/opt/XMClib/XMC_Peripheral_Library_v2.1.16/XMCLib/src/xmc_usbd.c ****   if (ep->address_u.address_st.number == 0U)
 226              		.loc 1 412 39 view .LVU80
 227 0014 0178     		ldrb	r1, [r0]	@ zero_extendqisi2
 410:/opt/XMClib/XMC_Peripheral_Library_v2.1.16/XMCLib/src/xmc_usbd.c ****   }
 228              		.loc 1 410 20 view .LVU81
 229 0016 98BF     		it	ls
 230 0018 1A46     		movls	r2, r3
 231              		.loc 1 412 6 view .LVU82
 232 001a 0C07     		lsls	r4, r1, #28
 233 001c 8262     		str	r2, [r0, #40]
 234              		.loc 1 412 3 is_stmt 1 view .LVU83
 235              		.loc 1 412 6 is_stmt 0 view .LVU84
 236 001e 1CD1     		bne	.L24
 237              	.LBB39:
 413:/opt/XMClib/XMC_Peripheral_Library_v2.1.16/XMCLib/src/xmc_usbd.c ****   {
 414:/opt/XMClib/XMC_Peripheral_Library_v2.1.16/XMCLib/src/xmc_usbd.c **** 	/* Setup the endpoint to receive 3 setup packages and one normal package.*/
 415:/opt/XMClib/XMC_Peripheral_Library_v2.1.16/XMCLib/src/xmc_usbd.c **** 	/* Cast the data pointer to use only one variable */
 416:/opt/XMClib/XMC_Peripheral_Library_v2.1.16/XMCLib/src/xmc_usbd.c ****     deptsiz0_data_t *ep0_data = (deptsiz0_data_t*)&data;
 238              		.loc 1 416 5 is_stmt 1 view .LVU85
 239              	.LVL13:
 417:/opt/XMClib/XMC_Peripheral_Library_v2.1.16/XMCLib/src/xmc_usbd.c ****     ep0_data->b.pktcnt = 0x1U;
 240              		.loc 1 417 5 view .LVU86
 418:/opt/XMClib/XMC_Peripheral_Library_v2.1.16/XMCLib/src/xmc_usbd.c ****     ep0_data->b.supcnt = 0x3U;
 241              		.loc 1 418 5 view .LVU87
 419:/opt/XMClib/XMC_Peripheral_Library_v2.1.16/XMCLib/src/xmc_usbd.c ****     ep0_data->b.xfersize = (uint8_t)ep->xferTotal;
 242              		.loc 1 419 5 view .LVU88
 243              		.loc 1 419 26 is_stmt 0 view .LVU89
 244 0020 03F07F03 		and	r3, r3, #127
 245 0024 43F0C043 		orr	r3, r3, #1610612736
 246 0028 43F40023 		orr	r3, r3, #524288
 247              	.LVL14:
 248              	.L25:
 249              		.loc 1 419 26 view .LVU90
 250              	.LBE39:
 420:/opt/XMClib/XMC_Peripheral_Library_v2.1.16/XMCLib/src/xmc_usbd.c ****   }
 421:/opt/XMClib/XMC_Peripheral_Library_v2.1.16/XMCLib/src/xmc_usbd.c ****   else
 422:/opt/XMClib/XMC_Peripheral_Library_v2.1.16/XMCLib/src/xmc_usbd.c ****   {
 423:/opt/XMClib/XMC_Peripheral_Library_v2.1.16/XMCLib/src/xmc_usbd.c ****     /* If requested length is zero, just receive one zero length packet */
 424:/opt/XMClib/XMC_Peripheral_Library_v2.1.16/XMCLib/src/xmc_usbd.c ****     if (ep->xferLength == 0U)
 425:/opt/XMClib/XMC_Peripheral_Library_v2.1.16/XMCLib/src/xmc_usbd.c ****     {
 426:/opt/XMClib/XMC_Peripheral_Library_v2.1.16/XMCLib/src/xmc_usbd.c ****       data.b.xfersize = 0U;
 427:/opt/XMClib/XMC_Peripheral_Library_v2.1.16/XMCLib/src/xmc_usbd.c ****       data.b.pktcnt = 1U;
 428:/opt/XMClib/XMC_Peripheral_Library_v2.1.16/XMCLib/src/xmc_usbd.c ****     }
 429:/opt/XMClib/XMC_Peripheral_Library_v2.1.16/XMCLib/src/xmc_usbd.c ****     else
 430:/opt/XMClib/XMC_Peripheral_Library_v2.1.16/XMCLib/src/xmc_usbd.c ****     {
 431:/opt/XMClib/XMC_Peripheral_Library_v2.1.16/XMCLib/src/xmc_usbd.c ****       /* setup endpoint to recive a amount of packages by given size */
 432:/opt/XMClib/XMC_Peripheral_Library_v2.1.16/XMCLib/src/xmc_usbd.c ****       data.b.pktcnt = (uint16_t)(((ep->xferLength - ep->xferCount) + (ep->maxPacketSize -(uint32_t)
 433:/opt/XMClib/XMC_Peripheral_Library_v2.1.16/XMCLib/src/xmc_usbd.c ****       data.b.xfersize =(uint32_t)(ep->xferLength - ep->xferCount);
 434:/opt/XMClib/XMC_Peripheral_Library_v2.1.16/XMCLib/src/xmc_usbd.c ****     }
 435:/opt/XMClib/XMC_Peripheral_Library_v2.1.16/XMCLib/src/xmc_usbd.c ****   }
 436:/opt/XMClib/XMC_Peripheral_Library_v2.1.16/XMCLib/src/xmc_usbd.c ****   if(usbd_init->usbd_transfer_mode == XMC_USBD_USE_DMA)
 251              		.loc 1 436 3 is_stmt 1 view .LVU91
 252              		.loc 1 436 15 is_stmt 0 view .LVU92
 253 002c 184A     		ldr	r2, .L32
 254 002e D2F80842 		ldr	r4, [r2, #520]
 255              		.loc 1 436 5 view .LVU93
 256 0032 647B     		ldrb	r4, [r4, #13]	@ zero_extendqisi2
 437:/opt/XMClib/XMC_Peripheral_Library_v2.1.16/XMCLib/src/xmc_usbd.c ****   {
 438:/opt/XMClib/XMC_Peripheral_Library_v2.1.16/XMCLib/src/xmc_usbd.c ****     /* Programm dma address if needed */
 439:/opt/XMClib/XMC_Peripheral_Library_v2.1.16/XMCLib/src/xmc_usbd.c ****     xmc_device.endpoint_out_register[ep->address_u.address_st.number]->doepdma = (uint32_t)(ep->xfe
 257              		.loc 1 439 62 view .LVU94
 258 0034 01F00F01 		and	r1, r1, #15
 259              		.loc 1 439 37 view .LVU95
 260 0038 02EB8102 		add	r2, r2, r1, lsl #2
 436:/opt/XMClib/XMC_Peripheral_Library_v2.1.16/XMCLib/src/xmc_usbd.c ****   {
 261              		.loc 1 436 5 view .LVU96
 262 003c 8CB1     		cbz	r4, .L26
 263              		.loc 1 439 37 view .LVU97
 264 003e D2F8C421 		ldr	r2, [r2, #452]
 265              	.L27:
 440:/opt/XMClib/XMC_Peripheral_Library_v2.1.16/XMCLib/src/xmc_usbd.c ****   }
 441:/opt/XMClib/XMC_Peripheral_Library_v2.1.16/XMCLib/src/xmc_usbd.c ****   /* setup endpoint size and enable endpoint */
 442:/opt/XMClib/XMC_Peripheral_Library_v2.1.16/XMCLib/src/xmc_usbd.c ****   xmc_device.endpoint_out_register[ep->address_u.address_st.number]->doeptsiz = data.d32;
 266              		.loc 1 442 3 is_stmt 1 view .LVU98
 267              		.loc 1 442 79 is_stmt 0 view .LVU99
 268 0042 1361     		str	r3, [r2, #16]
 443:/opt/XMClib/XMC_Peripheral_Library_v2.1.16/XMCLib/src/xmc_usbd.c ****  
 444:/opt/XMClib/XMC_Peripheral_Library_v2.1.16/XMCLib/src/xmc_usbd.c ****   epctl.d32 = xmc_device.endpoint_out_register[ep->address_u.address_st.number]->doepctl;
 269              		.loc 1 444 3 is_stmt 1 view .LVU100
 270              		.loc 1 444 80 is_stmt 0 view .LVU101
 271 0044 1368     		ldr	r3, [r2]
 445:/opt/XMClib/XMC_Peripheral_Library_v2.1.16/XMCLib/src/xmc_usbd.c ****   epctl.b.cnak = 1U;
 446:/opt/XMClib/XMC_Peripheral_Library_v2.1.16/XMCLib/src/xmc_usbd.c ****   epctl.b.epena = 1U;
 447:/opt/XMClib/XMC_Peripheral_Library_v2.1.16/XMCLib/src/xmc_usbd.c ****   xmc_device.endpoint_out_register[ep->address_u.address_st.number]->doepctl = epctl.d32;
 448:/opt/XMClib/XMC_Peripheral_Library_v2.1.16/XMCLib/src/xmc_usbd.c **** }
 272              		.loc 1 448 1 view .LVU102
 273 0046 5DF8044B 		ldr	r4, [sp], #4
 274              	.LCFI2:
 275              		.cfi_remember_state
 276              		.cfi_restore 4
 277              		.cfi_def_cfa_offset 0
 445:/opt/XMClib/XMC_Peripheral_Library_v2.1.16/XMCLib/src/xmc_usbd.c ****   epctl.b.cnak = 1U;
 278              		.loc 1 445 16 view .LVU103
 279 004a C3F30761 		ubfx	r1, r3, #24, #8
 445:/opt/XMClib/XMC_Peripheral_Library_v2.1.16/XMCLib/src/xmc_usbd.c ****   epctl.b.cnak = 1U;
 280              		.loc 1 445 3 is_stmt 1 view .LVU104
 446:/opt/XMClib/XMC_Peripheral_Library_v2.1.16/XMCLib/src/xmc_usbd.c ****   xmc_device.endpoint_out_register[ep->address_u.address_st.number]->doepctl = epctl.d32;
 281              		.loc 1 446 3 view .LVU105
 445:/opt/XMClib/XMC_Peripheral_Library_v2.1.16/XMCLib/src/xmc_usbd.c ****   epctl.b.cnak = 1U;
 282              		.loc 1 445 16 is_stmt 0 view .LVU106
 283 004e 61F07B01 		orn	r1, r1, #123
 284 0052 61F31F63 		bfi	r3, r1, #24, #8
 285              	.LVL15:
 447:/opt/XMClib/XMC_Peripheral_Library_v2.1.16/XMCLib/src/xmc_usbd.c **** }
 286              		.loc 1 447 3 is_stmt 1 view .LVU107
 447:/opt/XMClib/XMC_Peripheral_Library_v2.1.16/XMCLib/src/xmc_usbd.c **** }
 287              		.loc 1 447 78 is_stmt 0 view .LVU108
 288 0056 1360     		str	r3, [r2]
 289              		.loc 1 448 1 view .LVU109
 290 0058 7047     		bx	lr
 291              	.LVL16:
 292              	.L24:
 293              	.LCFI3:
 294              		.cfi_restore_state
 424:/opt/XMClib/XMC_Peripheral_Library_v2.1.16/XMCLib/src/xmc_usbd.c ****     {
 295              		.loc 1 424 5 is_stmt 1 view .LVU110
 424:/opt/XMClib/XMC_Peripheral_Library_v2.1.16/XMCLib/src/xmc_usbd.c ****     {
 296              		.loc 1 424 8 is_stmt 0 view .LVU111
 297 005a 3AB9     		cbnz	r2, .L31
 298 005c 4FF40023 		mov	r3, #524288
 299 0060 E4E7     		b	.L25
 300              	.L26:
 439:/opt/XMClib/XMC_Peripheral_Library_v2.1.16/XMCLib/src/xmc_usbd.c ****   }
 301              		.loc 1 439 5 is_stmt 1 view .LVU112
 439:/opt/XMClib/XMC_Peripheral_Library_v2.1.16/XMCLib/src/xmc_usbd.c ****   }
 302              		.loc 1 439 37 is_stmt 0 view .LVU113
 303 0062 D2F8C421 		ldr	r2, [r2, #452]
 439:/opt/XMClib/XMC_Peripheral_Library_v2.1.16/XMCLib/src/xmc_usbd.c ****   }
 304              		.loc 1 439 82 view .LVU114
 305 0066 416A     		ldr	r1, [r0, #36]
 439:/opt/XMClib/XMC_Peripheral_Library_v2.1.16/XMCLib/src/xmc_usbd.c ****   }
 306              		.loc 1 439 80 view .LVU115
 307 0068 5161     		str	r1, [r2, #20]
 308 006a EAE7     		b	.L27
 309              	.L31:
 432:/opt/XMClib/XMC_Peripheral_Library_v2.1.16/XMCLib/src/xmc_usbd.c ****       data.b.xfersize =(uint32_t)(ep->xferLength - ep->xferCount);
 310              		.loc 1 432 7 is_stmt 1 view .LVU116
 432:/opt/XMClib/XMC_Peripheral_Library_v2.1.16/XMCLib/src/xmc_usbd.c ****       data.b.xfersize =(uint32_t)(ep->xferLength - ep->xferCount);
 311              		.loc 1 432 73 is_stmt 0 view .LVU117
 312 006c 4468     		ldr	r4, [r0, #4]
 432:/opt/XMClib/XMC_Peripheral_Library_v2.1.16/XMCLib/src/xmc_usbd.c ****       data.b.xfersize =(uint32_t)(ep->xferLength - ep->xferCount);
 313              		.loc 1 432 51 view .LVU118
 314 006e C36A     		ldr	r3, [r0, #44]
 432:/opt/XMClib/XMC_Peripheral_Library_v2.1.16/XMCLib/src/xmc_usbd.c ****       data.b.xfersize =(uint32_t)(ep->xferLength - ep->xferCount);
 315              		.loc 1 432 73 view .LVU119
 316 0070 C4F3C62C 		ubfx	ip, r4, #11, #7
 433:/opt/XMClib/XMC_Peripheral_Library_v2.1.16/XMCLib/src/xmc_usbd.c ****     }
 317              		.loc 1 433 7 is_stmt 1 view .LVU120
 432:/opt/XMClib/XMC_Peripheral_Library_v2.1.16/XMCLib/src/xmc_usbd.c ****       data.b.xfersize =(uint32_t)(ep->xferLength - ep->xferCount);
 318              		.loc 1 432 51 is_stmt 0 view .LVU121
 319 0074 D21A     		subs	r2, r2, r3
 433:/opt/XMClib/XMC_Peripheral_Library_v2.1.16/XMCLib/src/xmc_usbd.c ****     }
 320              		.loc 1 433 23 view .LVU122
 321 0076 074B     		ldr	r3, .L32+4
 432:/opt/XMClib/XMC_Peripheral_Library_v2.1.16/XMCLib/src/xmc_usbd.c ****       data.b.xfersize =(uint32_t)(ep->xferLength - ep->xferCount);
 322              		.loc 1 432 68 view .LVU123
 323 0078 0CF1FF34 		add	r4, ip, #-1
 324 007c 1444     		add	r4, r4, r2
 433:/opt/XMClib/XMC_Peripheral_Library_v2.1.16/XMCLib/src/xmc_usbd.c ****     }
 325              		.loc 1 433 23 view .LVU124
 326 007e C2F31202 		ubfx	r2, r2, #0, #19
 432:/opt/XMClib/XMC_Peripheral_Library_v2.1.16/XMCLib/src/xmc_usbd.c ****       data.b.xfersize =(uint32_t)(ep->xferLength - ep->xferCount);
 327              		.loc 1 432 104 view .LVU125
 328 0082 B4FBFCF4 		udiv	r4, r4, ip
 433:/opt/XMClib/XMC_Peripheral_Library_v2.1.16/XMCLib/src/xmc_usbd.c ****     }
 329              		.loc 1 433 23 view .LVU126
 330 0086 03EAC443 		and	r3, r3, r4, lsl #19
 331 008a 1343     		orrs	r3, r3, r2
 332 008c CEE7     		b	.L25
 333              	.L33:
 334 008e 00BF     		.align	2
 335              	.L32:
 336 0090 00000000 		.word	.LANCHOR0
 337 0094 0000F81F 		.word	536346624
 338              		.cfi_endproc
 339              	.LFE169:
 341              		.section	.text.XMC_USBD_lStartWriteXfer,"ax",%progbits
 342              		.align	1
 343              		.p2align 2,,3
 344              		.syntax unified
 345              		.thumb
 346              		.thumb_func
 348              	XMC_USBD_lStartWriteXfer:
 349              	.LVL17:
 350              	.LFB170:
 449:/opt/XMClib/XMC_Peripheral_Library_v2.1.16/XMCLib/src/xmc_usbd.c **** 
 450:/opt/XMClib/XMC_Peripheral_Library_v2.1.16/XMCLib/src/xmc_usbd.c **** /**
 451:/opt/XMClib/XMC_Peripheral_Library_v2.1.16/XMCLib/src/xmc_usbd.c ****  * @brief Start a new in transfer
 452:/opt/XMClib/XMC_Peripheral_Library_v2.1.16/XMCLib/src/xmc_usbd.c ****  *
 453:/opt/XMClib/XMC_Peripheral_Library_v2.1.16/XMCLib/src/xmc_usbd.c ****  * Based on the transfer values of the endpoint the in endpoint registers will be programmed
 454:/opt/XMClib/XMC_Peripheral_Library_v2.1.16/XMCLib/src/xmc_usbd.c ****  * to start a new in transfer
 455:/opt/XMClib/XMC_Peripheral_Library_v2.1.16/XMCLib/src/xmc_usbd.c ****  *
 456:/opt/XMClib/XMC_Peripheral_Library_v2.1.16/XMCLib/src/xmc_usbd.c ****  * @param[in] ep Endpoint to start the transfer
 457:/opt/XMClib/XMC_Peripheral_Library_v2.1.16/XMCLib/src/xmc_usbd.c ****  */
 458:/opt/XMClib/XMC_Peripheral_Library_v2.1.16/XMCLib/src/xmc_usbd.c **** static void XMC_USBD_lStartWriteXfer(XMC_USBD_EP_t *const ep) 
 459:/opt/XMClib/XMC_Peripheral_Library_v2.1.16/XMCLib/src/xmc_usbd.c **** {
 351              		.loc 1 459 1 is_stmt 1 view -0
 352              		.cfi_startproc
 353              		@ args = 0, pretend = 0, frame = 0
 354              		@ frame_needed = 0, uses_anonymous_args = 0
 460:/opt/XMClib/XMC_Peripheral_Library_v2.1.16/XMCLib/src/xmc_usbd.c ****   deptsiz_data_t size;
 355              		.loc 1 460 3 view .LVU128
 461:/opt/XMClib/XMC_Peripheral_Library_v2.1.16/XMCLib/src/xmc_usbd.c ****   depctl_data_t ctl;
 356              		.loc 1 461 3 view .LVU129
 462:/opt/XMClib/XMC_Peripheral_Library_v2.1.16/XMCLib/src/xmc_usbd.c **** 	
 463:/opt/XMClib/XMC_Peripheral_Library_v2.1.16/XMCLib/src/xmc_usbd.c ****   size.d32 = 0U;  
 357              		.loc 1 463 3 view .LVU130
 464:/opt/XMClib/XMC_Peripheral_Library_v2.1.16/XMCLib/src/xmc_usbd.c ****   ctl.d32 = xmc_device.endpoint_in_register[ep->address_u.address_st.number]->diepctl;
 358              		.loc 1 464 3 view .LVU131
 459:/opt/XMClib/XMC_Peripheral_Library_v2.1.16/XMCLib/src/xmc_usbd.c ****   deptsiz_data_t size;
 359              		.loc 1 459 1 is_stmt 0 view .LVU132
 360 0000 F0B5     		push	{r4, r5, r6, r7, lr}
 361              	.LCFI4:
 362              		.cfi_def_cfa_offset 20
 363              		.cfi_offset 4, -20
 364              		.cfi_offset 5, -16
 365              		.cfi_offset 6, -12
 366              		.cfi_offset 7, -8
 367              		.cfi_offset 14, -4
 368              		.loc 1 464 69 view .LVU133
 369 0002 90F800E0 		ldrb	lr, [r0]	@ zero_extendqisi2
 370              		.loc 1 464 44 view .LVU134
 371 0006 274D     		ldr	r5, .L45
 465:/opt/XMClib/XMC_Peripheral_Library_v2.1.16/XMCLib/src/xmc_usbd.c **** 
 466:/opt/XMClib/XMC_Peripheral_Library_v2.1.16/XMCLib/src/xmc_usbd.c ****   if ((ep->xferTotal - ep->xferLength)  < ep->maxTransferSize)
 372              		.loc 1 466 26 view .LVU135
 373 0008 866A     		ldr	r6, [r0, #40]
 374              		.loc 1 466 45 view .LVU136
 375 000a 8268     		ldr	r2, [r0, #8]
 464:/opt/XMClib/XMC_Peripheral_Library_v2.1.16/XMCLib/src/xmc_usbd.c **** 
 376              		.loc 1 464 69 view .LVU137
 377 000c 0EF00F0C 		and	ip, lr, #15
 464:/opt/XMClib/XMC_Peripheral_Library_v2.1.16/XMCLib/src/xmc_usbd.c **** 
 378              		.loc 1 464 44 view .LVU138
 379 0010 0CF16A03 		add	r3, ip, #106
 380              		.loc 1 466 45 view .LVU139
 381 0014 C2F31202 		ubfx	r2, r2, #0, #19
 464:/opt/XMClib/XMC_Peripheral_Library_v2.1.16/XMCLib/src/xmc_usbd.c **** 
 382              		.loc 1 464 44 view .LVU140
 383 0018 55F82310 		ldr	r1, [r5, r3, lsl #2]
 384              		.loc 1 466 10 view .LVU141
 385 001c 036B     		ldr	r3, [r0, #48]
 464:/opt/XMClib/XMC_Peripheral_Library_v2.1.16/XMCLib/src/xmc_usbd.c **** 
 386              		.loc 1 464 77 view .LVU142
 387 001e 0C68     		ldr	r4, [r1]
 388              	.LVL18:
 389              		.loc 1 466 3 is_stmt 1 view .LVU143
 390              		.loc 1 466 22 is_stmt 0 view .LVU144
 391 0020 9F1B     		subs	r7, r3, r6
 392              		.loc 1 466 6 view .LVU145
 393 0022 9742     		cmp	r7, r2
 467:/opt/XMClib/XMC_Peripheral_Library_v2.1.16/XMCLib/src/xmc_usbd.c ****   {
 468:/opt/XMClib/XMC_Peripheral_Library_v2.1.16/XMCLib/src/xmc_usbd.c ****     ep->xferLength = ep->xferTotal;
 469:/opt/XMClib/XMC_Peripheral_Library_v2.1.16/XMCLib/src/xmc_usbd.c ****   }
 470:/opt/XMClib/XMC_Peripheral_Library_v2.1.16/XMCLib/src/xmc_usbd.c ****   else
 471:/opt/XMClib/XMC_Peripheral_Library_v2.1.16/XMCLib/src/xmc_usbd.c ****   {
 472:/opt/XMClib/XMC_Peripheral_Library_v2.1.16/XMCLib/src/xmc_usbd.c ****     ep->xferLength += ep->maxTransferSize;
 394              		.loc 1 472 5 is_stmt 1 view .LVU146
 395              		.loc 1 472 20 is_stmt 0 view .LVU147
 396 0024 28BF     		it	cs
 397 0026 B318     		addcs	r3, r6, r2
 398 0028 8362     		str	r3, [r0, #40]
 473:/opt/XMClib/XMC_Peripheral_Library_v2.1.16/XMCLib/src/xmc_usbd.c ****   }
 474:/opt/XMClib/XMC_Peripheral_Library_v2.1.16/XMCLib/src/xmc_usbd.c ****   if (ep->xferLength == 0U)
 399              		.loc 1 474 3 is_stmt 1 view .LVU148
 400              		.loc 1 474 6 is_stmt 0 view .LVU149
 401 002a D3B1     		cbz	r3, .L41
 475:/opt/XMClib/XMC_Peripheral_Library_v2.1.16/XMCLib/src/xmc_usbd.c ****   {
 476:/opt/XMClib/XMC_Peripheral_Library_v2.1.16/XMCLib/src/xmc_usbd.c ****     size.b.xfersize = 0U;
 477:/opt/XMClib/XMC_Peripheral_Library_v2.1.16/XMCLib/src/xmc_usbd.c ****     size.b.pktcnt = 1U;
 478:/opt/XMClib/XMC_Peripheral_Library_v2.1.16/XMCLib/src/xmc_usbd.c ****   }
 479:/opt/XMClib/XMC_Peripheral_Library_v2.1.16/XMCLib/src/xmc_usbd.c ****   else
 480:/opt/XMClib/XMC_Peripheral_Library_v2.1.16/XMCLib/src/xmc_usbd.c ****   {
 481:/opt/XMClib/XMC_Peripheral_Library_v2.1.16/XMCLib/src/xmc_usbd.c ****     if (ep->address_u.address_st.number == 0U)
 402              		.loc 1 481 5 is_stmt 1 view .LVU150
 403              		.loc 1 481 8 is_stmt 0 view .LVU151
 404 002c 1EF00F0F 		tst	lr, #15
 405 0030 22D0     		beq	.L43
 482:/opt/XMClib/XMC_Peripheral_Library_v2.1.16/XMCLib/src/xmc_usbd.c ****     {
 483:/opt/XMClib/XMC_Peripheral_Library_v2.1.16/XMCLib/src/xmc_usbd.c ****       size.b.pktcnt = 1U;
 484:/opt/XMClib/XMC_Peripheral_Library_v2.1.16/XMCLib/src/xmc_usbd.c ****       /* ep->maxXferSize equals maxPacketSize */
 485:/opt/XMClib/XMC_Peripheral_Library_v2.1.16/XMCLib/src/xmc_usbd.c ****       size.b.xfersize = (uint32_t)(ep->xferLength - ep->xferCount);
 486:/opt/XMClib/XMC_Peripheral_Library_v2.1.16/XMCLib/src/xmc_usbd.c ****     }
 487:/opt/XMClib/XMC_Peripheral_Library_v2.1.16/XMCLib/src/xmc_usbd.c ****     else
 488:/opt/XMClib/XMC_Peripheral_Library_v2.1.16/XMCLib/src/xmc_usbd.c ****     {
 489:/opt/XMClib/XMC_Peripheral_Library_v2.1.16/XMCLib/src/xmc_usbd.c ****       size.b.xfersize =(uint32_t)(ep->xferLength - ep->xferCount);
 406              		.loc 1 489 7 is_stmt 1 view .LVU152
 490:/opt/XMClib/XMC_Peripheral_Library_v2.1.16/XMCLib/src/xmc_usbd.c ****       size.b.pktcnt = (uint16_t)(((uint16_t)(ep->xferLength - ep->xferCount) + (uint16_t)((uint16_t
 407              		.loc 1 490 103 is_stmt 0 view .LVU153
 408 0032 4668     		ldr	r6, [r0, #4]
 489:/opt/XMClib/XMC_Peripheral_Library_v2.1.16/XMCLib/src/xmc_usbd.c ****       size.b.pktcnt = (uint16_t)(((uint16_t)(ep->xferLength - ep->xferCount) + (uint16_t)((uint16_t
 409              		.loc 1 489 54 view .LVU154
 410 0034 C26A     		ldr	r2, [r0, #44]
 411              		.loc 1 490 7 is_stmt 1 view .LVU155
 491:/opt/XMClib/XMC_Peripheral_Library_v2.1.16/XMCLib/src/xmc_usbd.c ****     		 ep->maxPacketSize);
 492:/opt/XMClib/XMC_Peripheral_Library_v2.1.16/XMCLib/src/xmc_usbd.c ****     }
 493:/opt/XMClib/XMC_Peripheral_Library_v2.1.16/XMCLib/src/xmc_usbd.c ****     if(usbd_init->usbd_transfer_mode == XMC_USBD_USE_DMA)
 412              		.loc 1 493 5 view .LVU156
 490:/opt/XMClib/XMC_Peripheral_Library_v2.1.16/XMCLib/src/xmc_usbd.c ****     		 ep->maxPacketSize);
 413              		.loc 1 490 103 is_stmt 0 view .LVU157
 414 0036 C6F3C627 		ubfx	r7, r6, #11, #7
 490:/opt/XMClib/XMC_Peripheral_Library_v2.1.16/XMCLib/src/xmc_usbd.c ****     		 ep->maxPacketSize);
 415              		.loc 1 490 35 view .LVU158
 416 003a 9B1A     		subs	r3, r3, r2
 490:/opt/XMClib/XMC_Peripheral_Library_v2.1.16/XMCLib/src/xmc_usbd.c ****     		 ep->maxPacketSize);
 417              		.loc 1 490 80 view .LVU159
 418 003c 7E1E     		subs	r6, r7, #1
 489:/opt/XMClib/XMC_Peripheral_Library_v2.1.16/XMCLib/src/xmc_usbd.c ****       size.b.pktcnt = (uint16_t)(((uint16_t)(ep->xferLength - ep->xferCount) + (uint16_t)((uint16_t
 419              		.loc 1 489 23 view .LVU160
 420 003e 1A4A     		ldr	r2, .L45+4
 490:/opt/XMClib/XMC_Peripheral_Library_v2.1.16/XMCLib/src/xmc_usbd.c ****     		 ep->maxPacketSize);
 421              		.loc 1 490 80 view .LVU161
 422 0040 B6B2     		uxth	r6, r6
 490:/opt/XMClib/XMC_Peripheral_Library_v2.1.16/XMCLib/src/xmc_usbd.c ****     		 ep->maxPacketSize);
 423              		.loc 1 490 78 view .LVU162
 424 0042 16FA83F6 		uxtah	r6, r6, r3
 489:/opt/XMClib/XMC_Peripheral_Library_v2.1.16/XMCLib/src/xmc_usbd.c ****       size.b.pktcnt = (uint16_t)(((uint16_t)(ep->xferLength - ep->xferCount) + (uint16_t)((uint16_t
 425              		.loc 1 489 23 view .LVU163
 426 0046 C3F31203 		ubfx	r3, r3, #0, #19
 490:/opt/XMClib/XMC_Peripheral_Library_v2.1.16/XMCLib/src/xmc_usbd.c ****     		 ep->maxPacketSize);
 427              		.loc 1 490 125 view .LVU164
 428 004a B6FBF7F6 		udiv	r6, r6, r7
 489:/opt/XMClib/XMC_Peripheral_Library_v2.1.16/XMCLib/src/xmc_usbd.c ****       size.b.pktcnt = (uint16_t)(((uint16_t)(ep->xferLength - ep->xferCount) + (uint16_t)((uint16_t
 429              		.loc 1 489 23 view .LVU165
 430 004e 02EAC642 		and	r2, r2, r6, lsl #19
 431 0052 1343     		orrs	r3, r3, r2
 432              	.LVL19:
 433              		.loc 1 493 17 view .LVU166
 434 0054 D5F80822 		ldr	r2, [r5, #520]
 435 0058 527B     		ldrb	r2, [r2, #13]	@ zero_extendqisi2
 436              		.loc 1 493 7 view .LVU167
 437 005a C2B9     		cbnz	r2, .L39
 438              	.L44:
 494:/opt/XMClib/XMC_Peripheral_Library_v2.1.16/XMCLib/src/xmc_usbd.c ****     {
 495:/opt/XMClib/XMC_Peripheral_Library_v2.1.16/XMCLib/src/xmc_usbd.c ****       /* Program dma*/
 496:/opt/XMClib/XMC_Peripheral_Library_v2.1.16/XMCLib/src/xmc_usbd.c ****       xmc_device.endpoint_in_register[ep->address_u.address_st.number]->diepdma = (uint32_t)ep->xfe
 439              		.loc 1 496 7 is_stmt 1 view .LVU168
 440              		.loc 1 496 83 is_stmt 0 view .LVU169
 441 005c 426A     		ldr	r2, [r0, #36]
 442              		.loc 1 496 81 view .LVU170
 443 005e 4A61     		str	r2, [r1, #20]
 497:/opt/XMClib/XMC_Peripheral_Library_v2.1.16/XMCLib/src/xmc_usbd.c ****     }
 498:/opt/XMClib/XMC_Peripheral_Library_v2.1.16/XMCLib/src/xmc_usbd.c ****     if(usbd_init->usbd_transfer_mode == XMC_USBD_USE_FIFO)
 444              		.loc 1 498 5 is_stmt 1 view .LVU171
 445 0060 01E0     		b	.L36
 446              	.L41:
 447              		.loc 1 498 5 is_stmt 0 view .LVU172
 448 0062 4FF40023 		mov	r3, #524288
 449              	.LVL20:
 450              	.L36:
 499:/opt/XMClib/XMC_Peripheral_Library_v2.1.16/XMCLib/src/xmc_usbd.c ****     {
 500:/opt/XMClib/XMC_Peripheral_Library_v2.1.16/XMCLib/src/xmc_usbd.c ****       /* enable fifo empty interrupt */
 501:/opt/XMClib/XMC_Peripheral_Library_v2.1.16/XMCLib/src/xmc_usbd.c **** 			xmc_device.device_register->dtknqr4_fifoemptymsk |= (uint32_t)((uint32_t)1U << (uint8_t)ep->addr
 502:/opt/XMClib/XMC_Peripheral_Library_v2.1.16/XMCLib/src/xmc_usbd.c ****     }
 503:/opt/XMClib/XMC_Peripheral_Library_v2.1.16/XMCLib/src/xmc_usbd.c ****   }
 504:/opt/XMClib/XMC_Peripheral_Library_v2.1.16/XMCLib/src/xmc_usbd.c **** 
 505:/opt/XMClib/XMC_Peripheral_Library_v2.1.16/XMCLib/src/xmc_usbd.c ****   /* Program size of transfer and enable endpoint */
 506:/opt/XMClib/XMC_Peripheral_Library_v2.1.16/XMCLib/src/xmc_usbd.c ****   xmc_device.endpoint_in_register[ep->address_u.address_st.number]->dieptsiz = size.d32;
 451              		.loc 1 506 3 is_stmt 1 view .LVU173
 507:/opt/XMClib/XMC_Peripheral_Library_v2.1.16/XMCLib/src/xmc_usbd.c ****   ctl.b.epena = 1U;
 508:/opt/XMClib/XMC_Peripheral_Library_v2.1.16/XMCLib/src/xmc_usbd.c ****   ctl.b.cnak = 1U;
 452              		.loc 1 508 14 is_stmt 0 view .LVU174
 453 0066 C4F30762 		ubfx	r2, r4, #24, #8
 454 006a 62F07B02 		orn	r2, r2, #123
 455 006e 62F31F64 		bfi	r4, r2, #24, #8
 506:/opt/XMClib/XMC_Peripheral_Library_v2.1.16/XMCLib/src/xmc_usbd.c ****   ctl.b.epena = 1U;
 456              		.loc 1 506 78 view .LVU175
 457 0072 0B61     		str	r3, [r1, #16]
 507:/opt/XMClib/XMC_Peripheral_Library_v2.1.16/XMCLib/src/xmc_usbd.c ****   ctl.b.epena = 1U;
 458              		.loc 1 507 3 is_stmt 1 view .LVU176
 459              		.loc 1 508 3 view .LVU177
 509:/opt/XMClib/XMC_Peripheral_Library_v2.1.16/XMCLib/src/xmc_usbd.c ****   xmc_device.endpoint_in_register[ep->address_u.address_st.number]->diepctl = ctl.d32;
 460              		.loc 1 509 3 view .LVU178
 461              		.loc 1 509 77 is_stmt 0 view .LVU179
 462 0074 0C60     		str	r4, [r1]
 510:/opt/XMClib/XMC_Peripheral_Library_v2.1.16/XMCLib/src/xmc_usbd.c **** }
 463              		.loc 1 510 1 view .LVU180
 464 0076 F0BD     		pop	{r4, r5, r6, r7, pc}
 465              	.LVL21:
 466              	.L43:
 483:/opt/XMClib/XMC_Peripheral_Library_v2.1.16/XMCLib/src/xmc_usbd.c ****       /* ep->maxXferSize equals maxPacketSize */
 467              		.loc 1 483 7 is_stmt 1 view .LVU181
 485:/opt/XMClib/XMC_Peripheral_Library_v2.1.16/XMCLib/src/xmc_usbd.c ****     }
 468              		.loc 1 485 7 view .LVU182
 485:/opt/XMClib/XMC_Peripheral_Library_v2.1.16/XMCLib/src/xmc_usbd.c ****     }
 469              		.loc 1 485 51 is_stmt 0 view .LVU183
 470 0078 C26A     		ldr	r2, [r0, #44]
 471 007a 9B1A     		subs	r3, r3, r2
 493:/opt/XMClib/XMC_Peripheral_Library_v2.1.16/XMCLib/src/xmc_usbd.c ****     {
 472              		.loc 1 493 17 view .LVU184
 473 007c D5F80822 		ldr	r2, [r5, #520]
 474 0080 527B     		ldrb	r2, [r2, #13]	@ zero_extendqisi2
 485:/opt/XMClib/XMC_Peripheral_Library_v2.1.16/XMCLib/src/xmc_usbd.c ****     }
 475              		.loc 1 485 23 view .LVU185
 476 0082 C3F31203 		ubfx	r3, r3, #0, #19
 477 0086 43F40023 		orr	r3, r3, #524288
 493:/opt/XMClib/XMC_Peripheral_Library_v2.1.16/XMCLib/src/xmc_usbd.c ****     {
 478              		.loc 1 493 5 is_stmt 1 view .LVU186
 493:/opt/XMClib/XMC_Peripheral_Library_v2.1.16/XMCLib/src/xmc_usbd.c ****     {
 479              		.loc 1 493 7 is_stmt 0 view .LVU187
 480 008a 002A     		cmp	r2, #0
 481 008c E6D0     		beq	.L44
 482              	.L39:
 498:/opt/XMClib/XMC_Peripheral_Library_v2.1.16/XMCLib/src/xmc_usbd.c ****     {
 483              		.loc 1 498 5 is_stmt 1 view .LVU188
 498:/opt/XMClib/XMC_Peripheral_Library_v2.1.16/XMCLib/src/xmc_usbd.c ****     {
 484              		.loc 1 498 7 is_stmt 0 view .LVU189
 485 008e 012A     		cmp	r2, #1
 486 0090 E9D1     		bne	.L36
 501:/opt/XMClib/XMC_Peripheral_Library_v2.1.16/XMCLib/src/xmc_usbd.c ****     }
 487              		.loc 1 501 4 is_stmt 1 view .LVU190
 501:/opt/XMClib/XMC_Peripheral_Library_v2.1.16/XMCLib/src/xmc_usbd.c ****     }
 488              		.loc 1 501 14 is_stmt 0 view .LVU191
 489 0092 D5F8A401 		ldr	r0, [r5, #420]
 490              	.LVL22:
 501:/opt/XMClib/XMC_Peripheral_Library_v2.1.16/XMCLib/src/xmc_usbd.c ****     }
 491              		.loc 1 501 53 view .LVU192
 492 0096 456B     		ldr	r5, [r0, #52]
 501:/opt/XMClib/XMC_Peripheral_Library_v2.1.16/XMCLib/src/xmc_usbd.c ****     }
 493              		.loc 1 501 56 view .LVU193
 494 0098 02FA0CF2 		lsl	r2, r2, ip
 501:/opt/XMClib/XMC_Peripheral_Library_v2.1.16/XMCLib/src/xmc_usbd.c ****     }
 495              		.loc 1 501 53 view .LVU194
 496 009c 2A43     		orrs	r2, r2, r5
 497 009e 4263     		str	r2, [r0, #52]
 498 00a0 E1E7     		b	.L36
 499              	.L46:
 500 00a2 00BF     		.align	2
 501              	.L45:
 502 00a4 00000000 		.word	.LANCHOR0
 503 00a8 0000F81F 		.word	536346624
 504              		.cfi_endproc
 505              	.LFE170:
 507              		.section	.text.XMC_USBD_GetCapabilities,"ax",%progbits
 508              		.align	1
 509              		.p2align 2,,3
 510              		.global	XMC_USBD_GetCapabilities
 511              		.syntax unified
 512              		.thumb
 513              		.thumb_func
 515              	XMC_USBD_GetCapabilities:
 516              	.LFB186:
 511:/opt/XMClib/XMC_Peripheral_Library_v2.1.16/XMCLib/src/xmc_usbd.c **** 
 512:/opt/XMClib/XMC_Peripheral_Library_v2.1.16/XMCLib/src/xmc_usbd.c **** 
 513:/opt/XMClib/XMC_Peripheral_Library_v2.1.16/XMCLib/src/xmc_usbd.c **** /**
 514:/opt/XMClib/XMC_Peripheral_Library_v2.1.16/XMCLib/src/xmc_usbd.c ****  * @brief Handles the USBD reset interrupt
 515:/opt/XMClib/XMC_Peripheral_Library_v2.1.16/XMCLib/src/xmc_usbd.c ****  *
 516:/opt/XMClib/XMC_Peripheral_Library_v2.1.16/XMCLib/src/xmc_usbd.c ****  * When ever the host sets the bus into reset condition the usb otg_core generates
 517:/opt/XMClib/XMC_Peripheral_Library_v2.1.16/XMCLib/src/xmc_usbd.c ****  * an interrupt, which is handled by this function. It resets the complete otg_core
 518:/opt/XMClib/XMC_Peripheral_Library_v2.1.16/XMCLib/src/xmc_usbd.c ****  * into the default state.
 519:/opt/XMClib/XMC_Peripheral_Library_v2.1.16/XMCLib/src/xmc_usbd.c ****  */
 520:/opt/XMClib/XMC_Peripheral_Library_v2.1.16/XMCLib/src/xmc_usbd.c **** static void XMC_USBD_lHandleUSBReset(const XMC_USBD_t *const obj) 
 521:/opt/XMClib/XMC_Peripheral_Library_v2.1.16/XMCLib/src/xmc_usbd.c **** {
 522:/opt/XMClib/XMC_Peripheral_Library_v2.1.16/XMCLib/src/xmc_usbd.c ****   uint32_t i;
 523:/opt/XMClib/XMC_Peripheral_Library_v2.1.16/XMCLib/src/xmc_usbd.c ****   depctl_data_t epctl;
 524:/opt/XMClib/XMC_Peripheral_Library_v2.1.16/XMCLib/src/xmc_usbd.c ****   dctl_data_t dctl;
 525:/opt/XMClib/XMC_Peripheral_Library_v2.1.16/XMCLib/src/xmc_usbd.c ****   fifosize_data_t gnptxfsiz;
 526:/opt/XMClib/XMC_Peripheral_Library_v2.1.16/XMCLib/src/xmc_usbd.c ****   daint_data_t daint;
 527:/opt/XMClib/XMC_Peripheral_Library_v2.1.16/XMCLib/src/xmc_usbd.c ****   dcfg_data_t dcfg;
 528:/opt/XMClib/XMC_Peripheral_Library_v2.1.16/XMCLib/src/xmc_usbd.c **** 	
 529:/opt/XMClib/XMC_Peripheral_Library_v2.1.16/XMCLib/src/xmc_usbd.c ****   /* Clear the Remote Wakeup Signaling */
 530:/opt/XMClib/XMC_Peripheral_Library_v2.1.16/XMCLib/src/xmc_usbd.c ****   dctl.d32 = xmc_device.device_register->dctl;
 531:/opt/XMClib/XMC_Peripheral_Library_v2.1.16/XMCLib/src/xmc_usbd.c ****   dctl.b.rmtwkupsig = 1U;
 532:/opt/XMClib/XMC_Peripheral_Library_v2.1.16/XMCLib/src/xmc_usbd.c ****   xmc_device.device_register->dctl = dctl.d32;
 533:/opt/XMClib/XMC_Peripheral_Library_v2.1.16/XMCLib/src/xmc_usbd.c **** 
 534:/opt/XMClib/XMC_Peripheral_Library_v2.1.16/XMCLib/src/xmc_usbd.c ****   /* enable naks for all eps */
 535:/opt/XMClib/XMC_Peripheral_Library_v2.1.16/XMCLib/src/xmc_usbd.c ****   for (i = 0U;i < (uint8_t)XMC_USBD_NUM_EPS;i++)
 536:/opt/XMClib/XMC_Peripheral_Library_v2.1.16/XMCLib/src/xmc_usbd.c ****   {
 537:/opt/XMClib/XMC_Peripheral_Library_v2.1.16/XMCLib/src/xmc_usbd.c ****     epctl.d32 = xmc_device.endpoint_out_register[i]->doepctl;
 538:/opt/XMClib/XMC_Peripheral_Library_v2.1.16/XMCLib/src/xmc_usbd.c **** 		epctl.b.snak = 1U;
 539:/opt/XMClib/XMC_Peripheral_Library_v2.1.16/XMCLib/src/xmc_usbd.c **** 		epctl.b.stall = 0U;
 540:/opt/XMClib/XMC_Peripheral_Library_v2.1.16/XMCLib/src/xmc_usbd.c **** 		xmc_device.endpoint_out_register[i]->doepctl = epctl.d32;
 541:/opt/XMClib/XMC_Peripheral_Library_v2.1.16/XMCLib/src/xmc_usbd.c ****   }
 542:/opt/XMClib/XMC_Peripheral_Library_v2.1.16/XMCLib/src/xmc_usbd.c **** 
 543:/opt/XMClib/XMC_Peripheral_Library_v2.1.16/XMCLib/src/xmc_usbd.c ****   /* Configure fifos */
 544:/opt/XMClib/XMC_Peripheral_Library_v2.1.16/XMCLib/src/xmc_usbd.c ****   /* Calculate the size of the rx fifo */
 545:/opt/XMClib/XMC_Peripheral_Library_v2.1.16/XMCLib/src/xmc_usbd.c ****   xmc_device.global_register->grxfsiz = 64U;
 546:/opt/XMClib/XMC_Peripheral_Library_v2.1.16/XMCLib/src/xmc_usbd.c ****   /* Calculate the size of the tx fifo for ep 0 */  
 547:/opt/XMClib/XMC_Peripheral_Library_v2.1.16/XMCLib/src/xmc_usbd.c ****   gnptxfsiz.d32 = 0U;
 548:/opt/XMClib/XMC_Peripheral_Library_v2.1.16/XMCLib/src/xmc_usbd.c ****   gnptxfsiz.b.depth = 16U;
 549:/opt/XMClib/XMC_Peripheral_Library_v2.1.16/XMCLib/src/xmc_usbd.c ****   gnptxfsiz.b.startaddr = 64U;
 550:/opt/XMClib/XMC_Peripheral_Library_v2.1.16/XMCLib/src/xmc_usbd.c ****   xmc_device.global_register->gnptxfsiz = gnptxfsiz.d32;
 551:/opt/XMClib/XMC_Peripheral_Library_v2.1.16/XMCLib/src/xmc_usbd.c ****   /* calculate the size for the rest */
 552:/opt/XMClib/XMC_Peripheral_Library_v2.1.16/XMCLib/src/xmc_usbd.c ****   for (i = 1U;i < (uint8_t)XMC_USBD_NUM_TX_FIFOS;i++)
 553:/opt/XMClib/XMC_Peripheral_Library_v2.1.16/XMCLib/src/xmc_usbd.c ****   {
 554:/opt/XMClib/XMC_Peripheral_Library_v2.1.16/XMCLib/src/xmc_usbd.c ****     xmc_device.global_register->dtxfsiz[i- 1U] = (uint32_t)(((256U + (i*(64U)))/4U) | ((uint32_t)16
 555:/opt/XMClib/XMC_Peripheral_Library_v2.1.16/XMCLib/src/xmc_usbd.c ****   }
 556:/opt/XMClib/XMC_Peripheral_Library_v2.1.16/XMCLib/src/xmc_usbd.c **** 
 557:/opt/XMClib/XMC_Peripheral_Library_v2.1.16/XMCLib/src/xmc_usbd.c ****   /* flush the fifos for proper operation */
 558:/opt/XMClib/XMC_Peripheral_Library_v2.1.16/XMCLib/src/xmc_usbd.c ****   XMC_USBD_lFlushTXFifo(0x10U); /* 0x10 == all fifos, see doc */
 559:/opt/XMClib/XMC_Peripheral_Library_v2.1.16/XMCLib/src/xmc_usbd.c ****   XMC_USBD_lFlushTXFifo(0x0U);
 560:/opt/XMClib/XMC_Peripheral_Library_v2.1.16/XMCLib/src/xmc_usbd.c ****   XMC_USBD_lFlushRXFifo();
 561:/opt/XMClib/XMC_Peripheral_Library_v2.1.16/XMCLib/src/xmc_usbd.c ****   /* Flush learning queue not needed due to fifo config */
 562:/opt/XMClib/XMC_Peripheral_Library_v2.1.16/XMCLib/src/xmc_usbd.c ****   /* enable ep0 interrupts */  
 563:/opt/XMClib/XMC_Peripheral_Library_v2.1.16/XMCLib/src/xmc_usbd.c ****   daint.d32 = 0U;
 564:/opt/XMClib/XMC_Peripheral_Library_v2.1.16/XMCLib/src/xmc_usbd.c ****   daint.b.inep0 = 1U;
 565:/opt/XMClib/XMC_Peripheral_Library_v2.1.16/XMCLib/src/xmc_usbd.c ****   daint.b.outep0 = 1U;
 566:/opt/XMClib/XMC_Peripheral_Library_v2.1.16/XMCLib/src/xmc_usbd.c ****   xmc_device.device_register->daintmsk = daint.d32;
 567:/opt/XMClib/XMC_Peripheral_Library_v2.1.16/XMCLib/src/xmc_usbd.c **** 
 568:/opt/XMClib/XMC_Peripheral_Library_v2.1.16/XMCLib/src/xmc_usbd.c ****   /* enable endpoint interrupts */
 569:/opt/XMClib/XMC_Peripheral_Library_v2.1.16/XMCLib/src/xmc_usbd.c ****   /* out ep interrupts */
 570:/opt/XMClib/XMC_Peripheral_Library_v2.1.16/XMCLib/src/xmc_usbd.c ****   XMC_USBD_EnableEventOUTEP(((uint32_t)XMC_USBD_EVENT_OUT_EP_TX_COMPLET | (uint32_t)XMC_USBD_EVENT_
 571:/opt/XMClib/XMC_Peripheral_Library_v2.1.16/XMCLib/src/xmc_usbd.c **** 		  	  	  	  	  	  (uint32_t)XMC_USBD_EVENT_OUT_EP_SETUP | (uint32_t)XMC_USBD_EVENT_OUT_EP_AHB_ERRO
 572:/opt/XMClib/XMC_Peripheral_Library_v2.1.16/XMCLib/src/xmc_usbd.c **** 
 573:/opt/XMClib/XMC_Peripheral_Library_v2.1.16/XMCLib/src/xmc_usbd.c ****   /*in ep interrupts */
 574:/opt/XMClib/XMC_Peripheral_Library_v2.1.16/XMCLib/src/xmc_usbd.c ****   XMC_USBD_EnableEventINEP(((uint32_t)XMC_USBD_EVENT_IN_EP_TX_COMPLET | (uint32_t)XMC_USBD_EVENT_IN
 575:/opt/XMClib/XMC_Peripheral_Library_v2.1.16/XMCLib/src/xmc_usbd.c **** 		  (uint32_t)XMC_USBD_EVENT_IN_EP_AHB_ERROR | (uint32_t)XMC_USBD_EVENT_IN_EP_TIMEOUT));
 576:/opt/XMClib/XMC_Peripheral_Library_v2.1.16/XMCLib/src/xmc_usbd.c **** 
 577:/opt/XMClib/XMC_Peripheral_Library_v2.1.16/XMCLib/src/xmc_usbd.c **** 
 578:/opt/XMClib/XMC_Peripheral_Library_v2.1.16/XMCLib/src/xmc_usbd.c ****   /* Clear device Address */  
 579:/opt/XMClib/XMC_Peripheral_Library_v2.1.16/XMCLib/src/xmc_usbd.c ****   dcfg.d32 = xmc_device.device_register->dcfg;
 580:/opt/XMClib/XMC_Peripheral_Library_v2.1.16/XMCLib/src/xmc_usbd.c ****   dcfg.b.devaddr = 0U;
 581:/opt/XMClib/XMC_Peripheral_Library_v2.1.16/XMCLib/src/xmc_usbd.c ****   xmc_device.device_register->dcfg = dcfg.d32;
 582:/opt/XMClib/XMC_Peripheral_Library_v2.1.16/XMCLib/src/xmc_usbd.c **** 
 583:/opt/XMClib/XMC_Peripheral_Library_v2.1.16/XMCLib/src/xmc_usbd.c ****   if(obj->usbd_transfer_mode == XMC_USBD_USE_FIFO)
 584:/opt/XMClib/XMC_Peripheral_Library_v2.1.16/XMCLib/src/xmc_usbd.c ****   {
 585:/opt/XMClib/XMC_Peripheral_Library_v2.1.16/XMCLib/src/xmc_usbd.c ****     /* Clear Empty interrupt */
 586:/opt/XMClib/XMC_Peripheral_Library_v2.1.16/XMCLib/src/xmc_usbd.c ****     xmc_device.device_register->dtknqr4_fifoemptymsk = 0U;
 587:/opt/XMClib/XMC_Peripheral_Library_v2.1.16/XMCLib/src/xmc_usbd.c ****   }
 588:/opt/XMClib/XMC_Peripheral_Library_v2.1.16/XMCLib/src/xmc_usbd.c **** 
 589:/opt/XMClib/XMC_Peripheral_Library_v2.1.16/XMCLib/src/xmc_usbd.c ****   xmc_device.ep[0U].outInUse = 0U;
 590:/opt/XMClib/XMC_Peripheral_Library_v2.1.16/XMCLib/src/xmc_usbd.c ****   xmc_device.ep[0U].inInUse = 0U;
 591:/opt/XMClib/XMC_Peripheral_Library_v2.1.16/XMCLib/src/xmc_usbd.c **** 
 592:/opt/XMClib/XMC_Peripheral_Library_v2.1.16/XMCLib/src/xmc_usbd.c ****   xmc_device.DeviceEvent_cb(XMC_USBD_EVENT_RESET);
 593:/opt/XMClib/XMC_Peripheral_Library_v2.1.16/XMCLib/src/xmc_usbd.c **** 
 594:/opt/XMClib/XMC_Peripheral_Library_v2.1.16/XMCLib/src/xmc_usbd.c ****   /* clear reset intr */
 595:/opt/XMClib/XMC_Peripheral_Library_v2.1.16/XMCLib/src/xmc_usbd.c ****   XMC_USBD_ClearEvent(XMC_USBD_EVENT_RESET);
 596:/opt/XMClib/XMC_Peripheral_Library_v2.1.16/XMCLib/src/xmc_usbd.c **** }
 597:/opt/XMClib/XMC_Peripheral_Library_v2.1.16/XMCLib/src/xmc_usbd.c **** 
 598:/opt/XMClib/XMC_Peripheral_Library_v2.1.16/XMCLib/src/xmc_usbd.c **** /**
 599:/opt/XMClib/XMC_Peripheral_Library_v2.1.16/XMCLib/src/xmc_usbd.c **** * @brief Handle OTG Interrupt
 600:/opt/XMClib/XMC_Peripheral_Library_v2.1.16/XMCLib/src/xmc_usbd.c **** *
 601:/opt/XMClib/XMC_Peripheral_Library_v2.1.16/XMCLib/src/xmc_usbd.c **** * It detects especially connect and disconnect events.
 602:/opt/XMClib/XMC_Peripheral_Library_v2.1.16/XMCLib/src/xmc_usbd.c **** */
 603:/opt/XMClib/XMC_Peripheral_Library_v2.1.16/XMCLib/src/xmc_usbd.c **** static void XMC_USBD_lHandleOTGInt(void) 
 604:/opt/XMClib/XMC_Peripheral_Library_v2.1.16/XMCLib/src/xmc_usbd.c **** {
 605:/opt/XMClib/XMC_Peripheral_Library_v2.1.16/XMCLib/src/xmc_usbd.c ****   gotgint_data_t data;
 606:/opt/XMClib/XMC_Peripheral_Library_v2.1.16/XMCLib/src/xmc_usbd.c ****   data.d32 = xmc_device.global_register->gotgint;
 607:/opt/XMClib/XMC_Peripheral_Library_v2.1.16/XMCLib/src/xmc_usbd.c ****   if (data.b.sesenddet)
 608:/opt/XMClib/XMC_Peripheral_Library_v2.1.16/XMCLib/src/xmc_usbd.c ****   {
 609:/opt/XMClib/XMC_Peripheral_Library_v2.1.16/XMCLib/src/xmc_usbd.c **** 		xmc_device.IsPowered = 0U;
 610:/opt/XMClib/XMC_Peripheral_Library_v2.1.16/XMCLib/src/xmc_usbd.c **** 		xmc_device.DeviceEvent_cb(XMC_USBD_EVENT_POWER_OFF);
 611:/opt/XMClib/XMC_Peripheral_Library_v2.1.16/XMCLib/src/xmc_usbd.c ****   }
 612:/opt/XMClib/XMC_Peripheral_Library_v2.1.16/XMCLib/src/xmc_usbd.c ****   XMC_USBD_lClearEventOTG(data.d32);
 613:/opt/XMClib/XMC_Peripheral_Library_v2.1.16/XMCLib/src/xmc_usbd.c **** 
 614:/opt/XMClib/XMC_Peripheral_Library_v2.1.16/XMCLib/src/xmc_usbd.c **** }
 615:/opt/XMClib/XMC_Peripheral_Library_v2.1.16/XMCLib/src/xmc_usbd.c **** 
 616:/opt/XMClib/XMC_Peripheral_Library_v2.1.16/XMCLib/src/xmc_usbd.c **** /**
 617:/opt/XMClib/XMC_Peripheral_Library_v2.1.16/XMCLib/src/xmc_usbd.c ****  * @brief Interrupt handler for device enumeration done.
 618:/opt/XMClib/XMC_Peripheral_Library_v2.1.16/XMCLib/src/xmc_usbd.c ****  *
 619:/opt/XMClib/XMC_Peripheral_Library_v2.1.16/XMCLib/src/xmc_usbd.c ****  * Handles the enumeration done from dwc_otg, when the host has enumerated the device.
 620:/opt/XMClib/XMC_Peripheral_Library_v2.1.16/XMCLib/src/xmc_usbd.c ****  */
 621:/opt/XMClib/XMC_Peripheral_Library_v2.1.16/XMCLib/src/xmc_usbd.c **** static void XMC_USBD_lHandleEnumDone(void) 
 622:/opt/XMClib/XMC_Peripheral_Library_v2.1.16/XMCLib/src/xmc_usbd.c **** {
 623:/opt/XMClib/XMC_Peripheral_Library_v2.1.16/XMCLib/src/xmc_usbd.c ****   /* Normaly we need to check dctl
 624:/opt/XMClib/XMC_Peripheral_Library_v2.1.16/XMCLib/src/xmc_usbd.c ****    * We are always fullspeed, so max it up. */
 625:/opt/XMClib/XMC_Peripheral_Library_v2.1.16/XMCLib/src/xmc_usbd.c ****   depctl_data_t epctl;
 626:/opt/XMClib/XMC_Peripheral_Library_v2.1.16/XMCLib/src/xmc_usbd.c ****   gusbcfg_data_t gusbcfg;
 627:/opt/XMClib/XMC_Peripheral_Library_v2.1.16/XMCLib/src/xmc_usbd.c **** 	
 628:/opt/XMClib/XMC_Peripheral_Library_v2.1.16/XMCLib/src/xmc_usbd.c ****   epctl.d32=xmc_device.endpoint_in_register[0U]->diepctl;
 629:/opt/XMClib/XMC_Peripheral_Library_v2.1.16/XMCLib/src/xmc_usbd.c ****   epctl.b.mps = 0x00U; /* 64 Byte, this is also automatically set for out ep */
 630:/opt/XMClib/XMC_Peripheral_Library_v2.1.16/XMCLib/src/xmc_usbd.c ****   xmc_device.endpoint_in_register[0U]->diepctl = epctl.d32;
 631:/opt/XMClib/XMC_Peripheral_Library_v2.1.16/XMCLib/src/xmc_usbd.c **** 
 632:/opt/XMClib/XMC_Peripheral_Library_v2.1.16/XMCLib/src/xmc_usbd.c ****   /* update device connected flag */
 633:/opt/XMClib/XMC_Peripheral_Library_v2.1.16/XMCLib/src/xmc_usbd.c ****   xmc_device.IsConnected = 1U;
 634:/opt/XMClib/XMC_Peripheral_Library_v2.1.16/XMCLib/src/xmc_usbd.c ****   xmc_device.IsPowered = 1U;
 635:/opt/XMClib/XMC_Peripheral_Library_v2.1.16/XMCLib/src/xmc_usbd.c **** 
 636:/opt/XMClib/XMC_Peripheral_Library_v2.1.16/XMCLib/src/xmc_usbd.c ****   xmc_device.DeviceEvent_cb(XMC_USBD_EVENT_CONNECT);
 637:/opt/XMClib/XMC_Peripheral_Library_v2.1.16/XMCLib/src/xmc_usbd.c **** 
 638:/opt/XMClib/XMC_Peripheral_Library_v2.1.16/XMCLib/src/xmc_usbd.c ****   /* Set Trim */  
 639:/opt/XMClib/XMC_Peripheral_Library_v2.1.16/XMCLib/src/xmc_usbd.c ****   gusbcfg.d32 = xmc_device.global_register->gusbcfg;
 640:/opt/XMClib/XMC_Peripheral_Library_v2.1.16/XMCLib/src/xmc_usbd.c ****   gusbcfg.b.usbtrdtim = 9U; /* default value for LS/FS */
 641:/opt/XMClib/XMC_Peripheral_Library_v2.1.16/XMCLib/src/xmc_usbd.c ****   xmc_device.global_register->gusbcfg = gusbcfg.d32;
 642:/opt/XMClib/XMC_Peripheral_Library_v2.1.16/XMCLib/src/xmc_usbd.c **** 
 643:/opt/XMClib/XMC_Peripheral_Library_v2.1.16/XMCLib/src/xmc_usbd.c ****   /* clear interrupt */
 644:/opt/XMClib/XMC_Peripheral_Library_v2.1.16/XMCLib/src/xmc_usbd.c ****   XMC_USBD_ClearEvent(XMC_USBD_EVENT_ENUMDONE);
 645:/opt/XMClib/XMC_Peripheral_Library_v2.1.16/XMCLib/src/xmc_usbd.c **** }
 646:/opt/XMClib/XMC_Peripheral_Library_v2.1.16/XMCLib/src/xmc_usbd.c **** 
 647:/opt/XMClib/XMC_Peripheral_Library_v2.1.16/XMCLib/src/xmc_usbd.c **** 
 648:/opt/XMClib/XMC_Peripheral_Library_v2.1.16/XMCLib/src/xmc_usbd.c **** /**
 649:/opt/XMClib/XMC_Peripheral_Library_v2.1.16/XMCLib/src/xmc_usbd.c ****  * @brief Handles all interrupts for all out endpoints
 650:/opt/XMClib/XMC_Peripheral_Library_v2.1.16/XMCLib/src/xmc_usbd.c ****  *
 651:/opt/XMClib/XMC_Peripheral_Library_v2.1.16/XMCLib/src/xmc_usbd.c ****  * The interrupt handler first checks, which endpoint has caused the interrupt and then
 652:/opt/XMClib/XMC_Peripheral_Library_v2.1.16/XMCLib/src/xmc_usbd.c ****  * determines, which interrupt should be handled.
 653:/opt/XMClib/XMC_Peripheral_Library_v2.1.16/XMCLib/src/xmc_usbd.c ****  */
 654:/opt/XMClib/XMC_Peripheral_Library_v2.1.16/XMCLib/src/xmc_usbd.c **** static void XMC_USBD_lHandleOEPInt(const XMC_USBD_t *const obj) 
 655:/opt/XMClib/XMC_Peripheral_Library_v2.1.16/XMCLib/src/xmc_usbd.c **** {
 656:/opt/XMClib/XMC_Peripheral_Library_v2.1.16/XMCLib/src/xmc_usbd.c ****   daint_data_t daint;
 657:/opt/XMClib/XMC_Peripheral_Library_v2.1.16/XMCLib/src/xmc_usbd.c ****   daint_data_t daintmsk;
 658:/opt/XMClib/XMC_Peripheral_Library_v2.1.16/XMCLib/src/xmc_usbd.c ****   doepmsk_data_t doepmsk;
 659:/opt/XMClib/XMC_Peripheral_Library_v2.1.16/XMCLib/src/xmc_usbd.c ****   doepint_data_t doepint;
 660:/opt/XMClib/XMC_Peripheral_Library_v2.1.16/XMCLib/src/xmc_usbd.c ****   deptsiz_data_t doeptsiz;
 661:/opt/XMClib/XMC_Peripheral_Library_v2.1.16/XMCLib/src/xmc_usbd.c ****   XMC_USBD_EP_t *ep;
 662:/opt/XMClib/XMC_Peripheral_Library_v2.1.16/XMCLib/src/xmc_usbd.c ****   uint16_t temp;
 663:/opt/XMClib/XMC_Peripheral_Library_v2.1.16/XMCLib/src/xmc_usbd.c ****   uint16_t temp1;
 664:/opt/XMClib/XMC_Peripheral_Library_v2.1.16/XMCLib/src/xmc_usbd.c ****   uint16_t mask;
 665:/opt/XMClib/XMC_Peripheral_Library_v2.1.16/XMCLib/src/xmc_usbd.c ****   uint8_t ep_num;
 666:/opt/XMClib/XMC_Peripheral_Library_v2.1.16/XMCLib/src/xmc_usbd.c **** 	
 667:/opt/XMClib/XMC_Peripheral_Library_v2.1.16/XMCLib/src/xmc_usbd.c ****   daint.d32 = xmc_device.device_register->daint;
 668:/opt/XMClib/XMC_Peripheral_Library_v2.1.16/XMCLib/src/xmc_usbd.c ****   
 669:/opt/XMClib/XMC_Peripheral_Library_v2.1.16/XMCLib/src/xmc_usbd.c ****   daintmsk.d32 = xmc_device.device_register->daintmsk;
 670:/opt/XMClib/XMC_Peripheral_Library_v2.1.16/XMCLib/src/xmc_usbd.c ****   
 671:/opt/XMClib/XMC_Peripheral_Library_v2.1.16/XMCLib/src/xmc_usbd.c ****   doepmsk.d32 = xmc_device.device_register->doepmsk;  
 672:/opt/XMClib/XMC_Peripheral_Library_v2.1.16/XMCLib/src/xmc_usbd.c ****   
 673:/opt/XMClib/XMC_Peripheral_Library_v2.1.16/XMCLib/src/xmc_usbd.c ****   mask = daint.ep.out & daintmsk.ep.out;
 674:/opt/XMClib/XMC_Peripheral_Library_v2.1.16/XMCLib/src/xmc_usbd.c ****   ep_num = 0U;
 675:/opt/XMClib/XMC_Peripheral_Library_v2.1.16/XMCLib/src/xmc_usbd.c ****   doeptsiz.d32 = 0U;
 676:/opt/XMClib/XMC_Peripheral_Library_v2.1.16/XMCLib/src/xmc_usbd.c ****  
 677:/opt/XMClib/XMC_Peripheral_Library_v2.1.16/XMCLib/src/xmc_usbd.c ****   while ((uint16_t)mask >> ep_num)
 678:/opt/XMClib/XMC_Peripheral_Library_v2.1.16/XMCLib/src/xmc_usbd.c ****   {
 679:/opt/XMClib/XMC_Peripheral_Library_v2.1.16/XMCLib/src/xmc_usbd.c ****     temp1 = (mask >> (uint16_t)ep_num);
 680:/opt/XMClib/XMC_Peripheral_Library_v2.1.16/XMCLib/src/xmc_usbd.c ****     temp = temp1 & 0x1U;
 681:/opt/XMClib/XMC_Peripheral_Library_v2.1.16/XMCLib/src/xmc_usbd.c ****     if (temp)
 682:/opt/XMClib/XMC_Peripheral_Library_v2.1.16/XMCLib/src/xmc_usbd.c ****     {
 683:/opt/XMClib/XMC_Peripheral_Library_v2.1.16/XMCLib/src/xmc_usbd.c ****       /* load register data for endpoint */
 684:/opt/XMClib/XMC_Peripheral_Library_v2.1.16/XMCLib/src/xmc_usbd.c ****       ep = &xmc_device.ep[ep_num];
 685:/opt/XMClib/XMC_Peripheral_Library_v2.1.16/XMCLib/src/xmc_usbd.c ****       doepint.d32 = xmc_device.endpoint_out_register[ep_num]->doepint & doepmsk.d32;
 686:/opt/XMClib/XMC_Peripheral_Library_v2.1.16/XMCLib/src/xmc_usbd.c ****       if(obj->usbd_transfer_mode == XMC_USBD_USE_DMA)
 687:/opt/XMClib/XMC_Peripheral_Library_v2.1.16/XMCLib/src/xmc_usbd.c ****       {
 688:/opt/XMClib/XMC_Peripheral_Library_v2.1.16/XMCLib/src/xmc_usbd.c ****         doeptsiz.d32 = xmc_device.endpoint_out_register[ep_num]->doeptsiz;
 689:/opt/XMClib/XMC_Peripheral_Library_v2.1.16/XMCLib/src/xmc_usbd.c ****       }
 690:/opt/XMClib/XMC_Peripheral_Library_v2.1.16/XMCLib/src/xmc_usbd.c **** 	  /* Setup Phase Complete */
 691:/opt/XMClib/XMC_Peripheral_Library_v2.1.16/XMCLib/src/xmc_usbd.c ****       if (doepint.b.setup)
 692:/opt/XMClib/XMC_Peripheral_Library_v2.1.16/XMCLib/src/xmc_usbd.c ****       {
 693:/opt/XMClib/XMC_Peripheral_Library_v2.1.16/XMCLib/src/xmc_usbd.c ****         /* ep0 not stalled any more */
 694:/opt/XMClib/XMC_Peripheral_Library_v2.1.16/XMCLib/src/xmc_usbd.c ****         ep->isStalled = 0U;
 695:/opt/XMClib/XMC_Peripheral_Library_v2.1.16/XMCLib/src/xmc_usbd.c ****         if(obj->usbd_transfer_mode == XMC_USBD_USE_DMA)
 696:/opt/XMClib/XMC_Peripheral_Library_v2.1.16/XMCLib/src/xmc_usbd.c ****         {
 697:/opt/XMClib/XMC_Peripheral_Library_v2.1.16/XMCLib/src/xmc_usbd.c ****           /* calculate size for setup packet */
 698:/opt/XMClib/XMC_Peripheral_Library_v2.1.16/XMCLib/src/xmc_usbd.c **** 		  ep->outBytesAvailable = (uint32_t)(((uint32_t)XMC_USBD_SETUP_COUNT -
 699:/opt/XMClib/XMC_Peripheral_Library_v2.1.16/XMCLib/src/xmc_usbd.c **** 		  (uint32_t)((deptsiz0_data_t*)&doeptsiz)->b.supcnt)*(uint32_t)XMC_USBD_SETUP_SIZE);
 700:/opt/XMClib/XMC_Peripheral_Library_v2.1.16/XMCLib/src/xmc_usbd.c ****         }
 701:/opt/XMClib/XMC_Peripheral_Library_v2.1.16/XMCLib/src/xmc_usbd.c **** 		if(obj->usbd_transfer_mode == XMC_USBD_USE_FIFO)
 702:/opt/XMClib/XMC_Peripheral_Library_v2.1.16/XMCLib/src/xmc_usbd.c **** 		{
 703:/opt/XMClib/XMC_Peripheral_Library_v2.1.16/XMCLib/src/xmc_usbd.c **** 			ep->outBytesAvailable += ep->xferCount;
 704:/opt/XMClib/XMC_Peripheral_Library_v2.1.16/XMCLib/src/xmc_usbd.c **** 		}
 705:/opt/XMClib/XMC_Peripheral_Library_v2.1.16/XMCLib/src/xmc_usbd.c **** 		ep->outInUse = 0U;
 706:/opt/XMClib/XMC_Peripheral_Library_v2.1.16/XMCLib/src/xmc_usbd.c **** 		xmc_device.EndpointEvent_cb(0U,XMC_USBD_EP_EVENT_SETUP); /* signal endpoint event */
 707:/opt/XMClib/XMC_Peripheral_Library_v2.1.16/XMCLib/src/xmc_usbd.c **** 				/* clear the interrupt */
 708:/opt/XMClib/XMC_Peripheral_Library_v2.1.16/XMCLib/src/xmc_usbd.c **** 		XMC_USBD_ClearEventOUTEP((uint32_t)XMC_USBD_EVENT_OUT_EP_SETUP,ep_num);
 709:/opt/XMClib/XMC_Peripheral_Library_v2.1.16/XMCLib/src/xmc_usbd.c ****       }
 710:/opt/XMClib/XMC_Peripheral_Library_v2.1.16/XMCLib/src/xmc_usbd.c ****       if (doepint.b.xfercompl)
 711:/opt/XMClib/XMC_Peripheral_Library_v2.1.16/XMCLib/src/xmc_usbd.c ****       {
 712:/opt/XMClib/XMC_Peripheral_Library_v2.1.16/XMCLib/src/xmc_usbd.c ****         if(obj->usbd_transfer_mode == XMC_USBD_USE_DMA)
 713:/opt/XMClib/XMC_Peripheral_Library_v2.1.16/XMCLib/src/xmc_usbd.c ****         {
 714:/opt/XMClib/XMC_Peripheral_Library_v2.1.16/XMCLib/src/xmc_usbd.c ****           uint32_t bytes = (ep->xferLength - ep->xferCount) - doeptsiz.b.xfersize;
 715:/opt/XMClib/XMC_Peripheral_Library_v2.1.16/XMCLib/src/xmc_usbd.c ****           ep->xferCount += bytes;
 716:/opt/XMClib/XMC_Peripheral_Library_v2.1.16/XMCLib/src/xmc_usbd.c ****           ep->xferBuffer += bytes;
 717:/opt/XMClib/XMC_Peripheral_Library_v2.1.16/XMCLib/src/xmc_usbd.c **** 				}
 718:/opt/XMClib/XMC_Peripheral_Library_v2.1.16/XMCLib/src/xmc_usbd.c ****         if (ep->xferTotal == ep->xferLength)
 719:/opt/XMClib/XMC_Peripheral_Library_v2.1.16/XMCLib/src/xmc_usbd.c ****         {
 720:/opt/XMClib/XMC_Peripheral_Library_v2.1.16/XMCLib/src/xmc_usbd.c ****           ep->outBytesAvailable = ep->xferCount;
 721:/opt/XMClib/XMC_Peripheral_Library_v2.1.16/XMCLib/src/xmc_usbd.c ****           ep->outInUse = 0U;
 722:/opt/XMClib/XMC_Peripheral_Library_v2.1.16/XMCLib/src/xmc_usbd.c ****           xmc_device.EndpointEvent_cb(ep_num,XMC_USBD_EP_EVENT_OUT);
 723:/opt/XMClib/XMC_Peripheral_Library_v2.1.16/XMCLib/src/xmc_usbd.c ****         }
 724:/opt/XMClib/XMC_Peripheral_Library_v2.1.16/XMCLib/src/xmc_usbd.c ****         else
 725:/opt/XMClib/XMC_Peripheral_Library_v2.1.16/XMCLib/src/xmc_usbd.c ****         {
 726:/opt/XMClib/XMC_Peripheral_Library_v2.1.16/XMCLib/src/xmc_usbd.c ****           XMC_USBD_lStartReadXfer(ep);
 727:/opt/XMClib/XMC_Peripheral_Library_v2.1.16/XMCLib/src/xmc_usbd.c ****         }
 728:/opt/XMClib/XMC_Peripheral_Library_v2.1.16/XMCLib/src/xmc_usbd.c **** 
 729:/opt/XMClib/XMC_Peripheral_Library_v2.1.16/XMCLib/src/xmc_usbd.c ****       }
 730:/opt/XMClib/XMC_Peripheral_Library_v2.1.16/XMCLib/src/xmc_usbd.c **** 
 731:/opt/XMClib/XMC_Peripheral_Library_v2.1.16/XMCLib/src/xmc_usbd.c ****       XMC_USBD_ClearEventOUTEP(doepint.d32,ep_num);
 732:/opt/XMClib/XMC_Peripheral_Library_v2.1.16/XMCLib/src/xmc_usbd.c ****     }
 733:/opt/XMClib/XMC_Peripheral_Library_v2.1.16/XMCLib/src/xmc_usbd.c ****     ep_num++;
 734:/opt/XMClib/XMC_Peripheral_Library_v2.1.16/XMCLib/src/xmc_usbd.c ****   }
 735:/opt/XMClib/XMC_Peripheral_Library_v2.1.16/XMCLib/src/xmc_usbd.c **** 
 736:/opt/XMClib/XMC_Peripheral_Library_v2.1.16/XMCLib/src/xmc_usbd.c ****   /* clear interrupt */
 737:/opt/XMClib/XMC_Peripheral_Library_v2.1.16/XMCLib/src/xmc_usbd.c ****   XMC_USBD_ClearEvent(XMC_USBD_EVENT_OUTEP);
 738:/opt/XMClib/XMC_Peripheral_Library_v2.1.16/XMCLib/src/xmc_usbd.c **** }
 739:/opt/XMClib/XMC_Peripheral_Library_v2.1.16/XMCLib/src/xmc_usbd.c **** 
 740:/opt/XMClib/XMC_Peripheral_Library_v2.1.16/XMCLib/src/xmc_usbd.c **** /**
 741:/opt/XMClib/XMC_Peripheral_Library_v2.1.16/XMCLib/src/xmc_usbd.c ****  * @brief Handles all interrupts for all in endpoints
 742:/opt/XMClib/XMC_Peripheral_Library_v2.1.16/XMCLib/src/xmc_usbd.c ****  *
 743:/opt/XMClib/XMC_Peripheral_Library_v2.1.16/XMCLib/src/xmc_usbd.c ****  * The interrupt handler first checks, which endpoint has caused the interrupt and then
 744:/opt/XMClib/XMC_Peripheral_Library_v2.1.16/XMCLib/src/xmc_usbd.c ****  * determines, which interrupt should be handled.
 745:/opt/XMClib/XMC_Peripheral_Library_v2.1.16/XMCLib/src/xmc_usbd.c ****  */
 746:/opt/XMClib/XMC_Peripheral_Library_v2.1.16/XMCLib/src/xmc_usbd.c **** static void XMC_USBD_lHandleIEPInt(const XMC_USBD_t *const obj) 
 747:/opt/XMClib/XMC_Peripheral_Library_v2.1.16/XMCLib/src/xmc_usbd.c **** {
 748:/opt/XMClib/XMC_Peripheral_Library_v2.1.16/XMCLib/src/xmc_usbd.c ****   XMC_USBD_EP_t *ep;
 749:/opt/XMClib/XMC_Peripheral_Library_v2.1.16/XMCLib/src/xmc_usbd.c ****   daint_data_t daint;
 750:/opt/XMClib/XMC_Peripheral_Library_v2.1.16/XMCLib/src/xmc_usbd.c ****   diepmsk_data_t diepmsk;
 751:/opt/XMClib/XMC_Peripheral_Library_v2.1.16/XMCLib/src/xmc_usbd.c ****   diepint_data_t diepint;
 752:/opt/XMClib/XMC_Peripheral_Library_v2.1.16/XMCLib/src/xmc_usbd.c ****   deptsiz_data_t dieptsiz;
 753:/opt/XMClib/XMC_Peripheral_Library_v2.1.16/XMCLib/src/xmc_usbd.c ****   uint16_t temp;
 754:/opt/XMClib/XMC_Peripheral_Library_v2.1.16/XMCLib/src/xmc_usbd.c ****   uint16_t temp1;
 755:/opt/XMClib/XMC_Peripheral_Library_v2.1.16/XMCLib/src/xmc_usbd.c ****   uint16_t mask;
 756:/opt/XMClib/XMC_Peripheral_Library_v2.1.16/XMCLib/src/xmc_usbd.c ****   uint8_t ep_num;
 757:/opt/XMClib/XMC_Peripheral_Library_v2.1.16/XMCLib/src/xmc_usbd.c ****   uint32_t inepint;
 758:/opt/XMClib/XMC_Peripheral_Library_v2.1.16/XMCLib/src/xmc_usbd.c **** 	
 759:/opt/XMClib/XMC_Peripheral_Library_v2.1.16/XMCLib/src/xmc_usbd.c ****   daint.d32 = xmc_device.device_register->daint;
 760:/opt/XMClib/XMC_Peripheral_Library_v2.1.16/XMCLib/src/xmc_usbd.c ****   
 761:/opt/XMClib/XMC_Peripheral_Library_v2.1.16/XMCLib/src/xmc_usbd.c ****   diepmsk.d32 = xmc_device.device_register->diepmsk;
 762:/opt/XMClib/XMC_Peripheral_Library_v2.1.16/XMCLib/src/xmc_usbd.c ****   
 763:/opt/XMClib/XMC_Peripheral_Library_v2.1.16/XMCLib/src/xmc_usbd.c ****   dieptsiz.d32 = 0U;
 764:/opt/XMClib/XMC_Peripheral_Library_v2.1.16/XMCLib/src/xmc_usbd.c ****   mask = daint.ep.in;
 765:/opt/XMClib/XMC_Peripheral_Library_v2.1.16/XMCLib/src/xmc_usbd.c ****   ep_num = 0U;
 766:/opt/XMClib/XMC_Peripheral_Library_v2.1.16/XMCLib/src/xmc_usbd.c ****   
 767:/opt/XMClib/XMC_Peripheral_Library_v2.1.16/XMCLib/src/xmc_usbd.c ****   while ((uint16_t)mask >> ep_num)
 768:/opt/XMClib/XMC_Peripheral_Library_v2.1.16/XMCLib/src/xmc_usbd.c ****   {
 769:/opt/XMClib/XMC_Peripheral_Library_v2.1.16/XMCLib/src/xmc_usbd.c ****     temp1 = ((uint16_t)mask >> (uint16_t)ep_num);
 770:/opt/XMClib/XMC_Peripheral_Library_v2.1.16/XMCLib/src/xmc_usbd.c ****     temp = (uint16_t)temp1 & (uint16_t)0x1U;
 771:/opt/XMClib/XMC_Peripheral_Library_v2.1.16/XMCLib/src/xmc_usbd.c ****     if ((uint16_t)temp)
 772:/opt/XMClib/XMC_Peripheral_Library_v2.1.16/XMCLib/src/xmc_usbd.c ****     {
 773:/opt/XMClib/XMC_Peripheral_Library_v2.1.16/XMCLib/src/xmc_usbd.c ****       ep = &xmc_device.ep[ep_num];
 774:/opt/XMClib/XMC_Peripheral_Library_v2.1.16/XMCLib/src/xmc_usbd.c **** 			inepint = (uint32_t)xmc_device.endpoint_in_register[ep_num]->diepint;
 775:/opt/XMClib/XMC_Peripheral_Library_v2.1.16/XMCLib/src/xmc_usbd.c ****       diepint.d32 = inepint &
 776:/opt/XMClib/XMC_Peripheral_Library_v2.1.16/XMCLib/src/xmc_usbd.c ****       ((((uint32_t)((uint32_t)xmc_device.device_register->dtknqr4_fifoemptymsk >> ep->address_u.add
 777:/opt/XMClib/XMC_Peripheral_Library_v2.1.16/XMCLib/src/xmc_usbd.c ****                      0x1U) << 7U) | (uint32_t)diepmsk.d32);
 778:/opt/XMClib/XMC_Peripheral_Library_v2.1.16/XMCLib/src/xmc_usbd.c ****       if(obj->usbd_transfer_mode == XMC_USBD_USE_DMA)
 779:/opt/XMClib/XMC_Peripheral_Library_v2.1.16/XMCLib/src/xmc_usbd.c ****       {
 780:/opt/XMClib/XMC_Peripheral_Library_v2.1.16/XMCLib/src/xmc_usbd.c ****         dieptsiz.d32 = xmc_device.endpoint_in_register[ep_num]->dieptsiz;
 781:/opt/XMClib/XMC_Peripheral_Library_v2.1.16/XMCLib/src/xmc_usbd.c ****       }
 782:/opt/XMClib/XMC_Peripheral_Library_v2.1.16/XMCLib/src/xmc_usbd.c ****       if(obj->usbd_transfer_mode == XMC_USBD_USE_FIFO)
 783:/opt/XMClib/XMC_Peripheral_Library_v2.1.16/XMCLib/src/xmc_usbd.c ****       {
 784:/opt/XMClib/XMC_Peripheral_Library_v2.1.16/XMCLib/src/xmc_usbd.c ****         if (diepint.b.emptyintr)
 785:/opt/XMClib/XMC_Peripheral_Library_v2.1.16/XMCLib/src/xmc_usbd.c ****         {
 786:/opt/XMClib/XMC_Peripheral_Library_v2.1.16/XMCLib/src/xmc_usbd.c ****           uint32_t bytes;
 787:/opt/XMClib/XMC_Peripheral_Library_v2.1.16/XMCLib/src/xmc_usbd.c ****           bytes = XMC_USBD_lWriteFifo(ep);
 788:/opt/XMClib/XMC_Peripheral_Library_v2.1.16/XMCLib/src/xmc_usbd.c ****           ep->xferCount += bytes;
 789:/opt/XMClib/XMC_Peripheral_Library_v2.1.16/XMCLib/src/xmc_usbd.c ****           ep->xferBuffer += bytes;
 790:/opt/XMClib/XMC_Peripheral_Library_v2.1.16/XMCLib/src/xmc_usbd.c ****         }
 791:/opt/XMClib/XMC_Peripheral_Library_v2.1.16/XMCLib/src/xmc_usbd.c ****       }
 792:/opt/XMClib/XMC_Peripheral_Library_v2.1.16/XMCLib/src/xmc_usbd.c ****       if (diepint.b.xfercompl)
 793:/opt/XMClib/XMC_Peripheral_Library_v2.1.16/XMCLib/src/xmc_usbd.c ****       {
 794:/opt/XMClib/XMC_Peripheral_Library_v2.1.16/XMCLib/src/xmc_usbd.c ****         if(obj->usbd_transfer_mode == XMC_USBD_USE_DMA)
 795:/opt/XMClib/XMC_Peripheral_Library_v2.1.16/XMCLib/src/xmc_usbd.c ****         {
 796:/opt/XMClib/XMC_Peripheral_Library_v2.1.16/XMCLib/src/xmc_usbd.c ****           /* update xfer values */
 797:/opt/XMClib/XMC_Peripheral_Library_v2.1.16/XMCLib/src/xmc_usbd.c ****           if ((dieptsiz.b.pktcnt == 0U) && (dieptsiz.b.xfersize == 0U))
 798:/opt/XMClib/XMC_Peripheral_Library_v2.1.16/XMCLib/src/xmc_usbd.c ****           {
 799:/opt/XMClib/XMC_Peripheral_Library_v2.1.16/XMCLib/src/xmc_usbd.c ****             uint32_t Bytes = ep->xferLength - ep->xferCount;
 800:/opt/XMClib/XMC_Peripheral_Library_v2.1.16/XMCLib/src/xmc_usbd.c ****             ep->xferCount += Bytes;
 801:/opt/XMClib/XMC_Peripheral_Library_v2.1.16/XMCLib/src/xmc_usbd.c ****             ep->xferBuffer += Bytes;
 802:/opt/XMClib/XMC_Peripheral_Library_v2.1.16/XMCLib/src/xmc_usbd.c ****           }
 803:/opt/XMClib/XMC_Peripheral_Library_v2.1.16/XMCLib/src/xmc_usbd.c ****         }
 804:/opt/XMClib/XMC_Peripheral_Library_v2.1.16/XMCLib/src/xmc_usbd.c ****         if (ep->xferTotal==ep->xferLength)
 805:/opt/XMClib/XMC_Peripheral_Library_v2.1.16/XMCLib/src/xmc_usbd.c ****         {
 806:/opt/XMClib/XMC_Peripheral_Library_v2.1.16/XMCLib/src/xmc_usbd.c ****           ep->inInUse = 0U;
 807:/opt/XMClib/XMC_Peripheral_Library_v2.1.16/XMCLib/src/xmc_usbd.c ****           if(obj->usbd_transfer_mode == XMC_USBD_USE_FIFO)
 808:/opt/XMClib/XMC_Peripheral_Library_v2.1.16/XMCLib/src/xmc_usbd.c ****           {
 809:/opt/XMClib/XMC_Peripheral_Library_v2.1.16/XMCLib/src/xmc_usbd.c ****             /* mask fifo empty interrupt */
 810:/opt/XMClib/XMC_Peripheral_Library_v2.1.16/XMCLib/src/xmc_usbd.c ****             xmc_device.device_register->dtknqr4_fifoemptymsk =
 811:/opt/XMClib/XMC_Peripheral_Library_v2.1.16/XMCLib/src/xmc_usbd.c ****             (uint32_t)(xmc_device.device_register->dtknqr4_fifoemptymsk & ~(((uint32_t)1U << ep_num
 812:/opt/XMClib/XMC_Peripheral_Library_v2.1.16/XMCLib/src/xmc_usbd.c ****           }
 813:/opt/XMClib/XMC_Peripheral_Library_v2.1.16/XMCLib/src/xmc_usbd.c ****           xmc_device.EndpointEvent_cb(0x80U | ep_num,XMC_USBD_EP_EVENT_IN);
 814:/opt/XMClib/XMC_Peripheral_Library_v2.1.16/XMCLib/src/xmc_usbd.c ****         }
 815:/opt/XMClib/XMC_Peripheral_Library_v2.1.16/XMCLib/src/xmc_usbd.c ****         else
 816:/opt/XMClib/XMC_Peripheral_Library_v2.1.16/XMCLib/src/xmc_usbd.c ****         {
 817:/opt/XMClib/XMC_Peripheral_Library_v2.1.16/XMCLib/src/xmc_usbd.c ****           /* start next step of transfer */
 818:/opt/XMClib/XMC_Peripheral_Library_v2.1.16/XMCLib/src/xmc_usbd.c ****           XMC_USBD_lStartWriteXfer(ep);
 819:/opt/XMClib/XMC_Peripheral_Library_v2.1.16/XMCLib/src/xmc_usbd.c ****         }
 820:/opt/XMClib/XMC_Peripheral_Library_v2.1.16/XMCLib/src/xmc_usbd.c **** 
 821:/opt/XMClib/XMC_Peripheral_Library_v2.1.16/XMCLib/src/xmc_usbd.c ****       }
 822:/opt/XMClib/XMC_Peripheral_Library_v2.1.16/XMCLib/src/xmc_usbd.c **** 
 823:/opt/XMClib/XMC_Peripheral_Library_v2.1.16/XMCLib/src/xmc_usbd.c ****       XMC_USBD_ClearEventINEP((uint32_t)diepint.d32,ep_num);
 824:/opt/XMClib/XMC_Peripheral_Library_v2.1.16/XMCLib/src/xmc_usbd.c ****     }
 825:/opt/XMClib/XMC_Peripheral_Library_v2.1.16/XMCLib/src/xmc_usbd.c ****     ep_num++;
 826:/opt/XMClib/XMC_Peripheral_Library_v2.1.16/XMCLib/src/xmc_usbd.c ****   }
 827:/opt/XMClib/XMC_Peripheral_Library_v2.1.16/XMCLib/src/xmc_usbd.c ****   XMC_USBD_ClearEvent(XMC_USBD_EVENT_INEP);
 828:/opt/XMClib/XMC_Peripheral_Library_v2.1.16/XMCLib/src/xmc_usbd.c **** }
 829:/opt/XMClib/XMC_Peripheral_Library_v2.1.16/XMCLib/src/xmc_usbd.c **** 
 830:/opt/XMClib/XMC_Peripheral_Library_v2.1.16/XMCLib/src/xmc_usbd.c **** /**
 831:/opt/XMClib/XMC_Peripheral_Library_v2.1.16/XMCLib/src/xmc_usbd.c ****  * @brief RX Fifo interrupt handler
 832:/opt/XMClib/XMC_Peripheral_Library_v2.1.16/XMCLib/src/xmc_usbd.c ****  *
 833:/opt/XMClib/XMC_Peripheral_Library_v2.1.16/XMCLib/src/xmc_usbd.c ****  * This function handles the interrupt, when the rx fifo is not empty anymore.
 834:/opt/XMClib/XMC_Peripheral_Library_v2.1.16/XMCLib/src/xmc_usbd.c ****  */
 835:/opt/XMClib/XMC_Peripheral_Library_v2.1.16/XMCLib/src/xmc_usbd.c **** static void XMC_USBD_lHandleRxFLvl(void) 
 836:/opt/XMClib/XMC_Peripheral_Library_v2.1.16/XMCLib/src/xmc_usbd.c **** {
 837:/opt/XMClib/XMC_Peripheral_Library_v2.1.16/XMCLib/src/xmc_usbd.c ****   device_grxsts_data_t data;	
 838:/opt/XMClib/XMC_Peripheral_Library_v2.1.16/XMCLib/src/xmc_usbd.c ****   data.d32 = xmc_device.global_register->grxstsp;
 839:/opt/XMClib/XMC_Peripheral_Library_v2.1.16/XMCLib/src/xmc_usbd.c **** 
 840:/opt/XMClib/XMC_Peripheral_Library_v2.1.16/XMCLib/src/xmc_usbd.c ****   switch (data.b.pktsts)
 841:/opt/XMClib/XMC_Peripheral_Library_v2.1.16/XMCLib/src/xmc_usbd.c **** 	{
 842:/opt/XMClib/XMC_Peripheral_Library_v2.1.16/XMCLib/src/xmc_usbd.c ****     case XMC_USBD_GRXSTS_PKTSTS_GOUTNAK:
 843:/opt/XMClib/XMC_Peripheral_Library_v2.1.16/XMCLib/src/xmc_usbd.c ****       break;
 844:/opt/XMClib/XMC_Peripheral_Library_v2.1.16/XMCLib/src/xmc_usbd.c ****     case XMC_USBD_GRXSTS_PKTSTS_OUTCMPL:
 845:/opt/XMClib/XMC_Peripheral_Library_v2.1.16/XMCLib/src/xmc_usbd.c ****       break;
 846:/opt/XMClib/XMC_Peripheral_Library_v2.1.16/XMCLib/src/xmc_usbd.c ****     case XMC_USBD_GRXSTS_PKTSTS_OUTDATA:
 847:/opt/XMClib/XMC_Peripheral_Library_v2.1.16/XMCLib/src/xmc_usbd.c ****       XMC_USBD_lReadFifo((uint32_t)data.b.epnum,(uint32_t)data.b.bcnt);
 848:/opt/XMClib/XMC_Peripheral_Library_v2.1.16/XMCLib/src/xmc_usbd.c ****       break;
 849:/opt/XMClib/XMC_Peripheral_Library_v2.1.16/XMCLib/src/xmc_usbd.c ****     case XMC_USBD_GRXSTS_PKTSTS_SETUP:
 850:/opt/XMClib/XMC_Peripheral_Library_v2.1.16/XMCLib/src/xmc_usbd.c ****       XMC_USBD_lReadFifo((uint32_t)data.b.epnum,(uint32_t)data.b.bcnt);
 851:/opt/XMClib/XMC_Peripheral_Library_v2.1.16/XMCLib/src/xmc_usbd.c ****       break;
 852:/opt/XMClib/XMC_Peripheral_Library_v2.1.16/XMCLib/src/xmc_usbd.c ****     case XMC_USBD_GRXSTS_PKTSTS_SETUPCMPL:
 853:/opt/XMClib/XMC_Peripheral_Library_v2.1.16/XMCLib/src/xmc_usbd.c ****       break;
 854:/opt/XMClib/XMC_Peripheral_Library_v2.1.16/XMCLib/src/xmc_usbd.c ****     default:
 855:/opt/XMClib/XMC_Peripheral_Library_v2.1.16/XMCLib/src/xmc_usbd.c ****       break;
 856:/opt/XMClib/XMC_Peripheral_Library_v2.1.16/XMCLib/src/xmc_usbd.c **** 	}
 857:/opt/XMClib/XMC_Peripheral_Library_v2.1.16/XMCLib/src/xmc_usbd.c ****   /* no need to clear */
 858:/opt/XMClib/XMC_Peripheral_Library_v2.1.16/XMCLib/src/xmc_usbd.c **** }
 859:/opt/XMClib/XMC_Peripheral_Library_v2.1.16/XMCLib/src/xmc_usbd.c **** 
 860:/opt/XMClib/XMC_Peripheral_Library_v2.1.16/XMCLib/src/xmc_usbd.c **** /**
 861:/opt/XMClib/XMC_Peripheral_Library_v2.1.16/XMCLib/src/xmc_usbd.c ****  * @brief Global interrupt handler
 862:/opt/XMClib/XMC_Peripheral_Library_v2.1.16/XMCLib/src/xmc_usbd.c ****  *
 863:/opt/XMClib/XMC_Peripheral_Library_v2.1.16/XMCLib/src/xmc_usbd.c ****  * The handler first checks, which global interrupt has caused the interrupt
 864:/opt/XMClib/XMC_Peripheral_Library_v2.1.16/XMCLib/src/xmc_usbd.c ****  * and then dispatches interrupt to the corresponding sub-handler.
 865:/opt/XMClib/XMC_Peripheral_Library_v2.1.16/XMCLib/src/xmc_usbd.c ****  */
 866:/opt/XMClib/XMC_Peripheral_Library_v2.1.16/XMCLib/src/xmc_usbd.c **** void XMC_USBD_IRQHandler(const XMC_USBD_t *const obj) 
 867:/opt/XMClib/XMC_Peripheral_Library_v2.1.16/XMCLib/src/xmc_usbd.c **** {
 868:/opt/XMClib/XMC_Peripheral_Library_v2.1.16/XMCLib/src/xmc_usbd.c ****   gintmsk_data_t gintmsk;
 869:/opt/XMClib/XMC_Peripheral_Library_v2.1.16/XMCLib/src/xmc_usbd.c ****   gintsts_data_t data;
 870:/opt/XMClib/XMC_Peripheral_Library_v2.1.16/XMCLib/src/xmc_usbd.c **** 	
 871:/opt/XMClib/XMC_Peripheral_Library_v2.1.16/XMCLib/src/xmc_usbd.c ****   gintmsk.d32 = xmc_device.global_register->gintmsk;
 872:/opt/XMClib/XMC_Peripheral_Library_v2.1.16/XMCLib/src/xmc_usbd.c ****   data.d32 = xmc_device.global_register->gintsts & gintmsk.d32;
 873:/opt/XMClib/XMC_Peripheral_Library_v2.1.16/XMCLib/src/xmc_usbd.c **** 	
 874:/opt/XMClib/XMC_Peripheral_Library_v2.1.16/XMCLib/src/xmc_usbd.c ****   if (data.b.sofintr)
 875:/opt/XMClib/XMC_Peripheral_Library_v2.1.16/XMCLib/src/xmc_usbd.c ****   {
 876:/opt/XMClib/XMC_Peripheral_Library_v2.1.16/XMCLib/src/xmc_usbd.c ****     xmc_device.DeviceEvent_cb(XMC_USBD_EVENT_SOF);
 877:/opt/XMClib/XMC_Peripheral_Library_v2.1.16/XMCLib/src/xmc_usbd.c ****     XMC_USBD_ClearEvent(XMC_USBD_EVENT_SOF);
 878:/opt/XMClib/XMC_Peripheral_Library_v2.1.16/XMCLib/src/xmc_usbd.c ****   }
 879:/opt/XMClib/XMC_Peripheral_Library_v2.1.16/XMCLib/src/xmc_usbd.c ****   if(obj->usbd_transfer_mode == XMC_USBD_USE_FIFO)
 880:/opt/XMClib/XMC_Peripheral_Library_v2.1.16/XMCLib/src/xmc_usbd.c ****   {
 881:/opt/XMClib/XMC_Peripheral_Library_v2.1.16/XMCLib/src/xmc_usbd.c ****     if (data.b.rxstsqlvl)
 882:/opt/XMClib/XMC_Peripheral_Library_v2.1.16/XMCLib/src/xmc_usbd.c ****     {
 883:/opt/XMClib/XMC_Peripheral_Library_v2.1.16/XMCLib/src/xmc_usbd.c ****       /* Masked that interrupt so its only done once */
 884:/opt/XMClib/XMC_Peripheral_Library_v2.1.16/XMCLib/src/xmc_usbd.c ****       gintmsk.b.rxstsqlvl = 0U;
 885:/opt/XMClib/XMC_Peripheral_Library_v2.1.16/XMCLib/src/xmc_usbd.c ****       xmc_device.global_register->gintmsk = gintmsk.d32;
 886:/opt/XMClib/XMC_Peripheral_Library_v2.1.16/XMCLib/src/xmc_usbd.c ****       XMC_USBD_lHandleRxFLvl(); /* handle the interrupt */
 887:/opt/XMClib/XMC_Peripheral_Library_v2.1.16/XMCLib/src/xmc_usbd.c ****       gintmsk.b.rxstsqlvl = 1U;
 888:/opt/XMClib/XMC_Peripheral_Library_v2.1.16/XMCLib/src/xmc_usbd.c ****       xmc_device.global_register->gintmsk = gintmsk.d32;
 889:/opt/XMClib/XMC_Peripheral_Library_v2.1.16/XMCLib/src/xmc_usbd.c ****     }
 890:/opt/XMClib/XMC_Peripheral_Library_v2.1.16/XMCLib/src/xmc_usbd.c ****   }
 891:/opt/XMClib/XMC_Peripheral_Library_v2.1.16/XMCLib/src/xmc_usbd.c ****   if (data.b.erlysuspend)
 892:/opt/XMClib/XMC_Peripheral_Library_v2.1.16/XMCLib/src/xmc_usbd.c ****   {
 893:/opt/XMClib/XMC_Peripheral_Library_v2.1.16/XMCLib/src/xmc_usbd.c ****     XMC_USBD_ClearEvent(XMC_USBD_EVENT_EARLYSUSPEND);
 894:/opt/XMClib/XMC_Peripheral_Library_v2.1.16/XMCLib/src/xmc_usbd.c ****   }
 895:/opt/XMClib/XMC_Peripheral_Library_v2.1.16/XMCLib/src/xmc_usbd.c ****   if (data.b.usbsuspend)
 896:/opt/XMClib/XMC_Peripheral_Library_v2.1.16/XMCLib/src/xmc_usbd.c ****   {
 897:/opt/XMClib/XMC_Peripheral_Library_v2.1.16/XMCLib/src/xmc_usbd.c ****     xmc_device.DeviceEvent_cb(XMC_USBD_EVENT_SUSPEND);
 898:/opt/XMClib/XMC_Peripheral_Library_v2.1.16/XMCLib/src/xmc_usbd.c ****     XMC_USBD_ClearEvent(XMC_USBD_EVENT_SUSPEND);
 899:/opt/XMClib/XMC_Peripheral_Library_v2.1.16/XMCLib/src/xmc_usbd.c ****   }
 900:/opt/XMClib/XMC_Peripheral_Library_v2.1.16/XMCLib/src/xmc_usbd.c ****   if (data.b.wkupintr)
 901:/opt/XMClib/XMC_Peripheral_Library_v2.1.16/XMCLib/src/xmc_usbd.c ****   {
 902:/opt/XMClib/XMC_Peripheral_Library_v2.1.16/XMCLib/src/xmc_usbd.c ****     xmc_device.DeviceEvent_cb(XMC_USBD_EVENT_REMOTE_WAKEUP);
 903:/opt/XMClib/XMC_Peripheral_Library_v2.1.16/XMCLib/src/xmc_usbd.c ****     XMC_USBD_ClearEvent(XMC_USBD_EVENT_REMOTE_WAKEUP);
 904:/opt/XMClib/XMC_Peripheral_Library_v2.1.16/XMCLib/src/xmc_usbd.c ****   }
 905:/opt/XMClib/XMC_Peripheral_Library_v2.1.16/XMCLib/src/xmc_usbd.c ****   if (data.b.sessreqintr)
 906:/opt/XMClib/XMC_Peripheral_Library_v2.1.16/XMCLib/src/xmc_usbd.c ****   {
 907:/opt/XMClib/XMC_Peripheral_Library_v2.1.16/XMCLib/src/xmc_usbd.c ****     xmc_device.IsPowered = 1U;
 908:/opt/XMClib/XMC_Peripheral_Library_v2.1.16/XMCLib/src/xmc_usbd.c ****     xmc_device.DeviceEvent_cb(XMC_USBD_EVENT_POWER_ON);
 909:/opt/XMClib/XMC_Peripheral_Library_v2.1.16/XMCLib/src/xmc_usbd.c ****     XMC_USBD_ClearEvent(XMC_USBD_EVENT_POWER_ON);
 910:/opt/XMClib/XMC_Peripheral_Library_v2.1.16/XMCLib/src/xmc_usbd.c ****   }
 911:/opt/XMClib/XMC_Peripheral_Library_v2.1.16/XMCLib/src/xmc_usbd.c ****   if (data.b.usbreset)
 912:/opt/XMClib/XMC_Peripheral_Library_v2.1.16/XMCLib/src/xmc_usbd.c ****   {
 913:/opt/XMClib/XMC_Peripheral_Library_v2.1.16/XMCLib/src/xmc_usbd.c ****     XMC_USBD_lHandleUSBReset(obj);
 914:/opt/XMClib/XMC_Peripheral_Library_v2.1.16/XMCLib/src/xmc_usbd.c ****   }
 915:/opt/XMClib/XMC_Peripheral_Library_v2.1.16/XMCLib/src/xmc_usbd.c ****   if (data.b.enumdone)
 916:/opt/XMClib/XMC_Peripheral_Library_v2.1.16/XMCLib/src/xmc_usbd.c ****   {
 917:/opt/XMClib/XMC_Peripheral_Library_v2.1.16/XMCLib/src/xmc_usbd.c ****     XMC_USBD_lHandleEnumDone();
 918:/opt/XMClib/XMC_Peripheral_Library_v2.1.16/XMCLib/src/xmc_usbd.c ****   }
 919:/opt/XMClib/XMC_Peripheral_Library_v2.1.16/XMCLib/src/xmc_usbd.c ****   if (data.b.inepint)
 920:/opt/XMClib/XMC_Peripheral_Library_v2.1.16/XMCLib/src/xmc_usbd.c ****   {
 921:/opt/XMClib/XMC_Peripheral_Library_v2.1.16/XMCLib/src/xmc_usbd.c ****     XMC_USBD_lHandleIEPInt(obj);
 922:/opt/XMClib/XMC_Peripheral_Library_v2.1.16/XMCLib/src/xmc_usbd.c ****   }
 923:/opt/XMClib/XMC_Peripheral_Library_v2.1.16/XMCLib/src/xmc_usbd.c ****   if (data.b.outepintr)
 924:/opt/XMClib/XMC_Peripheral_Library_v2.1.16/XMCLib/src/xmc_usbd.c ****   {
 925:/opt/XMClib/XMC_Peripheral_Library_v2.1.16/XMCLib/src/xmc_usbd.c **** 		XMC_USBD_lHandleOEPInt(obj);
 926:/opt/XMClib/XMC_Peripheral_Library_v2.1.16/XMCLib/src/xmc_usbd.c ****   }
 927:/opt/XMClib/XMC_Peripheral_Library_v2.1.16/XMCLib/src/xmc_usbd.c **** 	if (data.b.otgintr)
 928:/opt/XMClib/XMC_Peripheral_Library_v2.1.16/XMCLib/src/xmc_usbd.c ****   {
 929:/opt/XMClib/XMC_Peripheral_Library_v2.1.16/XMCLib/src/xmc_usbd.c **** 	  XMC_USBD_lHandleOTGInt();
 930:/opt/XMClib/XMC_Peripheral_Library_v2.1.16/XMCLib/src/xmc_usbd.c ****   }
 931:/opt/XMClib/XMC_Peripheral_Library_v2.1.16/XMCLib/src/xmc_usbd.c **** 
 932:/opt/XMClib/XMC_Peripheral_Library_v2.1.16/XMCLib/src/xmc_usbd.c **** }
 933:/opt/XMClib/XMC_Peripheral_Library_v2.1.16/XMCLib/src/xmc_usbd.c **** 
 934:/opt/XMClib/XMC_Peripheral_Library_v2.1.16/XMCLib/src/xmc_usbd.c **** 
 935:/opt/XMClib/XMC_Peripheral_Library_v2.1.16/XMCLib/src/xmc_usbd.c **** /*******************************************************************************
 936:/opt/XMClib/XMC_Peripheral_Library_v2.1.16/XMCLib/src/xmc_usbd.c ****  * API IMPLEMENTATION
 937:/opt/XMClib/XMC_Peripheral_Library_v2.1.16/XMCLib/src/xmc_usbd.c ****  *******************************************************************************/
 938:/opt/XMClib/XMC_Peripheral_Library_v2.1.16/XMCLib/src/xmc_usbd.c **** /**
 939:/opt/XMClib/XMC_Peripheral_Library_v2.1.16/XMCLib/src/xmc_usbd.c ****  * Enables the USB0 module
 940:/opt/XMClib/XMC_Peripheral_Library_v2.1.16/XMCLib/src/xmc_usbd.c ****  **/
 941:/opt/XMClib/XMC_Peripheral_Library_v2.1.16/XMCLib/src/xmc_usbd.c **** void XMC_USBD_Enable(void) 
 942:/opt/XMClib/XMC_Peripheral_Library_v2.1.16/XMCLib/src/xmc_usbd.c **** {
 943:/opt/XMClib/XMC_Peripheral_Library_v2.1.16/XMCLib/src/xmc_usbd.c **** #if defined(CLOCK_GATING_SUPPORTED)
 944:/opt/XMClib/XMC_Peripheral_Library_v2.1.16/XMCLib/src/xmc_usbd.c ****   XMC_SCU_CLOCK_UngatePeripheralClock(XMC_SCU_PERIPHERAL_CLOCK_USB0);
 945:/opt/XMClib/XMC_Peripheral_Library_v2.1.16/XMCLib/src/xmc_usbd.c **** #endif
 946:/opt/XMClib/XMC_Peripheral_Library_v2.1.16/XMCLib/src/xmc_usbd.c ****   /* Reset and power up */
 947:/opt/XMClib/XMC_Peripheral_Library_v2.1.16/XMCLib/src/xmc_usbd.c ****   XMC_SCU_RESET_DeassertPeripheralReset(XMC_SCU_PERIPHERAL_RESET_USB0);
 948:/opt/XMClib/XMC_Peripheral_Library_v2.1.16/XMCLib/src/xmc_usbd.c ****   XMC_SCU_POWER_EnableUsb();
 949:/opt/XMClib/XMC_Peripheral_Library_v2.1.16/XMCLib/src/xmc_usbd.c **** }
 950:/opt/XMClib/XMC_Peripheral_Library_v2.1.16/XMCLib/src/xmc_usbd.c **** 
 951:/opt/XMClib/XMC_Peripheral_Library_v2.1.16/XMCLib/src/xmc_usbd.c **** /**
 952:/opt/XMClib/XMC_Peripheral_Library_v2.1.16/XMCLib/src/xmc_usbd.c ****  * Disables the USB0 module
 953:/opt/XMClib/XMC_Peripheral_Library_v2.1.16/XMCLib/src/xmc_usbd.c ****  **/
 954:/opt/XMClib/XMC_Peripheral_Library_v2.1.16/XMCLib/src/xmc_usbd.c **** void XMC_USBD_Disable(void) 
 955:/opt/XMClib/XMC_Peripheral_Library_v2.1.16/XMCLib/src/xmc_usbd.c **** {
 956:/opt/XMClib/XMC_Peripheral_Library_v2.1.16/XMCLib/src/xmc_usbd.c ****   /* Clear Reset and power up */
 957:/opt/XMClib/XMC_Peripheral_Library_v2.1.16/XMCLib/src/xmc_usbd.c ****   XMC_SCU_RESET_AssertPeripheralReset(XMC_SCU_PERIPHERAL_RESET_USB0);
 958:/opt/XMClib/XMC_Peripheral_Library_v2.1.16/XMCLib/src/xmc_usbd.c **** #if defined(CLOCK_GATING_SUPPORTED)
 959:/opt/XMClib/XMC_Peripheral_Library_v2.1.16/XMCLib/src/xmc_usbd.c ****   XMC_SCU_CLOCK_GatePeripheralClock(XMC_SCU_PERIPHERAL_CLOCK_USB0);
 960:/opt/XMClib/XMC_Peripheral_Library_v2.1.16/XMCLib/src/xmc_usbd.c **** #endif
 961:/opt/XMClib/XMC_Peripheral_Library_v2.1.16/XMCLib/src/xmc_usbd.c ****   XMC_SCU_POWER_DisableUsb();
 962:/opt/XMClib/XMC_Peripheral_Library_v2.1.16/XMCLib/src/xmc_usbd.c **** }
 963:/opt/XMClib/XMC_Peripheral_Library_v2.1.16/XMCLib/src/xmc_usbd.c **** 
 964:/opt/XMClib/XMC_Peripheral_Library_v2.1.16/XMCLib/src/xmc_usbd.c **** /**
 965:/opt/XMClib/XMC_Peripheral_Library_v2.1.16/XMCLib/src/xmc_usbd.c ****  * Clear the USB device event
 966:/opt/XMClib/XMC_Peripheral_Library_v2.1.16/XMCLib/src/xmc_usbd.c ****  **/
 967:/opt/XMClib/XMC_Peripheral_Library_v2.1.16/XMCLib/src/xmc_usbd.c **** void XMC_USBD_ClearEvent(const XMC_USBD_EVENT_t event) 
 968:/opt/XMClib/XMC_Peripheral_Library_v2.1.16/XMCLib/src/xmc_usbd.c **** {
 969:/opt/XMClib/XMC_Peripheral_Library_v2.1.16/XMCLib/src/xmc_usbd.c ****   gintsts_data_t clear;
 970:/opt/XMClib/XMC_Peripheral_Library_v2.1.16/XMCLib/src/xmc_usbd.c ****   clear.d32 = 0U;
 971:/opt/XMClib/XMC_Peripheral_Library_v2.1.16/XMCLib/src/xmc_usbd.c ****   switch(event)
 972:/opt/XMClib/XMC_Peripheral_Library_v2.1.16/XMCLib/src/xmc_usbd.c ****   {
 973:/opt/XMClib/XMC_Peripheral_Library_v2.1.16/XMCLib/src/xmc_usbd.c ****     case (XMC_USBD_EVENT_POWER_ON):
 974:/opt/XMClib/XMC_Peripheral_Library_v2.1.16/XMCLib/src/xmc_usbd.c **** 	  clear.b.sessreqintr = 1U;
 975:/opt/XMClib/XMC_Peripheral_Library_v2.1.16/XMCLib/src/xmc_usbd.c **** 	  break;
 976:/opt/XMClib/XMC_Peripheral_Library_v2.1.16/XMCLib/src/xmc_usbd.c ****     case (XMC_USBD_EVENT_RESET):
 977:/opt/XMClib/XMC_Peripheral_Library_v2.1.16/XMCLib/src/xmc_usbd.c **** 	  clear.b.usbreset = 1U;
 978:/opt/XMClib/XMC_Peripheral_Library_v2.1.16/XMCLib/src/xmc_usbd.c **** 	  break;
 979:/opt/XMClib/XMC_Peripheral_Library_v2.1.16/XMCLib/src/xmc_usbd.c ****     case (XMC_USBD_EVENT_SUSPEND):
 980:/opt/XMClib/XMC_Peripheral_Library_v2.1.16/XMCLib/src/xmc_usbd.c **** 	  clear.b.usbsuspend = 1U;
 981:/opt/XMClib/XMC_Peripheral_Library_v2.1.16/XMCLib/src/xmc_usbd.c **** 	  break;
 982:/opt/XMClib/XMC_Peripheral_Library_v2.1.16/XMCLib/src/xmc_usbd.c ****     case (XMC_USBD_EVENT_RESUME):
 983:/opt/XMClib/XMC_Peripheral_Library_v2.1.16/XMCLib/src/xmc_usbd.c **** 	  clear.b.wkupintr = 1U;
 984:/opt/XMClib/XMC_Peripheral_Library_v2.1.16/XMCLib/src/xmc_usbd.c **** 	  break;
 985:/opt/XMClib/XMC_Peripheral_Library_v2.1.16/XMCLib/src/xmc_usbd.c ****     case (XMC_USBD_EVENT_REMOTE_WAKEUP):
 986:/opt/XMClib/XMC_Peripheral_Library_v2.1.16/XMCLib/src/xmc_usbd.c **** 	  clear.b.wkupintr = 1U;
 987:/opt/XMClib/XMC_Peripheral_Library_v2.1.16/XMCLib/src/xmc_usbd.c **** 	  break;
 988:/opt/XMClib/XMC_Peripheral_Library_v2.1.16/XMCLib/src/xmc_usbd.c ****     case (XMC_USBD_EVENT_SOF):
 989:/opt/XMClib/XMC_Peripheral_Library_v2.1.16/XMCLib/src/xmc_usbd.c **** 	  clear.b.sofintr = 1U;
 990:/opt/XMClib/XMC_Peripheral_Library_v2.1.16/XMCLib/src/xmc_usbd.c **** 	  break;
 991:/opt/XMClib/XMC_Peripheral_Library_v2.1.16/XMCLib/src/xmc_usbd.c ****     case (XMC_USBD_EVENT_EARLYSUSPEND):
 992:/opt/XMClib/XMC_Peripheral_Library_v2.1.16/XMCLib/src/xmc_usbd.c **** 	  clear.b.erlysuspend = 1U;
 993:/opt/XMClib/XMC_Peripheral_Library_v2.1.16/XMCLib/src/xmc_usbd.c **** 	  break;
 994:/opt/XMClib/XMC_Peripheral_Library_v2.1.16/XMCLib/src/xmc_usbd.c ****     case (XMC_USBD_EVENT_ENUMDONE):
 995:/opt/XMClib/XMC_Peripheral_Library_v2.1.16/XMCLib/src/xmc_usbd.c **** 	  clear.b.enumdone = 1U;
 996:/opt/XMClib/XMC_Peripheral_Library_v2.1.16/XMCLib/src/xmc_usbd.c **** 	  break;
 997:/opt/XMClib/XMC_Peripheral_Library_v2.1.16/XMCLib/src/xmc_usbd.c ****     case (XMC_USBD_EVENT_OUTEP):
 998:/opt/XMClib/XMC_Peripheral_Library_v2.1.16/XMCLib/src/xmc_usbd.c **** 	  clear.b.outepintr = 1U;
 999:/opt/XMClib/XMC_Peripheral_Library_v2.1.16/XMCLib/src/xmc_usbd.c **** 	  break;
1000:/opt/XMClib/XMC_Peripheral_Library_v2.1.16/XMCLib/src/xmc_usbd.c **** 		default:
1001:/opt/XMClib/XMC_Peripheral_Library_v2.1.16/XMCLib/src/xmc_usbd.c **** 		break;
1002:/opt/XMClib/XMC_Peripheral_Library_v2.1.16/XMCLib/src/xmc_usbd.c **** 	}
1003:/opt/XMClib/XMC_Peripheral_Library_v2.1.16/XMCLib/src/xmc_usbd.c **** 	xmc_device.global_register->gintsts = clear.d32;
1004:/opt/XMClib/XMC_Peripheral_Library_v2.1.16/XMCLib/src/xmc_usbd.c **** }
1005:/opt/XMClib/XMC_Peripheral_Library_v2.1.16/XMCLib/src/xmc_usbd.c **** 
1006:/opt/XMClib/XMC_Peripheral_Library_v2.1.16/XMCLib/src/xmc_usbd.c **** /**
1007:/opt/XMClib/XMC_Peripheral_Library_v2.1.16/XMCLib/src/xmc_usbd.c ****  * Clear the USB OTG events
1008:/opt/XMClib/XMC_Peripheral_Library_v2.1.16/XMCLib/src/xmc_usbd.c ****  **/
1009:/opt/XMClib/XMC_Peripheral_Library_v2.1.16/XMCLib/src/xmc_usbd.c **** static void XMC_USBD_lClearEventOTG(uint32_t event)
1010:/opt/XMClib/XMC_Peripheral_Library_v2.1.16/XMCLib/src/xmc_usbd.c **** {
1011:/opt/XMClib/XMC_Peripheral_Library_v2.1.16/XMCLib/src/xmc_usbd.c ****   gotgint_data_t clear = { .d32 = 0U};
1012:/opt/XMClib/XMC_Peripheral_Library_v2.1.16/XMCLib/src/xmc_usbd.c ****   clear.d32 = event;
1013:/opt/XMClib/XMC_Peripheral_Library_v2.1.16/XMCLib/src/xmc_usbd.c ****   xmc_device.global_register->gotgint = clear.d32;
1014:/opt/XMClib/XMC_Peripheral_Library_v2.1.16/XMCLib/src/xmc_usbd.c **** }
1015:/opt/XMClib/XMC_Peripheral_Library_v2.1.16/XMCLib/src/xmc_usbd.c **** 
1016:/opt/XMClib/XMC_Peripheral_Library_v2.1.16/XMCLib/src/xmc_usbd.c **** /**
1017:/opt/XMClib/XMC_Peripheral_Library_v2.1.16/XMCLib/src/xmc_usbd.c ****  * Clear the USB IN EP events
1018:/opt/XMClib/XMC_Peripheral_Library_v2.1.16/XMCLib/src/xmc_usbd.c ****  **/
1019:/opt/XMClib/XMC_Peripheral_Library_v2.1.16/XMCLib/src/xmc_usbd.c **** void XMC_USBD_ClearEventINEP(uint32_t event,const uint8_t ep_num)
1020:/opt/XMClib/XMC_Peripheral_Library_v2.1.16/XMCLib/src/xmc_usbd.c **** {
1021:/opt/XMClib/XMC_Peripheral_Library_v2.1.16/XMCLib/src/xmc_usbd.c ****   diepint_data_t clear;
1022:/opt/XMClib/XMC_Peripheral_Library_v2.1.16/XMCLib/src/xmc_usbd.c ****   clear.d32 = event;
1023:/opt/XMClib/XMC_Peripheral_Library_v2.1.16/XMCLib/src/xmc_usbd.c ****   xmc_device.endpoint_in_register[ep_num]->diepint = clear.d32;
1024:/opt/XMClib/XMC_Peripheral_Library_v2.1.16/XMCLib/src/xmc_usbd.c **** }
1025:/opt/XMClib/XMC_Peripheral_Library_v2.1.16/XMCLib/src/xmc_usbd.c **** 
1026:/opt/XMClib/XMC_Peripheral_Library_v2.1.16/XMCLib/src/xmc_usbd.c **** /**
1027:/opt/XMClib/XMC_Peripheral_Library_v2.1.16/XMCLib/src/xmc_usbd.c ****  * Clear the USB OUT EP events
1028:/opt/XMClib/XMC_Peripheral_Library_v2.1.16/XMCLib/src/xmc_usbd.c ****  **/
1029:/opt/XMClib/XMC_Peripheral_Library_v2.1.16/XMCLib/src/xmc_usbd.c **** void XMC_USBD_ClearEventOUTEP(uint32_t event,const uint8_t ep_num)
1030:/opt/XMClib/XMC_Peripheral_Library_v2.1.16/XMCLib/src/xmc_usbd.c **** {
1031:/opt/XMClib/XMC_Peripheral_Library_v2.1.16/XMCLib/src/xmc_usbd.c ****   doepint_data_t clear;
1032:/opt/XMClib/XMC_Peripheral_Library_v2.1.16/XMCLib/src/xmc_usbd.c ****   clear.d32 = event;
1033:/opt/XMClib/XMC_Peripheral_Library_v2.1.16/XMCLib/src/xmc_usbd.c ****   xmc_device.endpoint_out_register[ep_num]->doepint = clear.d32;
1034:/opt/XMClib/XMC_Peripheral_Library_v2.1.16/XMCLib/src/xmc_usbd.c **** }
1035:/opt/XMClib/XMC_Peripheral_Library_v2.1.16/XMCLib/src/xmc_usbd.c **** 
1036:/opt/XMClib/XMC_Peripheral_Library_v2.1.16/XMCLib/src/xmc_usbd.c **** /**
1037:/opt/XMClib/XMC_Peripheral_Library_v2.1.16/XMCLib/src/xmc_usbd.c ****  * Enable the USB OUT EP events
1038:/opt/XMClib/XMC_Peripheral_Library_v2.1.16/XMCLib/src/xmc_usbd.c ****  **/
1039:/opt/XMClib/XMC_Peripheral_Library_v2.1.16/XMCLib/src/xmc_usbd.c **** void XMC_USBD_EnableEventOUTEP(uint32_t event)
1040:/opt/XMClib/XMC_Peripheral_Library_v2.1.16/XMCLib/src/xmc_usbd.c **** {
1041:/opt/XMClib/XMC_Peripheral_Library_v2.1.16/XMCLib/src/xmc_usbd.c **** 	doepint_data_t doepint;
1042:/opt/XMClib/XMC_Peripheral_Library_v2.1.16/XMCLib/src/xmc_usbd.c **** 	doepint.d32 = event;
1043:/opt/XMClib/XMC_Peripheral_Library_v2.1.16/XMCLib/src/xmc_usbd.c **** 	xmc_device.device_register->doepmsk |= doepint.d32;
1044:/opt/XMClib/XMC_Peripheral_Library_v2.1.16/XMCLib/src/xmc_usbd.c **** }
1045:/opt/XMClib/XMC_Peripheral_Library_v2.1.16/XMCLib/src/xmc_usbd.c **** 
1046:/opt/XMClib/XMC_Peripheral_Library_v2.1.16/XMCLib/src/xmc_usbd.c **** /**
1047:/opt/XMClib/XMC_Peripheral_Library_v2.1.16/XMCLib/src/xmc_usbd.c ****  * Enable the USB IN EP events
1048:/opt/XMClib/XMC_Peripheral_Library_v2.1.16/XMCLib/src/xmc_usbd.c ****  **/
1049:/opt/XMClib/XMC_Peripheral_Library_v2.1.16/XMCLib/src/xmc_usbd.c **** void XMC_USBD_EnableEventINEP(uint32_t event)
1050:/opt/XMClib/XMC_Peripheral_Library_v2.1.16/XMCLib/src/xmc_usbd.c **** {
1051:/opt/XMClib/XMC_Peripheral_Library_v2.1.16/XMCLib/src/xmc_usbd.c **** 	diepint_data_t diepint;
1052:/opt/XMClib/XMC_Peripheral_Library_v2.1.16/XMCLib/src/xmc_usbd.c **** 	diepint.d32 = event;
1053:/opt/XMClib/XMC_Peripheral_Library_v2.1.16/XMCLib/src/xmc_usbd.c **** 	xmc_device.device_register->diepmsk |= diepint.d32;
1054:/opt/XMClib/XMC_Peripheral_Library_v2.1.16/XMCLib/src/xmc_usbd.c **** }
1055:/opt/XMClib/XMC_Peripheral_Library_v2.1.16/XMCLib/src/xmc_usbd.c **** 
1056:/opt/XMClib/XMC_Peripheral_Library_v2.1.16/XMCLib/src/xmc_usbd.c **** /**
1057:/opt/XMClib/XMC_Peripheral_Library_v2.1.16/XMCLib/src/xmc_usbd.c ****  * Gets the USB device capabilities
1058:/opt/XMClib/XMC_Peripheral_Library_v2.1.16/XMCLib/src/xmc_usbd.c ****  **/
1059:/opt/XMClib/XMC_Peripheral_Library_v2.1.16/XMCLib/src/xmc_usbd.c **** XMC_USBD_CAPABILITIES_t XMC_USBD_GetCapabilities()
1060:/opt/XMClib/XMC_Peripheral_Library_v2.1.16/XMCLib/src/xmc_usbd.c **** {
 517              		.loc 1 1060 1 is_stmt 1 view -0
 518              		.cfi_startproc
 519              		@ args = 0, pretend = 0, frame = 0
 520              		@ frame_needed = 0, uses_anonymous_args = 0
 521              		@ link register save eliminated.
1061:/opt/XMClib/XMC_Peripheral_Library_v2.1.16/XMCLib/src/xmc_usbd.c ****   XMC_USBD_CAPABILITIES_t cap={0U};
 522              		.loc 1 1061 3 view .LVU196
 523              	.LVL23:
1062:/opt/XMClib/XMC_Peripheral_Library_v2.1.16/XMCLib/src/xmc_usbd.c ****   cap.event_connect = 1U;
 524              		.loc 1 1062 3 view .LVU197
1063:/opt/XMClib/XMC_Peripheral_Library_v2.1.16/XMCLib/src/xmc_usbd.c ****   cap.event_disconnect = 1U;
 525              		.loc 1 1063 3 view .LVU198
1064:/opt/XMClib/XMC_Peripheral_Library_v2.1.16/XMCLib/src/xmc_usbd.c **** #if UC_SERIES == 45
1065:/opt/XMClib/XMC_Peripheral_Library_v2.1.16/XMCLib/src/xmc_usbd.c ****   cap.event_power_off = 1U;
 526              		.loc 1 1065 3 view .LVU199
1066:/opt/XMClib/XMC_Peripheral_Library_v2.1.16/XMCLib/src/xmc_usbd.c ****   cap.event_power_on = 1U;
 527              		.loc 1 1066 3 view .LVU200
1067:/opt/XMClib/XMC_Peripheral_Library_v2.1.16/XMCLib/src/xmc_usbd.c **** #else
1068:/opt/XMClib/XMC_Peripheral_Library_v2.1.16/XMCLib/src/xmc_usbd.c ****   cap.event_power_off = 0U;
1069:/opt/XMClib/XMC_Peripheral_Library_v2.1.16/XMCLib/src/xmc_usbd.c ****   cap.event_power_on = 0U;
1070:/opt/XMClib/XMC_Peripheral_Library_v2.1.16/XMCLib/src/xmc_usbd.c **** #endif
1071:/opt/XMClib/XMC_Peripheral_Library_v2.1.16/XMCLib/src/xmc_usbd.c ****   cap.event_high_speed = 0U;
 528              		.loc 1 1071 3 view .LVU201
1072:/opt/XMClib/XMC_Peripheral_Library_v2.1.16/XMCLib/src/xmc_usbd.c ****   cap.event_remote_wakeup = 1U;
 529              		.loc 1 1072 3 view .LVU202
1073:/opt/XMClib/XMC_Peripheral_Library_v2.1.16/XMCLib/src/xmc_usbd.c ****   cap.event_reset = 1U;
 530              		.loc 1 1073 3 view .LVU203
1074:/opt/XMClib/XMC_Peripheral_Library_v2.1.16/XMCLib/src/xmc_usbd.c ****   cap.event_resume = 1U;
 531              		.loc 1 1074 3 view .LVU204
1075:/opt/XMClib/XMC_Peripheral_Library_v2.1.16/XMCLib/src/xmc_usbd.c ****   cap.event_suspend = 1U;
 532              		.loc 1 1075 3 view .LVU205
1076:/opt/XMClib/XMC_Peripheral_Library_v2.1.16/XMCLib/src/xmc_usbd.c ****   cap.reserved = 0U;
 533              		.loc 1 1076 3 view .LVU206
1077:/opt/XMClib/XMC_Peripheral_Library_v2.1.16/XMCLib/src/xmc_usbd.c ****   return cap;
 534              		.loc 1 1077 3 view .LVU207
1078:/opt/XMClib/XMC_Peripheral_Library_v2.1.16/XMCLib/src/xmc_usbd.c **** }
 535              		.loc 1 1078 1 is_stmt 0 view .LVU208
 536 0000 40F2DF10 		movw	r0, #479
 537 0004 7047     		bx	lr
 538              		.cfi_endproc
 539              	.LFE186:
 541 0006 00BF     		.section	.text.XMC_USBD_DeviceConnect,"ax",%progbits
 542              		.align	1
 543              		.p2align 2,,3
 544              		.global	XMC_USBD_DeviceConnect
 545              		.syntax unified
 546              		.thumb
 547              		.thumb_func
 549              	XMC_USBD_DeviceConnect:
 550              	.LFB189:
1079:/opt/XMClib/XMC_Peripheral_Library_v2.1.16/XMCLib/src/xmc_usbd.c **** 
1080:/opt/XMClib/XMC_Peripheral_Library_v2.1.16/XMCLib/src/xmc_usbd.c **** /**
1081:/opt/XMClib/XMC_Peripheral_Library_v2.1.16/XMCLib/src/xmc_usbd.c ****  * Initializes the USB device
1082:/opt/XMClib/XMC_Peripheral_Library_v2.1.16/XMCLib/src/xmc_usbd.c ****  **/
1083:/opt/XMClib/XMC_Peripheral_Library_v2.1.16/XMCLib/src/xmc_usbd.c **** XMC_USBD_STATUS_t XMC_USBD_Init(XMC_USBD_t *obj)
1084:/opt/XMClib/XMC_Peripheral_Library_v2.1.16/XMCLib/src/xmc_usbd.c **** {
1085:/opt/XMClib/XMC_Peripheral_Library_v2.1.16/XMCLib/src/xmc_usbd.c ****   uint8_t *XMC_USBD_BASE_ADDRESS;
1086:/opt/XMClib/XMC_Peripheral_Library_v2.1.16/XMCLib/src/xmc_usbd.c ****   uint32_t i;
1087:/opt/XMClib/XMC_Peripheral_Library_v2.1.16/XMCLib/src/xmc_usbd.c ****   gahbcfg_data_t gahbcfg;
1088:/opt/XMClib/XMC_Peripheral_Library_v2.1.16/XMCLib/src/xmc_usbd.c ****   gusbcfg_data_t gusbcfg;
1089:/opt/XMClib/XMC_Peripheral_Library_v2.1.16/XMCLib/src/xmc_usbd.c ****   dcfg_data_t dcfg;
1090:/opt/XMClib/XMC_Peripheral_Library_v2.1.16/XMCLib/src/xmc_usbd.c ****   dctl_data_t dctl;
1091:/opt/XMClib/XMC_Peripheral_Library_v2.1.16/XMCLib/src/xmc_usbd.c ****   gintmsk_data_t gintmsk;
1092:/opt/XMClib/XMC_Peripheral_Library_v2.1.16/XMCLib/src/xmc_usbd.c **** 
1093:/opt/XMClib/XMC_Peripheral_Library_v2.1.16/XMCLib/src/xmc_usbd.c ****   XMC_ASSERT("XMC_USBD_Init: obj.usbd_max_num_eps not of type XMC_USBD_MAX_NUM_EPS_t",
1094:/opt/XMClib/XMC_Peripheral_Library_v2.1.16/XMCLib/src/xmc_usbd.c ****  		      XMC_USBD_CHECK_INPUT_MAX_NUM_EPS(obj->usbd_max_num_eps))
1095:/opt/XMClib/XMC_Peripheral_Library_v2.1.16/XMCLib/src/xmc_usbd.c ****   
1096:/opt/XMClib/XMC_Peripheral_Library_v2.1.16/XMCLib/src/xmc_usbd.c ****   XMC_USBD_Enable();
1097:/opt/XMClib/XMC_Peripheral_Library_v2.1.16/XMCLib/src/xmc_usbd.c ****   
1098:/opt/XMClib/XMC_Peripheral_Library_v2.1.16/XMCLib/src/xmc_usbd.c ****   usbd_init = obj;
1099:/opt/XMClib/XMC_Peripheral_Library_v2.1.16/XMCLib/src/xmc_usbd.c **** 
1100:/opt/XMClib/XMC_Peripheral_Library_v2.1.16/XMCLib/src/xmc_usbd.c ****   /* Filling out buffer size */
1101:/opt/XMClib/XMC_Peripheral_Library_v2.1.16/XMCLib/src/xmc_usbd.c ****   for(i = 0U;i < (uint32_t)XMC_USBD_NUM_EPS;i++)
1102:/opt/XMClib/XMC_Peripheral_Library_v2.1.16/XMCLib/src/xmc_usbd.c ****   {
1103:/opt/XMClib/XMC_Peripheral_Library_v2.1.16/XMCLib/src/xmc_usbd.c **** 	  XMC_USBD_EP_OUT_BUFFERSIZE[i] = XMC_USBD_EP0_BUFFER_SIZE;
1104:/opt/XMClib/XMC_Peripheral_Library_v2.1.16/XMCLib/src/xmc_usbd.c **** 	  XMC_USBD_EP_IN_BUFFERSIZE[i] 	= XMC_USBD_EP0_BUFFER_SIZE;
1105:/opt/XMClib/XMC_Peripheral_Library_v2.1.16/XMCLib/src/xmc_usbd.c ****   }
1106:/opt/XMClib/XMC_Peripheral_Library_v2.1.16/XMCLib/src/xmc_usbd.c **** 
1107:/opt/XMClib/XMC_Peripheral_Library_v2.1.16/XMCLib/src/xmc_usbd.c ****   /* clear device status */
1108:/opt/XMClib/XMC_Peripheral_Library_v2.1.16/XMCLib/src/xmc_usbd.c ****   memset((void*)&xmc_device,0x0U,sizeof(XMC_USBD_DEVICE_t));
1109:/opt/XMClib/XMC_Peripheral_Library_v2.1.16/XMCLib/src/xmc_usbd.c **** 
1110:/opt/XMClib/XMC_Peripheral_Library_v2.1.16/XMCLib/src/xmc_usbd.c ****   /* assign callbacks */
1111:/opt/XMClib/XMC_Peripheral_Library_v2.1.16/XMCLib/src/xmc_usbd.c ****   xmc_device.DeviceEvent_cb = obj->cb_xmc_device_event;
1112:/opt/XMClib/XMC_Peripheral_Library_v2.1.16/XMCLib/src/xmc_usbd.c ****   xmc_device.EndpointEvent_cb = obj->cb_endpoint_event;
1113:/opt/XMClib/XMC_Peripheral_Library_v2.1.16/XMCLib/src/xmc_usbd.c ****   XMC_USBD_BASE_ADDRESS = (uint8_t *)(obj->usbd);
1114:/opt/XMClib/XMC_Peripheral_Library_v2.1.16/XMCLib/src/xmc_usbd.c ****   /* assign register address */
1115:/opt/XMClib/XMC_Peripheral_Library_v2.1.16/XMCLib/src/xmc_usbd.c ****   xmc_device.global_register = (dwc_otg_core_global_regs_t*)(obj->usbd);
1116:/opt/XMClib/XMC_Peripheral_Library_v2.1.16/XMCLib/src/xmc_usbd.c ****   xmc_device.device_register = ((dwc_otg_device_global_regs_t*)(XMC_USBD_BASE_ADDRESS + DWC_DEV_GLO
1117:/opt/XMClib/XMC_Peripheral_Library_v2.1.16/XMCLib/src/xmc_usbd.c ****   for (i = 0U;i < (uint32_t)XMC_USBD_NUM_EPS;i++)
1118:/opt/XMClib/XMC_Peripheral_Library_v2.1.16/XMCLib/src/xmc_usbd.c ****   {
1119:/opt/XMClib/XMC_Peripheral_Library_v2.1.16/XMCLib/src/xmc_usbd.c ****     xmc_device.endpoint_in_register[i] = (dwc_otg_dev_in_ep_regs_t*)(XMC_USBD_BASE_ADDRESS + DWC_DE
1120:/opt/XMClib/XMC_Peripheral_Library_v2.1.16/XMCLib/src/xmc_usbd.c ****     ((uint32_t)DWC_EP_REG_OFFSET*i));
1121:/opt/XMClib/XMC_Peripheral_Library_v2.1.16/XMCLib/src/xmc_usbd.c ****   }
1122:/opt/XMClib/XMC_Peripheral_Library_v2.1.16/XMCLib/src/xmc_usbd.c ****   for (i = 0U;i < (uint32_t)XMC_USBD_NUM_EPS;i++)
1123:/opt/XMClib/XMC_Peripheral_Library_v2.1.16/XMCLib/src/xmc_usbd.c ****   {
1124:/opt/XMClib/XMC_Peripheral_Library_v2.1.16/XMCLib/src/xmc_usbd.c ****     xmc_device.endpoint_out_register[i] = (dwc_otg_dev_out_ep_regs_t*)(XMC_USBD_BASE_ADDRESS +
1125:/opt/XMClib/XMC_Peripheral_Library_v2.1.16/XMCLib/src/xmc_usbd.c ****     									  DWC_DEV_OUT_EP_REG_OFFSET +
1126:/opt/XMClib/XMC_Peripheral_Library_v2.1.16/XMCLib/src/xmc_usbd.c ****     									  ((uint32_t)DWC_EP_REG_OFFSET*i));
1127:/opt/XMClib/XMC_Peripheral_Library_v2.1.16/XMCLib/src/xmc_usbd.c ****   }
1128:/opt/XMClib/XMC_Peripheral_Library_v2.1.16/XMCLib/src/xmc_usbd.c ****   for (i = 0U;i < (uint32_t)XMC_USBD_NUM_TX_FIFOS;i++)
1129:/opt/XMClib/XMC_Peripheral_Library_v2.1.16/XMCLib/src/xmc_usbd.c ****   {
1130:/opt/XMClib/XMC_Peripheral_Library_v2.1.16/XMCLib/src/xmc_usbd.c ****     xmc_device.fifo[i] = (uint32_t*)(XMC_USBD_BASE_ADDRESS +
1131:/opt/XMClib/XMC_Peripheral_Library_v2.1.16/XMCLib/src/xmc_usbd.c ****     						XMC_USBD_TX_FIFO_REG_OFFSET +
1132:/opt/XMClib/XMC_Peripheral_Library_v2.1.16/XMCLib/src/xmc_usbd.c ****     						(i * XMC_USBD_TX_FIFO_OFFSET));
1133:/opt/XMClib/XMC_Peripheral_Library_v2.1.16/XMCLib/src/xmc_usbd.c ****   }
1134:/opt/XMClib/XMC_Peripheral_Library_v2.1.16/XMCLib/src/xmc_usbd.c ****   /* obj data structure for endpoint 0 */
1135:/opt/XMClib/XMC_Peripheral_Library_v2.1.16/XMCLib/src/xmc_usbd.c ****   /* Done by driver core */
1136:/opt/XMClib/XMC_Peripheral_Library_v2.1.16/XMCLib/src/xmc_usbd.c ****   /* configure ahb details */  
1137:/opt/XMClib/XMC_Peripheral_Library_v2.1.16/XMCLib/src/xmc_usbd.c ****   gahbcfg.d32 = xmc_device.global_register->gahbcfg;
1138:/opt/XMClib/XMC_Peripheral_Library_v2.1.16/XMCLib/src/xmc_usbd.c ****   gahbcfg.b.glblintrmsk = 1U; /* enable interrupts ( global mask ) */
1139:/opt/XMClib/XMC_Peripheral_Library_v2.1.16/XMCLib/src/xmc_usbd.c ****   gahbcfg.b.nptxfemplvl_txfemplvl = 1U;
1140:/opt/XMClib/XMC_Peripheral_Library_v2.1.16/XMCLib/src/xmc_usbd.c ****   if(obj->usbd_transfer_mode == XMC_USBD_USE_DMA)
1141:/opt/XMClib/XMC_Peripheral_Library_v2.1.16/XMCLib/src/xmc_usbd.c ****   {
1142:/opt/XMClib/XMC_Peripheral_Library_v2.1.16/XMCLib/src/xmc_usbd.c ****     /* Enable dma if needed */
1143:/opt/XMClib/XMC_Peripheral_Library_v2.1.16/XMCLib/src/xmc_usbd.c ****     gahbcfg.b.dmaenable = 1U; /* enable dma if needed */
1144:/opt/XMClib/XMC_Peripheral_Library_v2.1.16/XMCLib/src/xmc_usbd.c ****   }
1145:/opt/XMClib/XMC_Peripheral_Library_v2.1.16/XMCLib/src/xmc_usbd.c ****   else
1146:/opt/XMClib/XMC_Peripheral_Library_v2.1.16/XMCLib/src/xmc_usbd.c ****   {
1147:/opt/XMClib/XMC_Peripheral_Library_v2.1.16/XMCLib/src/xmc_usbd.c ****     gahbcfg.b.dmaenable = 0U;
1148:/opt/XMClib/XMC_Peripheral_Library_v2.1.16/XMCLib/src/xmc_usbd.c ****   }
1149:/opt/XMClib/XMC_Peripheral_Library_v2.1.16/XMCLib/src/xmc_usbd.c ****   xmc_device.global_register->gahbcfg = gahbcfg.d32;
1150:/opt/XMClib/XMC_Peripheral_Library_v2.1.16/XMCLib/src/xmc_usbd.c ****   /* configure usb details */  
1151:/opt/XMClib/XMC_Peripheral_Library_v2.1.16/XMCLib/src/xmc_usbd.c ****   gusbcfg.d32= xmc_device.global_register->gusbcfg;
1152:/opt/XMClib/XMC_Peripheral_Library_v2.1.16/XMCLib/src/xmc_usbd.c ****   gusbcfg.b.force_dev_mode = 1U; /* force us into device mode */
1153:/opt/XMClib/XMC_Peripheral_Library_v2.1.16/XMCLib/src/xmc_usbd.c ****   gusbcfg.b.srpcap = 1U; /* enable session request protocoll */
1154:/opt/XMClib/XMC_Peripheral_Library_v2.1.16/XMCLib/src/xmc_usbd.c ****   xmc_device.global_register->gusbcfg = gusbcfg.d32;
1155:/opt/XMClib/XMC_Peripheral_Library_v2.1.16/XMCLib/src/xmc_usbd.c **** 
1156:/opt/XMClib/XMC_Peripheral_Library_v2.1.16/XMCLib/src/xmc_usbd.c ****   /* Device init */
1157:/opt/XMClib/XMC_Peripheral_Library_v2.1.16/XMCLib/src/xmc_usbd.c ****   /* configure device speed */  
1158:/opt/XMClib/XMC_Peripheral_Library_v2.1.16/XMCLib/src/xmc_usbd.c ****   dcfg.d32 = xmc_device.device_register->dcfg;
1159:/opt/XMClib/XMC_Peripheral_Library_v2.1.16/XMCLib/src/xmc_usbd.c ****   dcfg.b.devspd = XMC_USBD_DCFG_DEVSPD_FS;
1160:/opt/XMClib/XMC_Peripheral_Library_v2.1.16/XMCLib/src/xmc_usbd.c ****   dcfg.b.descdma = 0U;
1161:/opt/XMClib/XMC_Peripheral_Library_v2.1.16/XMCLib/src/xmc_usbd.c ****   xmc_device.device_register->dcfg = dcfg.d32;
1162:/opt/XMClib/XMC_Peripheral_Library_v2.1.16/XMCLib/src/xmc_usbd.c ****   /* configure device functions */  
1163:/opt/XMClib/XMC_Peripheral_Library_v2.1.16/XMCLib/src/xmc_usbd.c ****   dctl.d32 = xmc_device.device_register->dctl;
1164:/opt/XMClib/XMC_Peripheral_Library_v2.1.16/XMCLib/src/xmc_usbd.c ****   dctl.b.sftdiscon = 1U; /* disconnect the device until its connected by the user */
1165:/opt/XMClib/XMC_Peripheral_Library_v2.1.16/XMCLib/src/xmc_usbd.c ****   /* all other config is done by default register value */
1166:/opt/XMClib/XMC_Peripheral_Library_v2.1.16/XMCLib/src/xmc_usbd.c ****   xmc_device.device_register->dctl = dctl.d32;
1167:/opt/XMClib/XMC_Peripheral_Library_v2.1.16/XMCLib/src/xmc_usbd.c ****   /* flush the fifos for proper operation */
1168:/opt/XMClib/XMC_Peripheral_Library_v2.1.16/XMCLib/src/xmc_usbd.c ****   XMC_USBD_lFlushTXFifo((uint8_t)0x10U); /* 0x10 == all fifos, see doc */
1169:/opt/XMClib/XMC_Peripheral_Library_v2.1.16/XMCLib/src/xmc_usbd.c ****   XMC_USBD_lFlushRXFifo();
1170:/opt/XMClib/XMC_Peripheral_Library_v2.1.16/XMCLib/src/xmc_usbd.c ****   /* Enable Global Interrupts */
1171:/opt/XMClib/XMC_Peripheral_Library_v2.1.16/XMCLib/src/xmc_usbd.c ****   /* clear interrupt status bits prior to unmasking */
1172:/opt/XMClib/XMC_Peripheral_Library_v2.1.16/XMCLib/src/xmc_usbd.c ****   xmc_device.global_register->gintmsk = 0U; /* disable all interrupts */
1173:/opt/XMClib/XMC_Peripheral_Library_v2.1.16/XMCLib/src/xmc_usbd.c ****   xmc_device.global_register->gintsts = 0xFFFFFFFFU; /* clear all interrupts */
1174:/opt/XMClib/XMC_Peripheral_Library_v2.1.16/XMCLib/src/xmc_usbd.c ****  
1175:/opt/XMClib/XMC_Peripheral_Library_v2.1.16/XMCLib/src/xmc_usbd.c ****   gintmsk.d32 = 0U;
1176:/opt/XMClib/XMC_Peripheral_Library_v2.1.16/XMCLib/src/xmc_usbd.c ****   /* enable common interrupts */
1177:/opt/XMClib/XMC_Peripheral_Library_v2.1.16/XMCLib/src/xmc_usbd.c ****   gintmsk.b.modemismatch = 1U;
1178:/opt/XMClib/XMC_Peripheral_Library_v2.1.16/XMCLib/src/xmc_usbd.c ****   gintmsk.b.otgintr = 1U;
1179:/opt/XMClib/XMC_Peripheral_Library_v2.1.16/XMCLib/src/xmc_usbd.c ****   gintmsk.b.sessreqintr = 1U;
1180:/opt/XMClib/XMC_Peripheral_Library_v2.1.16/XMCLib/src/xmc_usbd.c ****   /* enable device interrupts */
1181:/opt/XMClib/XMC_Peripheral_Library_v2.1.16/XMCLib/src/xmc_usbd.c ****   gintmsk.b.usbreset = 1U;
1182:/opt/XMClib/XMC_Peripheral_Library_v2.1.16/XMCLib/src/xmc_usbd.c ****   gintmsk.b.enumdone = 1U;
1183:/opt/XMClib/XMC_Peripheral_Library_v2.1.16/XMCLib/src/xmc_usbd.c ****   gintmsk.b.erlysuspend = 1U;
1184:/opt/XMClib/XMC_Peripheral_Library_v2.1.16/XMCLib/src/xmc_usbd.c ****   gintmsk.b.usbsuspend = 1U;
1185:/opt/XMClib/XMC_Peripheral_Library_v2.1.16/XMCLib/src/xmc_usbd.c ****   gintmsk.b.wkupintr = 1U;
1186:/opt/XMClib/XMC_Peripheral_Library_v2.1.16/XMCLib/src/xmc_usbd.c ****   gintmsk.b.sofintr = 1U;
1187:/opt/XMClib/XMC_Peripheral_Library_v2.1.16/XMCLib/src/xmc_usbd.c ****   if(obj->usbd_transfer_mode == XMC_USBD_USE_FIFO)
1188:/opt/XMClib/XMC_Peripheral_Library_v2.1.16/XMCLib/src/xmc_usbd.c ****   {
1189:/opt/XMClib/XMC_Peripheral_Library_v2.1.16/XMCLib/src/xmc_usbd.c ****     gintmsk.b.rxstsqlvl = 1U;
1190:/opt/XMClib/XMC_Peripheral_Library_v2.1.16/XMCLib/src/xmc_usbd.c ****   }
1191:/opt/XMClib/XMC_Peripheral_Library_v2.1.16/XMCLib/src/xmc_usbd.c ****   gintmsk.b.outepintr = 1U;
1192:/opt/XMClib/XMC_Peripheral_Library_v2.1.16/XMCLib/src/xmc_usbd.c ****   gintmsk.b.inepintr = 1U;
1193:/opt/XMClib/XMC_Peripheral_Library_v2.1.16/XMCLib/src/xmc_usbd.c ****   xmc_device.global_register->gintmsk = gintmsk.d32;
1194:/opt/XMClib/XMC_Peripheral_Library_v2.1.16/XMCLib/src/xmc_usbd.c ****   return XMC_USBD_STATUS_OK;
1195:/opt/XMClib/XMC_Peripheral_Library_v2.1.16/XMCLib/src/xmc_usbd.c **** }
1196:/opt/XMClib/XMC_Peripheral_Library_v2.1.16/XMCLib/src/xmc_usbd.c **** 
1197:/opt/XMClib/XMC_Peripheral_Library_v2.1.16/XMCLib/src/xmc_usbd.c **** /**
1198:/opt/XMClib/XMC_Peripheral_Library_v2.1.16/XMCLib/src/xmc_usbd.c ****  * Uninitializes the USB device
1199:/opt/XMClib/XMC_Peripheral_Library_v2.1.16/XMCLib/src/xmc_usbd.c ****  **/
1200:/opt/XMClib/XMC_Peripheral_Library_v2.1.16/XMCLib/src/xmc_usbd.c **** XMC_USBD_STATUS_t XMC_USBD_Uninitialize() 
1201:/opt/XMClib/XMC_Peripheral_Library_v2.1.16/XMCLib/src/xmc_usbd.c **** {
1202:/opt/XMClib/XMC_Peripheral_Library_v2.1.16/XMCLib/src/xmc_usbd.c ****   /* Disconnect the device */
1203:/opt/XMClib/XMC_Peripheral_Library_v2.1.16/XMCLib/src/xmc_usbd.c ****   dctl_data_t dctl;
1204:/opt/XMClib/XMC_Peripheral_Library_v2.1.16/XMCLib/src/xmc_usbd.c **** 	dctl.d32 = xmc_device.device_register->dctl;
1205:/opt/XMClib/XMC_Peripheral_Library_v2.1.16/XMCLib/src/xmc_usbd.c ****   dctl.b.sftdiscon = 1U;
1206:/opt/XMClib/XMC_Peripheral_Library_v2.1.16/XMCLib/src/xmc_usbd.c ****   xmc_device.device_register->dctl = dctl.d32;
1207:/opt/XMClib/XMC_Peripheral_Library_v2.1.16/XMCLib/src/xmc_usbd.c ****   /* clean up */
1208:/opt/XMClib/XMC_Peripheral_Library_v2.1.16/XMCLib/src/xmc_usbd.c ****   memset((void*)&xmc_device,0U,sizeof(xmc_device));
1209:/opt/XMClib/XMC_Peripheral_Library_v2.1.16/XMCLib/src/xmc_usbd.c ****   return XMC_USBD_STATUS_OK;
1210:/opt/XMClib/XMC_Peripheral_Library_v2.1.16/XMCLib/src/xmc_usbd.c **** }
1211:/opt/XMClib/XMC_Peripheral_Library_v2.1.16/XMCLib/src/xmc_usbd.c **** 
1212:/opt/XMClib/XMC_Peripheral_Library_v2.1.16/XMCLib/src/xmc_usbd.c **** /**
1213:/opt/XMClib/XMC_Peripheral_Library_v2.1.16/XMCLib/src/xmc_usbd.c ****  * Connects the USB device to host
1214:/opt/XMClib/XMC_Peripheral_Library_v2.1.16/XMCLib/src/xmc_usbd.c ****  **/
1215:/opt/XMClib/XMC_Peripheral_Library_v2.1.16/XMCLib/src/xmc_usbd.c **** XMC_USBD_STATUS_t XMC_USBD_DeviceConnect() 
1216:/opt/XMClib/XMC_Peripheral_Library_v2.1.16/XMCLib/src/xmc_usbd.c **** {
 551              		.loc 1 1216 1 is_stmt 1 view -0
 552              		.cfi_startproc
 553              		@ args = 0, pretend = 0, frame = 0
 554              		@ frame_needed = 0, uses_anonymous_args = 0
 555              		@ link register save eliminated.
1217:/opt/XMClib/XMC_Peripheral_Library_v2.1.16/XMCLib/src/xmc_usbd.c ****   /* Just disable softdisconnect */
1218:/opt/XMClib/XMC_Peripheral_Library_v2.1.16/XMCLib/src/xmc_usbd.c ****   dctl_data_t dctl;
 556              		.loc 1 1218 3 view .LVU210
1219:/opt/XMClib/XMC_Peripheral_Library_v2.1.16/XMCLib/src/xmc_usbd.c **** 	dctl.d32 = xmc_device.device_register->dctl;
 557              		.loc 1 1219 2 view .LVU211
 558              		.loc 1 1219 23 is_stmt 0 view .LVU212
 559 0000 044B     		ldr	r3, .L49
 560 0002 D3F8A421 		ldr	r2, [r3, #420]
 561              		.loc 1 1219 39 view .LVU213
 562 0006 5368     		ldr	r3, [r2, #4]
1220:/opt/XMClib/XMC_Peripheral_Library_v2.1.16/XMCLib/src/xmc_usbd.c ****   dctl.b.sftdiscon = 0U;
 563              		.loc 1 1220 3 is_stmt 1 view .LVU214
 564              		.loc 1 1220 20 is_stmt 0 view .LVU215
 565 0008 6FF34103 		bfc	r3, #1, #1
 566              	.LVL24:
1221:/opt/XMClib/XMC_Peripheral_Library_v2.1.16/XMCLib/src/xmc_usbd.c ****   xmc_device.device_register->dctl = dctl.d32;
 567              		.loc 1 1221 3 is_stmt 1 view .LVU216
1222:/opt/XMClib/XMC_Peripheral_Library_v2.1.16/XMCLib/src/xmc_usbd.c ****   return XMC_USBD_STATUS_OK;
1223:/opt/XMClib/XMC_Peripheral_Library_v2.1.16/XMCLib/src/xmc_usbd.c **** }
 568              		.loc 1 1223 1 is_stmt 0 view .LVU217
 569 000c 0020     		movs	r0, #0
1221:/opt/XMClib/XMC_Peripheral_Library_v2.1.16/XMCLib/src/xmc_usbd.c ****   xmc_device.device_register->dctl = dctl.d32;
 570              		.loc 1 1221 36 view .LVU218
 571 000e 5360     		str	r3, [r2, #4]
1222:/opt/XMClib/XMC_Peripheral_Library_v2.1.16/XMCLib/src/xmc_usbd.c ****   return XMC_USBD_STATUS_OK;
 572              		.loc 1 1222 3 is_stmt 1 view .LVU219
 573              		.loc 1 1223 1 is_stmt 0 view .LVU220
 574 0010 7047     		bx	lr
 575              	.L50:
 576 0012 00BF     		.align	2
 577              	.L49:
 578 0014 00000000 		.word	.LANCHOR0
 579              		.cfi_endproc
 580              	.LFE189:
 582              		.section	.text.XMC_USBD_DeviceDisconnect,"ax",%progbits
 583              		.align	1
 584              		.p2align 2,,3
 585              		.global	XMC_USBD_DeviceDisconnect
 586              		.syntax unified
 587              		.thumb
 588              		.thumb_func
 590              	XMC_USBD_DeviceDisconnect:
 591              	.LFB190:
1224:/opt/XMClib/XMC_Peripheral_Library_v2.1.16/XMCLib/src/xmc_usbd.c **** 
1225:/opt/XMClib/XMC_Peripheral_Library_v2.1.16/XMCLib/src/xmc_usbd.c **** /**
1226:/opt/XMClib/XMC_Peripheral_Library_v2.1.16/XMCLib/src/xmc_usbd.c ****  * Disconnects the USB device from host
1227:/opt/XMClib/XMC_Peripheral_Library_v2.1.16/XMCLib/src/xmc_usbd.c ****  **/
1228:/opt/XMClib/XMC_Peripheral_Library_v2.1.16/XMCLib/src/xmc_usbd.c **** XMC_USBD_STATUS_t XMC_USBD_DeviceDisconnect() 
1229:/opt/XMClib/XMC_Peripheral_Library_v2.1.16/XMCLib/src/xmc_usbd.c **** {
 592              		.loc 1 1229 1 is_stmt 1 view -0
 593              		.cfi_startproc
 594              		@ args = 0, pretend = 0, frame = 0
 595              		@ frame_needed = 0, uses_anonymous_args = 0
 596              		@ link register save eliminated.
1230:/opt/XMClib/XMC_Peripheral_Library_v2.1.16/XMCLib/src/xmc_usbd.c ****   dctl_data_t dctl;
 597              		.loc 1 1230 3 view .LVU222
1231:/opt/XMClib/XMC_Peripheral_Library_v2.1.16/XMCLib/src/xmc_usbd.c **** 	dctl.d32 = xmc_device.device_register->dctl;
 598              		.loc 1 1231 2 view .LVU223
 599              		.loc 1 1231 23 is_stmt 0 view .LVU224
 600 0000 044B     		ldr	r3, .L52
 601 0002 D3F8A421 		ldr	r2, [r3, #420]
 602              		.loc 1 1231 39 view .LVU225
 603 0006 5368     		ldr	r3, [r2, #4]
1232:/opt/XMClib/XMC_Peripheral_Library_v2.1.16/XMCLib/src/xmc_usbd.c ****   dctl.b.sftdiscon = 1U;
 604              		.loc 1 1232 3 is_stmt 1 view .LVU226
 605              		.loc 1 1232 20 is_stmt 0 view .LVU227
 606 0008 43F00203 		orr	r3, r3, #2
 607              	.LVL25:
1233:/opt/XMClib/XMC_Peripheral_Library_v2.1.16/XMCLib/src/xmc_usbd.c ****   xmc_device.device_register->dctl = dctl.d32;
 608              		.loc 1 1233 3 is_stmt 1 view .LVU228
1234:/opt/XMClib/XMC_Peripheral_Library_v2.1.16/XMCLib/src/xmc_usbd.c ****   return XMC_USBD_STATUS_OK;
1235:/opt/XMClib/XMC_Peripheral_Library_v2.1.16/XMCLib/src/xmc_usbd.c **** }
 609              		.loc 1 1235 1 is_stmt 0 view .LVU229
 610 000c 0020     		movs	r0, #0
 611              	.LVL26:
1233:/opt/XMClib/XMC_Peripheral_Library_v2.1.16/XMCLib/src/xmc_usbd.c ****   xmc_device.device_register->dctl = dctl.d32;
 612              		.loc 1 1233 36 view .LVU230
 613 000e 5360     		str	r3, [r2, #4]
1234:/opt/XMClib/XMC_Peripheral_Library_v2.1.16/XMCLib/src/xmc_usbd.c ****   return XMC_USBD_STATUS_OK;
 614              		.loc 1 1234 3 is_stmt 1 view .LVU231
 615              		.loc 1 1235 1 is_stmt 0 view .LVU232
 616 0010 7047     		bx	lr
 617              	.L53:
 618 0012 00BF     		.align	2
 619              	.L52:
 620 0014 00000000 		.word	.LANCHOR0
 621              		.cfi_endproc
 622              	.LFE190:
 624              		.section	.text.XMC_USBD_EndpointReadStart,"ax",%progbits
 625              		.align	1
 626              		.p2align 2,,3
 627              		.global	XMC_USBD_EndpointReadStart
 628              		.syntax unified
 629              		.thumb
 630              		.thumb_func
 632              	XMC_USBD_EndpointReadStart:
 633              	.LVL27:
 634              	.LFB192:
1236:/opt/XMClib/XMC_Peripheral_Library_v2.1.16/XMCLib/src/xmc_usbd.c **** 
1237:/opt/XMClib/XMC_Peripheral_Library_v2.1.16/XMCLib/src/xmc_usbd.c **** /**
1238:/opt/XMClib/XMC_Peripheral_Library_v2.1.16/XMCLib/src/xmc_usbd.c ****  * Gets the USB device state.
1239:/opt/XMClib/XMC_Peripheral_Library_v2.1.16/XMCLib/src/xmc_usbd.c ****  **/
1240:/opt/XMClib/XMC_Peripheral_Library_v2.1.16/XMCLib/src/xmc_usbd.c **** XMC_USBD_STATE_t XMC_USBD_DeviceGetState(const XMC_USBD_t *const obj) 
1241:/opt/XMClib/XMC_Peripheral_Library_v2.1.16/XMCLib/src/xmc_usbd.c **** {
1242:/opt/XMClib/XMC_Peripheral_Library_v2.1.16/XMCLib/src/xmc_usbd.c ****   XMC_USBD_STATE_t state={0U};
1243:/opt/XMClib/XMC_Peripheral_Library_v2.1.16/XMCLib/src/xmc_usbd.c ****   state.speed = XMC_USBD_SPEED_FULL;
1244:/opt/XMClib/XMC_Peripheral_Library_v2.1.16/XMCLib/src/xmc_usbd.c ****   state.connected = xmc_device.IsConnected;
1245:/opt/XMClib/XMC_Peripheral_Library_v2.1.16/XMCLib/src/xmc_usbd.c ****   state.active = XMC_USBD_lDeviceActive(obj);
1246:/opt/XMClib/XMC_Peripheral_Library_v2.1.16/XMCLib/src/xmc_usbd.c ****   state.powered = xmc_device.IsPowered;
1247:/opt/XMClib/XMC_Peripheral_Library_v2.1.16/XMCLib/src/xmc_usbd.c ****   return state;
1248:/opt/XMClib/XMC_Peripheral_Library_v2.1.16/XMCLib/src/xmc_usbd.c **** }
1249:/opt/XMClib/XMC_Peripheral_Library_v2.1.16/XMCLib/src/xmc_usbd.c **** 
1250:/opt/XMClib/XMC_Peripheral_Library_v2.1.16/XMCLib/src/xmc_usbd.c **** /**
1251:/opt/XMClib/XMC_Peripheral_Library_v2.1.16/XMCLib/src/xmc_usbd.c ****  * Prepares the endpoint to read next OUT packet
1252:/opt/XMClib/XMC_Peripheral_Library_v2.1.16/XMCLib/src/xmc_usbd.c ****  **/
1253:/opt/XMClib/XMC_Peripheral_Library_v2.1.16/XMCLib/src/xmc_usbd.c **** XMC_USBD_STATUS_t XMC_USBD_EndpointReadStart(const uint8_t ep_addr, uint32_t size) 
1254:/opt/XMClib/XMC_Peripheral_Library_v2.1.16/XMCLib/src/xmc_usbd.c **** {
 635              		.loc 1 1254 1 is_stmt 1 view -0
 636              		.cfi_startproc
 637              		@ args = 0, pretend = 0, frame = 0
 638              		@ frame_needed = 0, uses_anonymous_args = 0
1255:/opt/XMClib/XMC_Peripheral_Library_v2.1.16/XMCLib/src/xmc_usbd.c ****   XMC_USBD_EP_t *ep = &xmc_device.ep[ep_addr & (uint8_t)XMC_USBD_EP_NUM_MASK];
 639              		.loc 1 1255 3 view .LVU234
1254:/opt/XMClib/XMC_Peripheral_Library_v2.1.16/XMCLib/src/xmc_usbd.c ****   XMC_USBD_EP_t *ep = &xmc_device.ep[ep_addr & (uint8_t)XMC_USBD_EP_NUM_MASK];
 640              		.loc 1 1254 1 is_stmt 0 view .LVU235
 641 0000 38B5     		push	{r3, r4, r5, lr}
 642              	.LCFI5:
 643              		.cfi_def_cfa_offset 16
 644              		.cfi_offset 3, -16
 645              		.cfi_offset 4, -12
 646              		.cfi_offset 5, -8
 647              		.cfi_offset 14, -4
1256:/opt/XMClib/XMC_Peripheral_Library_v2.1.16/XMCLib/src/xmc_usbd.c ****   XMC_USBD_STATUS_t result;
1257:/opt/XMClib/XMC_Peripheral_Library_v2.1.16/XMCLib/src/xmc_usbd.c **** 	
1258:/opt/XMClib/XMC_Peripheral_Library_v2.1.16/XMCLib/src/xmc_usbd.c ****   if (ep->outInUse || !ep->isConfigured)
 648              		.loc 1 1258 9 view .LVU236
 649 0002 124D     		ldr	r5, .L60
 650 0004 00F00F02 		and	r2, r0, #15
 651              	.LVL28:
1256:/opt/XMClib/XMC_Peripheral_Library_v2.1.16/XMCLib/src/xmc_usbd.c ****   XMC_USBD_STATUS_t result;
 652              		.loc 1 1256 3 is_stmt 1 view .LVU237
 653              		.loc 1 1258 3 view .LVU238
 654              		.loc 1 1258 9 is_stmt 0 view .LVU239
 655 0008 3423     		movs	r3, #52
 656 000a 03FB0253 		mla	r3, r3, r2, r5
 657 000e 5868     		ldr	r0, [r3, #4]
 658              	.LVL29:
 659              		.loc 1 1258 9 view .LVU240
 660 0010 C0F30014 		ubfx	r4, r0, #4, #1
 661              		.loc 1 1258 6 view .LVU241
 662 0014 C006     		lsls	r0, r0, #27
 663 0016 02D4     		bmi	.L57
 664              		.loc 1 1258 23 discriminator 1 view .LVU242
 665 0018 1879     		ldrb	r0, [r3, #4]	@ zero_extendqisi2
 666              		.loc 1 1258 20 discriminator 1 view .LVU243
 667 001a 4007     		lsls	r0, r0, #29
 668 001c 01D4     		bmi	.L59
 669              	.L57:
1259:/opt/XMClib/XMC_Peripheral_Library_v2.1.16/XMCLib/src/xmc_usbd.c ****   {
1260:/opt/XMClib/XMC_Peripheral_Library_v2.1.16/XMCLib/src/xmc_usbd.c ****     result = XMC_USBD_STATUS_ERROR;
 670              		.loc 1 1260 12 view .LVU244
 671 001e 0120     		movs	r0, #1
 672              	.LVL30:
1261:/opt/XMClib/XMC_Peripheral_Library_v2.1.16/XMCLib/src/xmc_usbd.c ****   }
1262:/opt/XMClib/XMC_Peripheral_Library_v2.1.16/XMCLib/src/xmc_usbd.c ****   else
1263:/opt/XMClib/XMC_Peripheral_Library_v2.1.16/XMCLib/src/xmc_usbd.c ****   {
1264:/opt/XMClib/XMC_Peripheral_Library_v2.1.16/XMCLib/src/xmc_usbd.c ****     /* short the length to buffer size if needed */
1265:/opt/XMClib/XMC_Peripheral_Library_v2.1.16/XMCLib/src/xmc_usbd.c ****     if (size > ep->outBufferSize)
1266:/opt/XMClib/XMC_Peripheral_Library_v2.1.16/XMCLib/src/xmc_usbd.c ****     {
1267:/opt/XMClib/XMC_Peripheral_Library_v2.1.16/XMCLib/src/xmc_usbd.c ****       size = ep->outBufferSize;
1268:/opt/XMClib/XMC_Peripheral_Library_v2.1.16/XMCLib/src/xmc_usbd.c ****     }
1269:/opt/XMClib/XMC_Peripheral_Library_v2.1.16/XMCLib/src/xmc_usbd.c ****     /* set ep values */
1270:/opt/XMClib/XMC_Peripheral_Library_v2.1.16/XMCLib/src/xmc_usbd.c ****     ep->xferTotal = size;
1271:/opt/XMClib/XMC_Peripheral_Library_v2.1.16/XMCLib/src/xmc_usbd.c ****     ep->xferCount = 0U;
1272:/opt/XMClib/XMC_Peripheral_Library_v2.1.16/XMCLib/src/xmc_usbd.c ****     ep->xferLength = 0U;
1273:/opt/XMClib/XMC_Peripheral_Library_v2.1.16/XMCLib/src/xmc_usbd.c ****     ep->xferBuffer = ep->outBuffer;
1274:/opt/XMClib/XMC_Peripheral_Library_v2.1.16/XMCLib/src/xmc_usbd.c ****     ep->outBytesAvailable = 0U;
1275:/opt/XMClib/XMC_Peripheral_Library_v2.1.16/XMCLib/src/xmc_usbd.c ****     XMC_USBD_lStartReadXfer(ep);
1276:/opt/XMClib/XMC_Peripheral_Library_v2.1.16/XMCLib/src/xmc_usbd.c ****     result= XMC_USBD_STATUS_OK;
1277:/opt/XMClib/XMC_Peripheral_Library_v2.1.16/XMCLib/src/xmc_usbd.c ****   }
1278:/opt/XMClib/XMC_Peripheral_Library_v2.1.16/XMCLib/src/xmc_usbd.c ****   return result;
 673              		.loc 1 1278 3 is_stmt 1 view .LVU245
1279:/opt/XMClib/XMC_Peripheral_Library_v2.1.16/XMCLib/src/xmc_usbd.c **** }
 674              		.loc 1 1279 1 is_stmt 0 view .LVU246
 675 0020 38BD     		pop	{r3, r4, r5, pc}
 676              	.LVL31:
 677              	.L59:
1265:/opt/XMClib/XMC_Peripheral_Library_v2.1.16/XMCLib/src/xmc_usbd.c ****     {
 678              		.loc 1 1265 5 is_stmt 1 view .LVU247
1270:/opt/XMClib/XMC_Peripheral_Library_v2.1.16/XMCLib/src/xmc_usbd.c ****     ep->xferCount = 0U;
 679              		.loc 1 1270 5 view .LVU248
1270:/opt/XMClib/XMC_Peripheral_Library_v2.1.16/XMCLib/src/xmc_usbd.c ****     ep->xferCount = 0U;
 680              		.loc 1 1270 19 is_stmt 0 view .LVU249
 681 0022 5869     		ldr	r0, [r3, #20]
1274:/opt/XMClib/XMC_Peripheral_Library_v2.1.16/XMCLib/src/xmc_usbd.c ****     XMC_USBD_lStartReadXfer(ep);
 682              		.loc 1 1274 27 view .LVU250
 683 0024 1C61     		str	r4, [r3, #16]
1270:/opt/XMClib/XMC_Peripheral_Library_v2.1.16/XMCLib/src/xmc_usbd.c ****     ep->xferCount = 0U;
 684              		.loc 1 1270 19 view .LVU251
 685 0026 8142     		cmp	r1, r0
 686 0028 28BF     		it	cs
 687 002a 0146     		movcs	r1, r0
 688              	.LVL32:
1255:/opt/XMClib/XMC_Peripheral_Library_v2.1.16/XMCLib/src/xmc_usbd.c ****   XMC_USBD_STATUS_t result;
 689              		.loc 1 1255 18 view .LVU252
 690 002c 02EB4200 		add	r0, r2, r2, lsl #1
1270:/opt/XMClib/XMC_Peripheral_Library_v2.1.16/XMCLib/src/xmc_usbd.c ****     ep->xferCount = 0U;
 691              		.loc 1 1270 19 view .LVU253
 692 0030 1963     		str	r1, [r3, #48]
1271:/opt/XMClib/XMC_Peripheral_Library_v2.1.16/XMCLib/src/xmc_usbd.c ****     ep->xferLength = 0U;
 693              		.loc 1 1271 5 is_stmt 1 view .LVU254
1272:/opt/XMClib/XMC_Peripheral_Library_v2.1.16/XMCLib/src/xmc_usbd.c ****     ep->xferBuffer = ep->outBuffer;
 694              		.loc 1 1272 5 view .LVU255
1273:/opt/XMClib/XMC_Peripheral_Library_v2.1.16/XMCLib/src/xmc_usbd.c ****     ep->outBytesAvailable = 0U;
 695              		.loc 1 1273 5 view .LVU256
1255:/opt/XMClib/XMC_Peripheral_Library_v2.1.16/XMCLib/src/xmc_usbd.c ****   XMC_USBD_STATUS_t result;
 696              		.loc 1 1255 18 is_stmt 0 view .LVU257
 697 0032 02EB8000 		add	r0, r2, r0, lsl #2
1273:/opt/XMClib/XMC_Peripheral_Library_v2.1.16/XMCLib/src/xmc_usbd.c ****     ep->outBytesAvailable = 0U;
 698              		.loc 1 1273 20 view .LVU258
 699 0036 D968     		ldr	r1, [r3, #12]
 700 0038 5962     		str	r1, [r3, #36]
1274:/opt/XMClib/XMC_Peripheral_Library_v2.1.16/XMCLib/src/xmc_usbd.c ****     XMC_USBD_lStartReadXfer(ep);
 701              		.loc 1 1274 5 is_stmt 1 view .LVU259
1275:/opt/XMClib/XMC_Peripheral_Library_v2.1.16/XMCLib/src/xmc_usbd.c ****     result= XMC_USBD_STATUS_OK;
 702              		.loc 1 1275 5 view .LVU260
 703 003a 05EB8000 		add	r0, r5, r0, lsl #2
1272:/opt/XMClib/XMC_Peripheral_Library_v2.1.16/XMCLib/src/xmc_usbd.c ****     ep->xferBuffer = ep->outBuffer;
 704              		.loc 1 1272 20 is_stmt 0 view .LVU261
 705 003e C3E90A44 		strd	r4, r4, [r3, #40]
1275:/opt/XMClib/XMC_Peripheral_Library_v2.1.16/XMCLib/src/xmc_usbd.c ****     result= XMC_USBD_STATUS_OK;
 706              		.loc 1 1275 5 view .LVU262
 707 0042 FFF7FEFF 		bl	XMC_USBD_lStartReadXfer
 708              	.LVL33:
1276:/opt/XMClib/XMC_Peripheral_Library_v2.1.16/XMCLib/src/xmc_usbd.c ****   }
 709              		.loc 1 1276 5 is_stmt 1 view .LVU263
1276:/opt/XMClib/XMC_Peripheral_Library_v2.1.16/XMCLib/src/xmc_usbd.c ****   }
 710              		.loc 1 1276 11 is_stmt 0 view .LVU264
 711 0046 2046     		mov	r0, r4
 712              	.LVL34:
1278:/opt/XMClib/XMC_Peripheral_Library_v2.1.16/XMCLib/src/xmc_usbd.c **** }
 713              		.loc 1 1278 3 is_stmt 1 view .LVU265
 714              		.loc 1 1279 1 is_stmt 0 view .LVU266
 715 0048 38BD     		pop	{r3, r4, r5, pc}
 716              	.L61:
 717 004a 00BF     		.align	2
 718              	.L60:
 719 004c 00000000 		.word	.LANCHOR0
 720              		.cfi_endproc
 721              	.LFE192:
 723              		.section	.text.XMC_USBD_DeviceSetAddress,"ax",%progbits
 724              		.align	1
 725              		.p2align 2,,3
 726              		.global	XMC_USBD_DeviceSetAddress
 727              		.syntax unified
 728              		.thumb
 729              		.thumb_func
 731              	XMC_USBD_DeviceSetAddress:
 732              	.LVL35:
 733              	.LFB195:
1280:/opt/XMClib/XMC_Peripheral_Library_v2.1.16/XMCLib/src/xmc_usbd.c **** 
1281:/opt/XMClib/XMC_Peripheral_Library_v2.1.16/XMCLib/src/xmc_usbd.c **** /**
1282:/opt/XMClib/XMC_Peripheral_Library_v2.1.16/XMCLib/src/xmc_usbd.c ****  * Reads the number of bytes from the USB OUT endpoint
1283:/opt/XMClib/XMC_Peripheral_Library_v2.1.16/XMCLib/src/xmc_usbd.c ****  **/
1284:/opt/XMClib/XMC_Peripheral_Library_v2.1.16/XMCLib/src/xmc_usbd.c **** int32_t XMC_USBD_EndpointRead(const uint8_t ep_num,uint8_t * buffer,uint32_t length) 
1285:/opt/XMClib/XMC_Peripheral_Library_v2.1.16/XMCLib/src/xmc_usbd.c **** {
1286:/opt/XMClib/XMC_Peripheral_Library_v2.1.16/XMCLib/src/xmc_usbd.c ****   XMC_USBD_EP_t *ep = &xmc_device.ep[ep_num];
1287:/opt/XMClib/XMC_Peripheral_Library_v2.1.16/XMCLib/src/xmc_usbd.c ****   if (length > ep->outBytesAvailable)
1288:/opt/XMClib/XMC_Peripheral_Library_v2.1.16/XMCLib/src/xmc_usbd.c ****   {
1289:/opt/XMClib/XMC_Peripheral_Library_v2.1.16/XMCLib/src/xmc_usbd.c ****     length = ep->outBytesAvailable;
1290:/opt/XMClib/XMC_Peripheral_Library_v2.1.16/XMCLib/src/xmc_usbd.c ****   }
1291:/opt/XMClib/XMC_Peripheral_Library_v2.1.16/XMCLib/src/xmc_usbd.c ****   memcpy(buffer,&ep->outBuffer[ep->outOffset],length);
1292:/opt/XMClib/XMC_Peripheral_Library_v2.1.16/XMCLib/src/xmc_usbd.c ****   ep->outBytesAvailable -= length;
1293:/opt/XMClib/XMC_Peripheral_Library_v2.1.16/XMCLib/src/xmc_usbd.c ****   if (ep->outBytesAvailable)
1294:/opt/XMClib/XMC_Peripheral_Library_v2.1.16/XMCLib/src/xmc_usbd.c ****   {
1295:/opt/XMClib/XMC_Peripheral_Library_v2.1.16/XMCLib/src/xmc_usbd.c ****     ep->outOffset += length;
1296:/opt/XMClib/XMC_Peripheral_Library_v2.1.16/XMCLib/src/xmc_usbd.c ****   }
1297:/opt/XMClib/XMC_Peripheral_Library_v2.1.16/XMCLib/src/xmc_usbd.c ****   else
1298:/opt/XMClib/XMC_Peripheral_Library_v2.1.16/XMCLib/src/xmc_usbd.c ****   {
1299:/opt/XMClib/XMC_Peripheral_Library_v2.1.16/XMCLib/src/xmc_usbd.c ****     ep->outOffset = 0U;
1300:/opt/XMClib/XMC_Peripheral_Library_v2.1.16/XMCLib/src/xmc_usbd.c ****   }
1301:/opt/XMClib/XMC_Peripheral_Library_v2.1.16/XMCLib/src/xmc_usbd.c ****   return (int32_t)length;
1302:/opt/XMClib/XMC_Peripheral_Library_v2.1.16/XMCLib/src/xmc_usbd.c **** }
1303:/opt/XMClib/XMC_Peripheral_Library_v2.1.16/XMCLib/src/xmc_usbd.c **** 
1304:/opt/XMClib/XMC_Peripheral_Library_v2.1.16/XMCLib/src/xmc_usbd.c **** /**
1305:/opt/XMClib/XMC_Peripheral_Library_v2.1.16/XMCLib/src/xmc_usbd.c ****  * Writes number of bytes in to the USB IN endpoint.
1306:/opt/XMClib/XMC_Peripheral_Library_v2.1.16/XMCLib/src/xmc_usbd.c ****  **/
1307:/opt/XMClib/XMC_Peripheral_Library_v2.1.16/XMCLib/src/xmc_usbd.c **** int32_t XMC_USBD_EndpointWrite(const uint8_t ep_num,const uint8_t * buffer,uint32_t length) 
1308:/opt/XMClib/XMC_Peripheral_Library_v2.1.16/XMCLib/src/xmc_usbd.c **** {
1309:/opt/XMClib/XMC_Peripheral_Library_v2.1.16/XMCLib/src/xmc_usbd.c ****   XMC_USBD_EP_t * ep = &xmc_device.ep[ep_num & (uint8_t)XMC_USBD_EP_NUM_MASK];
1310:/opt/XMClib/XMC_Peripheral_Library_v2.1.16/XMCLib/src/xmc_usbd.c ****   int32_t result;
1311:/opt/XMClib/XMC_Peripheral_Library_v2.1.16/XMCLib/src/xmc_usbd.c ****   if (!ep->isConfigured)
1312:/opt/XMClib/XMC_Peripheral_Library_v2.1.16/XMCLib/src/xmc_usbd.c ****   {
1313:/opt/XMClib/XMC_Peripheral_Library_v2.1.16/XMCLib/src/xmc_usbd.c ****     result = (int32_t)XMC_USBD_STATUS_ERROR;
1314:/opt/XMClib/XMC_Peripheral_Library_v2.1.16/XMCLib/src/xmc_usbd.c ****   }
1315:/opt/XMClib/XMC_Peripheral_Library_v2.1.16/XMCLib/src/xmc_usbd.c ****   else if (ep->inInUse == 1U)
1316:/opt/XMClib/XMC_Peripheral_Library_v2.1.16/XMCLib/src/xmc_usbd.c ****   {
1317:/opt/XMClib/XMC_Peripheral_Library_v2.1.16/XMCLib/src/xmc_usbd.c ****     result=(int32_t)0;
1318:/opt/XMClib/XMC_Peripheral_Library_v2.1.16/XMCLib/src/xmc_usbd.c ****   }
1319:/opt/XMClib/XMC_Peripheral_Library_v2.1.16/XMCLib/src/xmc_usbd.c ****   else
1320:/opt/XMClib/XMC_Peripheral_Library_v2.1.16/XMCLib/src/xmc_usbd.c ****   {
1321:/opt/XMClib/XMC_Peripheral_Library_v2.1.16/XMCLib/src/xmc_usbd.c ****     if (length > ep->inBufferSize)
1322:/opt/XMClib/XMC_Peripheral_Library_v2.1.16/XMCLib/src/xmc_usbd.c ****     {
1323:/opt/XMClib/XMC_Peripheral_Library_v2.1.16/XMCLib/src/xmc_usbd.c ****       length = ep->inBufferSize;
1324:/opt/XMClib/XMC_Peripheral_Library_v2.1.16/XMCLib/src/xmc_usbd.c ****     }
1325:/opt/XMClib/XMC_Peripheral_Library_v2.1.16/XMCLib/src/xmc_usbd.c ****     /* copy data into input buffer for DMA and FIFO mode */
1326:/opt/XMClib/XMC_Peripheral_Library_v2.1.16/XMCLib/src/xmc_usbd.c **** 		memcpy(ep->inBuffer,(const void *)buffer,length);
1327:/opt/XMClib/XMC_Peripheral_Library_v2.1.16/XMCLib/src/xmc_usbd.c **** 		ep->xferBuffer = ep->inBuffer;
1328:/opt/XMClib/XMC_Peripheral_Library_v2.1.16/XMCLib/src/xmc_usbd.c ****     ep->xferTotal = length;
1329:/opt/XMClib/XMC_Peripheral_Library_v2.1.16/XMCLib/src/xmc_usbd.c ****     /* set transfer values */
1330:/opt/XMClib/XMC_Peripheral_Library_v2.1.16/XMCLib/src/xmc_usbd.c ****     ep->xferLength = 0U;
1331:/opt/XMClib/XMC_Peripheral_Library_v2.1.16/XMCLib/src/xmc_usbd.c ****     ep->xferCount = 0U;
1332:/opt/XMClib/XMC_Peripheral_Library_v2.1.16/XMCLib/src/xmc_usbd.c ****     ep->inInUse = 1U;
1333:/opt/XMClib/XMC_Peripheral_Library_v2.1.16/XMCLib/src/xmc_usbd.c ****     /* start the transfer */
1334:/opt/XMClib/XMC_Peripheral_Library_v2.1.16/XMCLib/src/xmc_usbd.c ****     XMC_USBD_lStartWriteXfer(ep);
1335:/opt/XMClib/XMC_Peripheral_Library_v2.1.16/XMCLib/src/xmc_usbd.c ****     result=(int32_t)ep->xferTotal;
1336:/opt/XMClib/XMC_Peripheral_Library_v2.1.16/XMCLib/src/xmc_usbd.c ****   }
1337:/opt/XMClib/XMC_Peripheral_Library_v2.1.16/XMCLib/src/xmc_usbd.c ****   return result;
1338:/opt/XMClib/XMC_Peripheral_Library_v2.1.16/XMCLib/src/xmc_usbd.c **** }
1339:/opt/XMClib/XMC_Peripheral_Library_v2.1.16/XMCLib/src/xmc_usbd.c **** 
1340:/opt/XMClib/XMC_Peripheral_Library_v2.1.16/XMCLib/src/xmc_usbd.c **** /**
1341:/opt/XMClib/XMC_Peripheral_Library_v2.1.16/XMCLib/src/xmc_usbd.c ****  * Sets the USB device address.
1342:/opt/XMClib/XMC_Peripheral_Library_v2.1.16/XMCLib/src/xmc_usbd.c ****  **/
1343:/opt/XMClib/XMC_Peripheral_Library_v2.1.16/XMCLib/src/xmc_usbd.c **** XMC_USBD_STATUS_t XMC_USBD_DeviceSetAddress(const uint8_t address,const XMC_USBD_SET_ADDRESS_STAGE_
1344:/opt/XMClib/XMC_Peripheral_Library_v2.1.16/XMCLib/src/xmc_usbd.c **** {
 734              		.loc 1 1344 1 is_stmt 1 view -0
 735              		.cfi_startproc
 736              		@ args = 0, pretend = 0, frame = 0
 737              		@ frame_needed = 0, uses_anonymous_args = 0
 738              		@ link register save eliminated.
1345:/opt/XMClib/XMC_Peripheral_Library_v2.1.16/XMCLib/src/xmc_usbd.c ****   dcfg_data_t data;
 739              		.loc 1 1345 3 view .LVU268
1346:/opt/XMClib/XMC_Peripheral_Library_v2.1.16/XMCLib/src/xmc_usbd.c ****   data.d32 = xmc_device.device_register->dcfg;
 740              		.loc 1 1346 3 view .LVU269
 741              		.loc 1 1346 24 is_stmt 0 view .LVU270
 742 0000 044B     		ldr	r3, .L64
 743 0002 D3F8A431 		ldr	r3, [r3, #420]
 744              		.loc 1 1346 40 view .LVU271
 745 0006 1A68     		ldr	r2, [r3]
 746              	.LVL36:
1347:/opt/XMClib/XMC_Peripheral_Library_v2.1.16/XMCLib/src/xmc_usbd.c ****   if (stage == XMC_USBD_SET_ADDRESS_STAGE_SETUP)
 747              		.loc 1 1347 3 is_stmt 1 view .LVU272
 748              		.loc 1 1347 6 is_stmt 0 view .LVU273
 749 0008 11B9     		cbnz	r1, .L63
1348:/opt/XMClib/XMC_Peripheral_Library_v2.1.16/XMCLib/src/xmc_usbd.c ****   {
1349:/opt/XMClib/XMC_Peripheral_Library_v2.1.16/XMCLib/src/xmc_usbd.c ****     data.b.devaddr = address;
 750              		.loc 1 1349 5 is_stmt 1 view .LVU274
 751              		.loc 1 1349 20 is_stmt 0 view .LVU275
 752 000a 60F30A12 		bfi	r2, r0, #4, #7
1350:/opt/XMClib/XMC_Peripheral_Library_v2.1.16/XMCLib/src/xmc_usbd.c ****     xmc_device.device_register->dcfg = data.d32;
 753              		.loc 1 1350 5 is_stmt 1 view .LVU276
 754              		.loc 1 1350 38 is_stmt 0 view .LVU277
 755 000e 1A60     		str	r2, [r3]
 756              	.L63:
1351:/opt/XMClib/XMC_Peripheral_Library_v2.1.16/XMCLib/src/xmc_usbd.c ****   }
1352:/opt/XMClib/XMC_Peripheral_Library_v2.1.16/XMCLib/src/xmc_usbd.c **** 	return XMC_USBD_STATUS_OK;
 757              		.loc 1 1352 2 is_stmt 1 view .LVU278
1353:/opt/XMClib/XMC_Peripheral_Library_v2.1.16/XMCLib/src/xmc_usbd.c **** }
 758              		.loc 1 1353 1 is_stmt 0 view .LVU279
 759 0010 0020     		movs	r0, #0
 760              	.LVL37:
 761              		.loc 1 1353 1 view .LVU280
 762 0012 7047     		bx	lr
 763              	.L65:
 764              		.align	2
 765              	.L64:
 766 0014 00000000 		.word	.LANCHOR0
 767              		.cfi_endproc
 768              	.LFE195:
 770              		.section	.text.XMC_USBD_EndpointStall,"ax",%progbits
 771              		.align	1
 772              		.p2align 2,,3
 773              		.global	XMC_USBD_EndpointStall
 774              		.syntax unified
 775              		.thumb
 776              		.thumb_func
 778              	XMC_USBD_EndpointStall:
 779              	.LVL38:
 780              	.LFB196:
1354:/opt/XMClib/XMC_Peripheral_Library_v2.1.16/XMCLib/src/xmc_usbd.c **** 
1355:/opt/XMClib/XMC_Peripheral_Library_v2.1.16/XMCLib/src/xmc_usbd.c **** /**
1356:/opt/XMClib/XMC_Peripheral_Library_v2.1.16/XMCLib/src/xmc_usbd.c ****  * Set/clear stall on the selected endpoint.
1357:/opt/XMClib/XMC_Peripheral_Library_v2.1.16/XMCLib/src/xmc_usbd.c ****  **/
1358:/opt/XMClib/XMC_Peripheral_Library_v2.1.16/XMCLib/src/xmc_usbd.c **** XMC_USBD_STATUS_t XMC_USBD_EndpointStall(const uint8_t ep_addr, const bool stall) 
1359:/opt/XMClib/XMC_Peripheral_Library_v2.1.16/XMCLib/src/xmc_usbd.c **** {
 781              		.loc 1 1359 1 is_stmt 1 view -0
 782              		.cfi_startproc
 783              		@ args = 0, pretend = 0, frame = 0
 784              		@ frame_needed = 0, uses_anonymous_args = 0
 785              		@ link register save eliminated.
1360:/opt/XMClib/XMC_Peripheral_Library_v2.1.16/XMCLib/src/xmc_usbd.c ****   depctl_data_t data;
 786              		.loc 1 1360 3 view .LVU282
1361:/opt/XMClib/XMC_Peripheral_Library_v2.1.16/XMCLib/src/xmc_usbd.c ****   XMC_USBD_EP_t *ep = &xmc_device.ep[(ep_addr & (uint8_t)XMC_USBD_EP_NUM_MASK)];
 787              		.loc 1 1361 3 view .LVU283
 788              		.loc 1 1361 47 is_stmt 0 view .LVU284
 789 0000 00F00F0C 		and	ip, r0, #15
 790              	.LVL39:
1362:/opt/XMClib/XMC_Peripheral_Library_v2.1.16/XMCLib/src/xmc_usbd.c ****   if (stall)
 791              		.loc 1 1362 3 is_stmt 1 view .LVU285
1363:/opt/XMClib/XMC_Peripheral_Library_v2.1.16/XMCLib/src/xmc_usbd.c ****   {
1364:/opt/XMClib/XMC_Peripheral_Library_v2.1.16/XMCLib/src/xmc_usbd.c ****     if (ep_addr & (uint8_t)XMC_USBD_ENDPOINT_DIRECTION_MASK)
1365:/opt/XMClib/XMC_Peripheral_Library_v2.1.16/XMCLib/src/xmc_usbd.c ****     {
1366:/opt/XMClib/XMC_Peripheral_Library_v2.1.16/XMCLib/src/xmc_usbd.c ****       /*set stall bit */
1367:/opt/XMClib/XMC_Peripheral_Library_v2.1.16/XMCLib/src/xmc_usbd.c ****       data.d32 = xmc_device.endpoint_in_register[ep->address_u.address_st.number]->diepctl;
 792              		.loc 1 1367 74 is_stmt 0 view .LVU286
 793 0004 3422     		movs	r2, #52
 794              		.loc 1 1367 49 view .LVU287
 795 0006 1C4B     		ldr	r3, .L74
 796              		.loc 1 1367 74 view .LVU288
 797 0008 02FB0CF2 		mul	r2, r2, ip
 798 000c 9A5C     		ldrb	r2, [r3, r2]	@ zero_extendqisi2
 799 000e 02F00F02 		and	r2, r2, #15
1362:/opt/XMClib/XMC_Peripheral_Library_v2.1.16/XMCLib/src/xmc_usbd.c ****   if (stall)
 800              		.loc 1 1362 6 view .LVU289
 801 0012 A9B1     		cbz	r1, .L67
1364:/opt/XMClib/XMC_Peripheral_Library_v2.1.16/XMCLib/src/xmc_usbd.c ****     {
 802              		.loc 1 1364 5 is_stmt 1 view .LVU290
 803              		.loc 1 1367 7 view .LVU291
1368:/opt/XMClib/XMC_Peripheral_Library_v2.1.16/XMCLib/src/xmc_usbd.c ****       data.b.stall = 1U;
1369:/opt/XMClib/XMC_Peripheral_Library_v2.1.16/XMCLib/src/xmc_usbd.c ****       xmc_device.endpoint_in_register[ep->address_u.address_st.number]->diepctl = data.d32;
1370:/opt/XMClib/XMC_Peripheral_Library_v2.1.16/XMCLib/src/xmc_usbd.c ****     }
1371:/opt/XMClib/XMC_Peripheral_Library_v2.1.16/XMCLib/src/xmc_usbd.c ****     else
1372:/opt/XMClib/XMC_Peripheral_Library_v2.1.16/XMCLib/src/xmc_usbd.c ****     {
1373:/opt/XMClib/XMC_Peripheral_Library_v2.1.16/XMCLib/src/xmc_usbd.c ****       /*set stall bit */
1374:/opt/XMClib/XMC_Peripheral_Library_v2.1.16/XMCLib/src/xmc_usbd.c ****       data.d32 = xmc_device.endpoint_out_register[ep->address_u.address_st.number]->doepctl;
 804              		.loc 1 1374 7 view .LVU292
1364:/opt/XMClib/XMC_Peripheral_Library_v2.1.16/XMCLib/src/xmc_usbd.c ****     {
 805              		.loc 1 1364 8 is_stmt 0 view .LVU293
 806 0014 0006     		lsls	r0, r0, #24
 807              	.LVL40:
 808              		.loc 1 1374 50 view .LVU294
 809 0016 55BF     		itete	pl
 810 0018 03EB8202 		addpl	r2, r3, r2, lsl #2
1367:/opt/XMClib/XMC_Peripheral_Library_v2.1.16/XMCLib/src/xmc_usbd.c ****       data.b.stall = 1U;
 811              		.loc 1 1367 49 view .LVU295
 812 001c 6A32     		addmi	r2, r2, #106
 813              		.loc 1 1374 50 view .LVU296
 814 001e D2F8C411 		ldrpl	r1, [r2, #452]
 815              	.LVL41:
1367:/opt/XMClib/XMC_Peripheral_Library_v2.1.16/XMCLib/src/xmc_usbd.c ****       data.b.stall = 1U;
 816              		.loc 1 1367 49 view .LVU297
 817 0022 53F82210 		ldrmi	r1, [r3, r2, lsl #2]
 818              		.loc 1 1374 83 view .LVU298
 819 0026 0A68     		ldr	r2, [r1]
1375:/opt/XMClib/XMC_Peripheral_Library_v2.1.16/XMCLib/src/xmc_usbd.c ****       data.b.stall = 1U;
 820              		.loc 1 1375 7 is_stmt 1 view .LVU299
 821              		.loc 1 1375 20 is_stmt 0 view .LVU300
 822 0028 42F40012 		orr	r2, r2, #2097152
 823              	.LVL42:
1376:/opt/XMClib/XMC_Peripheral_Library_v2.1.16/XMCLib/src/xmc_usbd.c ****       xmc_device.endpoint_out_register[ep->address_u.address_st.number]->doepctl = data.d32;
 824              		.loc 1 1376 7 is_stmt 1 view .LVU301
1377:/opt/XMClib/XMC_Peripheral_Library_v2.1.16/XMCLib/src/xmc_usbd.c ****     }
1378:/opt/XMClib/XMC_Peripheral_Library_v2.1.16/XMCLib/src/xmc_usbd.c ****     ep->isStalled = 1U;
 825              		.loc 1 1378 5 view .LVU302
1376:/opt/XMClib/XMC_Peripheral_Library_v2.1.16/XMCLib/src/xmc_usbd.c ****       xmc_device.endpoint_out_register[ep->address_u.address_st.number]->doepctl = data.d32;
 826              		.loc 1 1376 82 is_stmt 0 view .LVU303
 827 002c 0A60     		str	r2, [r1]
 828              		.loc 1 1378 19 view .LVU304
 829 002e 3422     		movs	r2, #52
 830              	.LVL43:
 831              		.loc 1 1378 19 view .LVU305
 832 0030 02FB0C33 		mla	r3, r2, ip, r3
1379:/opt/XMClib/XMC_Peripheral_Library_v2.1.16/XMCLib/src/xmc_usbd.c ****   }
1380:/opt/XMClib/XMC_Peripheral_Library_v2.1.16/XMCLib/src/xmc_usbd.c ****   else
1381:/opt/XMClib/XMC_Peripheral_Library_v2.1.16/XMCLib/src/xmc_usbd.c ****   {
1382:/opt/XMClib/XMC_Peripheral_Library_v2.1.16/XMCLib/src/xmc_usbd.c ****     /* just clear stall bit */
1383:/opt/XMClib/XMC_Peripheral_Library_v2.1.16/XMCLib/src/xmc_usbd.c **** 		if (ep_addr & (uint8_t)XMC_USBD_ENDPOINT_DIRECTION_MASK)
1384:/opt/XMClib/XMC_Peripheral_Library_v2.1.16/XMCLib/src/xmc_usbd.c **** 		{
1385:/opt/XMClib/XMC_Peripheral_Library_v2.1.16/XMCLib/src/xmc_usbd.c **** 			data.d32 = xmc_device.endpoint_in_register[ep->address_u.address_st.number]->diepctl;
1386:/opt/XMClib/XMC_Peripheral_Library_v2.1.16/XMCLib/src/xmc_usbd.c **** 			data.b.stall = 0U;
1387:/opt/XMClib/XMC_Peripheral_Library_v2.1.16/XMCLib/src/xmc_usbd.c **** 			data.b.setd0pid = 1U; /* reset pid to 0 */
1388:/opt/XMClib/XMC_Peripheral_Library_v2.1.16/XMCLib/src/xmc_usbd.c **** 			xmc_device.endpoint_in_register[ep->address_u.address_st.number]->diepctl = data.d32;
1389:/opt/XMClib/XMC_Peripheral_Library_v2.1.16/XMCLib/src/xmc_usbd.c **** 		}
1390:/opt/XMClib/XMC_Peripheral_Library_v2.1.16/XMCLib/src/xmc_usbd.c **** 		else
1391:/opt/XMClib/XMC_Peripheral_Library_v2.1.16/XMCLib/src/xmc_usbd.c **** 		{
1392:/opt/XMClib/XMC_Peripheral_Library_v2.1.16/XMCLib/src/xmc_usbd.c **** 			data.d32 = xmc_device.endpoint_out_register[ep->address_u.address_st.number]->doepctl;
1393:/opt/XMClib/XMC_Peripheral_Library_v2.1.16/XMCLib/src/xmc_usbd.c **** 			data.b.stall = 0U;
1394:/opt/XMClib/XMC_Peripheral_Library_v2.1.16/XMCLib/src/xmc_usbd.c **** 			data.b.setd0pid = 1U; /* reset pid to 0 */
1395:/opt/XMClib/XMC_Peripheral_Library_v2.1.16/XMCLib/src/xmc_usbd.c **** 			xmc_device.endpoint_out_register[ep->address_u.address_st.number]->doepctl = data.d32;
1396:/opt/XMClib/XMC_Peripheral_Library_v2.1.16/XMCLib/src/xmc_usbd.c **** 		}
1397:/opt/XMClib/XMC_Peripheral_Library_v2.1.16/XMCLib/src/xmc_usbd.c **** 		ep->isStalled = 0U;
1398:/opt/XMClib/XMC_Peripheral_Library_v2.1.16/XMCLib/src/xmc_usbd.c **** 	}
1399:/opt/XMClib/XMC_Peripheral_Library_v2.1.16/XMCLib/src/xmc_usbd.c **** 	return XMC_USBD_STATUS_OK;
1400:/opt/XMClib/XMC_Peripheral_Library_v2.1.16/XMCLib/src/xmc_usbd.c **** }
 833              		.loc 1 1400 1 view .LVU306
 834 0034 0020     		movs	r0, #0
1378:/opt/XMClib/XMC_Peripheral_Library_v2.1.16/XMCLib/src/xmc_usbd.c ****   }
 835              		.loc 1 1378 19 view .LVU307
 836 0036 1A79     		ldrb	r2, [r3, #4]	@ zero_extendqisi2
 837 0038 42F02002 		orr	r2, r2, #32
 838 003c 1A71     		strb	r2, [r3, #4]
1399:/opt/XMClib/XMC_Peripheral_Library_v2.1.16/XMCLib/src/xmc_usbd.c **** }
 839              		.loc 1 1399 2 is_stmt 1 view .LVU308
 840              		.loc 1 1400 1 is_stmt 0 view .LVU309
 841 003e 7047     		bx	lr
 842              	.LVL44:
 843              	.L67:
1383:/opt/XMClib/XMC_Peripheral_Library_v2.1.16/XMCLib/src/xmc_usbd.c **** 		{
 844              		.loc 1 1383 3 is_stmt 1 view .LVU310
1385:/opt/XMClib/XMC_Peripheral_Library_v2.1.16/XMCLib/src/xmc_usbd.c **** 			data.b.stall = 0U;
 845              		.loc 1 1385 4 view .LVU311
1392:/opt/XMClib/XMC_Peripheral_Library_v2.1.16/XMCLib/src/xmc_usbd.c **** 			data.b.stall = 0U;
 846              		.loc 1 1392 4 view .LVU312
1383:/opt/XMClib/XMC_Peripheral_Library_v2.1.16/XMCLib/src/xmc_usbd.c **** 		{
 847              		.loc 1 1383 6 is_stmt 0 view .LVU313
 848 0040 0106     		lsls	r1, r0, #24
 849              	.LVL45:
1392:/opt/XMClib/XMC_Peripheral_Library_v2.1.16/XMCLib/src/xmc_usbd.c **** 			data.b.stall = 0U;
 850              		.loc 1 1392 47 view .LVU314
 851 0042 55BF     		itete	pl
 852 0044 03EB8202 		addpl	r2, r3, r2, lsl #2
1385:/opt/XMClib/XMC_Peripheral_Library_v2.1.16/XMCLib/src/xmc_usbd.c **** 			data.b.stall = 0U;
 853              		.loc 1 1385 46 view .LVU315
 854 0048 6A32     		addmi	r2, r2, #106
1392:/opt/XMClib/XMC_Peripheral_Library_v2.1.16/XMCLib/src/xmc_usbd.c **** 			data.b.stall = 0U;
 855              		.loc 1 1392 47 view .LVU316
 856 004a D2F8C401 		ldrpl	r0, [r2, #452]
 857              	.LVL46:
1385:/opt/XMClib/XMC_Peripheral_Library_v2.1.16/XMCLib/src/xmc_usbd.c **** 			data.b.stall = 0U;
 858              		.loc 1 1385 46 view .LVU317
 859 004e 53F82200 		ldrmi	r0, [r3, r2, lsl #2]
1392:/opt/XMClib/XMC_Peripheral_Library_v2.1.16/XMCLib/src/xmc_usbd.c **** 			data.b.stall = 0U;
 860              		.loc 1 1392 80 view .LVU318
 861 0052 0268     		ldr	r2, [r0]
1393:/opt/XMClib/XMC_Peripheral_Library_v2.1.16/XMCLib/src/xmc_usbd.c **** 			data.b.setd0pid = 1U; /* reset pid to 0 */
 862              		.loc 1 1393 4 is_stmt 1 view .LVU319
1394:/opt/XMClib/XMC_Peripheral_Library_v2.1.16/XMCLib/src/xmc_usbd.c **** 			xmc_device.endpoint_out_register[ep->address_u.address_st.number]->doepctl = data.d32;
 863              		.loc 1 1394 4 view .LVU320
 864              	.LVL47:
1393:/opt/XMClib/XMC_Peripheral_Library_v2.1.16/XMCLib/src/xmc_usbd.c **** 			data.b.setd0pid = 1U; /* reset pid to 0 */
 865              		.loc 1 1393 17 is_stmt 0 view .LVU321
 866 0054 C2F30F41 		ubfx	r1, r2, #16, #16
 867 0058 21F48151 		bic	r1, r1, #4128
 868 005c 41F48051 		orr	r1, r1, #4096
 869 0060 61F31F42 		bfi	r2, r1, #16, #16
1395:/opt/XMClib/XMC_Peripheral_Library_v2.1.16/XMCLib/src/xmc_usbd.c **** 		}
 870              		.loc 1 1395 4 is_stmt 1 view .LVU322
1397:/opt/XMClib/XMC_Peripheral_Library_v2.1.16/XMCLib/src/xmc_usbd.c **** 	}
 871              		.loc 1 1397 3 view .LVU323
1395:/opt/XMClib/XMC_Peripheral_Library_v2.1.16/XMCLib/src/xmc_usbd.c **** 		}
 872              		.loc 1 1395 79 is_stmt 0 view .LVU324
 873 0064 0260     		str	r2, [r0]
1397:/opt/XMClib/XMC_Peripheral_Library_v2.1.16/XMCLib/src/xmc_usbd.c **** 	}
 874              		.loc 1 1397 17 view .LVU325
 875 0066 3422     		movs	r2, #52
 876              	.LVL48:
1397:/opt/XMClib/XMC_Peripheral_Library_v2.1.16/XMCLib/src/xmc_usbd.c **** 	}
 877              		.loc 1 1397 17 view .LVU326
 878 0068 02FB0C33 		mla	r3, r2, ip, r3
 879              		.loc 1 1400 1 view .LVU327
 880 006c 0020     		movs	r0, #0
1397:/opt/XMClib/XMC_Peripheral_Library_v2.1.16/XMCLib/src/xmc_usbd.c **** 	}
 881              		.loc 1 1397 17 view .LVU328
 882 006e 1A79     		ldrb	r2, [r3, #4]	@ zero_extendqisi2
 883 0070 6FF34512 		bfc	r2, #5, #1
 884 0074 1A71     		strb	r2, [r3, #4]
1399:/opt/XMClib/XMC_Peripheral_Library_v2.1.16/XMCLib/src/xmc_usbd.c **** }
 885              		.loc 1 1399 2 is_stmt 1 view .LVU329
 886              		.loc 1 1400 1 is_stmt 0 view .LVU330
 887 0076 7047     		bx	lr
 888              	.L75:
 889              		.align	2
 890              	.L74:
 891 0078 00000000 		.word	.LANCHOR0
 892              		.cfi_endproc
 893              	.LFE196:
 895              		.section	.text.XMC_USBD_EndpointAbort,"ax",%progbits
 896              		.align	1
 897              		.p2align 2,,3
 898              		.global	XMC_USBD_EndpointAbort
 899              		.syntax unified
 900              		.thumb
 901              		.thumb_func
 903              	XMC_USBD_EndpointAbort:
 904              	.LVL49:
 905              	.LFB197:
1401:/opt/XMClib/XMC_Peripheral_Library_v2.1.16/XMCLib/src/xmc_usbd.c **** 
1402:/opt/XMClib/XMC_Peripheral_Library_v2.1.16/XMCLib/src/xmc_usbd.c **** /**
1403:/opt/XMClib/XMC_Peripheral_Library_v2.1.16/XMCLib/src/xmc_usbd.c ****  * Aborts the data transfer on the selected endpoint
1404:/opt/XMClib/XMC_Peripheral_Library_v2.1.16/XMCLib/src/xmc_usbd.c ****  **/
1405:/opt/XMClib/XMC_Peripheral_Library_v2.1.16/XMCLib/src/xmc_usbd.c **** XMC_USBD_STATUS_t XMC_USBD_EndpointAbort(const uint8_t ep_addr) {
 906              		.loc 1 1405 65 is_stmt 1 view -0
 907              		.cfi_startproc
 908              		@ args = 0, pretend = 0, frame = 0
 909              		@ frame_needed = 0, uses_anonymous_args = 0
 910              		@ link register save eliminated.
1406:/opt/XMClib/XMC_Peripheral_Library_v2.1.16/XMCLib/src/xmc_usbd.c ****   XMC_USBD_EP_t *ep = &xmc_device.ep[ep_addr & (uint8_t)XMC_USBD_ENDPOINT_NUMBER_MASK];
 911              		.loc 1 1406 3 view .LVU332
 912              		.loc 1 1406 46 is_stmt 0 view .LVU333
 913 0000 00F00F00 		and	r0, r0, #15
 914              	.LVL50:
1407:/opt/XMClib/XMC_Peripheral_Library_v2.1.16/XMCLib/src/xmc_usbd.c ****   if (ep->address_u.address_st.direction)
 915              		.loc 1 1407 3 is_stmt 1 view .LVU334
 916              		.loc 1 1407 7 is_stmt 0 view .LVU335
 917 0004 3422     		movs	r2, #52
 918 0006 0D4B     		ldr	r3, .L80
 919 0008 00FB02F2 		mul	r2, r0, r2
 920 000c 9918     		adds	r1, r3, r2
 921              		.loc 1 1407 6 view .LVU336
 922 000e 9A56     		ldrsb	r2, [r3, r2]
 923 0010 002A     		cmp	r2, #0
1408:/opt/XMClib/XMC_Peripheral_Library_v2.1.16/XMCLib/src/xmc_usbd.c ****   {
1409:/opt/XMClib/XMC_Peripheral_Library_v2.1.16/XMCLib/src/xmc_usbd.c ****     ep->inInUse = 0U;
 924              		.loc 1 1409 17 view .LVU337
 925 0012 4A68     		ldr	r2, [r1, #4]
 926              		.loc 1 1409 5 is_stmt 1 view .LVU338
 927              		.loc 1 1409 17 is_stmt 0 view .LVU339
 928 0014 B4BF     		ite	lt
 929 0016 6FF3C302 		bfclt	r2, #3, #1
1410:/opt/XMClib/XMC_Peripheral_Library_v2.1.16/XMCLib/src/xmc_usbd.c ****   }
1411:/opt/XMClib/XMC_Peripheral_Library_v2.1.16/XMCLib/src/xmc_usbd.c ****   if (!ep->address_u.address_st.direction)
 930              		.loc 1 1411 3 is_stmt 1 view .LVU340
1412:/opt/XMClib/XMC_Peripheral_Library_v2.1.16/XMCLib/src/xmc_usbd.c ****   {
1413:/opt/XMClib/XMC_Peripheral_Library_v2.1.16/XMCLib/src/xmc_usbd.c ****     ep->outInUse = 0U;
 931              		.loc 1 1413 5 view .LVU341
1414:/opt/XMClib/XMC_Peripheral_Library_v2.1.16/XMCLib/src/xmc_usbd.c ****   }
1415:/opt/XMClib/XMC_Peripheral_Library_v2.1.16/XMCLib/src/xmc_usbd.c ****   ep->isStalled = 0U;
 932              		.loc 1 1415 3 view .LVU342
1413:/opt/XMClib/XMC_Peripheral_Library_v2.1.16/XMCLib/src/xmc_usbd.c ****   }
 933              		.loc 1 1413 18 is_stmt 0 view .LVU343
 934 001a 6FF30412 		bfcge	r2, #4, #1
 935 001e 4A60     		str	r2, [r1, #4]
 936              		.loc 1 1415 17 view .LVU344
 937 0020 3422     		movs	r2, #52
 938 0022 02FB0033 		mla	r3, r2, r0, r3
1416:/opt/XMClib/XMC_Peripheral_Library_v2.1.16/XMCLib/src/xmc_usbd.c ****   ep->outBytesAvailable = 0U;
 939              		.loc 1 1416 25 view .LVU345
 940 0026 0020     		movs	r0, #0
 941              	.LVL51:
1415:/opt/XMClib/XMC_Peripheral_Library_v2.1.16/XMCLib/src/xmc_usbd.c ****   ep->outBytesAvailable = 0U;
 942              		.loc 1 1415 17 view .LVU346
 943 0028 1A79     		ldrb	r2, [r3, #4]	@ zero_extendqisi2
 944              		.loc 1 1416 25 view .LVU347
 945 002a 1861     		str	r0, [r3, #16]
1415:/opt/XMClib/XMC_Peripheral_Library_v2.1.16/XMCLib/src/xmc_usbd.c ****   ep->outBytesAvailable = 0U;
 946              		.loc 1 1415 17 view .LVU348
 947 002c 6FF34512 		bfc	r2, #5, #1
1417:/opt/XMClib/XMC_Peripheral_Library_v2.1.16/XMCLib/src/xmc_usbd.c ****   ep->outOffset = 0U;
1418:/opt/XMClib/XMC_Peripheral_Library_v2.1.16/XMCLib/src/xmc_usbd.c ****   ep->xferLength = 0U;
1419:/opt/XMClib/XMC_Peripheral_Library_v2.1.16/XMCLib/src/xmc_usbd.c ****   ep->xferCount = 0U;
 948              		.loc 1 1419 17 view .LVU349
 949 0030 C3E90A00 		strd	r0, r0, [r3, #40]
1415:/opt/XMClib/XMC_Peripheral_Library_v2.1.16/XMCLib/src/xmc_usbd.c ****   ep->outBytesAvailable = 0U;
 950              		.loc 1 1415 17 view .LVU350
 951 0034 1A71     		strb	r2, [r3, #4]
1416:/opt/XMClib/XMC_Peripheral_Library_v2.1.16/XMCLib/src/xmc_usbd.c ****   ep->outOffset = 0U;
 952              		.loc 1 1416 3 is_stmt 1 view .LVU351
1417:/opt/XMClib/XMC_Peripheral_Library_v2.1.16/XMCLib/src/xmc_usbd.c ****   ep->outOffset = 0U;
 953              		.loc 1 1417 3 view .LVU352
1417:/opt/XMClib/XMC_Peripheral_Library_v2.1.16/XMCLib/src/xmc_usbd.c ****   ep->outOffset = 0U;
 954              		.loc 1 1417 17 is_stmt 0 view .LVU353
 955 0036 9861     		str	r0, [r3, #24]
1418:/opt/XMClib/XMC_Peripheral_Library_v2.1.16/XMCLib/src/xmc_usbd.c ****   ep->xferCount = 0U;
 956              		.loc 1 1418 3 is_stmt 1 view .LVU354
1420:/opt/XMClib/XMC_Peripheral_Library_v2.1.16/XMCLib/src/xmc_usbd.c ****   ep->xferTotal = 0U;
 957              		.loc 1 1420 3 view .LVU355
 958              		.loc 1 1420 17 is_stmt 0 view .LVU356
 959 0038 1863     		str	r0, [r3, #48]
1421:/opt/XMClib/XMC_Peripheral_Library_v2.1.16/XMCLib/src/xmc_usbd.c **** 
1422:/opt/XMClib/XMC_Peripheral_Library_v2.1.16/XMCLib/src/xmc_usbd.c ****   return XMC_USBD_STATUS_OK;
 960              		.loc 1 1422 3 is_stmt 1 view .LVU357
1423:/opt/XMClib/XMC_Peripheral_Library_v2.1.16/XMCLib/src/xmc_usbd.c **** }
 961              		.loc 1 1423 1 is_stmt 0 view .LVU358
 962 003a 7047     		bx	lr
 963              	.L81:
 964              		.align	2
 965              	.L80:
 966 003c 00000000 		.word	.LANCHOR0
 967              		.cfi_endproc
 968              	.LFE197:
 970              		.section	.text.XMC_USBD_EndpointUnconfigure,"ax",%progbits
 971              		.align	1
 972              		.p2align 2,,3
 973              		.global	XMC_USBD_EndpointUnconfigure
 974              		.syntax unified
 975              		.thumb
 976              		.thumb_func
 978              	XMC_USBD_EndpointUnconfigure:
 979              	.LVL52:
 980              	.LFB199:
1424:/opt/XMClib/XMC_Peripheral_Library_v2.1.16/XMCLib/src/xmc_usbd.c **** 
1425:/opt/XMClib/XMC_Peripheral_Library_v2.1.16/XMCLib/src/xmc_usbd.c **** /**
1426:/opt/XMClib/XMC_Peripheral_Library_v2.1.16/XMCLib/src/xmc_usbd.c ****  * Configures the given endpoint
1427:/opt/XMClib/XMC_Peripheral_Library_v2.1.16/XMCLib/src/xmc_usbd.c ****  **/
1428:/opt/XMClib/XMC_Peripheral_Library_v2.1.16/XMCLib/src/xmc_usbd.c **** XMC_USBD_STATUS_t XMC_USBD_EndpointConfigure(const uint8_t ep_addr,
1429:/opt/XMClib/XMC_Peripheral_Library_v2.1.16/XMCLib/src/xmc_usbd.c **** 		                                     const XMC_USBD_ENDPOINT_TYPE_t ep_type,
1430:/opt/XMClib/XMC_Peripheral_Library_v2.1.16/XMCLib/src/xmc_usbd.c **** 		                                     const uint16_t ep_max_packet_size) 
1431:/opt/XMClib/XMC_Peripheral_Library_v2.1.16/XMCLib/src/xmc_usbd.c **** {
1432:/opt/XMClib/XMC_Peripheral_Library_v2.1.16/XMCLib/src/xmc_usbd.c ****   daint_data_t daintmsk;
1433:/opt/XMClib/XMC_Peripheral_Library_v2.1.16/XMCLib/src/xmc_usbd.c ****   XMC_USBD_EP_t *ep;
1434:/opt/XMClib/XMC_Peripheral_Library_v2.1.16/XMCLib/src/xmc_usbd.c ****   daintmsk.d32 = xmc_device.device_register->daintmsk;  
1435:/opt/XMClib/XMC_Peripheral_Library_v2.1.16/XMCLib/src/xmc_usbd.c ****   ep =&xmc_device.ep[ep_addr & (uint32_t)XMC_USBD_ENDPOINT_NUMBER_MASK];
1436:/opt/XMClib/XMC_Peripheral_Library_v2.1.16/XMCLib/src/xmc_usbd.c ****   memset((void*)ep,0x0U,sizeof(XMC_USBD_EP_t)); /* clear endpoint structure */
1437:/opt/XMClib/XMC_Peripheral_Library_v2.1.16/XMCLib/src/xmc_usbd.c ****   /* do ep configuration */
1438:/opt/XMClib/XMC_Peripheral_Library_v2.1.16/XMCLib/src/xmc_usbd.c ****   ep->address_u.address = ep_addr;
1439:/opt/XMClib/XMC_Peripheral_Library_v2.1.16/XMCLib/src/xmc_usbd.c ****   ep->isConfigured = 1U;
1440:/opt/XMClib/XMC_Peripheral_Library_v2.1.16/XMCLib/src/xmc_usbd.c ****   ep->maxPacketSize = (uint8_t)ep_max_packet_size;
1441:/opt/XMClib/XMC_Peripheral_Library_v2.1.16/XMCLib/src/xmc_usbd.c ****   if (ep->address_u.address != 0U)
1442:/opt/XMClib/XMC_Peripheral_Library_v2.1.16/XMCLib/src/xmc_usbd.c ****   {
1443:/opt/XMClib/XMC_Peripheral_Library_v2.1.16/XMCLib/src/xmc_usbd.c ****     ep->maxTransferSize = (uint32_t)XMC_USBD_MAX_TRANSFER_SIZE;
1444:/opt/XMClib/XMC_Peripheral_Library_v2.1.16/XMCLib/src/xmc_usbd.c ****   }
1445:/opt/XMClib/XMC_Peripheral_Library_v2.1.16/XMCLib/src/xmc_usbd.c ****   else
1446:/opt/XMClib/XMC_Peripheral_Library_v2.1.16/XMCLib/src/xmc_usbd.c ****   {
1447:/opt/XMClib/XMC_Peripheral_Library_v2.1.16/XMCLib/src/xmc_usbd.c ****     ep->maxTransferSize = (uint32_t)XMC_USBD_MAX_TRANSFER_SIZE_EP0;
1448:/opt/XMClib/XMC_Peripheral_Library_v2.1.16/XMCLib/src/xmc_usbd.c ****   }
1449:/opt/XMClib/XMC_Peripheral_Library_v2.1.16/XMCLib/src/xmc_usbd.c ****   /* transfer buffer */
1450:/opt/XMClib/XMC_Peripheral_Library_v2.1.16/XMCLib/src/xmc_usbd.c ****   ep->inBuffer = XMC_USBD_EP_IN_BUFFER[ep->address_u.address_st.number];
1451:/opt/XMClib/XMC_Peripheral_Library_v2.1.16/XMCLib/src/xmc_usbd.c ****   ep->outBuffer = XMC_USBD_EP_OUT_BUFFER[ep->address_u.address_st.number];
1452:/opt/XMClib/XMC_Peripheral_Library_v2.1.16/XMCLib/src/xmc_usbd.c ****   /* buffer size*/
1453:/opt/XMClib/XMC_Peripheral_Library_v2.1.16/XMCLib/src/xmc_usbd.c ****   ep->inBufferSize = XMC_USBD_EP_IN_BUFFERSIZE[ep->address_u.address_st.number];
1454:/opt/XMClib/XMC_Peripheral_Library_v2.1.16/XMCLib/src/xmc_usbd.c ****   ep->outBufferSize = XMC_USBD_EP_OUT_BUFFERSIZE[ep->address_u.address_st.number];
1455:/opt/XMClib/XMC_Peripheral_Library_v2.1.16/XMCLib/src/xmc_usbd.c ****   /* is in */
1456:/opt/XMClib/XMC_Peripheral_Library_v2.1.16/XMCLib/src/xmc_usbd.c ****   if ((ep->address_u.address_st.direction == 1U) || (ep_type == XMC_USBD_ENDPOINT_TYPE_CONTROL))
1457:/opt/XMClib/XMC_Peripheral_Library_v2.1.16/XMCLib/src/xmc_usbd.c ****   {
1458:/opt/XMClib/XMC_Peripheral_Library_v2.1.16/XMCLib/src/xmc_usbd.c ****     depctl_data_t data;
1459:/opt/XMClib/XMC_Peripheral_Library_v2.1.16/XMCLib/src/xmc_usbd.c ****     data.d32 = xmc_device.endpoint_in_register[ep->address_u.address_st.number]->diepctl;
1460:/opt/XMClib/XMC_Peripheral_Library_v2.1.16/XMCLib/src/xmc_usbd.c **** 		/*enable endpoint */
1461:/opt/XMClib/XMC_Peripheral_Library_v2.1.16/XMCLib/src/xmc_usbd.c **** 		data.b.usbactep = 1U;
1462:/opt/XMClib/XMC_Peripheral_Library_v2.1.16/XMCLib/src/xmc_usbd.c **** 		/* set ep type */
1463:/opt/XMClib/XMC_Peripheral_Library_v2.1.16/XMCLib/src/xmc_usbd.c **** 		data.b.eptype = (uint8_t)ep_type;
1464:/opt/XMClib/XMC_Peripheral_Library_v2.1.16/XMCLib/src/xmc_usbd.c **** 		/* set mps */
1465:/opt/XMClib/XMC_Peripheral_Library_v2.1.16/XMCLib/src/xmc_usbd.c ****     if (ep_type == XMC_USBD_ENDPOINT_TYPE_CONTROL)
1466:/opt/XMClib/XMC_Peripheral_Library_v2.1.16/XMCLib/src/xmc_usbd.c ****     {
1467:/opt/XMClib/XMC_Peripheral_Library_v2.1.16/XMCLib/src/xmc_usbd.c **** 			switch(ep_max_packet_size)
1468:/opt/XMClib/XMC_Peripheral_Library_v2.1.16/XMCLib/src/xmc_usbd.c **** 			{
1469:/opt/XMClib/XMC_Peripheral_Library_v2.1.16/XMCLib/src/xmc_usbd.c **** 				case (64U):
1470:/opt/XMClib/XMC_Peripheral_Library_v2.1.16/XMCLib/src/xmc_usbd.c **** 				data.b.mps = 0x0U;
1471:/opt/XMClib/XMC_Peripheral_Library_v2.1.16/XMCLib/src/xmc_usbd.c **** 				break;
1472:/opt/XMClib/XMC_Peripheral_Library_v2.1.16/XMCLib/src/xmc_usbd.c **** 				case (32U):
1473:/opt/XMClib/XMC_Peripheral_Library_v2.1.16/XMCLib/src/xmc_usbd.c **** 				data.b.mps = 0x1U;
1474:/opt/XMClib/XMC_Peripheral_Library_v2.1.16/XMCLib/src/xmc_usbd.c **** 				break;
1475:/opt/XMClib/XMC_Peripheral_Library_v2.1.16/XMCLib/src/xmc_usbd.c **** 				case (16U):
1476:/opt/XMClib/XMC_Peripheral_Library_v2.1.16/XMCLib/src/xmc_usbd.c **** 				data.b.mps = 0x2U;
1477:/opt/XMClib/XMC_Peripheral_Library_v2.1.16/XMCLib/src/xmc_usbd.c **** 				break;
1478:/opt/XMClib/XMC_Peripheral_Library_v2.1.16/XMCLib/src/xmc_usbd.c **** 				case (8U):
1479:/opt/XMClib/XMC_Peripheral_Library_v2.1.16/XMCLib/src/xmc_usbd.c **** 				data.b.mps = 0x3U;
1480:/opt/XMClib/XMC_Peripheral_Library_v2.1.16/XMCLib/src/xmc_usbd.c **** 				break;
1481:/opt/XMClib/XMC_Peripheral_Library_v2.1.16/XMCLib/src/xmc_usbd.c **** 				default:
1482:/opt/XMClib/XMC_Peripheral_Library_v2.1.16/XMCLib/src/xmc_usbd.c **** 				break;
1483:/opt/XMClib/XMC_Peripheral_Library_v2.1.16/XMCLib/src/xmc_usbd.c **** 			}
1484:/opt/XMClib/XMC_Peripheral_Library_v2.1.16/XMCLib/src/xmc_usbd.c **** 		}
1485:/opt/XMClib/XMC_Peripheral_Library_v2.1.16/XMCLib/src/xmc_usbd.c **** 		else
1486:/opt/XMClib/XMC_Peripheral_Library_v2.1.16/XMCLib/src/xmc_usbd.c **** 		{
1487:/opt/XMClib/XMC_Peripheral_Library_v2.1.16/XMCLib/src/xmc_usbd.c **** 			data.b.mps = ep_max_packet_size;
1488:/opt/XMClib/XMC_Peripheral_Library_v2.1.16/XMCLib/src/xmc_usbd.c **** 		}
1489:/opt/XMClib/XMC_Peripheral_Library_v2.1.16/XMCLib/src/xmc_usbd.c **** 		/* set first data0 pid */
1490:/opt/XMClib/XMC_Peripheral_Library_v2.1.16/XMCLib/src/xmc_usbd.c **** 		data.b.setd0pid = 1U;
1491:/opt/XMClib/XMC_Peripheral_Library_v2.1.16/XMCLib/src/xmc_usbd.c **** 		/* clear stall */
1492:/opt/XMClib/XMC_Peripheral_Library_v2.1.16/XMCLib/src/xmc_usbd.c **** 		data.b.stall = 0U;
1493:/opt/XMClib/XMC_Peripheral_Library_v2.1.16/XMCLib/src/xmc_usbd.c **** 		/* set tx fifo */
1494:/opt/XMClib/XMC_Peripheral_Library_v2.1.16/XMCLib/src/xmc_usbd.c **** 		ep->txFifoNum = XMC_USBD_lAssignTXFifo(); /* get tx fifo */
1495:/opt/XMClib/XMC_Peripheral_Library_v2.1.16/XMCLib/src/xmc_usbd.c **** 		data.b.txfnum = ep->txFifoNum;
1496:/opt/XMClib/XMC_Peripheral_Library_v2.1.16/XMCLib/src/xmc_usbd.c **** 		xmc_device.endpoint_in_register[ep->address_u.address_st.number]->diepctl = data.d32; /* configur
1497:/opt/XMClib/XMC_Peripheral_Library_v2.1.16/XMCLib/src/xmc_usbd.c **** 		daintmsk.ep.in |= (uint16_t)((uint16_t)1U << (uint8_t)ep->address_u.address_st.number); /* enable
1498:/opt/XMClib/XMC_Peripheral_Library_v2.1.16/XMCLib/src/xmc_usbd.c ****   }
1499:/opt/XMClib/XMC_Peripheral_Library_v2.1.16/XMCLib/src/xmc_usbd.c ****   if ((ep->address_u.address_st.direction == 0U) || (ep_type == XMC_USBD_ENDPOINT_TYPE_CONTROL))
1500:/opt/XMClib/XMC_Peripheral_Library_v2.1.16/XMCLib/src/xmc_usbd.c ****   {
1501:/opt/XMClib/XMC_Peripheral_Library_v2.1.16/XMCLib/src/xmc_usbd.c ****     /* is out */
1502:/opt/XMClib/XMC_Peripheral_Library_v2.1.16/XMCLib/src/xmc_usbd.c **** 		depctl_data_t data;
1503:/opt/XMClib/XMC_Peripheral_Library_v2.1.16/XMCLib/src/xmc_usbd.c **** 		data.d32 = xmc_device.endpoint_out_register[ep->address_u.address_st.number]->doepctl;
1504:/opt/XMClib/XMC_Peripheral_Library_v2.1.16/XMCLib/src/xmc_usbd.c **** 		/*enable endpoint */
1505:/opt/XMClib/XMC_Peripheral_Library_v2.1.16/XMCLib/src/xmc_usbd.c **** 		data.b.usbactep = 1U;
1506:/opt/XMClib/XMC_Peripheral_Library_v2.1.16/XMCLib/src/xmc_usbd.c **** 		/* set ep type */
1507:/opt/XMClib/XMC_Peripheral_Library_v2.1.16/XMCLib/src/xmc_usbd.c **** 		data.b.eptype = (uint8_t)ep_type;
1508:/opt/XMClib/XMC_Peripheral_Library_v2.1.16/XMCLib/src/xmc_usbd.c ****     /* set mps */
1509:/opt/XMClib/XMC_Peripheral_Library_v2.1.16/XMCLib/src/xmc_usbd.c ****     if (ep_type == XMC_USBD_ENDPOINT_TYPE_CONTROL)
1510:/opt/XMClib/XMC_Peripheral_Library_v2.1.16/XMCLib/src/xmc_usbd.c **** 		{
1511:/opt/XMClib/XMC_Peripheral_Library_v2.1.16/XMCLib/src/xmc_usbd.c **** 			switch(ep_max_packet_size)
1512:/opt/XMClib/XMC_Peripheral_Library_v2.1.16/XMCLib/src/xmc_usbd.c **** 			{
1513:/opt/XMClib/XMC_Peripheral_Library_v2.1.16/XMCLib/src/xmc_usbd.c **** 				case (64U):
1514:/opt/XMClib/XMC_Peripheral_Library_v2.1.16/XMCLib/src/xmc_usbd.c **** 					data.b.mps = 0x0U;
1515:/opt/XMClib/XMC_Peripheral_Library_v2.1.16/XMCLib/src/xmc_usbd.c **** 					break;
1516:/opt/XMClib/XMC_Peripheral_Library_v2.1.16/XMCLib/src/xmc_usbd.c **** 				case (32U):
1517:/opt/XMClib/XMC_Peripheral_Library_v2.1.16/XMCLib/src/xmc_usbd.c **** 					data.b.mps = 0x1U;
1518:/opt/XMClib/XMC_Peripheral_Library_v2.1.16/XMCLib/src/xmc_usbd.c **** 					break;
1519:/opt/XMClib/XMC_Peripheral_Library_v2.1.16/XMCLib/src/xmc_usbd.c **** 				case (16U):
1520:/opt/XMClib/XMC_Peripheral_Library_v2.1.16/XMCLib/src/xmc_usbd.c **** 					data.b.mps = 0x2U;
1521:/opt/XMClib/XMC_Peripheral_Library_v2.1.16/XMCLib/src/xmc_usbd.c **** 					break;
1522:/opt/XMClib/XMC_Peripheral_Library_v2.1.16/XMCLib/src/xmc_usbd.c **** 				case (8U):
1523:/opt/XMClib/XMC_Peripheral_Library_v2.1.16/XMCLib/src/xmc_usbd.c **** 					data.b.mps = 0x3U;
1524:/opt/XMClib/XMC_Peripheral_Library_v2.1.16/XMCLib/src/xmc_usbd.c **** 					break;
1525:/opt/XMClib/XMC_Peripheral_Library_v2.1.16/XMCLib/src/xmc_usbd.c **** 				default:
1526:/opt/XMClib/XMC_Peripheral_Library_v2.1.16/XMCLib/src/xmc_usbd.c **** 					break;
1527:/opt/XMClib/XMC_Peripheral_Library_v2.1.16/XMCLib/src/xmc_usbd.c **** 			}
1528:/opt/XMClib/XMC_Peripheral_Library_v2.1.16/XMCLib/src/xmc_usbd.c **** 		}
1529:/opt/XMClib/XMC_Peripheral_Library_v2.1.16/XMCLib/src/xmc_usbd.c **** 		else
1530:/opt/XMClib/XMC_Peripheral_Library_v2.1.16/XMCLib/src/xmc_usbd.c **** 		{
1531:/opt/XMClib/XMC_Peripheral_Library_v2.1.16/XMCLib/src/xmc_usbd.c **** 			data.b.mps = ep_max_packet_size;
1532:/opt/XMClib/XMC_Peripheral_Library_v2.1.16/XMCLib/src/xmc_usbd.c **** 		}
1533:/opt/XMClib/XMC_Peripheral_Library_v2.1.16/XMCLib/src/xmc_usbd.c **** 		/* set first data0 pid */
1534:/opt/XMClib/XMC_Peripheral_Library_v2.1.16/XMCLib/src/xmc_usbd.c **** 		data.b.setd0pid = 1U;
1535:/opt/XMClib/XMC_Peripheral_Library_v2.1.16/XMCLib/src/xmc_usbd.c **** 		/* clear stall */
1536:/opt/XMClib/XMC_Peripheral_Library_v2.1.16/XMCLib/src/xmc_usbd.c **** 		data.b.stall =(uint8_t) 0U;
1537:/opt/XMClib/XMC_Peripheral_Library_v2.1.16/XMCLib/src/xmc_usbd.c **** 		xmc_device.endpoint_out_register[ep->address_u.address_st.number]->doepctl = data.d32; /* configu
1538:/opt/XMClib/XMC_Peripheral_Library_v2.1.16/XMCLib/src/xmc_usbd.c **** 		daintmsk.ep.out |=(uint16_t) ((uint16_t)1U << (uint8_t)ep->address_u.address_st.number); /* enabl
1539:/opt/XMClib/XMC_Peripheral_Library_v2.1.16/XMCLib/src/xmc_usbd.c ****   }
1540:/opt/XMClib/XMC_Peripheral_Library_v2.1.16/XMCLib/src/xmc_usbd.c ****   xmc_device.device_register->daintmsk = daintmsk.d32;
1541:/opt/XMClib/XMC_Peripheral_Library_v2.1.16/XMCLib/src/xmc_usbd.c ****   return XMC_USBD_STATUS_OK;
1542:/opt/XMClib/XMC_Peripheral_Library_v2.1.16/XMCLib/src/xmc_usbd.c **** }
1543:/opt/XMClib/XMC_Peripheral_Library_v2.1.16/XMCLib/src/xmc_usbd.c **** 
1544:/opt/XMClib/XMC_Peripheral_Library_v2.1.16/XMCLib/src/xmc_usbd.c **** /**
1545:/opt/XMClib/XMC_Peripheral_Library_v2.1.16/XMCLib/src/xmc_usbd.c ****  * Unconfigure the selected endpoint.
1546:/opt/XMClib/XMC_Peripheral_Library_v2.1.16/XMCLib/src/xmc_usbd.c ****  **/
1547:/opt/XMClib/XMC_Peripheral_Library_v2.1.16/XMCLib/src/xmc_usbd.c **** XMC_USBD_STATUS_t XMC_USBD_EndpointUnconfigure(const uint8_t ep_addr) 
1548:/opt/XMClib/XMC_Peripheral_Library_v2.1.16/XMCLib/src/xmc_usbd.c **** {
 981              		.loc 1 1548 1 is_stmt 1 view -0
 982              		.cfi_startproc
 983              		@ args = 0, pretend = 0, frame = 0
 984              		@ frame_needed = 0, uses_anonymous_args = 0
1549:/opt/XMClib/XMC_Peripheral_Library_v2.1.16/XMCLib/src/xmc_usbd.c ****   XMC_USBD_EP_t *ep = &xmc_device.ep[ep_addr & (uint8_t)XMC_USBD_ENDPOINT_NUMBER_MASK];
 985              		.loc 1 1549 3 view .LVU360
1548:/opt/XMClib/XMC_Peripheral_Library_v2.1.16/XMCLib/src/xmc_usbd.c ****   XMC_USBD_EP_t *ep = &xmc_device.ep[ep_addr & (uint8_t)XMC_USBD_ENDPOINT_NUMBER_MASK];
 986              		.loc 1 1548 1 is_stmt 0 view .LVU361
 987 0000 F0B5     		push	{r4, r5, r6, r7, lr}
 988              	.LCFI6:
 989              		.cfi_def_cfa_offset 20
 990              		.cfi_offset 4, -20
 991              		.cfi_offset 5, -16
 992              		.cfi_offset 6, -12
 993              		.cfi_offset 7, -8
 994              		.cfi_offset 14, -4
1550:/opt/XMClib/XMC_Peripheral_Library_v2.1.16/XMCLib/src/xmc_usbd.c ****   depctl_data_t data;
1551:/opt/XMClib/XMC_Peripheral_Library_v2.1.16/XMCLib/src/xmc_usbd.c **** 	daint_data_t daintmsk;
1552:/opt/XMClib/XMC_Peripheral_Library_v2.1.16/XMCLib/src/xmc_usbd.c **** 	XMC_USBD_STATUS_t result;
1553:/opt/XMClib/XMC_Peripheral_Library_v2.1.16/XMCLib/src/xmc_usbd.c **** 	uint32_t number_temp;
1554:/opt/XMClib/XMC_Peripheral_Library_v2.1.16/XMCLib/src/xmc_usbd.c ****   data.d32 = 0U;  
1555:/opt/XMClib/XMC_Peripheral_Library_v2.1.16/XMCLib/src/xmc_usbd.c ****   daintmsk.d32 = xmc_device.device_register->daintmsk;  
 995              		.loc 1 1555 28 view .LVU362
 996 0002 394B     		ldr	r3, .L98
1549:/opt/XMClib/XMC_Peripheral_Library_v2.1.16/XMCLib/src/xmc_usbd.c ****   depctl_data_t data;
 997              		.loc 1 1549 46 view .LVU363
 998 0004 00F00F00 		and	r0, r0, #15
 999              	.LVL53:
1550:/opt/XMClib/XMC_Peripheral_Library_v2.1.16/XMCLib/src/xmc_usbd.c ****   depctl_data_t data;
 1000              		.loc 1 1550 3 is_stmt 1 view .LVU364
1551:/opt/XMClib/XMC_Peripheral_Library_v2.1.16/XMCLib/src/xmc_usbd.c **** 	XMC_USBD_STATUS_t result;
 1001              		.loc 1 1551 2 view .LVU365
1552:/opt/XMClib/XMC_Peripheral_Library_v2.1.16/XMCLib/src/xmc_usbd.c **** 	uint32_t number_temp;
 1002              		.loc 1 1552 2 view .LVU366
1553:/opt/XMClib/XMC_Peripheral_Library_v2.1.16/XMCLib/src/xmc_usbd.c ****   data.d32 = 0U;  
 1003              		.loc 1 1553 2 view .LVU367
1554:/opt/XMClib/XMC_Peripheral_Library_v2.1.16/XMCLib/src/xmc_usbd.c ****   daintmsk.d32 = xmc_device.device_register->daintmsk;  
 1004              		.loc 1 1554 3 view .LVU368
 1005              		.loc 1 1555 3 view .LVU369
1556:/opt/XMClib/XMC_Peripheral_Library_v2.1.16/XMCLib/src/xmc_usbd.c ****   number_temp = (uint32_t)((uint32_t)1U << (uint8_t)ep->address_u.address_st.number);
1557:/opt/XMClib/XMC_Peripheral_Library_v2.1.16/XMCLib/src/xmc_usbd.c ****   /* if not configured return an error */
1558:/opt/XMClib/XMC_Peripheral_Library_v2.1.16/XMCLib/src/xmc_usbd.c ****   if (!ep->isConfigured)
 1006              		.loc 1 1558 7 is_stmt 0 view .LVU370
 1007 0008 3421     		movs	r1, #52
 1008 000a 00FB01F1 		mul	r1, r0, r1
 1009 000e 5A18     		adds	r2, r3, r1
1555:/opt/XMClib/XMC_Peripheral_Library_v2.1.16/XMCLib/src/xmc_usbd.c ****   number_temp = (uint32_t)((uint32_t)1U << (uint8_t)ep->address_u.address_st.number);
 1010              		.loc 1 1555 28 view .LVU371
 1011 0010 D3F8A441 		ldr	r4, [r3, #420]
 1012              		.loc 1 1558 7 view .LVU372
 1013 0014 92F804C0 		ldrb	ip, [r2, #4]	@ zero_extendqisi2
1555:/opt/XMClib/XMC_Peripheral_Library_v2.1.16/XMCLib/src/xmc_usbd.c ****   number_temp = (uint32_t)((uint32_t)1U << (uint8_t)ep->address_u.address_st.number);
 1014              		.loc 1 1555 44 view .LVU373
 1015 0018 E669     		ldr	r6, [r4, #28]
1556:/opt/XMClib/XMC_Peripheral_Library_v2.1.16/XMCLib/src/xmc_usbd.c ****   number_temp = (uint32_t)((uint32_t)1U << (uint8_t)ep->address_u.address_st.number);
 1016              		.loc 1 1556 3 is_stmt 1 view .LVU374
 1017              	.LVL54:
 1018              		.loc 1 1558 3 view .LVU375
 1019              		.loc 1 1558 6 is_stmt 0 view .LVU376
 1020 001a 1CF0040F 		tst	ip, #4
 1021 001e 48D0     		beq	.L90
1556:/opt/XMClib/XMC_Peripheral_Library_v2.1.16/XMCLib/src/xmc_usbd.c ****   number_temp = (uint32_t)((uint32_t)1U << (uint8_t)ep->address_u.address_st.number);
 1022              		.loc 1 1556 77 view .LVU377
 1023 0020 5F5C     		ldrb	r7, [r3, r1]	@ zero_extendqisi2
1559:/opt/XMClib/XMC_Peripheral_Library_v2.1.16/XMCLib/src/xmc_usbd.c ****   {
1560:/opt/XMClib/XMC_Peripheral_Library_v2.1.16/XMCLib/src/xmc_usbd.c ****      result = XMC_USBD_STATUS_ERROR;
1561:/opt/XMClib/XMC_Peripheral_Library_v2.1.16/XMCLib/src/xmc_usbd.c ****   }
1562:/opt/XMClib/XMC_Peripheral_Library_v2.1.16/XMCLib/src/xmc_usbd.c ****   else
1563:/opt/XMClib/XMC_Peripheral_Library_v2.1.16/XMCLib/src/xmc_usbd.c ****   {
1564:/opt/XMClib/XMC_Peripheral_Library_v2.1.16/XMCLib/src/xmc_usbd.c ****     /* disable the endpoint, deactivate it and only send naks */
1565:/opt/XMClib/XMC_Peripheral_Library_v2.1.16/XMCLib/src/xmc_usbd.c ****     data.b.usbactep = 0U;
1566:/opt/XMClib/XMC_Peripheral_Library_v2.1.16/XMCLib/src/xmc_usbd.c ****     data.b.epdis =  1U;
1567:/opt/XMClib/XMC_Peripheral_Library_v2.1.16/XMCLib/src/xmc_usbd.c ****     data.b.snak =  1U;
1568:/opt/XMClib/XMC_Peripheral_Library_v2.1.16/XMCLib/src/xmc_usbd.c ****     data.b.stall =  0U;
1569:/opt/XMClib/XMC_Peripheral_Library_v2.1.16/XMCLib/src/xmc_usbd.c ****     ep->isConfigured =  0U;
 1024              		.loc 1 1569 22 view .LVU378
 1025 0022 2CF0240C 		bic	ip, ip, #36
 1026 0026 82F804C0 		strb	ip, [r2, #4]
 1027              	.LVL55:
1556:/opt/XMClib/XMC_Peripheral_Library_v2.1.16/XMCLib/src/xmc_usbd.c ****   /* if not configured return an error */
 1028              		.loc 1 1556 44 view .LVU379
 1029 002a 07F00F0C 		and	ip, r7, #15
1570:/opt/XMClib/XMC_Peripheral_Library_v2.1.16/XMCLib/src/xmc_usbd.c ****     ep->isStalled =  0U;
1571:/opt/XMClib/XMC_Peripheral_Library_v2.1.16/XMCLib/src/xmc_usbd.c ****     ep->outInUse =  0U;
 1030              		.loc 1 1571 18 view .LVU380
 1031 002e 5768     		ldr	r7, [r2, #4]
 1032 0030 6FF30417 		bfc	r7, #4, #1
 1033 0034 5760     		str	r7, [r2, #4]
1572:/opt/XMClib/XMC_Peripheral_Library_v2.1.16/XMCLib/src/xmc_usbd.c ****     ep->inInUse =  0U;
 1034              		.loc 1 1572 17 view .LVU381
 1035 0036 5768     		ldr	r7, [r2, #4]
 1036 0038 6FF3C307 		bfc	r7, #3, #1
 1037 003c 5760     		str	r7, [r2, #4]
1573:/opt/XMClib/XMC_Peripheral_Library_v2.1.16/XMCLib/src/xmc_usbd.c ****     /* chose register based on the direction. Control Endpoint need both */
1574:/opt/XMClib/XMC_Peripheral_Library_v2.1.16/XMCLib/src/xmc_usbd.c ****     if ((ep->address_u.address_st.direction == 1U) || (ep->type == (uint8_t)XMC_USBD_ENDPOINT_TYPE_
 1038              		.loc 1 1574 8 view .LVU382
 1039 003e 5F56     		ldrsb	r7, [r3, r1]
1556:/opt/XMClib/XMC_Peripheral_Library_v2.1.16/XMCLib/src/xmc_usbd.c ****   /* if not configured return an error */
 1040              		.loc 1 1556 15 view .LVU383
 1041 0040 0121     		movs	r1, #1
 1042              		.loc 1 1574 8 view .LVU384
 1043 0042 002F     		cmp	r7, #0
 1044 0044 3546     		mov	r5, r6
 1045              	.LVL56:
1556:/opt/XMClib/XMC_Peripheral_Library_v2.1.16/XMCLib/src/xmc_usbd.c ****   /* if not configured return an error */
 1046              		.loc 1 1556 15 view .LVU385
 1047 0046 01FA0CF1 		lsl	r1, r1, ip
1565:/opt/XMClib/XMC_Peripheral_Library_v2.1.16/XMCLib/src/xmc_usbd.c ****     data.b.epdis =  1U;
 1048              		.loc 1 1565 5 is_stmt 1 view .LVU386
1566:/opt/XMClib/XMC_Peripheral_Library_v2.1.16/XMCLib/src/xmc_usbd.c ****     data.b.snak =  1U;
 1049              		.loc 1 1566 5 view .LVU387
1567:/opt/XMClib/XMC_Peripheral_Library_v2.1.16/XMCLib/src/xmc_usbd.c ****     data.b.stall =  0U;
 1050              		.loc 1 1567 5 view .LVU388
1568:/opt/XMClib/XMC_Peripheral_Library_v2.1.16/XMCLib/src/xmc_usbd.c ****     ep->isConfigured =  0U;
 1051              		.loc 1 1568 5 view .LVU389
1569:/opt/XMClib/XMC_Peripheral_Library_v2.1.16/XMCLib/src/xmc_usbd.c ****     ep->isStalled =  0U;
 1052              		.loc 1 1569 5 view .LVU390
1570:/opt/XMClib/XMC_Peripheral_Library_v2.1.16/XMCLib/src/xmc_usbd.c ****     ep->outInUse =  0U;
 1053              		.loc 1 1570 5 view .LVU391
1571:/opt/XMClib/XMC_Peripheral_Library_v2.1.16/XMCLib/src/xmc_usbd.c ****     ep->inInUse =  0U;
 1054              		.loc 1 1571 5 view .LVU392
1572:/opt/XMClib/XMC_Peripheral_Library_v2.1.16/XMCLib/src/xmc_usbd.c ****     /* chose register based on the direction. Control Endpoint need both */
 1055              		.loc 1 1572 5 view .LVU393
 1056              		.loc 1 1574 5 view .LVU394
 1057              		.loc 1 1574 8 is_stmt 0 view .LVU395
 1058 004a 34DB     		blt	.L84
 1059              		.loc 1 1574 65 discriminator 1 view .LVU396
 1060 004c 1279     		ldrb	r2, [r2, #4]	@ zero_extendqisi2
 1061              		.loc 1 1574 52 discriminator 1 view .LVU397
 1062 004e 9207     		lsls	r2, r2, #30
1575:/opt/XMClib/XMC_Peripheral_Library_v2.1.16/XMCLib/src/xmc_usbd.c ****     {
1576:/opt/XMClib/XMC_Peripheral_Library_v2.1.16/XMCLib/src/xmc_usbd.c ****       /* disable endpoint configuration */
1577:/opt/XMClib/XMC_Peripheral_Library_v2.1.16/XMCLib/src/xmc_usbd.c ****       xmc_device.endpoint_in_register[ep->address_u.address_st.number]->diepctl = data.d32;
1578:/opt/XMClib/XMC_Peripheral_Library_v2.1.16/XMCLib/src/xmc_usbd.c ****       /* disable interrupts */
1579:/opt/XMClib/XMC_Peripheral_Library_v2.1.16/XMCLib/src/xmc_usbd.c ****       daintmsk.ep.in = (uint16_t)((uint32_t)daintmsk.ep.in & (~(uint32_t)number_temp));
 1063              		.loc 1 1579 24 discriminator 1 view .LVU398
 1064 0050 6FEA0101 		mvn	r1, r1
1574:/opt/XMClib/XMC_Peripheral_Library_v2.1.16/XMCLib/src/xmc_usbd.c ****     {
 1065              		.loc 1 1574 52 discriminator 1 view .LVU399
 1066 0054 41D1     		bne	.L96
1577:/opt/XMClib/XMC_Peripheral_Library_v2.1.16/XMCLib/src/xmc_usbd.c ****       /* disable interrupts */
 1067              		.loc 1 1577 7 is_stmt 1 view .LVU400
1577:/opt/XMClib/XMC_Peripheral_Library_v2.1.16/XMCLib/src/xmc_usbd.c ****       /* disable interrupts */
 1068              		.loc 1 1577 38 is_stmt 0 view .LVU401
 1069 0056 0CF16A02 		add	r2, ip, #106
1577:/opt/XMClib/XMC_Peripheral_Library_v2.1.16/XMCLib/src/xmc_usbd.c ****       /* disable interrupts */
 1070              		.loc 1 1577 81 view .LVU402
 1071 005a 4FF0904E 		mov	lr, #1207959552
1577:/opt/XMClib/XMC_Peripheral_Library_v2.1.16/XMCLib/src/xmc_usbd.c ****       /* disable interrupts */
 1072              		.loc 1 1577 38 view .LVU403
 1073 005e 53F82270 		ldr	r7, [r3, r2, lsl #2]
 1074              		.loc 1 1579 24 view .LVU404
 1075 0062 8AB2     		uxth	r2, r1
1577:/opt/XMClib/XMC_Peripheral_Library_v2.1.16/XMCLib/src/xmc_usbd.c ****       /* disable interrupts */
 1076              		.loc 1 1577 81 view .LVU405
 1077 0064 C7F800E0 		str	lr, [r7]
 1078              		.loc 1 1579 7 is_stmt 1 view .LVU406
 1079              		.loc 1 1579 24 is_stmt 0 view .LVU407
 1080 0068 02EA0607 		and	r7, r2, r6
 1081              		.loc 1 1579 22 view .LVU408
 1082 006c 67F30F05 		bfi	r5, r7, #0, #16
 1083              	.LVL57:
1580:/opt/XMClib/XMC_Peripheral_Library_v2.1.16/XMCLib/src/xmc_usbd.c ****     }
1581:/opt/XMClib/XMC_Peripheral_Library_v2.1.16/XMCLib/src/xmc_usbd.c ****     if ((ep->address_u.address_st.direction == 0U) || (ep->type == (uint8_t)XMC_USBD_ENDPOINT_TYPE_
 1084              		.loc 1 1581 5 is_stmt 1 view .LVU409
 1085              	.L88:
1582:/opt/XMClib/XMC_Peripheral_Library_v2.1.16/XMCLib/src/xmc_usbd.c ****     {
1583:/opt/XMClib/XMC_Peripheral_Library_v2.1.16/XMCLib/src/xmc_usbd.c ****       xmc_device.endpoint_out_register[ep->address_u.address_st.number]->doepctl = data.d32;
 1086              		.loc 1 1583 7 view .LVU410
 1087              		.loc 1 1583 39 is_stmt 0 view .LVU411
 1088 0070 03EB8C0C 		add	ip, r3, ip, lsl #2
1584:/opt/XMClib/XMC_Peripheral_Library_v2.1.16/XMCLib/src/xmc_usbd.c ****       daintmsk.ep.out = (uint16_t)((uint32_t)daintmsk.ep.out & (~(uint32_t)number_temp));
 1089              		.loc 1 1584 25 view .LVU412
 1090 0074 02EA1642 		and	r2, r2, r6, lsr #16
1583:/opt/XMClib/XMC_Peripheral_Library_v2.1.16/XMCLib/src/xmc_usbd.c ****       daintmsk.ep.out = (uint16_t)((uint32_t)daintmsk.ep.out & (~(uint32_t)number_temp));
 1091              		.loc 1 1583 39 view .LVU413
 1092 0078 DCF8C461 		ldr	r6, [ip, #452]
 1093              		.loc 1 1584 23 view .LVU414
 1094 007c 62F31F45 		bfi	r5, r2, #16, #16
1583:/opt/XMClib/XMC_Peripheral_Library_v2.1.16/XMCLib/src/xmc_usbd.c ****       daintmsk.ep.out = (uint16_t)((uint32_t)daintmsk.ep.out & (~(uint32_t)number_temp));
 1095              		.loc 1 1583 82 view .LVU415
 1096 0080 4FF09047 		mov	r7, #1207959552
1585:/opt/XMClib/XMC_Peripheral_Library_v2.1.16/XMCLib/src/xmc_usbd.c ****       if(usbd_init->usbd_transfer_mode == XMC_USBD_USE_FIFO)
 1097              		.loc 1 1585 19 view .LVU416
 1098 0084 D3F80822 		ldr	r2, [r3, #520]
1583:/opt/XMClib/XMC_Peripheral_Library_v2.1.16/XMCLib/src/xmc_usbd.c ****       daintmsk.ep.out = (uint16_t)((uint32_t)daintmsk.ep.out & (~(uint32_t)number_temp));
 1099              		.loc 1 1583 82 view .LVU417
 1100 0088 3760     		str	r7, [r6]
1584:/opt/XMClib/XMC_Peripheral_Library_v2.1.16/XMCLib/src/xmc_usbd.c ****       daintmsk.ep.out = (uint16_t)((uint32_t)daintmsk.ep.out & (~(uint32_t)number_temp));
 1101              		.loc 1 1584 7 is_stmt 1 view .LVU418
 1102              		.loc 1 1585 7 view .LVU419
 1103              		.loc 1 1585 9 is_stmt 0 view .LVU420
 1104 008a 527B     		ldrb	r2, [r2, #13]	@ zero_extendqisi2
 1105 008c 012A     		cmp	r2, #1
 1106 008e 26D0     		beq	.L97
 1107              	.L87:
1586:/opt/XMClib/XMC_Peripheral_Library_v2.1.16/XMCLib/src/xmc_usbd.c ****       {
1587:/opt/XMClib/XMC_Peripheral_Library_v2.1.16/XMCLib/src/xmc_usbd.c ****         xmc_device.device_register->dtknqr4_fifoemptymsk &= ~number_temp;
1588:/opt/XMClib/XMC_Peripheral_Library_v2.1.16/XMCLib/src/xmc_usbd.c ****       }
1589:/opt/XMClib/XMC_Peripheral_Library_v2.1.16/XMCLib/src/xmc_usbd.c ****     }
1590:/opt/XMClib/XMC_Peripheral_Library_v2.1.16/XMCLib/src/xmc_usbd.c ****     xmc_device.device_register->daintmsk = daintmsk.d32;
 1108              		.loc 1 1590 5 is_stmt 1 view .LVU421
1591:/opt/XMClib/XMC_Peripheral_Library_v2.1.16/XMCLib/src/xmc_usbd.c ****     XMC_USBD_lUnassignFifo(ep->txFifoNum); /* free fifo */
 1109              		.loc 1 1591 30 is_stmt 0 view .LVU422
 1110 0090 3422     		movs	r2, #52
 1111 0092 02FB0030 		mla	r0, r2, r0, r3
 1112              	.LVL58:
1590:/opt/XMClib/XMC_Peripheral_Library_v2.1.16/XMCLib/src/xmc_usbd.c ****     XMC_USBD_lUnassignFifo(ep->txFifoNum); /* free fifo */
 1113              		.loc 1 1590 42 view .LVU423
 1114 0096 E561     		str	r5, [r4, #28]
 1115              		.loc 1 1591 5 is_stmt 1 view .LVU424
 1116              	.LVL59:
 1117              	.LBB40:
 1118              	.LBI40:
 382:/opt/XMClib/XMC_Peripheral_Library_v2.1.16/XMCLib/src/xmc_usbd.c **** {
 1119              		.loc 1 382 13 view .LVU425
 1120              	.LBB41:
 384:/opt/XMClib/XMC_Peripheral_Library_v2.1.16/XMCLib/src/xmc_usbd.c **** }
 1121              		.loc 1 384 3 view .LVU426
 1122              	.LBE41:
 1123              	.LBE40:
 1124              		.loc 1 1591 30 is_stmt 0 view .LVU427
 1125 0098 8188     		ldrh	r1, [r0, #4]
 1126              	.LBB43:
 1127              	.LBB42:
 384:/opt/XMClib/XMC_Peripheral_Library_v2.1.16/XMCLib/src/xmc_usbd.c **** }
 1128              		.loc 1 384 26 view .LVU428
 1129 009a B3F8FC21 		ldrh	r2, [r3, #508]
 384:/opt/XMClib/XMC_Peripheral_Library_v2.1.16/XMCLib/src/xmc_usbd.c **** }
 1130              		.loc 1 384 83 view .LVU429
 1131 009e C1F38310 		ubfx	r0, r1, #6, #4
 1132 00a2 0121     		movs	r1, #1
 1133 00a4 8140     		lsls	r1, r1, r0
 384:/opt/XMClib/XMC_Peripheral_Library_v2.1.16/XMCLib/src/xmc_usbd.c **** }
 1134              		.loc 1 384 26 view .LVU430
 1135 00a6 22EA0102 		bic	r2, r2, r1
 384:/opt/XMClib/XMC_Peripheral_Library_v2.1.16/XMCLib/src/xmc_usbd.c **** }
 1136              		.loc 1 384 24 view .LVU431
 1137 00aa A3F8FC21 		strh	r2, [r3, #508]	@ movhi
 384:/opt/XMClib/XMC_Peripheral_Library_v2.1.16/XMCLib/src/xmc_usbd.c **** }
 1138              		.loc 1 384 24 view .LVU432
 1139              	.LBE42:
 1140              	.LBE43:
1592:/opt/XMClib/XMC_Peripheral_Library_v2.1.16/XMCLib/src/xmc_usbd.c ****     result = XMC_USBD_STATUS_OK;
 1141              		.loc 1 1592 5 is_stmt 1 view .LVU433
 1142              	.LVL60:
 1143              		.loc 1 1592 12 is_stmt 0 view .LVU434
 1144 00ae 0020     		movs	r0, #0
1593:/opt/XMClib/XMC_Peripheral_Library_v2.1.16/XMCLib/src/xmc_usbd.c ****   }
1594:/opt/XMClib/XMC_Peripheral_Library_v2.1.16/XMCLib/src/xmc_usbd.c ****   return result;
1595:/opt/XMClib/XMC_Peripheral_Library_v2.1.16/XMCLib/src/xmc_usbd.c **** }
 1145              		.loc 1 1595 1 view .LVU435
 1146 00b0 F0BD     		pop	{r4, r5, r6, r7, pc}
 1147              	.LVL61:
 1148              	.L90:
1560:/opt/XMClib/XMC_Peripheral_Library_v2.1.16/XMCLib/src/xmc_usbd.c ****   }
 1149              		.loc 1 1560 13 view .LVU436
 1150 00b2 0120     		movs	r0, #1
 1151              	.LVL62:
1594:/opt/XMClib/XMC_Peripheral_Library_v2.1.16/XMCLib/src/xmc_usbd.c **** }
 1152              		.loc 1 1594 3 is_stmt 1 view .LVU437
 1153              		.loc 1 1595 1 is_stmt 0 view .LVU438
 1154 00b4 F0BD     		pop	{r4, r5, r6, r7, pc}
 1155              	.LVL63:
 1156              	.L84:
1577:/opt/XMClib/XMC_Peripheral_Library_v2.1.16/XMCLib/src/xmc_usbd.c ****       /* disable interrupts */
 1157              		.loc 1 1577 7 is_stmt 1 view .LVU439
1577:/opt/XMClib/XMC_Peripheral_Library_v2.1.16/XMCLib/src/xmc_usbd.c ****       /* disable interrupts */
 1158              		.loc 1 1577 38 is_stmt 0 view .LVU440
 1159 00b6 0CF16A07 		add	r7, ip, #106
1577:/opt/XMClib/XMC_Peripheral_Library_v2.1.16/XMCLib/src/xmc_usbd.c ****       /* disable interrupts */
 1160              		.loc 1 1577 81 view .LVU441
 1161 00ba 4FF0904E 		mov	lr, #1207959552
1577:/opt/XMClib/XMC_Peripheral_Library_v2.1.16/XMCLib/src/xmc_usbd.c ****       /* disable interrupts */
 1162              		.loc 1 1577 38 view .LVU442
 1163 00be 53F82770 		ldr	r7, [r3, r7, lsl #2]
1577:/opt/XMClib/XMC_Peripheral_Library_v2.1.16/XMCLib/src/xmc_usbd.c ****       /* disable interrupts */
 1164              		.loc 1 1577 81 view .LVU443
 1165 00c2 C7F800E0 		str	lr, [r7]
1579:/opt/XMClib/XMC_Peripheral_Library_v2.1.16/XMCLib/src/xmc_usbd.c ****     }
 1166              		.loc 1 1579 7 is_stmt 1 view .LVU444
1581:/opt/XMClib/XMC_Peripheral_Library_v2.1.16/XMCLib/src/xmc_usbd.c ****     {
 1167              		.loc 1 1581 65 is_stmt 0 view .LVU445
 1168 00c6 1779     		ldrb	r7, [r2, #4]	@ zero_extendqisi2
1579:/opt/XMClib/XMC_Peripheral_Library_v2.1.16/XMCLib/src/xmc_usbd.c ****     }
 1169              		.loc 1 1579 24 view .LVU446
 1170 00c8 C943     		mvns	r1, r1
 1171 00ca 8AB2     		uxth	r2, r1
 1172 00cc 02EA060E 		and	lr, r2, r6
1581:/opt/XMClib/XMC_Peripheral_Library_v2.1.16/XMCLib/src/xmc_usbd.c ****     {
 1173              		.loc 1 1581 52 view .LVU447
 1174 00d0 BF07     		lsls	r7, r7, #30
1579:/opt/XMClib/XMC_Peripheral_Library_v2.1.16/XMCLib/src/xmc_usbd.c ****     }
 1175              		.loc 1 1579 22 view .LVU448
 1176 00d2 6EF30F05 		bfi	r5, lr, #0, #16
 1177              	.LVL64:
1581:/opt/XMClib/XMC_Peripheral_Library_v2.1.16/XMCLib/src/xmc_usbd.c ****     {
 1178              		.loc 1 1581 5 is_stmt 1 view .LVU449
1581:/opt/XMClib/XMC_Peripheral_Library_v2.1.16/XMCLib/src/xmc_usbd.c ****     {
 1179              		.loc 1 1581 52 is_stmt 0 view .LVU450
 1180 00d6 CBD0     		beq	.L88
 1181 00d8 DAE7     		b	.L87
 1182              	.LVL65:
 1183              	.L96:
1579:/opt/XMClib/XMC_Peripheral_Library_v2.1.16/XMCLib/src/xmc_usbd.c ****     }
 1184              		.loc 1 1579 24 view .LVU451
 1185 00da 8AB2     		uxth	r2, r1
 1186 00dc C8E7     		b	.L88
 1187              	.LVL66:
 1188              	.L97:
1587:/opt/XMClib/XMC_Peripheral_Library_v2.1.16/XMCLib/src/xmc_usbd.c ****       }
 1189              		.loc 1 1587 9 is_stmt 1 view .LVU452
1587:/opt/XMClib/XMC_Peripheral_Library_v2.1.16/XMCLib/src/xmc_usbd.c ****       }
 1190              		.loc 1 1587 58 is_stmt 0 view .LVU453
 1191 00de 626B     		ldr	r2, [r4, #52]
 1192 00e0 1140     		ands	r1, r1, r2
 1193 00e2 6163     		str	r1, [r4, #52]
 1194 00e4 D4E7     		b	.L87
 1195              	.L99:
 1196 00e6 00BF     		.align	2
 1197              	.L98:
 1198 00e8 00000000 		.word	.LANCHOR0
 1199              		.cfi_endproc
 1200              	.LFE199:
 1202              		.section	.text.XMC_USBD_GetFrameNumber,"ax",%progbits
 1203              		.align	1
 1204              		.p2align 2,,3
 1205              		.global	XMC_USBD_GetFrameNumber
 1206              		.syntax unified
 1207              		.thumb
 1208              		.thumb_func
 1210              	XMC_USBD_GetFrameNumber:
 1211              	.LFB200:
1596:/opt/XMClib/XMC_Peripheral_Library_v2.1.16/XMCLib/src/xmc_usbd.c **** 
1597:/opt/XMClib/XMC_Peripheral_Library_v2.1.16/XMCLib/src/xmc_usbd.c **** /**
1598:/opt/XMClib/XMC_Peripheral_Library_v2.1.16/XMCLib/src/xmc_usbd.c ****  * Gets the current USB frame number
1599:/opt/XMClib/XMC_Peripheral_Library_v2.1.16/XMCLib/src/xmc_usbd.c ****  **/
1600:/opt/XMClib/XMC_Peripheral_Library_v2.1.16/XMCLib/src/xmc_usbd.c **** uint16_t XMC_USBD_GetFrameNumber(void) 
1601:/opt/XMClib/XMC_Peripheral_Library_v2.1.16/XMCLib/src/xmc_usbd.c **** {
 1212              		.loc 1 1601 1 is_stmt 1 view -0
 1213              		.cfi_startproc
 1214              		@ args = 0, pretend = 0, frame = 0
 1215              		@ frame_needed = 0, uses_anonymous_args = 0
 1216              		@ link register save eliminated.
1602:/opt/XMClib/XMC_Peripheral_Library_v2.1.16/XMCLib/src/xmc_usbd.c ****   uint16_t result;
 1217              		.loc 1 1602 3 view .LVU455
1603:/opt/XMClib/XMC_Peripheral_Library_v2.1.16/XMCLib/src/xmc_usbd.c ****   dsts_data_t dsts;
 1218              		.loc 1 1603 3 view .LVU456
1604:/opt/XMClib/XMC_Peripheral_Library_v2.1.16/XMCLib/src/xmc_usbd.c ****   dsts.d32 = xmc_device.device_register->dsts;
 1219              		.loc 1 1604 3 view .LVU457
 1220              		.loc 1 1604 24 is_stmt 0 view .LVU458
 1221 0000 034B     		ldr	r3, .L101
 1222 0002 D3F8A431 		ldr	r3, [r3, #420]
 1223              		.loc 1 1604 40 view .LVU459
 1224 0006 9868     		ldr	r0, [r3, #8]
1605:/opt/XMClib/XMC_Peripheral_Library_v2.1.16/XMCLib/src/xmc_usbd.c ****   result = (uint16_t)dsts.b.soffn;
 1225              		.loc 1 1605 3 is_stmt 1 view .LVU460
 1226              	.LVL67:
1606:/opt/XMClib/XMC_Peripheral_Library_v2.1.16/XMCLib/src/xmc_usbd.c ****   return result;
 1227              		.loc 1 1606 3 view .LVU461
1607:/opt/XMClib/XMC_Peripheral_Library_v2.1.16/XMCLib/src/xmc_usbd.c **** }
 1228              		.loc 1 1607 1 is_stmt 0 view .LVU462
 1229 0008 C0F30D20 		ubfx	r0, r0, #8, #14
 1230              	.LVL68:
 1231              		.loc 1 1607 1 view .LVU463
 1232 000c 7047     		bx	lr
 1233              	.L102:
 1234 000e 00BF     		.align	2
 1235              	.L101:
 1236 0010 00000000 		.word	.LANCHOR0
 1237              		.cfi_endproc
 1238              	.LFE200:
 1240              		.section	.text.XMC_USBD_IsEnumDone,"ax",%progbits
 1241              		.align	1
 1242              		.p2align 2,,3
 1243              		.global	XMC_USBD_IsEnumDone
 1244              		.syntax unified
 1245              		.thumb
 1246              		.thumb_func
 1248              	XMC_USBD_IsEnumDone:
 1249              	.LFB201:
1608:/opt/XMClib/XMC_Peripheral_Library_v2.1.16/XMCLib/src/xmc_usbd.c **** 
1609:/opt/XMClib/XMC_Peripheral_Library_v2.1.16/XMCLib/src/xmc_usbd.c **** /**
1610:/opt/XMClib/XMC_Peripheral_Library_v2.1.16/XMCLib/src/xmc_usbd.c ****  * Gets the USB speed enumeration completion status.
1611:/opt/XMClib/XMC_Peripheral_Library_v2.1.16/XMCLib/src/xmc_usbd.c ****  * This should not be used for the actual USB enumeration completion status. For the actual USB enu
1612:/opt/XMClib/XMC_Peripheral_Library_v2.1.16/XMCLib/src/xmc_usbd.c ****  * the application layer should check for the completion of USB standard request Set configuration.
1613:/opt/XMClib/XMC_Peripheral_Library_v2.1.16/XMCLib/src/xmc_usbd.c ****  **/
1614:/opt/XMClib/XMC_Peripheral_Library_v2.1.16/XMCLib/src/xmc_usbd.c **** uint32_t XMC_USBD_IsEnumDone(void)
1615:/opt/XMClib/XMC_Peripheral_Library_v2.1.16/XMCLib/src/xmc_usbd.c **** {
 1250              		.loc 1 1615 1 is_stmt 1 view -0
 1251              		.cfi_startproc
 1252              		@ args = 0, pretend = 0, frame = 0
 1253              		@ frame_needed = 0, uses_anonymous_args = 0
 1254              		@ link register save eliminated.
1616:/opt/XMClib/XMC_Peripheral_Library_v2.1.16/XMCLib/src/xmc_usbd.c ****   return (uint32_t)((uint8_t)xmc_device.IsConnected && (uint8_t)xmc_device.IsPowered);
 1255              		.loc 1 1616 3 view .LVU465
 1256              		.loc 1 1616 53 is_stmt 0 view .LVU466
 1257 0000 054B     		ldr	r3, .L104
 1258 0002 93F8FE01 		ldrb	r0, [r3, #510]	@ zero_extendqisi2
 1259 0006 00F00500 		and	r0, r0, #5
1617:/opt/XMClib/XMC_Peripheral_Library_v2.1.16/XMCLib/src/xmc_usbd.c **** }
 1260              		.loc 1 1617 1 view .LVU467
 1261 000a A0F10500 		sub	r0, #5
 1262 000e B0FA80F0 		clz	r0, r0
 1263 0012 4009     		lsrs	r0, r0, #5
 1264 0014 7047     		bx	lr
 1265              	.L105:
 1266 0016 00BF     		.align	2
 1267              	.L104:
 1268 0018 00000000 		.word	.LANCHOR0
 1269              		.cfi_endproc
 1270              	.LFE201:
 1272              		.section	.text.XMC_USBD_Uninitialize,"ax",%progbits
 1273              		.align	1
 1274              		.p2align 2,,3
 1275              		.global	XMC_USBD_Uninitialize
 1276              		.syntax unified
 1277              		.thumb
 1278              		.thumb_func
 1280              	XMC_USBD_Uninitialize:
 1281              	.LFB188:
1201:/opt/XMClib/XMC_Peripheral_Library_v2.1.16/XMCLib/src/xmc_usbd.c ****   /* Disconnect the device */
 1282              		.loc 1 1201 1 is_stmt 1 view -0
 1283              		.cfi_startproc
 1284              		@ args = 0, pretend = 0, frame = 0
 1285              		@ frame_needed = 0, uses_anonymous_args = 0
1203:/opt/XMClib/XMC_Peripheral_Library_v2.1.16/XMCLib/src/xmc_usbd.c **** 	dctl.d32 = xmc_device.device_register->dctl;
 1286              		.loc 1 1203 3 view .LVU469
1204:/opt/XMClib/XMC_Peripheral_Library_v2.1.16/XMCLib/src/xmc_usbd.c ****   dctl.b.sftdiscon = 1U;
 1287              		.loc 1 1204 2 view .LVU470
1204:/opt/XMClib/XMC_Peripheral_Library_v2.1.16/XMCLib/src/xmc_usbd.c ****   dctl.b.sftdiscon = 1U;
 1288              		.loc 1 1204 23 is_stmt 0 view .LVU471
 1289 0000 0748     		ldr	r0, .L108
1201:/opt/XMClib/XMC_Peripheral_Library_v2.1.16/XMCLib/src/xmc_usbd.c ****   /* Disconnect the device */
 1290              		.loc 1 1201 1 view .LVU472
 1291 0002 10B5     		push	{r4, lr}
 1292              	.LCFI7:
 1293              		.cfi_def_cfa_offset 8
 1294              		.cfi_offset 4, -8
 1295              		.cfi_offset 14, -4
1204:/opt/XMClib/XMC_Peripheral_Library_v2.1.16/XMCLib/src/xmc_usbd.c ****   dctl.b.sftdiscon = 1U;
 1296              		.loc 1 1204 23 view .LVU473
 1297 0004 D0F8A441 		ldr	r4, [r0, #420]
1204:/opt/XMClib/XMC_Peripheral_Library_v2.1.16/XMCLib/src/xmc_usbd.c ****   dctl.b.sftdiscon = 1U;
 1298              		.loc 1 1204 39 view .LVU474
 1299 0008 6368     		ldr	r3, [r4, #4]
1205:/opt/XMClib/XMC_Peripheral_Library_v2.1.16/XMCLib/src/xmc_usbd.c ****   xmc_device.device_register->dctl = dctl.d32;
 1300              		.loc 1 1205 3 is_stmt 1 view .LVU475
1205:/opt/XMClib/XMC_Peripheral_Library_v2.1.16/XMCLib/src/xmc_usbd.c ****   xmc_device.device_register->dctl = dctl.d32;
 1301              		.loc 1 1205 20 is_stmt 0 view .LVU476
 1302 000a 43F00203 		orr	r3, r3, #2
 1303              	.LVL69:
1206:/opt/XMClib/XMC_Peripheral_Library_v2.1.16/XMCLib/src/xmc_usbd.c ****   /* clean up */
 1304              		.loc 1 1206 3 is_stmt 1 view .LVU477
1208:/opt/XMClib/XMC_Peripheral_Library_v2.1.16/XMCLib/src/xmc_usbd.c ****   return XMC_USBD_STATUS_OK;
 1305              		.loc 1 1208 3 is_stmt 0 view .LVU478
 1306 000e 4FF40272 		mov	r2, #520
 1307 0012 0021     		movs	r1, #0
 1308              	.LVL70:
1206:/opt/XMClib/XMC_Peripheral_Library_v2.1.16/XMCLib/src/xmc_usbd.c ****   /* clean up */
 1309              		.loc 1 1206 36 view .LVU479
 1310 0014 6360     		str	r3, [r4, #4]
1208:/opt/XMClib/XMC_Peripheral_Library_v2.1.16/XMCLib/src/xmc_usbd.c ****   return XMC_USBD_STATUS_OK;
 1311              		.loc 1 1208 3 is_stmt 1 view .LVU480
 1312 0016 FFF7FEFF 		bl	memset
 1313              	.LVL71:
1209:/opt/XMClib/XMC_Peripheral_Library_v2.1.16/XMCLib/src/xmc_usbd.c **** }
 1314              		.loc 1 1209 3 view .LVU481
1210:/opt/XMClib/XMC_Peripheral_Library_v2.1.16/XMCLib/src/xmc_usbd.c **** 
 1315              		.loc 1 1210 1 is_stmt 0 view .LVU482
 1316 001a 0020     		movs	r0, #0
 1317 001c 10BD     		pop	{r4, pc}
 1318              	.L109:
 1319 001e 00BF     		.align	2
 1320              	.L108:
 1321 0020 00000000 		.word	.LANCHOR0
 1322              		.cfi_endproc
 1323              	.LFE188:
 1325              		.section	.text.XMC_USBD_EndpointConfigure,"ax",%progbits
 1326              		.align	1
 1327              		.p2align 2,,3
 1328              		.global	XMC_USBD_EndpointConfigure
 1329              		.syntax unified
 1330              		.thumb
 1331              		.thumb_func
 1333              	XMC_USBD_EndpointConfigure:
 1334              	.LVL72:
 1335              	.LFB198:
1431:/opt/XMClib/XMC_Peripheral_Library_v2.1.16/XMCLib/src/xmc_usbd.c ****   daint_data_t daintmsk;
 1336              		.loc 1 1431 1 is_stmt 1 view -0
 1337              		.cfi_startproc
 1338              		@ args = 0, pretend = 0, frame = 0
 1339              		@ frame_needed = 0, uses_anonymous_args = 0
1432:/opt/XMClib/XMC_Peripheral_Library_v2.1.16/XMCLib/src/xmc_usbd.c ****   XMC_USBD_EP_t *ep;
 1340              		.loc 1 1432 3 view .LVU484
1433:/opt/XMClib/XMC_Peripheral_Library_v2.1.16/XMCLib/src/xmc_usbd.c ****   daintmsk.d32 = xmc_device.device_register->daintmsk;  
 1341              		.loc 1 1433 3 view .LVU485
1434:/opt/XMClib/XMC_Peripheral_Library_v2.1.16/XMCLib/src/xmc_usbd.c ****   ep =&xmc_device.ep[ep_addr & (uint32_t)XMC_USBD_ENDPOINT_NUMBER_MASK];
 1342              		.loc 1 1434 3 view .LVU486
1431:/opt/XMClib/XMC_Peripheral_Library_v2.1.16/XMCLib/src/xmc_usbd.c ****   daint_data_t daintmsk;
 1343              		.loc 1 1431 1 is_stmt 0 view .LVU487
 1344 0000 2DE9F84F 		push	{r3, r4, r5, r6, r7, r8, r9, r10, fp, lr}
 1345              	.LCFI8:
 1346              		.cfi_def_cfa_offset 40
 1347              		.cfi_offset 3, -40
 1348              		.cfi_offset 4, -36
 1349              		.cfi_offset 5, -32
 1350              		.cfi_offset 6, -28
 1351              		.cfi_offset 7, -24
 1352              		.cfi_offset 8, -20
 1353              		.cfi_offset 9, -16
 1354              		.cfi_offset 10, -12
 1355              		.cfi_offset 11, -8
 1356              		.cfi_offset 14, -4
1434:/opt/XMClib/XMC_Peripheral_Library_v2.1.16/XMCLib/src/xmc_usbd.c ****   ep =&xmc_device.ep[ep_addr & (uint32_t)XMC_USBD_ENDPOINT_NUMBER_MASK];
 1357              		.loc 1 1434 28 view .LVU488
 1358 0004 9B4C     		ldr	r4, .L145
 1359 0006 D4F8A431 		ldr	r3, [r4, #420]
1431:/opt/XMClib/XMC_Peripheral_Library_v2.1.16/XMCLib/src/xmc_usbd.c ****   daint_data_t daintmsk;
 1360              		.loc 1 1431 1 view .LVU489
 1361 000a 8146     		mov	r9, r0
1435:/opt/XMClib/XMC_Peripheral_Library_v2.1.16/XMCLib/src/xmc_usbd.c ****   memset((void*)ep,0x0U,sizeof(XMC_USBD_EP_t)); /* clear endpoint structure */
 1362              		.loc 1 1435 6 view .LVU490
 1363 000c 00F00F00 		and	r0, r0, #15
 1364              	.LVL73:
1434:/opt/XMClib/XMC_Peripheral_Library_v2.1.16/XMCLib/src/xmc_usbd.c ****   ep =&xmc_device.ep[ep_addr & (uint32_t)XMC_USBD_ENDPOINT_NUMBER_MASK];
 1365              		.loc 1 1434 44 view .LVU491
 1366 0010 DF69     		ldr	r7, [r3, #28]
1435:/opt/XMClib/XMC_Peripheral_Library_v2.1.16/XMCLib/src/xmc_usbd.c ****   memset((void*)ep,0x0U,sizeof(XMC_USBD_EP_t)); /* clear endpoint structure */
 1367              		.loc 1 1435 6 view .LVU492
 1368 0012 00EB4003 		add	r3, r0, r0, lsl #1
 1369 0016 00EB8300 		add	r0, r0, r3, lsl #2
1436:/opt/XMClib/XMC_Peripheral_Library_v2.1.16/XMCLib/src/xmc_usbd.c ****   /* do ep configuration */
 1370              		.loc 1 1436 3 view .LVU493
 1371 001a 4FF0340A 		mov	r10, #52
1431:/opt/XMClib/XMC_Peripheral_Library_v2.1.16/XMCLib/src/xmc_usbd.c ****   daint_data_t daintmsk;
 1372              		.loc 1 1431 1 view .LVU494
 1373 001e 1546     		mov	r5, r2
 1374 0020 0E46     		mov	r6, r1
1436:/opt/XMClib/XMC_Peripheral_Library_v2.1.16/XMCLib/src/xmc_usbd.c ****   /* do ep configuration */
 1375              		.loc 1 1436 3 view .LVU495
 1376 0022 5246     		mov	r2, r10
 1377              	.LVL74:
1436:/opt/XMClib/XMC_Peripheral_Library_v2.1.16/XMCLib/src/xmc_usbd.c ****   /* do ep configuration */
 1378              		.loc 1 1436 3 view .LVU496
 1379 0024 0021     		movs	r1, #0
 1380              	.LVL75:
1436:/opt/XMClib/XMC_Peripheral_Library_v2.1.16/XMCLib/src/xmc_usbd.c ****   /* do ep configuration */
 1381              		.loc 1 1436 3 view .LVU497
 1382 0026 04EB8000 		add	r0, r4, r0, lsl #2
 1383 002a 09F00F08 		and	r8, r9, #15
 1384 002e FFF7FEFF 		bl	memset
 1385              	.LVL76:
1438:/opt/XMClib/XMC_Peripheral_Library_v2.1.16/XMCLib/src/xmc_usbd.c ****   ep->isConfigured = 1U;
 1386              		.loc 1 1438 25 view .LVU498
 1387 0032 0AFB08FC 		mul	ip, r10, r8
 1388 0036 04EB0C01 		add	r1, r4, ip
 1389 003a 04F80C90 		strb	r9, [r4, ip]
1439:/opt/XMClib/XMC_Peripheral_Library_v2.1.16/XMCLib/src/xmc_usbd.c ****   ep->maxPacketSize = (uint8_t)ep_max_packet_size;
 1390              		.loc 1 1439 20 view .LVU499
 1391 003e 4868     		ldr	r0, [r1, #4]
 1392 0040 05F07F03 		and	r3, r5, #127
 1393 0044 DB02     		lsls	r3, r3, #11
 1394 0046 20F47E30 		bic	r0, r0, #260096
 1395 004a 43F00403 		orr	r3, r3, #4
 1396 004e 20F00400 		bic	r0, r0, #4
 1397 0052 0343     		orrs	r3, r3, r0
 1398 0054 4B60     		str	r3, [r1, #4]
1434:/opt/XMClib/XMC_Peripheral_Library_v2.1.16/XMCLib/src/xmc_usbd.c ****   ep =&xmc_device.ep[ep_addr & (uint32_t)XMC_USBD_ENDPOINT_NUMBER_MASK];
 1399              		.loc 1 1434 16 view .LVU500
 1400 0056 3A46     		mov	r2, r7
 1401              	.LVL77:
1435:/opt/XMClib/XMC_Peripheral_Library_v2.1.16/XMCLib/src/xmc_usbd.c ****   memset((void*)ep,0x0U,sizeof(XMC_USBD_EP_t)); /* clear endpoint structure */
 1402              		.loc 1 1435 3 is_stmt 1 view .LVU501
1436:/opt/XMClib/XMC_Peripheral_Library_v2.1.16/XMCLib/src/xmc_usbd.c ****   /* do ep configuration */
 1403              		.loc 1 1436 3 view .LVU502
1438:/opt/XMClib/XMC_Peripheral_Library_v2.1.16/XMCLib/src/xmc_usbd.c ****   ep->isConfigured = 1U;
 1404              		.loc 1 1438 3 view .LVU503
1439:/opt/XMClib/XMC_Peripheral_Library_v2.1.16/XMCLib/src/xmc_usbd.c ****   ep->maxPacketSize = (uint8_t)ep_max_packet_size;
 1405              		.loc 1 1439 3 view .LVU504
1440:/opt/XMClib/XMC_Peripheral_Library_v2.1.16/XMCLib/src/xmc_usbd.c ****   if (ep->address_u.address != 0U)
 1406              		.loc 1 1440 3 view .LVU505
1441:/opt/XMClib/XMC_Peripheral_Library_v2.1.16/XMCLib/src/xmc_usbd.c ****   {
 1407              		.loc 1 1441 3 view .LVU506
1441:/opt/XMClib/XMC_Peripheral_Library_v2.1.16/XMCLib/src/xmc_usbd.c ****   {
 1408              		.loc 1 1441 6 is_stmt 0 view .LVU507
 1409 0058 B9F1000F 		cmp	r9, #0
 1410 005c 7DD0     		beq	.L111
 1411 005e 8B68     		ldr	r3, [r1, #8]
 1412 0060 4FF6C07E 		movw	lr, #65472
 1413 0064 6EF31203 		bfi	r3, lr, #0, #19
 1414 0068 8B60     		str	r3, [r1, #8]
1450:/opt/XMClib/XMC_Peripheral_Library_v2.1.16/XMCLib/src/xmc_usbd.c ****   ep->outBuffer = XMC_USBD_EP_OUT_BUFFER[ep->address_u.address_st.number];
 1415              		.loc 1 1450 3 is_stmt 1 view .LVU508
1450:/opt/XMClib/XMC_Peripheral_Library_v2.1.16/XMCLib/src/xmc_usbd.c ****   ep->outBuffer = XMC_USBD_EP_OUT_BUFFER[ep->address_u.address_st.number];
 1416              		.loc 1 1450 64 is_stmt 0 view .LVU509
 1417 006a 14F80CC0 		ldrb	ip, [r4, ip]	@ zero_extendqisi2
1450:/opt/XMClib/XMC_Peripheral_Library_v2.1.16/XMCLib/src/xmc_usbd.c ****   ep->outBuffer = XMC_USBD_EP_OUT_BUFFER[ep->address_u.address_st.number];
 1418              		.loc 1 1450 18 view .LVU510
 1419 006e 824B     		ldr	r3, .L145+4
1450:/opt/XMClib/XMC_Peripheral_Library_v2.1.16/XMCLib/src/xmc_usbd.c ****   ep->outBuffer = XMC_USBD_EP_OUT_BUFFER[ep->address_u.address_st.number];
 1420              		.loc 1 1450 64 view .LVU511
 1421 0070 0CF00F0C 		and	ip, ip, #15
 1422 0074 4FFA89F0 		sxtb	r0, r9
1453:/opt/XMClib/XMC_Peripheral_Library_v2.1.16/XMCLib/src/xmc_usbd.c ****   ep->outBufferSize = XMC_USBD_EP_OUT_BUFFERSIZE[ep->address_u.address_st.number];
 1423              		.loc 1 1453 47 view .LVU512
 1424 0078 04EB8C0E 		add	lr, r4, ip, lsl #2
1451:/opt/XMClib/XMC_Peripheral_Library_v2.1.16/XMCLib/src/xmc_usbd.c ****   /* buffer size*/
 1425              		.loc 1 1451 19 view .LVU513
 1426 007c 03F5E069 		add	r9, r3, #1792
1450:/opt/XMClib/XMC_Peripheral_Library_v2.1.16/XMCLib/src/xmc_usbd.c ****   ep->outBuffer = XMC_USBD_EP_OUT_BUFFER[ep->address_u.address_st.number];
 1427              		.loc 1 1450 18 view .LVU514
 1428 0080 03EB0C23 		add	r3, r3, ip, lsl #8
1450:/opt/XMClib/XMC_Peripheral_Library_v2.1.16/XMCLib/src/xmc_usbd.c ****   ep->outBuffer = XMC_USBD_EP_OUT_BUFFER[ep->address_u.address_st.number];
 1429              		.loc 1 1450 16 view .LVU515
 1430 0084 CB61     		str	r3, [r1, #28]
1451:/opt/XMClib/XMC_Peripheral_Library_v2.1.16/XMCLib/src/xmc_usbd.c ****   /* buffer size*/
 1431              		.loc 1 1451 3 is_stmt 1 view .LVU516
1451:/opt/XMClib/XMC_Peripheral_Library_v2.1.16/XMCLib/src/xmc_usbd.c ****   /* buffer size*/
 1432              		.loc 1 1451 19 is_stmt 0 view .LVU517
 1433 0086 09EB0C23 		add	r3, r9, ip, lsl #8
1451:/opt/XMClib/XMC_Peripheral_Library_v2.1.16/XMCLib/src/xmc_usbd.c ****   /* buffer size*/
 1434              		.loc 1 1451 17 view .LVU518
 1435 008a CB60     		str	r3, [r1, #12]
1453:/opt/XMClib/XMC_Peripheral_Library_v2.1.16/XMCLib/src/xmc_usbd.c ****   ep->outBufferSize = XMC_USBD_EP_OUT_BUFFERSIZE[ep->address_u.address_st.number];
 1436              		.loc 1 1453 3 is_stmt 1 view .LVU519
1453:/opt/XMClib/XMC_Peripheral_Library_v2.1.16/XMCLib/src/xmc_usbd.c ****   ep->outBufferSize = XMC_USBD_EP_OUT_BUFFERSIZE[ep->address_u.address_st.number];
 1437              		.loc 1 1453 20 is_stmt 0 view .LVU520
 1438 008c DEF80C32 		ldr	r3, [lr, #524]
 1439 0090 0B62     		str	r3, [r1, #32]
1454:/opt/XMClib/XMC_Peripheral_Library_v2.1.16/XMCLib/src/xmc_usbd.c ****   /* is in */
 1440              		.loc 1 1454 3 is_stmt 1 view .LVU521
1456:/opt/XMClib/XMC_Peripheral_Library_v2.1.16/XMCLib/src/xmc_usbd.c ****   {
 1441              		.loc 1 1456 6 is_stmt 0 view .LVU522
 1442 0092 0028     		cmp	r0, #0
1454:/opt/XMClib/XMC_Peripheral_Library_v2.1.16/XMCLib/src/xmc_usbd.c ****   /* is in */
 1443              		.loc 1 1454 21 view .LVU523
 1444 0094 DEF82832 		ldr	r3, [lr, #552]
 1445 0098 4B61     		str	r3, [r1, #20]
1456:/opt/XMClib/XMC_Peripheral_Library_v2.1.16/XMCLib/src/xmc_usbd.c ****   {
 1446              		.loc 1 1456 3 is_stmt 1 view .LVU524
1456:/opt/XMClib/XMC_Peripheral_Library_v2.1.16/XMCLib/src/xmc_usbd.c ****   {
 1447              		.loc 1 1456 6 is_stmt 0 view .LVU525
 1448 009a 7ADA     		bge	.L137
 1449              	.LBB48:
1458:/opt/XMClib/XMC_Peripheral_Library_v2.1.16/XMCLib/src/xmc_usbd.c ****     data.d32 = xmc_device.endpoint_in_register[ep->address_u.address_st.number]->diepctl;
 1450              		.loc 1 1458 5 is_stmt 1 view .LVU526
1459:/opt/XMClib/XMC_Peripheral_Library_v2.1.16/XMCLib/src/xmc_usbd.c **** 		/*enable endpoint */
 1451              		.loc 1 1459 5 view .LVU527
1459:/opt/XMClib/XMC_Peripheral_Library_v2.1.16/XMCLib/src/xmc_usbd.c **** 		/*enable endpoint */
 1452              		.loc 1 1459 47 is_stmt 0 view .LVU528
 1453 009c 0CF16A03 		add	r3, ip, #106
 1454 00a0 54F82390 		ldr	r9, [r4, r3, lsl #2]
1461:/opt/XMClib/XMC_Peripheral_Library_v2.1.16/XMCLib/src/xmc_usbd.c **** 		/* set ep type */
 1455              		.loc 1 1461 19 view .LVU529
 1456 00a4 06F00303 		and	r3, r6, #3
1459:/opt/XMClib/XMC_Peripheral_Library_v2.1.16/XMCLib/src/xmc_usbd.c **** 		/*enable endpoint */
 1457              		.loc 1 1459 80 view .LVU530
 1458 00a8 D9F800E0 		ldr	lr, [r9]
 1459              	.LVL78:
1461:/opt/XMClib/XMC_Peripheral_Library_v2.1.16/XMCLib/src/xmc_usbd.c **** 		/* set ep type */
 1460              		.loc 1 1461 3 is_stmt 1 view .LVU531
1463:/opt/XMClib/XMC_Peripheral_Library_v2.1.16/XMCLib/src/xmc_usbd.c **** 		/* set mps */
 1461              		.loc 1 1463 3 view .LVU532
1461:/opt/XMClib/XMC_Peripheral_Library_v2.1.16/XMCLib/src/xmc_usbd.c **** 		/* set ep type */
 1462              		.loc 1 1461 19 is_stmt 0 view .LVU533
 1463 00ac 9B04     		lsls	r3, r3, #18
 1464 00ae 43F40043 		orr	r3, r3, #32768
 1465 00b2 2EF4482E 		bic	lr, lr, #819200
 1466              	.LVL79:
1461:/opt/XMClib/XMC_Peripheral_Library_v2.1.16/XMCLib/src/xmc_usbd.c **** 		/* set ep type */
 1467              		.loc 1 1461 19 view .LVU534
 1468 00b6 43EA0E0E 		orr	lr, r3, lr
1465:/opt/XMClib/XMC_Peripheral_Library_v2.1.16/XMCLib/src/xmc_usbd.c ****     {
 1469              		.loc 1 1465 5 is_stmt 1 view .LVU535
1465:/opt/XMClib/XMC_Peripheral_Library_v2.1.16/XMCLib/src/xmc_usbd.c ****     {
 1470              		.loc 1 1465 8 is_stmt 0 view .LVU536
 1471 00ba 002E     		cmp	r6, #0
 1472 00bc 74D0     		beq	.L136
1487:/opt/XMClib/XMC_Peripheral_Library_v2.1.16/XMCLib/src/xmc_usbd.c **** 		}
 1473              		.loc 1 1487 4 is_stmt 1 view .LVU537
1487:/opt/XMClib/XMC_Peripheral_Library_v2.1.16/XMCLib/src/xmc_usbd.c **** 		}
 1474              		.loc 1 1487 15 is_stmt 0 view .LVU538
 1475 00be 65F30A0E 		bfi	lr, r5, #0, #11
 1476              	.LVL80:
 1477              	.L120:
1490:/opt/XMClib/XMC_Peripheral_Library_v2.1.16/XMCLib/src/xmc_usbd.c **** 		/* clear stall */
 1478              		.loc 1 1490 3 is_stmt 1 view .LVU539
1492:/opt/XMClib/XMC_Peripheral_Library_v2.1.16/XMCLib/src/xmc_usbd.c **** 		/* set tx fifo */
 1479              		.loc 1 1492 3 view .LVU540
1492:/opt/XMClib/XMC_Peripheral_Library_v2.1.16/XMCLib/src/xmc_usbd.c **** 		/* set tx fifo */
 1480              		.loc 1 1492 16 is_stmt 0 view .LVU541
 1481 00c2 CEF30F43 		ubfx	r3, lr, #16, #16
 1482 00c6 23F48153 		bic	r3, r3, #4128
 1483 00ca 43F48053 		orr	r3, r3, #4096
 1484              	.LBB49:
 1485              	.LBB50:
 363:/opt/XMClib/XMC_Peripheral_Library_v2.1.16/XMCLib/src/xmc_usbd.c ****   {
 1486              		.loc 1 363 60 view .LVU542
 1487 00ce B4F8FCA1 		ldrh	r10, [r4, #508]
 1488              	.LBE50:
 1489              	.LBE49:
1492:/opt/XMClib/XMC_Peripheral_Library_v2.1.16/XMCLib/src/xmc_usbd.c **** 		/* set tx fifo */
 1490              		.loc 1 1492 16 view .LVU543
 1491 00d2 63F31F4E 		bfi	lr, r3, #16, #16
1494:/opt/XMClib/XMC_Peripheral_Library_v2.1.16/XMCLib/src/xmc_usbd.c **** 		data.b.txfnum = ep->txFifoNum;
 1492              		.loc 1 1494 3 is_stmt 1 view .LVU544
 1493              	.LBB53:
 1494              	.LBI49:
 358:/opt/XMClib/XMC_Peripheral_Library_v2.1.16/XMCLib/src/xmc_usbd.c **** {
 1495              		.loc 1 358 16 view .LVU545
 1496              	.LBB51:
 360:/opt/XMClib/XMC_Peripheral_Library_v2.1.16/XMCLib/src/xmc_usbd.c ****   uint8_t i = 0U;
 1497              		.loc 1 360 3 view .LVU546
 1498              	.LVL81:
 361:/opt/XMClib/XMC_Peripheral_Library_v2.1.16/XMCLib/src/xmc_usbd.c ****   uint8_t result = 0U;
 1499              		.loc 1 361 3 view .LVU547
 362:/opt/XMClib/XMC_Peripheral_Library_v2.1.16/XMCLib/src/xmc_usbd.c ****   while( (i < (uint8_t)XMC_USBD_NUM_TX_FIFOS)&&((xmc_device.txfifomsk & mask) != 0U))
 1500              		.loc 1 362 3 view .LVU548
 363:/opt/XMClib/XMC_Peripheral_Library_v2.1.16/XMCLib/src/xmc_usbd.c ****   {
 1501              		.loc 1 363 3 view .LVU549
 363:/opt/XMClib/XMC_Peripheral_Library_v2.1.16/XMCLib/src/xmc_usbd.c ****   {
 1502              		.loc 1 363 8 view .LVU550
 360:/opt/XMClib/XMC_Peripheral_Library_v2.1.16/XMCLib/src/xmc_usbd.c ****   uint8_t i = 0U;
 1503              		.loc 1 360 12 is_stmt 0 view .LVU551
 1504 00d6 0121     		movs	r1, #1
 363:/opt/XMClib/XMC_Peripheral_Library_v2.1.16/XMCLib/src/xmc_usbd.c ****   {
 1505              		.loc 1 363 60 view .LVU552
 1506 00d8 0023     		movs	r3, #0
 1507              	.LVL82:
 1508              	.L121:
 365:/opt/XMClib/XMC_Peripheral_Library_v2.1.16/XMCLib/src/xmc_usbd.c ****     i++;
 1509              		.loc 1 365 5 is_stmt 1 view .LVU553
 363:/opt/XMClib/XMC_Peripheral_Library_v2.1.16/XMCLib/src/xmc_usbd.c ****   {
 1510              		.loc 1 363 46 is_stmt 0 view .LVU554
 1511 00da 1AEA010F 		tst	r10, r1
 365:/opt/XMClib/XMC_Peripheral_Library_v2.1.16/XMCLib/src/xmc_usbd.c ****     i++;
 1512              		.loc 1 365 10 view .LVU555
 1513 00de 4FEA410B 		lsl	fp, r1, #1
 363:/opt/XMClib/XMC_Peripheral_Library_v2.1.16/XMCLib/src/xmc_usbd.c ****   {
 1514              		.loc 1 363 46 view .LVU556
 1515 00e2 00F09D80 		beq	.L143
 363:/opt/XMClib/XMC_Peripheral_Library_v2.1.16/XMCLib/src/xmc_usbd.c ****   {
 1516              		.loc 1 363 8 view .LVU557
 1517 00e6 0133     		adds	r3, r3, #1
 1518              	.LVL83:
 363:/opt/XMClib/XMC_Peripheral_Library_v2.1.16/XMCLib/src/xmc_usbd.c ****   {
 1519              		.loc 1 363 8 view .LVU558
 1520 00e8 072B     		cmp	r3, #7
 365:/opt/XMClib/XMC_Peripheral_Library_v2.1.16/XMCLib/src/xmc_usbd.c ****     i++;
 1521              		.loc 1 365 10 view .LVU559
 1522 00ea 1FFA8BF1 		uxth	r1, fp
 1523              	.LVL84:
 366:/opt/XMClib/XMC_Peripheral_Library_v2.1.16/XMCLib/src/xmc_usbd.c ****   }
 1524              		.loc 1 366 5 is_stmt 1 view .LVU560
 363:/opt/XMClib/XMC_Peripheral_Library_v2.1.16/XMCLib/src/xmc_usbd.c ****   {
 1525              		.loc 1 363 8 view .LVU561
 1526 00ee F4D1     		bne	.L121
 368:/opt/XMClib/XMC_Peripheral_Library_v2.1.16/XMCLib/src/xmc_usbd.c ****   {
 1527              		.loc 1 368 3 view .LVU562
 368:/opt/XMClib/XMC_Peripheral_Library_v2.1.16/XMCLib/src/xmc_usbd.c ****   {
 1528              		.loc 1 368 6 is_stmt 0 view .LVU563
 1529 00f0 11EA0A0F 		tst	r1, r10
 1530 00f4 00F09680 		beq	.L124
 1531 00f8 0023     		movs	r3, #0
 1532              	.LVL85:
 1533              	.L125:
 373:/opt/XMClib/XMC_Peripheral_Library_v2.1.16/XMCLib/src/xmc_usbd.c **** }
 1534              		.loc 1 373 3 is_stmt 1 view .LVU564
 1535              	.LBE51:
 1536              	.LBE53:
1494:/opt/XMClib/XMC_Peripheral_Library_v2.1.16/XMCLib/src/xmc_usbd.c **** 		data.b.txfnum = ep->txFifoNum;
 1537              		.loc 1 1494 17 is_stmt 0 view .LVU565
 1538 00fa 3421     		movs	r1, #52
 1539 00fc 01FB0848 		mla	r8, r1, r8, r4
 1540              	.LVL86:
1497:/opt/XMClib/XMC_Peripheral_Library_v2.1.16/XMCLib/src/xmc_usbd.c ****   }
 1541              		.loc 1 1497 45 view .LVU566
 1542 0100 0121     		movs	r1, #1
1494:/opt/XMClib/XMC_Peripheral_Library_v2.1.16/XMCLib/src/xmc_usbd.c **** 		data.b.txfnum = ep->txFifoNum;
 1543              		.loc 1 1494 17 view .LVU567
 1544 0102 B8F804A0 		ldrh	r10, [r8, #4]
1497:/opt/XMClib/XMC_Peripheral_Library_v2.1.16/XMCLib/src/xmc_usbd.c ****   }
 1545              		.loc 1 1497 45 view .LVU568
 1546 0106 01FA0CF1 		lsl	r1, r1, ip
1497:/opt/XMClib/XMC_Peripheral_Library_v2.1.16/XMCLib/src/xmc_usbd.c ****   }
 1547              		.loc 1 1497 21 view .LVU569
 1548 010a 89B2     		uxth	r1, r1
1495:/opt/XMClib/XMC_Peripheral_Library_v2.1.16/XMCLib/src/xmc_usbd.c **** 		xmc_device.endpoint_in_register[ep->address_u.address_st.number]->diepctl = data.d32; /* configur
 1549              		.loc 1 1495 17 view .LVU570
 1550 010c 63F3995E 		bfi	lr, r3, #22, #4
1494:/opt/XMClib/XMC_Peripheral_Library_v2.1.16/XMCLib/src/xmc_usbd.c **** 		data.b.txfnum = ep->txFifoNum;
 1551              		.loc 1 1494 17 view .LVU571
 1552 0110 63F3891A 		bfi	r10, r3, #6, #4
 1553              	.LBE48:
1499:/opt/XMClib/XMC_Peripheral_Library_v2.1.16/XMCLib/src/xmc_usbd.c ****   {
 1554              		.loc 1 1499 6 view .LVU572
 1555 0114 0028     		cmp	r0, #0
 1556              	.LBB55:
1497:/opt/XMClib/XMC_Peripheral_Library_v2.1.16/XMCLib/src/xmc_usbd.c ****   }
 1557              		.loc 1 1497 18 view .LVU573
 1558 0116 41EA0703 		orr	r3, r1, r7
1494:/opt/XMClib/XMC_Peripheral_Library_v2.1.16/XMCLib/src/xmc_usbd.c **** 		data.b.txfnum = ep->txFifoNum;
 1559              		.loc 1 1494 17 view .LVU574
 1560 011a A8F804A0 		strh	r10, [r8, #4]	@ movhi
1495:/opt/XMClib/XMC_Peripheral_Library_v2.1.16/XMCLib/src/xmc_usbd.c **** 		xmc_device.endpoint_in_register[ep->address_u.address_st.number]->diepctl = data.d32; /* configur
 1561              		.loc 1 1495 3 is_stmt 1 view .LVU575
1496:/opt/XMClib/XMC_Peripheral_Library_v2.1.16/XMCLib/src/xmc_usbd.c **** 		daintmsk.ep.in |= (uint16_t)((uint16_t)1U << (uint8_t)ep->address_u.address_st.number); /* enable
 1562              		.loc 1 1496 3 view .LVU576
1497:/opt/XMClib/XMC_Peripheral_Library_v2.1.16/XMCLib/src/xmc_usbd.c ****   }
 1563              		.loc 1 1497 18 is_stmt 0 view .LVU577
 1564 011e 63F30F02 		bfi	r2, r3, #0, #16
 1565              	.LVL87:
1496:/opt/XMClib/XMC_Peripheral_Library_v2.1.16/XMCLib/src/xmc_usbd.c **** 		daintmsk.ep.in |= (uint16_t)((uint16_t)1U << (uint8_t)ep->address_u.address_st.number); /* enable
 1566              		.loc 1 1496 77 view .LVU578
 1567 0122 C9F800E0 		str	lr, [r9]
1497:/opt/XMClib/XMC_Peripheral_Library_v2.1.16/XMCLib/src/xmc_usbd.c ****   }
 1568              		.loc 1 1497 3 is_stmt 1 view .LVU579
 1569              	.LBE55:
1499:/opt/XMClib/XMC_Peripheral_Library_v2.1.16/XMCLib/src/xmc_usbd.c ****   {
 1570              		.loc 1 1499 3 view .LVU580
1499:/opt/XMClib/XMC_Peripheral_Library_v2.1.16/XMCLib/src/xmc_usbd.c ****   {
 1571              		.loc 1 1499 6 is_stmt 0 view .LVU581
 1572 0126 80F28280 		bge	.L126
1499:/opt/XMClib/XMC_Peripheral_Library_v2.1.16/XMCLib/src/xmc_usbd.c ****   {
 1573              		.loc 1 1499 50 discriminator 1 view .LVU582
 1574 012a 002E     		cmp	r6, #0
 1575 012c 67D1     		bne	.L128
 1576              	.LBB56:
1502:/opt/XMClib/XMC_Peripheral_Library_v2.1.16/XMCLib/src/xmc_usbd.c **** 		data.d32 = xmc_device.endpoint_out_register[ep->address_u.address_st.number]->doepctl;
 1577              		.loc 1 1502 3 is_stmt 1 view .LVU583
1503:/opt/XMClib/XMC_Peripheral_Library_v2.1.16/XMCLib/src/xmc_usbd.c **** 		/*enable endpoint */
 1578              		.loc 1 1503 3 view .LVU584
1503:/opt/XMClib/XMC_Peripheral_Library_v2.1.16/XMCLib/src/xmc_usbd.c **** 		/*enable endpoint */
 1579              		.loc 1 1503 46 is_stmt 0 view .LVU585
 1580 012e 04EB8C0C 		add	ip, r4, ip, lsl #2
 1581 0132 DCF8C401 		ldr	r0, [ip, #452]
1503:/opt/XMClib/XMC_Peripheral_Library_v2.1.16/XMCLib/src/xmc_usbd.c **** 		/*enable endpoint */
 1582              		.loc 1 1503 79 view .LVU586
 1583 0136 0368     		ldr	r3, [r0]
 1584              	.LVL88:
1505:/opt/XMClib/XMC_Peripheral_Library_v2.1.16/XMCLib/src/xmc_usbd.c **** 		/* set ep type */
 1585              		.loc 1 1505 3 is_stmt 1 view .LVU587
1507:/opt/XMClib/XMC_Peripheral_Library_v2.1.16/XMCLib/src/xmc_usbd.c ****     /* set mps */
 1586              		.loc 1 1507 3 view .LVU588
1505:/opt/XMClib/XMC_Peripheral_Library_v2.1.16/XMCLib/src/xmc_usbd.c **** 		/* set ep type */
 1587              		.loc 1 1505 19 is_stmt 0 view .LVU589
 1588 0138 23F44823 		bic	r3, r3, #819200
 1589              	.LVL89:
1505:/opt/XMClib/XMC_Peripheral_Library_v2.1.16/XMCLib/src/xmc_usbd.c **** 		/* set ep type */
 1590              		.loc 1 1505 19 view .LVU590
 1591 013c 43F40043 		orr	r3, r3, #32768
1509:/opt/XMClib/XMC_Peripheral_Library_v2.1.16/XMCLib/src/xmc_usbd.c **** 		{
 1592              		.loc 1 1509 5 is_stmt 1 view .LVU591
 1593              	.L135:
1511:/opt/XMClib/XMC_Peripheral_Library_v2.1.16/XMCLib/src/xmc_usbd.c **** 			{
 1594              		.loc 1 1511 4 view .LVU592
 1595 0140 202D     		cmp	r5, #32
 1596 0142 00F08B80 		beq	.L130
 1597 0146 60D8     		bhi	.L131
 1598 0148 082D     		cmp	r5, #8
 1599 014a 00F08380 		beq	.L132
 1600 014e 102D     		cmp	r5, #16
 1601 0150 48D1     		bne	.L134
1520:/opt/XMClib/XMC_Peripheral_Library_v2.1.16/XMCLib/src/xmc_usbd.c **** 					break;
 1602              		.loc 1 1520 6 view .LVU593
1520:/opt/XMClib/XMC_Peripheral_Library_v2.1.16/XMCLib/src/xmc_usbd.c **** 					break;
 1603              		.loc 1 1520 17 is_stmt 0 view .LVU594
 1604 0152 0225     		movs	r5, #2
 1605 0154 65F30A03 		bfi	r3, r5, #0, #11
 1606              	.LVL90:
1521:/opt/XMClib/XMC_Peripheral_Library_v2.1.16/XMCLib/src/xmc_usbd.c **** 				case (8U):
 1607              		.loc 1 1521 6 is_stmt 1 view .LVU595
 1608 0158 44E0     		b	.L134
 1609              	.LVL91:
 1610              	.L111:
1521:/opt/XMClib/XMC_Peripheral_Library_v2.1.16/XMCLib/src/xmc_usbd.c **** 				case (8U):
 1611              		.loc 1 1521 6 is_stmt 0 view .LVU596
 1612              	.LBE56:
1447:/opt/XMClib/XMC_Peripheral_Library_v2.1.16/XMCLib/src/xmc_usbd.c ****   }
 1613              		.loc 1 1447 5 is_stmt 1 view .LVU597
 1614 015a 8B68     		ldr	r3, [r1, #8]
 1615 015c 4FF0400E 		mov	lr, #64
 1616 0160 6EF31203 		bfi	r3, lr, #0, #19
 1617 0164 8B60     		str	r3, [r1, #8]
1450:/opt/XMClib/XMC_Peripheral_Library_v2.1.16/XMCLib/src/xmc_usbd.c ****   ep->outBuffer = XMC_USBD_EP_OUT_BUFFER[ep->address_u.address_st.number];
 1618              		.loc 1 1450 3 view .LVU598
1450:/opt/XMClib/XMC_Peripheral_Library_v2.1.16/XMCLib/src/xmc_usbd.c ****   ep->outBuffer = XMC_USBD_EP_OUT_BUFFER[ep->address_u.address_st.number];
 1619              		.loc 1 1450 64 is_stmt 0 view .LVU599
 1620 0166 14F80CC0 		ldrb	ip, [r4, ip]	@ zero_extendqisi2
1450:/opt/XMClib/XMC_Peripheral_Library_v2.1.16/XMCLib/src/xmc_usbd.c ****   ep->outBuffer = XMC_USBD_EP_OUT_BUFFER[ep->address_u.address_st.number];
 1621              		.loc 1 1450 18 view .LVU600
 1622 016a 434B     		ldr	r3, .L145+4
1450:/opt/XMClib/XMC_Peripheral_Library_v2.1.16/XMCLib/src/xmc_usbd.c ****   ep->outBuffer = XMC_USBD_EP_OUT_BUFFER[ep->address_u.address_st.number];
 1623              		.loc 1 1450 64 view .LVU601
 1624 016c 0CF00F0C 		and	ip, ip, #15
1453:/opt/XMClib/XMC_Peripheral_Library_v2.1.16/XMCLib/src/xmc_usbd.c ****   ep->outBufferSize = XMC_USBD_EP_OUT_BUFFERSIZE[ep->address_u.address_st.number];
 1625              		.loc 1 1453 47 view .LVU602
 1626 0170 04EB8C0E 		add	lr, r4, ip, lsl #2
1454:/opt/XMClib/XMC_Peripheral_Library_v2.1.16/XMCLib/src/xmc_usbd.c ****   /* is in */
 1627              		.loc 1 1454 21 view .LVU603
 1628 0174 4846     		mov	r0, r9
1451:/opt/XMClib/XMC_Peripheral_Library_v2.1.16/XMCLib/src/xmc_usbd.c ****   /* buffer size*/
 1629              		.loc 1 1451 19 view .LVU604
 1630 0176 03F5E069 		add	r9, r3, #1792
1450:/opt/XMClib/XMC_Peripheral_Library_v2.1.16/XMCLib/src/xmc_usbd.c ****   ep->outBuffer = XMC_USBD_EP_OUT_BUFFER[ep->address_u.address_st.number];
 1631              		.loc 1 1450 18 view .LVU605
 1632 017a 03EB0C23 		add	r3, r3, ip, lsl #8
1450:/opt/XMClib/XMC_Peripheral_Library_v2.1.16/XMCLib/src/xmc_usbd.c ****   ep->outBuffer = XMC_USBD_EP_OUT_BUFFER[ep->address_u.address_st.number];
 1633              		.loc 1 1450 16 view .LVU606
 1634 017e CB61     		str	r3, [r1, #28]
1451:/opt/XMClib/XMC_Peripheral_Library_v2.1.16/XMCLib/src/xmc_usbd.c ****   /* buffer size*/
 1635              		.loc 1 1451 3 is_stmt 1 view .LVU607
1451:/opt/XMClib/XMC_Peripheral_Library_v2.1.16/XMCLib/src/xmc_usbd.c ****   /* buffer size*/
 1636              		.loc 1 1451 19 is_stmt 0 view .LVU608
 1637 0180 09EB0C23 		add	r3, r9, ip, lsl #8
1451:/opt/XMClib/XMC_Peripheral_Library_v2.1.16/XMCLib/src/xmc_usbd.c ****   /* buffer size*/
 1638              		.loc 1 1451 17 view .LVU609
 1639 0184 CB60     		str	r3, [r1, #12]
1453:/opt/XMClib/XMC_Peripheral_Library_v2.1.16/XMCLib/src/xmc_usbd.c ****   ep->outBufferSize = XMC_USBD_EP_OUT_BUFFERSIZE[ep->address_u.address_st.number];
 1640              		.loc 1 1453 3 is_stmt 1 view .LVU610
1453:/opt/XMClib/XMC_Peripheral_Library_v2.1.16/XMCLib/src/xmc_usbd.c ****   ep->outBufferSize = XMC_USBD_EP_OUT_BUFFERSIZE[ep->address_u.address_st.number];
 1641              		.loc 1 1453 20 is_stmt 0 view .LVU611
 1642 0186 DEF80C32 		ldr	r3, [lr, #524]
 1643 018a 0B62     		str	r3, [r1, #32]
1454:/opt/XMClib/XMC_Peripheral_Library_v2.1.16/XMCLib/src/xmc_usbd.c ****   /* is in */
 1644              		.loc 1 1454 3 is_stmt 1 view .LVU612
1454:/opt/XMClib/XMC_Peripheral_Library_v2.1.16/XMCLib/src/xmc_usbd.c ****   /* is in */
 1645              		.loc 1 1454 21 is_stmt 0 view .LVU613
 1646 018c DEF82832 		ldr	r3, [lr, #552]
 1647 0190 4B61     		str	r3, [r1, #20]
1456:/opt/XMClib/XMC_Peripheral_Library_v2.1.16/XMCLib/src/xmc_usbd.c ****   {
 1648              		.loc 1 1456 3 is_stmt 1 view .LVU614
 1649              	.L137:
1456:/opt/XMClib/XMC_Peripheral_Library_v2.1.16/XMCLib/src/xmc_usbd.c ****   {
 1650              		.loc 1 1456 50 is_stmt 0 discriminator 1 view .LVU615
 1651 0192 A6B9     		cbnz	r6, .L144
 1652              	.LBB57:
1458:/opt/XMClib/XMC_Peripheral_Library_v2.1.16/XMCLib/src/xmc_usbd.c ****     data.d32 = xmc_device.endpoint_in_register[ep->address_u.address_st.number]->diepctl;
 1653              		.loc 1 1458 5 is_stmt 1 view .LVU616
1459:/opt/XMClib/XMC_Peripheral_Library_v2.1.16/XMCLib/src/xmc_usbd.c **** 		/*enable endpoint */
 1654              		.loc 1 1459 5 view .LVU617
1459:/opt/XMClib/XMC_Peripheral_Library_v2.1.16/XMCLib/src/xmc_usbd.c **** 		/*enable endpoint */
 1655              		.loc 1 1459 47 is_stmt 0 view .LVU618
 1656 0194 0CF16A03 		add	r3, ip, #106
 1657 0198 54F82390 		ldr	r9, [r4, r3, lsl #2]
1459:/opt/XMClib/XMC_Peripheral_Library_v2.1.16/XMCLib/src/xmc_usbd.c **** 		/*enable endpoint */
 1658              		.loc 1 1459 80 view .LVU619
 1659 019c D9F800E0 		ldr	lr, [r9]
 1660              	.LVL92:
1461:/opt/XMClib/XMC_Peripheral_Library_v2.1.16/XMCLib/src/xmc_usbd.c **** 		/* set ep type */
 1661              		.loc 1 1461 3 is_stmt 1 view .LVU620
1463:/opt/XMClib/XMC_Peripheral_Library_v2.1.16/XMCLib/src/xmc_usbd.c **** 		/* set mps */
 1662              		.loc 1 1463 3 view .LVU621
1461:/opt/XMClib/XMC_Peripheral_Library_v2.1.16/XMCLib/src/xmc_usbd.c **** 		/* set ep type */
 1663              		.loc 1 1461 19 is_stmt 0 view .LVU622
 1664 01a0 2EF4482E 		bic	lr, lr, #819200
 1665              	.LVL93:
1461:/opt/XMClib/XMC_Peripheral_Library_v2.1.16/XMCLib/src/xmc_usbd.c **** 		/* set ep type */
 1666              		.loc 1 1461 19 view .LVU623
 1667 01a4 4EF4004E 		orr	lr, lr, #32768
1465:/opt/XMClib/XMC_Peripheral_Library_v2.1.16/XMCLib/src/xmc_usbd.c ****     {
 1668              		.loc 1 1465 5 is_stmt 1 view .LVU624
 1669              	.L136:
1467:/opt/XMClib/XMC_Peripheral_Library_v2.1.16/XMCLib/src/xmc_usbd.c **** 			{
 1670              		.loc 1 1467 4 view .LVU625
 1671 01a8 202D     		cmp	r5, #32
 1672 01aa 5FD0     		beq	.L116
 1673 01ac 32D8     		bhi	.L117
 1674 01ae 082D     		cmp	r5, #8
 1675 01b0 58D0     		beq	.L118
 1676 01b2 102D     		cmp	r5, #16
 1677 01b4 85D1     		bne	.L120
1476:/opt/XMClib/XMC_Peripheral_Library_v2.1.16/XMCLib/src/xmc_usbd.c **** 				break;
 1678              		.loc 1 1476 5 view .LVU626
1476:/opt/XMClib/XMC_Peripheral_Library_v2.1.16/XMCLib/src/xmc_usbd.c **** 				break;
 1679              		.loc 1 1476 16 is_stmt 0 view .LVU627
 1680 01b6 0223     		movs	r3, #2
 1681 01b8 63F30A0E 		bfi	lr, r3, #0, #11
 1682              	.LVL94:
1477:/opt/XMClib/XMC_Peripheral_Library_v2.1.16/XMCLib/src/xmc_usbd.c **** 				case (8U):
 1683              		.loc 1 1477 5 is_stmt 1 view .LVU628
 1684 01bc 81E7     		b	.L120
 1685              	.LVL95:
 1686              	.L144:
1477:/opt/XMClib/XMC_Peripheral_Library_v2.1.16/XMCLib/src/xmc_usbd.c **** 				case (8U):
 1687              		.loc 1 1477 5 is_stmt 0 view .LVU629
 1688              	.LBE57:
 1689              	.LBB58:
1502:/opt/XMClib/XMC_Peripheral_Library_v2.1.16/XMCLib/src/xmc_usbd.c **** 		data.d32 = xmc_device.endpoint_out_register[ep->address_u.address_st.number]->doepctl;
 1690              		.loc 1 1502 3 is_stmt 1 view .LVU630
1503:/opt/XMClib/XMC_Peripheral_Library_v2.1.16/XMCLib/src/xmc_usbd.c **** 		/*enable endpoint */
 1691              		.loc 1 1503 3 view .LVU631
1503:/opt/XMClib/XMC_Peripheral_Library_v2.1.16/XMCLib/src/xmc_usbd.c **** 		/*enable endpoint */
 1692              		.loc 1 1503 46 is_stmt 0 view .LVU632
 1693 01be 04EB8C03 		add	r3, r4, ip, lsl #2
1505:/opt/XMClib/XMC_Peripheral_Library_v2.1.16/XMCLib/src/xmc_usbd.c **** 		/* set ep type */
 1694              		.loc 1 1505 19 view .LVU633
 1695 01c2 06F00306 		and	r6, r6, #3
1503:/opt/XMClib/XMC_Peripheral_Library_v2.1.16/XMCLib/src/xmc_usbd.c **** 		/*enable endpoint */
 1696              		.loc 1 1503 46 view .LVU634
 1697 01c6 D3F8C401 		ldr	r0, [r3, #452]
1503:/opt/XMClib/XMC_Peripheral_Library_v2.1.16/XMCLib/src/xmc_usbd.c **** 		/*enable endpoint */
 1698              		.loc 1 1503 79 view .LVU635
 1699 01ca 0368     		ldr	r3, [r0]
 1700              	.LVL96:
1505:/opt/XMClib/XMC_Peripheral_Library_v2.1.16/XMCLib/src/xmc_usbd.c **** 		/* set ep type */
 1701              		.loc 1 1505 3 is_stmt 1 view .LVU636
1507:/opt/XMClib/XMC_Peripheral_Library_v2.1.16/XMCLib/src/xmc_usbd.c ****     /* set mps */
 1702              		.loc 1 1507 3 view .LVU637
1505:/opt/XMClib/XMC_Peripheral_Library_v2.1.16/XMCLib/src/xmc_usbd.c **** 		/* set ep type */
 1703              		.loc 1 1505 19 is_stmt 0 view .LVU638
 1704 01cc B604     		lsls	r6, r6, #18
 1705              	.LBE58:
 1706              	.LBB59:
1497:/opt/XMClib/XMC_Peripheral_Library_v2.1.16/XMCLib/src/xmc_usbd.c ****   }
 1707              		.loc 1 1497 45 view .LVU639
 1708 01ce 0121     		movs	r1, #1
 1709              	.LBE59:
 1710              	.LBB60:
1505:/opt/XMClib/XMC_Peripheral_Library_v2.1.16/XMCLib/src/xmc_usbd.c **** 		/* set ep type */
 1711              		.loc 1 1505 19 view .LVU640
 1712 01d0 46F40046 		orr	r6, r6, #32768
 1713              	.LBE60:
 1714              	.LBB61:
1497:/opt/XMClib/XMC_Peripheral_Library_v2.1.16/XMCLib/src/xmc_usbd.c ****   }
 1715              		.loc 1 1497 45 view .LVU641
 1716 01d4 01FA0CF1 		lsl	r1, r1, ip
 1717              	.LBE61:
 1718              	.LBB62:
1505:/opt/XMClib/XMC_Peripheral_Library_v2.1.16/XMCLib/src/xmc_usbd.c **** 		/* set ep type */
 1719              		.loc 1 1505 19 view .LVU642
 1720 01d8 23F44823 		bic	r3, r3, #819200
 1721              	.LVL97:
1505:/opt/XMClib/XMC_Peripheral_Library_v2.1.16/XMCLib/src/xmc_usbd.c **** 		/* set ep type */
 1722              		.loc 1 1505 19 view .LVU643
 1723              	.LBE62:
 1724              	.LBB63:
1497:/opt/XMClib/XMC_Peripheral_Library_v2.1.16/XMCLib/src/xmc_usbd.c ****   }
 1725              		.loc 1 1497 21 view .LVU644
 1726 01dc 89B2     		uxth	r1, r1
 1727              	.LBE63:
 1728              	.LBB64:
1505:/opt/XMClib/XMC_Peripheral_Library_v2.1.16/XMCLib/src/xmc_usbd.c **** 		/* set ep type */
 1729              		.loc 1 1505 19 view .LVU645
 1730 01de 3343     		orrs	r3, r3, r6
1509:/opt/XMClib/XMC_Peripheral_Library_v2.1.16/XMCLib/src/xmc_usbd.c **** 		{
 1731              		.loc 1 1509 5 is_stmt 1 view .LVU646
 1732              	.LVL98:
 1733              	.L129:
1531:/opt/XMClib/XMC_Peripheral_Library_v2.1.16/XMCLib/src/xmc_usbd.c **** 		}
 1734              		.loc 1 1531 4 view .LVU647
1531:/opt/XMClib/XMC_Peripheral_Library_v2.1.16/XMCLib/src/xmc_usbd.c **** 		}
 1735              		.loc 1 1531 15 is_stmt 0 view .LVU648
 1736 01e0 65F30A03 		bfi	r3, r5, #0, #11
 1737              	.LVL99:
 1738              	.L134:
1534:/opt/XMClib/XMC_Peripheral_Library_v2.1.16/XMCLib/src/xmc_usbd.c **** 		/* clear stall */
 1739              		.loc 1 1534 3 is_stmt 1 view .LVU649
1536:/opt/XMClib/XMC_Peripheral_Library_v2.1.16/XMCLib/src/xmc_usbd.c **** 		xmc_device.endpoint_out_register[ep->address_u.address_st.number]->doepctl = data.d32; /* configu
 1740              		.loc 1 1536 3 view .LVU650
1538:/opt/XMClib/XMC_Peripheral_Library_v2.1.16/XMCLib/src/xmc_usbd.c ****   }
 1741              		.loc 1 1538 19 is_stmt 0 view .LVU651
 1742 01e4 41EA1741 		orr	r1, r1, r7, lsr #16
 1743 01e8 61F31F42 		bfi	r2, r1, #16, #16
1536:/opt/XMClib/XMC_Peripheral_Library_v2.1.16/XMCLib/src/xmc_usbd.c **** 		xmc_device.endpoint_out_register[ep->address_u.address_st.number]->doepctl = data.d32; /* configu
 1744              		.loc 1 1536 16 view .LVU652
 1745 01ec C3F30F41 		ubfx	r1, r3, #16, #16
 1746 01f0 21F48151 		bic	r1, r1, #4128
 1747 01f4 41F48051 		orr	r1, r1, #4096
 1748 01f8 61F31F43 		bfi	r3, r1, #16, #16
1537:/opt/XMClib/XMC_Peripheral_Library_v2.1.16/XMCLib/src/xmc_usbd.c **** 		daintmsk.ep.out |=(uint16_t) ((uint16_t)1U << (uint8_t)ep->address_u.address_st.number); /* enabl
 1749              		.loc 1 1537 3 is_stmt 1 view .LVU653
1537:/opt/XMClib/XMC_Peripheral_Library_v2.1.16/XMCLib/src/xmc_usbd.c **** 		daintmsk.ep.out |=(uint16_t) ((uint16_t)1U << (uint8_t)ep->address_u.address_st.number); /* enabl
 1750              		.loc 1 1537 78 is_stmt 0 view .LVU654
 1751 01fc 0360     		str	r3, [r0]
1538:/opt/XMClib/XMC_Peripheral_Library_v2.1.16/XMCLib/src/xmc_usbd.c ****   }
 1752              		.loc 1 1538 3 is_stmt 1 view .LVU655
 1753              	.L128:
 1754              	.LBE64:
1540:/opt/XMClib/XMC_Peripheral_Library_v2.1.16/XMCLib/src/xmc_usbd.c ****   return XMC_USBD_STATUS_OK;
 1755              		.loc 1 1540 3 view .LVU656
1540:/opt/XMClib/XMC_Peripheral_Library_v2.1.16/XMCLib/src/xmc_usbd.c ****   return XMC_USBD_STATUS_OK;
 1756              		.loc 1 1540 13 is_stmt 0 view .LVU657
 1757 01fe D4F8A431 		ldr	r3, [r4, #420]
 1758              	.LVL100:
1542:/opt/XMClib/XMC_Peripheral_Library_v2.1.16/XMCLib/src/xmc_usbd.c **** 
 1759              		.loc 1 1542 1 view .LVU658
 1760 0202 0020     		movs	r0, #0
1540:/opt/XMClib/XMC_Peripheral_Library_v2.1.16/XMCLib/src/xmc_usbd.c ****   return XMC_USBD_STATUS_OK;
 1761              		.loc 1 1540 40 view .LVU659
 1762 0204 DA61     		str	r2, [r3, #28]
1541:/opt/XMClib/XMC_Peripheral_Library_v2.1.16/XMCLib/src/xmc_usbd.c **** }
 1763              		.loc 1 1541 3 is_stmt 1 view .LVU660
1542:/opt/XMClib/XMC_Peripheral_Library_v2.1.16/XMCLib/src/xmc_usbd.c **** 
 1764              		.loc 1 1542 1 is_stmt 0 view .LVU661
 1765 0206 BDE8F88F 		pop	{r3, r4, r5, r6, r7, r8, r9, r10, fp, pc}
 1766              	.L131:
 1767              	.LBB65:
1511:/opt/XMClib/XMC_Peripheral_Library_v2.1.16/XMCLib/src/xmc_usbd.c **** 			{
 1768              		.loc 1 1511 4 view .LVU662
 1769 020a 402D     		cmp	r5, #64
 1770 020c EAD1     		bne	.L134
1514:/opt/XMClib/XMC_Peripheral_Library_v2.1.16/XMCLib/src/xmc_usbd.c **** 					break;
 1771              		.loc 1 1514 6 is_stmt 1 view .LVU663
1514:/opt/XMClib/XMC_Peripheral_Library_v2.1.16/XMCLib/src/xmc_usbd.c **** 					break;
 1772              		.loc 1 1514 17 is_stmt 0 view .LVU664
 1773 020e 6FF30A03 		bfc	r3, #0, #11
 1774              	.LVL101:
1515:/opt/XMClib/XMC_Peripheral_Library_v2.1.16/XMCLib/src/xmc_usbd.c **** 				case (32U):
 1775              		.loc 1 1515 6 is_stmt 1 view .LVU665
 1776 0212 E7E7     		b	.L134
 1777              	.LVL102:
 1778              	.L117:
1515:/opt/XMClib/XMC_Peripheral_Library_v2.1.16/XMCLib/src/xmc_usbd.c **** 				case (32U):
 1779              		.loc 1 1515 6 is_stmt 0 view .LVU666
 1780              	.LBE65:
 1781              	.LBB66:
1467:/opt/XMClib/XMC_Peripheral_Library_v2.1.16/XMCLib/src/xmc_usbd.c **** 			{
 1782              		.loc 1 1467 4 view .LVU667
 1783 0214 402D     		cmp	r5, #64
 1784 0216 7FF454AF 		bne	.L120
1470:/opt/XMClib/XMC_Peripheral_Library_v2.1.16/XMCLib/src/xmc_usbd.c **** 				break;
 1785              		.loc 1 1470 5 is_stmt 1 view .LVU668
1470:/opt/XMClib/XMC_Peripheral_Library_v2.1.16/XMCLib/src/xmc_usbd.c **** 				break;
 1786              		.loc 1 1470 16 is_stmt 0 view .LVU669
 1787 021a 6FF30A0E 		bfc	lr, #0, #11
 1788              	.LVL103:
1471:/opt/XMClib/XMC_Peripheral_Library_v2.1.16/XMCLib/src/xmc_usbd.c **** 				case (32U):
 1789              		.loc 1 1471 5 is_stmt 1 view .LVU670
 1790 021e 50E7     		b	.L120
 1791              	.LVL104:
 1792              	.L143:
1494:/opt/XMClib/XMC_Peripheral_Library_v2.1.16/XMCLib/src/xmc_usbd.c **** 		data.b.txfnum = ep->txFifoNum;
 1793              		.loc 1 1494 19 is_stmt 0 view .LVU671
 1794 0220 03F00F03 		and	r3, r3, #15
 1795              	.LVL105:
 1796              	.L124:
 1797              	.LBB54:
 1798              	.LBB52:
 370:/opt/XMClib/XMC_Peripheral_Library_v2.1.16/XMCLib/src/xmc_usbd.c ****     result=i;
 1799              		.loc 1 370 5 is_stmt 1 view .LVU672
 370:/opt/XMClib/XMC_Peripheral_Library_v2.1.16/XMCLib/src/xmc_usbd.c ****     result=i;
 1800              		.loc 1 370 26 is_stmt 0 view .LVU673
 1801 0224 4AEA0101 		orr	r1, r10, r1
 1802              	.LVL106:
 370:/opt/XMClib/XMC_Peripheral_Library_v2.1.16/XMCLib/src/xmc_usbd.c ****     result=i;
 1803              		.loc 1 370 26 view .LVU674
 1804 0228 A4F8FC11 		strh	r1, [r4, #508]	@ movhi
 371:/opt/XMClib/XMC_Peripheral_Library_v2.1.16/XMCLib/src/xmc_usbd.c ****   }
 1805              		.loc 1 371 5 is_stmt 1 view .LVU675
 1806              	.LVL107:
 371:/opt/XMClib/XMC_Peripheral_Library_v2.1.16/XMCLib/src/xmc_usbd.c ****   }
 1807              		.loc 1 371 5 is_stmt 0 view .LVU676
 1808 022c 65E7     		b	.L125
 1809              	.LVL108:
 1810              	.L126:
 371:/opt/XMClib/XMC_Peripheral_Library_v2.1.16/XMCLib/src/xmc_usbd.c ****   }
 1811              		.loc 1 371 5 view .LVU677
 1812              	.LBE52:
 1813              	.LBE54:
 1814              	.LBE66:
 1815              	.LBB67:
1502:/opt/XMClib/XMC_Peripheral_Library_v2.1.16/XMCLib/src/xmc_usbd.c **** 		data.d32 = xmc_device.endpoint_out_register[ep->address_u.address_st.number]->doepctl;
 1816              		.loc 1 1502 3 is_stmt 1 view .LVU678
1503:/opt/XMClib/XMC_Peripheral_Library_v2.1.16/XMCLib/src/xmc_usbd.c **** 		/*enable endpoint */
 1817              		.loc 1 1503 3 view .LVU679
1503:/opt/XMClib/XMC_Peripheral_Library_v2.1.16/XMCLib/src/xmc_usbd.c **** 		/*enable endpoint */
 1818              		.loc 1 1503 46 is_stmt 0 view .LVU680
 1819 022e 04EB8C0C 		add	ip, r4, ip, lsl #2
 1820 0232 DCF8C401 		ldr	r0, [ip, #452]
1505:/opt/XMClib/XMC_Peripheral_Library_v2.1.16/XMCLib/src/xmc_usbd.c **** 		/* set ep type */
 1821              		.loc 1 1505 19 view .LVU681
 1822 0236 06F0030C 		and	ip, r6, #3
1503:/opt/XMClib/XMC_Peripheral_Library_v2.1.16/XMCLib/src/xmc_usbd.c **** 		/*enable endpoint */
 1823              		.loc 1 1503 79 view .LVU682
 1824 023a 0368     		ldr	r3, [r0]
 1825              	.LVL109:
1505:/opt/XMClib/XMC_Peripheral_Library_v2.1.16/XMCLib/src/xmc_usbd.c **** 		/* set ep type */
 1826              		.loc 1 1505 3 is_stmt 1 view .LVU683
1507:/opt/XMClib/XMC_Peripheral_Library_v2.1.16/XMCLib/src/xmc_usbd.c ****     /* set mps */
 1827              		.loc 1 1507 3 view .LVU684
1505:/opt/XMClib/XMC_Peripheral_Library_v2.1.16/XMCLib/src/xmc_usbd.c **** 		/* set ep type */
 1828              		.loc 1 1505 19 is_stmt 0 view .LVU685
 1829 023c 4FEA8C4C 		lsl	ip, ip, #18
 1830 0240 4CF4004C 		orr	ip, ip, #32768
 1831 0244 23F44823 		bic	r3, r3, #819200
 1832              	.LVL110:
1505:/opt/XMClib/XMC_Peripheral_Library_v2.1.16/XMCLib/src/xmc_usbd.c **** 		/* set ep type */
 1833              		.loc 1 1505 19 view .LVU686
 1834 0248 4CEA0303 		orr	r3, ip, r3
1509:/opt/XMClib/XMC_Peripheral_Library_v2.1.16/XMCLib/src/xmc_usbd.c **** 		{
 1835              		.loc 1 1509 5 is_stmt 1 view .LVU687
1509:/opt/XMClib/XMC_Peripheral_Library_v2.1.16/XMCLib/src/xmc_usbd.c **** 		{
 1836              		.loc 1 1509 8 is_stmt 0 view .LVU688
 1837 024c 002E     		cmp	r6, #0
 1838 024e 3FF477AF 		beq	.L135
 1839 0252 C5E7     		b	.L129
 1840              	.L132:
1523:/opt/XMClib/XMC_Peripheral_Library_v2.1.16/XMCLib/src/xmc_usbd.c **** 					break;
 1841              		.loc 1 1523 6 is_stmt 1 view .LVU689
1523:/opt/XMClib/XMC_Peripheral_Library_v2.1.16/XMCLib/src/xmc_usbd.c **** 					break;
 1842              		.loc 1 1523 17 is_stmt 0 view .LVU690
 1843 0254 0325     		movs	r5, #3
 1844 0256 65F30A03 		bfi	r3, r5, #0, #11
 1845              	.LVL111:
1524:/opt/XMClib/XMC_Peripheral_Library_v2.1.16/XMCLib/src/xmc_usbd.c **** 				default:
 1846              		.loc 1 1524 6 is_stmt 1 view .LVU691
 1847 025a C3E7     		b	.L134
 1848              	.LVL112:
 1849              	.L130:
1517:/opt/XMClib/XMC_Peripheral_Library_v2.1.16/XMCLib/src/xmc_usbd.c **** 					break;
 1850              		.loc 1 1517 6 view .LVU692
1517:/opt/XMClib/XMC_Peripheral_Library_v2.1.16/XMCLib/src/xmc_usbd.c **** 					break;
 1851              		.loc 1 1517 17 is_stmt 0 view .LVU693
 1852 025c 0125     		movs	r5, #1
 1853 025e 65F30A03 		bfi	r3, r5, #0, #11
 1854              	.LVL113:
1518:/opt/XMClib/XMC_Peripheral_Library_v2.1.16/XMCLib/src/xmc_usbd.c **** 				case (16U):
 1855              		.loc 1 1518 6 is_stmt 1 view .LVU694
 1856 0262 BFE7     		b	.L134
 1857              	.LVL114:
 1858              	.L118:
1518:/opt/XMClib/XMC_Peripheral_Library_v2.1.16/XMCLib/src/xmc_usbd.c **** 				case (16U):
 1859              		.loc 1 1518 6 is_stmt 0 view .LVU695
 1860              	.LBE67:
 1861              	.LBB68:
1479:/opt/XMClib/XMC_Peripheral_Library_v2.1.16/XMCLib/src/xmc_usbd.c **** 				break;
 1862              		.loc 1 1479 5 is_stmt 1 view .LVU696
1479:/opt/XMClib/XMC_Peripheral_Library_v2.1.16/XMCLib/src/xmc_usbd.c **** 				break;
 1863              		.loc 1 1479 16 is_stmt 0 view .LVU697
 1864 0264 0323     		movs	r3, #3
 1865 0266 63F30A0E 		bfi	lr, r3, #0, #11
 1866              	.LVL115:
1480:/opt/XMClib/XMC_Peripheral_Library_v2.1.16/XMCLib/src/xmc_usbd.c **** 				default:
 1867              		.loc 1 1480 5 is_stmt 1 view .LVU698
 1868 026a 2AE7     		b	.L120
 1869              	.LVL116:
 1870              	.L116:
1473:/opt/XMClib/XMC_Peripheral_Library_v2.1.16/XMCLib/src/xmc_usbd.c **** 				break;
 1871              		.loc 1 1473 5 view .LVU699
1473:/opt/XMClib/XMC_Peripheral_Library_v2.1.16/XMCLib/src/xmc_usbd.c **** 				break;
 1872              		.loc 1 1473 16 is_stmt 0 view .LVU700
 1873 026c 0123     		movs	r3, #1
 1874 026e 63F30A0E 		bfi	lr, r3, #0, #11
 1875              	.LVL117:
1474:/opt/XMClib/XMC_Peripheral_Library_v2.1.16/XMCLib/src/xmc_usbd.c **** 				case (16U):
 1876              		.loc 1 1474 5 is_stmt 1 view .LVU701
 1877 0272 26E7     		b	.L120
 1878              	.L146:
 1879              		.align	2
 1880              	.L145:
 1881 0274 00000000 		.word	.LANCHOR0
 1882 0278 00000000 		.word	.LANCHOR1
 1883              	.LBE68:
 1884              		.cfi_endproc
 1885              	.LFE198:
 1887              		.section	.text.XMC_USBD_Init,"ax",%progbits
 1888              		.align	1
 1889              		.p2align 2,,3
 1890              		.global	XMC_USBD_Init
 1891              		.syntax unified
 1892              		.thumb
 1893              		.thumb_func
 1895              	XMC_USBD_Init:
 1896              	.LVL118:
 1897              	.LFB187:
1084:/opt/XMClib/XMC_Peripheral_Library_v2.1.16/XMCLib/src/xmc_usbd.c ****   uint8_t *XMC_USBD_BASE_ADDRESS;
 1898              		.loc 1 1084 1 view -0
 1899              		.cfi_startproc
 1900              		@ args = 0, pretend = 0, frame = 8
 1901              		@ frame_needed = 0, uses_anonymous_args = 0
1085:/opt/XMClib/XMC_Peripheral_Library_v2.1.16/XMCLib/src/xmc_usbd.c ****   uint32_t i;
 1902              		.loc 1 1085 3 view .LVU703
1086:/opt/XMClib/XMC_Peripheral_Library_v2.1.16/XMCLib/src/xmc_usbd.c ****   gahbcfg_data_t gahbcfg;
 1903              		.loc 1 1086 3 view .LVU704
1087:/opt/XMClib/XMC_Peripheral_Library_v2.1.16/XMCLib/src/xmc_usbd.c ****   gusbcfg_data_t gusbcfg;
 1904              		.loc 1 1087 3 view .LVU705
1088:/opt/XMClib/XMC_Peripheral_Library_v2.1.16/XMCLib/src/xmc_usbd.c ****   dcfg_data_t dcfg;
 1905              		.loc 1 1088 3 view .LVU706
1089:/opt/XMClib/XMC_Peripheral_Library_v2.1.16/XMCLib/src/xmc_usbd.c ****   dctl_data_t dctl;
 1906              		.loc 1 1089 3 view .LVU707
1090:/opt/XMClib/XMC_Peripheral_Library_v2.1.16/XMCLib/src/xmc_usbd.c ****   gintmsk_data_t gintmsk;
 1907              		.loc 1 1090 3 view .LVU708
1091:/opt/XMClib/XMC_Peripheral_Library_v2.1.16/XMCLib/src/xmc_usbd.c **** 
 1908              		.loc 1 1091 3 view .LVU709
1093:/opt/XMClib/XMC_Peripheral_Library_v2.1.16/XMCLib/src/xmc_usbd.c ****  		      XMC_USBD_CHECK_INPUT_MAX_NUM_EPS(obj->usbd_max_num_eps))
 1909              		.loc 1 1093 3 view .LVU710
1096:/opt/XMClib/XMC_Peripheral_Library_v2.1.16/XMCLib/src/xmc_usbd.c ****   
 1910              		.loc 1 1096 3 view .LVU711
 1911              	.LBB75:
 1912              	.LBI75:
 941:/opt/XMClib/XMC_Peripheral_Library_v2.1.16/XMCLib/src/xmc_usbd.c **** {
 1913              		.loc 1 941 6 view .LVU712
 1914              	.LBB76:
 947:/opt/XMClib/XMC_Peripheral_Library_v2.1.16/XMCLib/src/xmc_usbd.c ****   XMC_SCU_POWER_EnableUsb();
 1915              		.loc 1 947 3 view .LVU713
 1916              	.LBE76:
 1917              	.LBE75:
1084:/opt/XMClib/XMC_Peripheral_Library_v2.1.16/XMCLib/src/xmc_usbd.c ****   uint8_t *XMC_USBD_BASE_ADDRESS;
 1918              		.loc 1 1084 1 is_stmt 0 view .LVU714
 1919 0000 30B5     		push	{r4, r5, lr}
 1920              	.LCFI9:
 1921              		.cfi_def_cfa_offset 12
 1922              		.cfi_offset 4, -12
 1923              		.cfi_offset 5, -8
 1924              		.cfi_offset 14, -4
1098:/opt/XMClib/XMC_Peripheral_Library_v2.1.16/XMCLib/src/xmc_usbd.c **** 
 1925              		.loc 1 1098 13 view .LVU715
 1926 0002 524D     		ldr	r5, .L161
1084:/opt/XMClib/XMC_Peripheral_Library_v2.1.16/XMCLib/src/xmc_usbd.c ****   uint8_t *XMC_USBD_BASE_ADDRESS;
 1927              		.loc 1 1084 1 view .LVU716
 1928 0004 83B0     		sub	sp, sp, #12
 1929              	.LCFI10:
 1930              		.cfi_def_cfa_offset 24
1084:/opt/XMClib/XMC_Peripheral_Library_v2.1.16/XMCLib/src/xmc_usbd.c ****   uint8_t *XMC_USBD_BASE_ADDRESS;
 1931              		.loc 1 1084 1 view .LVU717
 1932 0006 0446     		mov	r4, r0
 1933              	.LBB78:
 1934              	.LBB77:
 947:/opt/XMClib/XMC_Peripheral_Library_v2.1.16/XMCLib/src/xmc_usbd.c ****   XMC_SCU_POWER_EnableUsb();
 1935              		.loc 1 947 3 view .LVU718
 1936 0008 5148     		ldr	r0, .L161+4
 1937              	.LVL119:
 947:/opt/XMClib/XMC_Peripheral_Library_v2.1.16/XMCLib/src/xmc_usbd.c ****   XMC_SCU_POWER_EnableUsb();
 1938              		.loc 1 947 3 view .LVU719
 1939 000a FFF7FEFF 		bl	XMC_SCU_RESET_DeassertPeripheralReset
 1940              	.LVL120:
 948:/opt/XMClib/XMC_Peripheral_Library_v2.1.16/XMCLib/src/xmc_usbd.c **** }
 1941              		.loc 1 948 3 is_stmt 1 view .LVU720
 1942 000e FFF7FEFF 		bl	XMC_SCU_POWER_EnableUsb
 1943              	.LVL121:
 1944              	.LBE77:
 1945              	.LBE78:
1098:/opt/XMClib/XMC_Peripheral_Library_v2.1.16/XMCLib/src/xmc_usbd.c **** 
 1946              		.loc 1 1098 3 view .LVU721
1098:/opt/XMClib/XMC_Peripheral_Library_v2.1.16/XMCLib/src/xmc_usbd.c **** 
 1947              		.loc 1 1098 13 is_stmt 0 view .LVU722
 1948 0012 C5F80842 		str	r4, [r5, #520]
1101:/opt/XMClib/XMC_Peripheral_Library_v2.1.16/XMCLib/src/xmc_usbd.c ****   {
 1949              		.loc 1 1101 3 is_stmt 1 view .LVU723
 1950              	.LVL122:
1101:/opt/XMClib/XMC_Peripheral_Library_v2.1.16/XMCLib/src/xmc_usbd.c ****   {
 1951              		.loc 1 1101 14 view .LVU724
 1952 0016 05F50973 		add	r3, r5, #548
 1953 001a 05F50271 		add	r1, r5, #520
 1954 001e 05F51070 		add	r0, r5, #576
1103:/opt/XMClib/XMC_Peripheral_Library_v2.1.16/XMCLib/src/xmc_usbd.c **** 	  XMC_USBD_EP_IN_BUFFERSIZE[i] 	= XMC_USBD_EP0_BUFFER_SIZE;
 1955              		.loc 1 1103 34 is_stmt 0 view .LVU725
 1956 0022 4022     		movs	r2, #64
 1957              	.LVL123:
 1958              	.L148:
1103:/opt/XMClib/XMC_Peripheral_Library_v2.1.16/XMCLib/src/xmc_usbd.c **** 	  XMC_USBD_EP_IN_BUFFERSIZE[i] 	= XMC_USBD_EP0_BUFFER_SIZE;
 1959              		.loc 1 1103 4 is_stmt 1 discriminator 3 view .LVU726
1103:/opt/XMClib/XMC_Peripheral_Library_v2.1.16/XMCLib/src/xmc_usbd.c **** 	  XMC_USBD_EP_IN_BUFFERSIZE[i] 	= XMC_USBD_EP0_BUFFER_SIZE;
 1960              		.loc 1 1103 34 is_stmt 0 discriminator 3 view .LVU727
 1961 0024 43F8042F 		str	r2, [r3, #4]!
1104:/opt/XMClib/XMC_Peripheral_Library_v2.1.16/XMCLib/src/xmc_usbd.c ****   }
 1962              		.loc 1 1104 4 is_stmt 1 discriminator 3 view .LVU728
1101:/opt/XMClib/XMC_Peripheral_Library_v2.1.16/XMCLib/src/xmc_usbd.c ****   {
 1963              		.loc 1 1101 3 is_stmt 0 discriminator 3 view .LVU729
 1964 0028 8342     		cmp	r3, r0
1104:/opt/XMClib/XMC_Peripheral_Library_v2.1.16/XMCLib/src/xmc_usbd.c ****   }
 1965              		.loc 1 1104 34 discriminator 3 view .LVU730
 1966 002a 41F8042F 		str	r2, [r1, #4]!
1101:/opt/XMClib/XMC_Peripheral_Library_v2.1.16/XMCLib/src/xmc_usbd.c ****   {
 1967              		.loc 1 1101 45 is_stmt 1 discriminator 3 view .LVU731
1101:/opt/XMClib/XMC_Peripheral_Library_v2.1.16/XMCLib/src/xmc_usbd.c ****   {
 1968              		.loc 1 1101 14 discriminator 3 view .LVU732
1101:/opt/XMClib/XMC_Peripheral_Library_v2.1.16/XMCLib/src/xmc_usbd.c ****   {
 1969              		.loc 1 1101 3 is_stmt 0 discriminator 3 view .LVU733
 1970 002e F9D1     		bne	.L148
1108:/opt/XMClib/XMC_Peripheral_Library_v2.1.16/XMCLib/src/xmc_usbd.c **** 
 1971              		.loc 1 1108 3 is_stmt 1 view .LVU734
 1972 0030 4FF40272 		mov	r2, #520
 1973 0034 0021     		movs	r1, #0
 1974 0036 4548     		ldr	r0, .L161
 1975 0038 FFF7FEFF 		bl	memset
 1976              	.LVL124:
1111:/opt/XMClib/XMC_Peripheral_Library_v2.1.16/XMCLib/src/xmc_usbd.c ****   xmc_device.EndpointEvent_cb = obj->cb_endpoint_event;
 1977              		.loc 1 1111 3 view .LVU735
1113:/opt/XMClib/XMC_Peripheral_Library_v2.1.16/XMCLib/src/xmc_usbd.c ****   /* assign register address */
 1978              		.loc 1 1113 25 is_stmt 0 view .LVU736
 1979 003c 2368     		ldr	r3, [r4]
1111:/opt/XMClib/XMC_Peripheral_Library_v2.1.16/XMCLib/src/xmc_usbd.c ****   xmc_device.EndpointEvent_cb = obj->cb_endpoint_event;
 1980              		.loc 1 1111 29 view .LVU737
 1981 003e 6168     		ldr	r1, [r4, #4]
 1982 0040 444A     		ldr	r2, .L161+8
 1983 0042 C5F80012 		str	r1, [r5, #512]
1112:/opt/XMClib/XMC_Peripheral_Library_v2.1.16/XMCLib/src/xmc_usbd.c ****   XMC_USBD_BASE_ADDRESS = (uint8_t *)(obj->usbd);
 1984              		.loc 1 1112 3 is_stmt 1 view .LVU738
1112:/opt/XMClib/XMC_Peripheral_Library_v2.1.16/XMCLib/src/xmc_usbd.c ****   XMC_USBD_BASE_ADDRESS = (uint8_t *)(obj->usbd);
 1985              		.loc 1 1112 31 is_stmt 0 view .LVU739
 1986 0046 A168     		ldr	r1, [r4, #8]
 1987 0048 C5F80412 		str	r1, [r5, #516]
1113:/opt/XMClib/XMC_Peripheral_Library_v2.1.16/XMCLib/src/xmc_usbd.c ****   /* assign register address */
 1988              		.loc 1 1113 3 is_stmt 1 view .LVU740
 1989              	.LVL125:
1115:/opt/XMClib/XMC_Peripheral_Library_v2.1.16/XMCLib/src/xmc_usbd.c ****   xmc_device.device_register = ((dwc_otg_device_global_regs_t*)(XMC_USBD_BASE_ADDRESS + DWC_DEV_GLO
 1990              		.loc 1 1115 3 view .LVU741
1116:/opt/XMClib/XMC_Peripheral_Library_v2.1.16/XMCLib/src/xmc_usbd.c ****   for (i = 0U;i < (uint32_t)XMC_USBD_NUM_EPS;i++)
 1991              		.loc 1 1116 87 is_stmt 0 view .LVU742
 1992 004c 03F50061 		add	r1, r3, #2048
1116:/opt/XMClib/XMC_Peripheral_Library_v2.1.16/XMCLib/src/xmc_usbd.c ****   for (i = 0U;i < (uint32_t)XMC_USBD_NUM_EPS;i++)
 1993              		.loc 1 1116 30 view .LVU743
 1994 0050 C5E96831 		strd	r3, r1, [r5, #416]
1117:/opt/XMClib/XMC_Peripheral_Library_v2.1.16/XMCLib/src/xmc_usbd.c ****   {
 1995              		.loc 1 1117 3 is_stmt 1 view .LVU744
 1996              	.LVL126:
1117:/opt/XMClib/XMC_Peripheral_Library_v2.1.16/XMCLib/src/xmc_usbd.c ****   {
 1997              		.loc 1 1117 15 view .LVU745
 1998 0054 02F11C00 		add	r0, r2, #28
 1999 0058 03F51061 		add	r1, r3, #2304
 2000              	.LVL127:
 2001              	.L149:
1119:/opt/XMClib/XMC_Peripheral_Library_v2.1.16/XMCLib/src/xmc_usbd.c ****     ((uint32_t)DWC_EP_REG_OFFSET*i));
 2002              		.loc 1 1119 5 discriminator 3 view .LVU746
1119:/opt/XMClib/XMC_Peripheral_Library_v2.1.16/XMCLib/src/xmc_usbd.c ****     ((uint32_t)DWC_EP_REG_OFFSET*i));
 2003              		.loc 1 1119 40 is_stmt 0 discriminator 3 view .LVU747
 2004 005c 42F8041B 		str	r1, [r2], #4
1117:/opt/XMClib/XMC_Peripheral_Library_v2.1.16/XMCLib/src/xmc_usbd.c ****   {
 2005              		.loc 1 1117 46 is_stmt 1 discriminator 3 view .LVU748
1117:/opt/XMClib/XMC_Peripheral_Library_v2.1.16/XMCLib/src/xmc_usbd.c ****   {
 2006              		.loc 1 1117 15 discriminator 3 view .LVU749
1117:/opt/XMClib/XMC_Peripheral_Library_v2.1.16/XMCLib/src/xmc_usbd.c ****   {
 2007              		.loc 1 1117 3 is_stmt 0 discriminator 3 view .LVU750
 2008 0060 8242     		cmp	r2, r0
 2009 0062 01F12001 		add	r1, r1, #32
 2010 0066 F9D1     		bne	.L149
 2011 0068 3B4A     		ldr	r2, .L161+12
 2012 006a 03F53061 		add	r1, r3, #2816
 2013 006e 02F11C00 		add	r0, r2, #28
 2014              	.L150:
1124:/opt/XMClib/XMC_Peripheral_Library_v2.1.16/XMCLib/src/xmc_usbd.c ****     									  DWC_DEV_OUT_EP_REG_OFFSET +
 2015              		.loc 1 1124 5 is_stmt 1 discriminator 3 view .LVU751
1124:/opt/XMClib/XMC_Peripheral_Library_v2.1.16/XMCLib/src/xmc_usbd.c ****     									  DWC_DEV_OUT_EP_REG_OFFSET +
 2016              		.loc 1 1124 41 is_stmt 0 discriminator 3 view .LVU752
 2017 0072 42F8041B 		str	r1, [r2], #4
1122:/opt/XMClib/XMC_Peripheral_Library_v2.1.16/XMCLib/src/xmc_usbd.c ****   {
 2018              		.loc 1 1122 46 is_stmt 1 discriminator 3 view .LVU753
1122:/opt/XMClib/XMC_Peripheral_Library_v2.1.16/XMCLib/src/xmc_usbd.c ****   {
 2019              		.loc 1 1122 15 discriminator 3 view .LVU754
1122:/opt/XMClib/XMC_Peripheral_Library_v2.1.16/XMCLib/src/xmc_usbd.c ****   {
 2020              		.loc 1 1122 3 is_stmt 0 discriminator 3 view .LVU755
 2021 0076 8242     		cmp	r2, r0
 2022 0078 01F12001 		add	r1, r1, #32
 2023 007c F9D1     		bne	.L150
 2024 007e 374A     		ldr	r2, .L161+16
 2025 0080 03F58051 		add	r1, r3, #4096
 2026 0084 02F11C00 		add	r0, r2, #28
 2027              	.L151:
1130:/opt/XMClib/XMC_Peripheral_Library_v2.1.16/XMCLib/src/xmc_usbd.c ****     						XMC_USBD_TX_FIFO_REG_OFFSET +
 2028              		.loc 1 1130 5 is_stmt 1 discriminator 3 view .LVU756
1130:/opt/XMClib/XMC_Peripheral_Library_v2.1.16/XMCLib/src/xmc_usbd.c ****     						XMC_USBD_TX_FIFO_REG_OFFSET +
 2029              		.loc 1 1130 24 is_stmt 0 discriminator 3 view .LVU757
 2030 0088 42F8041B 		str	r1, [r2], #4
1128:/opt/XMClib/XMC_Peripheral_Library_v2.1.16/XMCLib/src/xmc_usbd.c ****   {
 2031              		.loc 1 1128 51 is_stmt 1 discriminator 3 view .LVU758
1128:/opt/XMClib/XMC_Peripheral_Library_v2.1.16/XMCLib/src/xmc_usbd.c ****   {
 2032              		.loc 1 1128 15 discriminator 3 view .LVU759
1128:/opt/XMClib/XMC_Peripheral_Library_v2.1.16/XMCLib/src/xmc_usbd.c ****   {
 2033              		.loc 1 1128 3 is_stmt 0 discriminator 3 view .LVU760
 2034 008c 8242     		cmp	r2, r0
 2035 008e 01F58051 		add	r1, r1, #4096
 2036 0092 F9D1     		bne	.L151
1137:/opt/XMClib/XMC_Peripheral_Library_v2.1.16/XMCLib/src/xmc_usbd.c ****   gahbcfg.b.glblintrmsk = 1U; /* enable interrupts ( global mask ) */
 2037              		.loc 1 1137 3 is_stmt 1 view .LVU761
1140:/opt/XMClib/XMC_Peripheral_Library_v2.1.16/XMCLib/src/xmc_usbd.c ****   {
 2038              		.loc 1 1140 9 is_stmt 0 view .LVU762
 2039 0094 617B     		ldrb	r1, [r4, #13]	@ zero_extendqisi2
1137:/opt/XMClib/XMC_Peripheral_Library_v2.1.16/XMCLib/src/xmc_usbd.c ****   gahbcfg.b.glblintrmsk = 1U; /* enable interrupts ( global mask ) */
 2040              		.loc 1 1137 43 view .LVU763
 2041 0096 9868     		ldr	r0, [r3, #8]
1140:/opt/XMClib/XMC_Peripheral_Library_v2.1.16/XMCLib/src/xmc_usbd.c ****   {
 2042              		.loc 1 1140 5 view .LVU764
 2043 0098 B1FA81F2 		clz	r2, r1
 2044 009c 5209     		lsrs	r2, r2, #5
1138:/opt/XMClib/XMC_Peripheral_Library_v2.1.16/XMCLib/src/xmc_usbd.c ****   gahbcfg.b.nptxfemplvl_txfemplvl = 1U;
 2045              		.loc 1 1138 25 view .LVU765
 2046 009e 5201     		lsls	r2, r2, #5
 2047 00a0 00F05E04 		and	r4, r0, #94
 2048              	.LVL128:
1138:/opt/XMClib/XMC_Peripheral_Library_v2.1.16/XMCLib/src/xmc_usbd.c ****   gahbcfg.b.nptxfemplvl_txfemplvl = 1U;
 2049              		.loc 1 1138 3 is_stmt 1 view .LVU766
1139:/opt/XMClib/XMC_Peripheral_Library_v2.1.16/XMCLib/src/xmc_usbd.c ****   if(obj->usbd_transfer_mode == XMC_USBD_USE_DMA)
 2050              		.loc 1 1139 3 view .LVU767
1140:/opt/XMClib/XMC_Peripheral_Library_v2.1.16/XMCLib/src/xmc_usbd.c ****   {
 2051              		.loc 1 1140 3 view .LVU768
1138:/opt/XMClib/XMC_Peripheral_Library_v2.1.16/XMCLib/src/xmc_usbd.c ****   gahbcfg.b.nptxfemplvl_txfemplvl = 1U;
 2052              		.loc 1 1138 25 is_stmt 0 view .LVU769
 2053 00a4 62F07E02 		orn	r2, r2, #126
 2054 00a8 2243     		orrs	r2, r2, r4
 2055 00aa 62F30700 		bfi	r0, r2, #0, #8
 2056              	.LVL129:
1149:/opt/XMClib/XMC_Peripheral_Library_v2.1.16/XMCLib/src/xmc_usbd.c ****   /* configure usb details */  
 2057              		.loc 1 1149 3 is_stmt 1 view .LVU770
1149:/opt/XMClib/XMC_Peripheral_Library_v2.1.16/XMCLib/src/xmc_usbd.c ****   /* configure usb details */  
 2058              		.loc 1 1149 39 is_stmt 0 view .LVU771
 2059 00ae 9860     		str	r0, [r3, #8]
1151:/opt/XMClib/XMC_Peripheral_Library_v2.1.16/XMCLib/src/xmc_usbd.c ****   gusbcfg.b.force_dev_mode = 1U; /* force us into device mode */
 2060              		.loc 1 1151 3 is_stmt 1 view .LVU772
1151:/opt/XMClib/XMC_Peripheral_Library_v2.1.16/XMCLib/src/xmc_usbd.c ****   gusbcfg.b.force_dev_mode = 1U; /* force us into device mode */
 2061              		.loc 1 1151 42 is_stmt 0 view .LVU773
 2062 00b0 DA68     		ldr	r2, [r3, #12]
1152:/opt/XMClib/XMC_Peripheral_Library_v2.1.16/XMCLib/src/xmc_usbd.c ****   gusbcfg.b.srpcap = 1U; /* enable session request protocoll */
 2063              		.loc 1 1152 3 is_stmt 1 view .LVU774
1153:/opt/XMClib/XMC_Peripheral_Library_v2.1.16/XMCLib/src/xmc_usbd.c ****   xmc_device.global_register->gusbcfg = gusbcfg.d32;
 2064              		.loc 1 1153 3 view .LVU775
1153:/opt/XMClib/XMC_Peripheral_Library_v2.1.16/XMCLib/src/xmc_usbd.c ****   xmc_device.global_register->gusbcfg = gusbcfg.d32;
 2065              		.loc 1 1153 20 is_stmt 0 view .LVU776
 2066 00b2 42F08042 		orr	r2, r2, #1073741824
 2067 00b6 42F48072 		orr	r2, r2, #256
1154:/opt/XMClib/XMC_Peripheral_Library_v2.1.16/XMCLib/src/xmc_usbd.c **** 
 2068              		.loc 1 1154 3 is_stmt 1 view .LVU777
1154:/opt/XMClib/XMC_Peripheral_Library_v2.1.16/XMCLib/src/xmc_usbd.c **** 
 2069              		.loc 1 1154 39 is_stmt 0 view .LVU778
 2070 00ba DA60     		str	r2, [r3, #12]
1158:/opt/XMClib/XMC_Peripheral_Library_v2.1.16/XMCLib/src/xmc_usbd.c ****   dcfg.b.devspd = XMC_USBD_DCFG_DEVSPD_FS;
 2071              		.loc 1 1158 3 is_stmt 1 view .LVU779
1158:/opt/XMClib/XMC_Peripheral_Library_v2.1.16/XMCLib/src/xmc_usbd.c ****   dcfg.b.devspd = XMC_USBD_DCFG_DEVSPD_FS;
 2072              		.loc 1 1158 40 is_stmt 0 view .LVU780
 2073 00bc D3F80028 		ldr	r2, [r3, #2048]
1159:/opt/XMClib/XMC_Peripheral_Library_v2.1.16/XMCLib/src/xmc_usbd.c ****   dcfg.b.descdma = 0U;
 2074              		.loc 1 1159 3 is_stmt 1 view .LVU781
1160:/opt/XMClib/XMC_Peripheral_Library_v2.1.16/XMCLib/src/xmc_usbd.c ****   xmc_device.device_register->dcfg = dcfg.d32;
 2075              		.loc 1 1160 3 view .LVU782
1159:/opt/XMClib/XMC_Peripheral_Library_v2.1.16/XMCLib/src/xmc_usbd.c ****   dcfg.b.descdma = 0U;
 2076              		.loc 1 1159 17 is_stmt 0 view .LVU783
 2077 00c0 22F40002 		bic	r2, r2, #8388608
 2078 00c4 22F00302 		bic	r2, r2, #3
 2079 00c8 42F00302 		orr	r2, r2, #3
1161:/opt/XMClib/XMC_Peripheral_Library_v2.1.16/XMCLib/src/xmc_usbd.c ****   /* configure device functions */  
 2080              		.loc 1 1161 3 is_stmt 1 view .LVU784
1161:/opt/XMClib/XMC_Peripheral_Library_v2.1.16/XMCLib/src/xmc_usbd.c ****   /* configure device functions */  
 2081              		.loc 1 1161 36 is_stmt 0 view .LVU785
 2082 00cc C3F80028 		str	r2, [r3, #2048]
1163:/opt/XMClib/XMC_Peripheral_Library_v2.1.16/XMCLib/src/xmc_usbd.c ****   dctl.b.sftdiscon = 1U; /* disconnect the device until its connected by the user */
 2083              		.loc 1 1163 3 is_stmt 1 view .LVU786
1163:/opt/XMClib/XMC_Peripheral_Library_v2.1.16/XMCLib/src/xmc_usbd.c ****   dctl.b.sftdiscon = 1U; /* disconnect the device until its connected by the user */
 2084              		.loc 1 1163 40 is_stmt 0 view .LVU787
 2085 00d0 D3F80428 		ldr	r2, [r3, #2052]
1164:/opt/XMClib/XMC_Peripheral_Library_v2.1.16/XMCLib/src/xmc_usbd.c ****   /* all other config is done by default register value */
 2086              		.loc 1 1164 3 is_stmt 1 view .LVU788
 2087              	.LBB79:
 2088              	.LBB80:
 306:/opt/XMClib/XMC_Peripheral_Library_v2.1.16/XMCLib/src/xmc_usbd.c ****   /*flush fifo */
 2089              		.loc 1 306 12 is_stmt 0 view .LVU789
 2090 00d4 0024     		movs	r4, #0
 2091              	.LBE80:
 2092              	.LBE79:
1164:/opt/XMClib/XMC_Peripheral_Library_v2.1.16/XMCLib/src/xmc_usbd.c ****   /* all other config is done by default register value */
 2093              		.loc 1 1164 20 view .LVU790
 2094 00d6 42F00202 		orr	r2, r2, #2
 2095              	.LVL130:
1166:/opt/XMClib/XMC_Peripheral_Library_v2.1.16/XMCLib/src/xmc_usbd.c ****   /* flush the fifos for proper operation */
 2096              		.loc 1 1166 3 is_stmt 1 view .LVU791
1166:/opt/XMClib/XMC_Peripheral_Library_v2.1.16/XMCLib/src/xmc_usbd.c ****   /* flush the fifos for proper operation */
 2097              		.loc 1 1166 36 is_stmt 0 view .LVU792
 2098 00da C3F80428 		str	r2, [r3, #2052]
1168:/opt/XMClib/XMC_Peripheral_Library_v2.1.16/XMCLib/src/xmc_usbd.c ****   XMC_USBD_lFlushRXFifo();
 2099              		.loc 1 1168 3 is_stmt 1 view .LVU793
 2100              	.LVL131:
 2101              	.LBB82:
 2102              	.LBI79:
 302:/opt/XMClib/XMC_Peripheral_Library_v2.1.16/XMCLib/src/xmc_usbd.c **** {
 2103              		.loc 1 302 13 view .LVU794
 2104              	.LBB81:
 304:/opt/XMClib/XMC_Peripheral_Library_v2.1.16/XMCLib/src/xmc_usbd.c ****   uint32_t count;
 2105              		.loc 1 304 3 view .LVU795
 305:/opt/XMClib/XMC_Peripheral_Library_v2.1.16/XMCLib/src/xmc_usbd.c ****   data.d32 = 0U;
 2106              		.loc 1 305 3 view .LVU796
 306:/opt/XMClib/XMC_Peripheral_Library_v2.1.16/XMCLib/src/xmc_usbd.c ****   /*flush fifo */
 2107              		.loc 1 306 3 view .LVU797
 306:/opt/XMClib/XMC_Peripheral_Library_v2.1.16/XMCLib/src/xmc_usbd.c ****   /*flush fifo */
 2108              		.loc 1 306 12 is_stmt 0 view .LVU798
 2109 00de 0194     		str	r4, [sp, #4]
 308:/opt/XMClib/XMC_Peripheral_Library_v2.1.16/XMCLib/src/xmc_usbd.c ****   data.b.txfnum = fifo_num;
 2110              		.loc 1 308 3 is_stmt 1 view .LVU799
 308:/opt/XMClib/XMC_Peripheral_Library_v2.1.16/XMCLib/src/xmc_usbd.c ****   data.b.txfnum = fifo_num;
 2111              		.loc 1 308 18 is_stmt 0 view .LVU800
 2112 00e0 019A     		ldr	r2, [sp, #4]
 2113              	.LVL132:
 308:/opt/XMClib/XMC_Peripheral_Library_v2.1.16/XMCLib/src/xmc_usbd.c ****   data.b.txfnum = fifo_num;
 2114              		.loc 1 308 18 view .LVU801
 2115 00e2 42F02002 		orr	r2, r2, #32
 2116 00e6 0192     		str	r2, [sp, #4]
 309:/opt/XMClib/XMC_Peripheral_Library_v2.1.16/XMCLib/src/xmc_usbd.c ****   xmc_device.global_register->grstctl = data.d32;
 2117              		.loc 1 309 3 is_stmt 1 view .LVU802
 309:/opt/XMClib/XMC_Peripheral_Library_v2.1.16/XMCLib/src/xmc_usbd.c ****   xmc_device.global_register->grstctl = data.d32;
 2118              		.loc 1 309 17 is_stmt 0 view .LVU803
 2119 00e8 019A     		ldr	r2, [sp, #4]
 2120 00ea 1020     		movs	r0, #16
 2121              	.LVL133:
 309:/opt/XMClib/XMC_Peripheral_Library_v2.1.16/XMCLib/src/xmc_usbd.c ****   xmc_device.global_register->grstctl = data.d32;
 2122              		.loc 1 309 17 view .LVU804
 2123 00ec 60F38A12 		bfi	r2, r0, #6, #5
 2124 00f0 0192     		str	r2, [sp, #4]
 310:/opt/XMClib/XMC_Peripheral_Library_v2.1.16/XMCLib/src/xmc_usbd.c ****   for (count = 0U;count < 1000U; count++){}
 2125              		.loc 1 310 3 is_stmt 1 view .LVU805
 310:/opt/XMClib/XMC_Peripheral_Library_v2.1.16/XMCLib/src/xmc_usbd.c ****   for (count = 0U;count < 1000U; count++){}
 2126              		.loc 1 310 45 is_stmt 0 view .LVU806
 2127 00f2 019A     		ldr	r2, [sp, #4]
 310:/opt/XMClib/XMC_Peripheral_Library_v2.1.16/XMCLib/src/xmc_usbd.c ****   for (count = 0U;count < 1000U; count++){}
 2128              		.loc 1 310 39 view .LVU807
 2129 00f4 1A61     		str	r2, [r3, #16]
 311:/opt/XMClib/XMC_Peripheral_Library_v2.1.16/XMCLib/src/xmc_usbd.c ****   do
 2130              		.loc 1 311 3 is_stmt 1 view .LVU808
 311:/opt/XMClib/XMC_Peripheral_Library_v2.1.16/XMCLib/src/xmc_usbd.c ****   do
 2131              		.loc 1 311 19 view .LVU809
 2132              	.L152:
 312:/opt/XMClib/XMC_Peripheral_Library_v2.1.16/XMCLib/src/xmc_usbd.c ****   {
 2133              		.loc 1 312 3 view .LVU810
 314:/opt/XMClib/XMC_Peripheral_Library_v2.1.16/XMCLib/src/xmc_usbd.c ****   } while (data.b.txfflsh);
 2134              		.loc 1 314 4 view .LVU811
 314:/opt/XMClib/XMC_Peripheral_Library_v2.1.16/XMCLib/src/xmc_usbd.c ****   } while (data.b.txfflsh);
 2135              		.loc 1 314 41 is_stmt 0 view .LVU812
 2136 00f6 1A69     		ldr	r2, [r3, #16]
 314:/opt/XMClib/XMC_Peripheral_Library_v2.1.16/XMCLib/src/xmc_usbd.c ****   } while (data.b.txfflsh);
 2137              		.loc 1 314 13 view .LVU813
 2138 00f8 0192     		str	r2, [sp, #4]
 315:/opt/XMClib/XMC_Peripheral_Library_v2.1.16/XMCLib/src/xmc_usbd.c ****     count = 0U;
 2139              		.loc 1 315 11 is_stmt 1 view .LVU814
 315:/opt/XMClib/XMC_Peripheral_Library_v2.1.16/XMCLib/src/xmc_usbd.c ****     count = 0U;
 2140              		.loc 1 315 18 is_stmt 0 view .LVU815
 2141 00fa 019A     		ldr	r2, [sp, #4]
 315:/opt/XMClib/XMC_Peripheral_Library_v2.1.16/XMCLib/src/xmc_usbd.c ****     count = 0U;
 2142              		.loc 1 315 3 view .LVU816
 2143 00fc 9506     		lsls	r5, r2, #26
 315:/opt/XMClib/XMC_Peripheral_Library_v2.1.16/XMCLib/src/xmc_usbd.c ****     count = 0U;
 2144              		.loc 1 315 18 view .LVU817
 2145 00fe C2F34010 		ubfx	r0, r2, #5, #1
 315:/opt/XMClib/XMC_Peripheral_Library_v2.1.16/XMCLib/src/xmc_usbd.c ****     count = 0U;
 2146              		.loc 1 315 3 view .LVU818
 2147 0102 F8D4     		bmi	.L152
 320:/opt/XMClib/XMC_Peripheral_Library_v2.1.16/XMCLib/src/xmc_usbd.c **** }
 2148              		.loc 1 320 3 is_stmt 1 view .LVU819
 317:/opt/XMClib/XMC_Peripheral_Library_v2.1.16/XMCLib/src/xmc_usbd.c ****   {
 2149              		.loc 1 317 9 view .LVU820
 2150              	.LVL134:
 317:/opt/XMClib/XMC_Peripheral_Library_v2.1.16/XMCLib/src/xmc_usbd.c ****   {
 2151              		.loc 1 317 9 is_stmt 0 view .LVU821
 2152              	.LBE81:
 2153              	.LBE82:
1169:/opt/XMClib/XMC_Peripheral_Library_v2.1.16/XMCLib/src/xmc_usbd.c ****   /* Enable Global Interrupts */
 2154              		.loc 1 1169 3 is_stmt 1 view .LVU822
 2155              	.LBB83:
 2156              	.LBI83:
 326:/opt/XMClib/XMC_Peripheral_Library_v2.1.16/XMCLib/src/xmc_usbd.c **** {
 2157              		.loc 1 326 13 view .LVU823
 2158              	.LBB84:
 328:/opt/XMClib/XMC_Peripheral_Library_v2.1.16/XMCLib/src/xmc_usbd.c ****   uint32_t count;
 2159              		.loc 1 328 3 view .LVU824
 329:/opt/XMClib/XMC_Peripheral_Library_v2.1.16/XMCLib/src/xmc_usbd.c **** 	
 2160              		.loc 1 329 3 view .LVU825
 331:/opt/XMClib/XMC_Peripheral_Library_v2.1.16/XMCLib/src/xmc_usbd.c ****   data.b.rxfflsh = 1U;
 2161              		.loc 1 331 2 view .LVU826
 331:/opt/XMClib/XMC_Peripheral_Library_v2.1.16/XMCLib/src/xmc_usbd.c ****   data.b.rxfflsh = 1U;
 2162              		.loc 1 331 11 is_stmt 0 view .LVU827
 2163 0104 0090     		str	r0, [sp]
 332:/opt/XMClib/XMC_Peripheral_Library_v2.1.16/XMCLib/src/xmc_usbd.c ****   /* flush FIFO */
 2164              		.loc 1 332 3 is_stmt 1 view .LVU828
 332:/opt/XMClib/XMC_Peripheral_Library_v2.1.16/XMCLib/src/xmc_usbd.c ****   /* flush FIFO */
 2165              		.loc 1 332 18 is_stmt 0 view .LVU829
 2166 0106 009A     		ldr	r2, [sp]
 2167 0108 42F01002 		orr	r2, r2, #16
 2168 010c 0092     		str	r2, [sp]
 334:/opt/XMClib/XMC_Peripheral_Library_v2.1.16/XMCLib/src/xmc_usbd.c ****   do
 2169              		.loc 1 334 3 is_stmt 1 view .LVU830
 334:/opt/XMClib/XMC_Peripheral_Library_v2.1.16/XMCLib/src/xmc_usbd.c ****   do
 2170              		.loc 1 334 45 is_stmt 0 view .LVU831
 2171 010e 009A     		ldr	r2, [sp]
 334:/opt/XMClib/XMC_Peripheral_Library_v2.1.16/XMCLib/src/xmc_usbd.c ****   do
 2172              		.loc 1 334 39 view .LVU832
 2173 0110 1A61     		str	r2, [r3, #16]
 2174              	.L153:
 335:/opt/XMClib/XMC_Peripheral_Library_v2.1.16/XMCLib/src/xmc_usbd.c ****   {
 2175              		.loc 1 335 3 is_stmt 1 view .LVU833
 337:/opt/XMClib/XMC_Peripheral_Library_v2.1.16/XMCLib/src/xmc_usbd.c ****     data.d32 = xmc_device.global_register->grstctl;
 2176              		.loc 1 337 5 view .LVU834
 337:/opt/XMClib/XMC_Peripheral_Library_v2.1.16/XMCLib/src/xmc_usbd.c ****     data.d32 = xmc_device.global_register->grstctl;
 2177              		.loc 1 337 22 view .LVU835
 338:/opt/XMClib/XMC_Peripheral_Library_v2.1.16/XMCLib/src/xmc_usbd.c ****   } while (data.b.rxfflsh);
 2178              		.loc 1 338 5 view .LVU836
 338:/opt/XMClib/XMC_Peripheral_Library_v2.1.16/XMCLib/src/xmc_usbd.c ****   } while (data.b.rxfflsh);
 2179              		.loc 1 338 42 is_stmt 0 view .LVU837
 2180 0112 1A69     		ldr	r2, [r3, #16]
 338:/opt/XMClib/XMC_Peripheral_Library_v2.1.16/XMCLib/src/xmc_usbd.c ****   } while (data.b.rxfflsh);
 2181              		.loc 1 338 14 view .LVU838
 2182 0114 0092     		str	r2, [sp]
 339:/opt/XMClib/XMC_Peripheral_Library_v2.1.16/XMCLib/src/xmc_usbd.c ****   count = 0U;
 2183              		.loc 1 339 11 is_stmt 1 view .LVU839
 339:/opt/XMClib/XMC_Peripheral_Library_v2.1.16/XMCLib/src/xmc_usbd.c ****   count = 0U;
 2184              		.loc 1 339 18 is_stmt 0 view .LVU840
 2185 0116 009A     		ldr	r2, [sp]
 339:/opt/XMClib/XMC_Peripheral_Library_v2.1.16/XMCLib/src/xmc_usbd.c ****   count = 0U;
 2186              		.loc 1 339 3 view .LVU841
 2187 0118 D406     		lsls	r4, r2, #27
 339:/opt/XMClib/XMC_Peripheral_Library_v2.1.16/XMCLib/src/xmc_usbd.c ****   count = 0U;
 2188              		.loc 1 339 18 view .LVU842
 2189 011a C2F30010 		ubfx	r0, r2, #4, #1
 339:/opt/XMClib/XMC_Peripheral_Library_v2.1.16/XMCLib/src/xmc_usbd.c ****   count = 0U;
 2190              		.loc 1 339 3 view .LVU843
 2191 011e F8D4     		bmi	.L153
 344:/opt/XMClib/XMC_Peripheral_Library_v2.1.16/XMCLib/src/xmc_usbd.c **** }
 2192              		.loc 1 344 3 is_stmt 1 view .LVU844
 341:/opt/XMClib/XMC_Peripheral_Library_v2.1.16/XMCLib/src/xmc_usbd.c ****   {
 2193              		.loc 1 341 9 view .LVU845
 2194              	.LBE84:
 2195              	.LBE83:
1172:/opt/XMClib/XMC_Peripheral_Library_v2.1.16/XMCLib/src/xmc_usbd.c ****   xmc_device.global_register->gintsts = 0xFFFFFFFFU; /* clear all interrupts */
 2196              		.loc 1 1172 3 view .LVU846
1187:/opt/XMClib/XMC_Peripheral_Library_v2.1.16/XMCLib/src/xmc_usbd.c ****   {
 2197              		.loc 1 1187 5 is_stmt 0 view .LVU847
 2198 0120 A1F10102 		sub	r2, r1, #1
 2199 0124 B2FA82F2 		clz	r2, r2
 2200 0128 5209     		lsrs	r2, r2, #5
 2201 012a 1201     		lsls	r2, r2, #4
 2202              	.LVL135:
1192:/opt/XMClib/XMC_Peripheral_Library_v2.1.16/XMCLib/src/xmc_usbd.c ****   xmc_device.global_register->gintmsk = gintmsk.d32;
 2203              		.loc 1 1192 22 view .LVU848
 2204 012c 42F04042 		orr	r2, r2, #-1073741824
 2205              	.LVL136:
1192:/opt/XMClib/XMC_Peripheral_Library_v2.1.16/XMCLib/src/xmc_usbd.c ****   xmc_device.global_register->gintmsk = gintmsk.d32;
 2206              		.loc 1 1192 22 view .LVU849
 2207 0130 42F44322 		orr	r2, r2, #798720
 2208              	.LVL137:
1192:/opt/XMClib/XMC_Peripheral_Library_v2.1.16/XMCLib/src/xmc_usbd.c ****   xmc_device.global_register->gintmsk = gintmsk.d32;
 2209              		.loc 1 1192 22 view .LVU850
 2210 0134 42F44062 		orr	r2, r2, #3072
 2211              	.LVL138:
1173:/opt/XMClib/XMC_Peripheral_Library_v2.1.16/XMCLib/src/xmc_usbd.c ****  
 2212              		.loc 1 1173 39 view .LVU851
 2213 0138 4FF0FF31 		mov	r1, #-1
 2214              	.LVL139:
1192:/opt/XMClib/XMC_Peripheral_Library_v2.1.16/XMCLib/src/xmc_usbd.c ****   xmc_device.global_register->gintmsk = gintmsk.d32;
 2215              		.loc 1 1192 22 view .LVU852
 2216 013c 42F00E02 		orr	r2, r2, #14
 2217              	.LVL140:
1172:/opt/XMClib/XMC_Peripheral_Library_v2.1.16/XMCLib/src/xmc_usbd.c ****   xmc_device.global_register->gintsts = 0xFFFFFFFFU; /* clear all interrupts */
 2218              		.loc 1 1172 39 view .LVU853
 2219 0140 9861     		str	r0, [r3, #24]
1173:/opt/XMClib/XMC_Peripheral_Library_v2.1.16/XMCLib/src/xmc_usbd.c ****  
 2220              		.loc 1 1173 3 is_stmt 1 view .LVU854
1173:/opt/XMClib/XMC_Peripheral_Library_v2.1.16/XMCLib/src/xmc_usbd.c ****  
 2221              		.loc 1 1173 39 is_stmt 0 view .LVU855
 2222 0142 5961     		str	r1, [r3, #20]
1175:/opt/XMClib/XMC_Peripheral_Library_v2.1.16/XMCLib/src/xmc_usbd.c ****   /* enable common interrupts */
 2223              		.loc 1 1175 3 is_stmt 1 view .LVU856
1177:/opt/XMClib/XMC_Peripheral_Library_v2.1.16/XMCLib/src/xmc_usbd.c ****   gintmsk.b.otgintr = 1U;
 2224              		.loc 1 1177 3 view .LVU857
1178:/opt/XMClib/XMC_Peripheral_Library_v2.1.16/XMCLib/src/xmc_usbd.c ****   gintmsk.b.sessreqintr = 1U;
 2225              		.loc 1 1178 3 view .LVU858
1179:/opt/XMClib/XMC_Peripheral_Library_v2.1.16/XMCLib/src/xmc_usbd.c ****   /* enable device interrupts */
 2226              		.loc 1 1179 3 view .LVU859
1181:/opt/XMClib/XMC_Peripheral_Library_v2.1.16/XMCLib/src/xmc_usbd.c ****   gintmsk.b.enumdone = 1U;
 2227              		.loc 1 1181 3 view .LVU860
1182:/opt/XMClib/XMC_Peripheral_Library_v2.1.16/XMCLib/src/xmc_usbd.c ****   gintmsk.b.erlysuspend = 1U;
 2228              		.loc 1 1182 3 view .LVU861
1183:/opt/XMClib/XMC_Peripheral_Library_v2.1.16/XMCLib/src/xmc_usbd.c ****   gintmsk.b.usbsuspend = 1U;
 2229              		.loc 1 1183 3 view .LVU862
1184:/opt/XMClib/XMC_Peripheral_Library_v2.1.16/XMCLib/src/xmc_usbd.c ****   gintmsk.b.wkupintr = 1U;
 2230              		.loc 1 1184 3 view .LVU863
1185:/opt/XMClib/XMC_Peripheral_Library_v2.1.16/XMCLib/src/xmc_usbd.c ****   gintmsk.b.sofintr = 1U;
 2231              		.loc 1 1185 3 view .LVU864
1186:/opt/XMClib/XMC_Peripheral_Library_v2.1.16/XMCLib/src/xmc_usbd.c ****   if(obj->usbd_transfer_mode == XMC_USBD_USE_FIFO)
 2232              		.loc 1 1186 3 view .LVU865
1187:/opt/XMClib/XMC_Peripheral_Library_v2.1.16/XMCLib/src/xmc_usbd.c ****   {
 2233              		.loc 1 1187 3 view .LVU866
1191:/opt/XMClib/XMC_Peripheral_Library_v2.1.16/XMCLib/src/xmc_usbd.c ****   gintmsk.b.inepintr = 1U;
 2234              		.loc 1 1191 3 view .LVU867
1192:/opt/XMClib/XMC_Peripheral_Library_v2.1.16/XMCLib/src/xmc_usbd.c ****   xmc_device.global_register->gintmsk = gintmsk.d32;
 2235              		.loc 1 1192 3 view .LVU868
1193:/opt/XMClib/XMC_Peripheral_Library_v2.1.16/XMCLib/src/xmc_usbd.c ****   return XMC_USBD_STATUS_OK;
 2236              		.loc 1 1193 3 view .LVU869
 2237              	.LVL141:
1193:/opt/XMClib/XMC_Peripheral_Library_v2.1.16/XMCLib/src/xmc_usbd.c ****   return XMC_USBD_STATUS_OK;
 2238              		.loc 1 1193 39 is_stmt 0 view .LVU870
 2239 0144 9A61     		str	r2, [r3, #24]
1194:/opt/XMClib/XMC_Peripheral_Library_v2.1.16/XMCLib/src/xmc_usbd.c **** }
 2240              		.loc 1 1194 3 is_stmt 1 view .LVU871
1195:/opt/XMClib/XMC_Peripheral_Library_v2.1.16/XMCLib/src/xmc_usbd.c **** 
 2241              		.loc 1 1195 1 is_stmt 0 view .LVU872
 2242 0146 03B0     		add	sp, sp, #12
 2243              	.LCFI11:
 2244              		.cfi_def_cfa_offset 12
 2245              		@ sp needed
 2246 0148 30BD     		pop	{r4, r5, pc}
 2247              	.L162:
 2248 014a 00BF     		.align	2
 2249              	.L161:
 2250 014c 00000000 		.word	.LANCHOR0
 2251 0150 80000020 		.word	536871040
 2252 0154 A8010000 		.word	.LANCHOR0+424
 2253 0158 C4010000 		.word	.LANCHOR0+452
 2254 015c E0010000 		.word	.LANCHOR0+480
 2255              		.cfi_endproc
 2256              	.LFE187:
 2258              		.section	.text.XMC_USBD_EndpointRead,"ax",%progbits
 2259              		.align	1
 2260              		.p2align 2,,3
 2261              		.global	XMC_USBD_EndpointRead
 2262              		.syntax unified
 2263              		.thumb
 2264              		.thumb_func
 2266              	XMC_USBD_EndpointRead:
 2267              	.LVL142:
 2268              	.LFB193:
1285:/opt/XMClib/XMC_Peripheral_Library_v2.1.16/XMCLib/src/xmc_usbd.c ****   XMC_USBD_EP_t *ep = &xmc_device.ep[ep_num];
 2269              		.loc 1 1285 1 is_stmt 1 view -0
 2270              		.cfi_startproc
 2271              		@ args = 0, pretend = 0, frame = 0
 2272              		@ frame_needed = 0, uses_anonymous_args = 0
1286:/opt/XMClib/XMC_Peripheral_Library_v2.1.16/XMCLib/src/xmc_usbd.c ****   if (length > ep->outBytesAvailable)
 2273              		.loc 1 1286 3 view .LVU874
1285:/opt/XMClib/XMC_Peripheral_Library_v2.1.16/XMCLib/src/xmc_usbd.c ****   XMC_USBD_EP_t *ep = &xmc_device.ep[ep_num];
 2274              		.loc 1 1285 1 is_stmt 0 view .LVU875
 2275 0000 F8B5     		push	{r3, r4, r5, r6, r7, lr}
 2276              	.LCFI12:
 2277              		.cfi_def_cfa_offset 24
 2278              		.cfi_offset 3, -24
 2279              		.cfi_offset 4, -20
 2280              		.cfi_offset 5, -16
 2281              		.cfi_offset 6, -12
 2282              		.cfi_offset 7, -8
 2283              		.cfi_offset 14, -4
1287:/opt/XMClib/XMC_Peripheral_Library_v2.1.16/XMCLib/src/xmc_usbd.c ****   {
 2284              		.loc 1 1287 18 view .LVU876
 2285 0002 0E4E     		ldr	r6, .L169
 2286 0004 3424     		movs	r4, #52
 2287 0006 04FB0064 		mla	r4, r4, r0, r6
1285:/opt/XMClib/XMC_Peripheral_Library_v2.1.16/XMCLib/src/xmc_usbd.c ****   XMC_USBD_EP_t *ep = &xmc_device.ep[ep_num];
 2288              		.loc 1 1285 1 view .LVU877
 2289 000a 0746     		mov	r7, r0
 2290              	.LVL143:
1287:/opt/XMClib/XMC_Peripheral_Library_v2.1.16/XMCLib/src/xmc_usbd.c ****   {
 2291              		.loc 1 1287 3 is_stmt 1 view .LVU878
 2292 000c 2369     		ldr	r3, [r4, #16]
 2293 000e 9A42     		cmp	r2, r3
 2294 0010 28BF     		it	cs
 2295 0012 1A46     		movcs	r2, r3
 2296              	.LVL144:
1291:/opt/XMClib/XMC_Peripheral_Library_v2.1.16/XMCLib/src/xmc_usbd.c ****   ep->outBytesAvailable -= length;
 2297              		.loc 1 1291 3 is_stmt 0 view .LVU879
 2298 0014 0846     		mov	r0, r1
 2299              	.LVL145:
1291:/opt/XMClib/XMC_Peripheral_Library_v2.1.16/XMCLib/src/xmc_usbd.c ****   ep->outBytesAvailable -= length;
 2300              		.loc 1 1291 17 view .LVU880
 2301 0016 A369     		ldr	r3, [r4, #24]
 2302 0018 E168     		ldr	r1, [r4, #12]
 2303              	.LVL146:
1291:/opt/XMClib/XMC_Peripheral_Library_v2.1.16/XMCLib/src/xmc_usbd.c ****   ep->outBytesAvailable -= length;
 2304              		.loc 1 1291 3 view .LVU881
 2305 001a 1944     		add	r1, r1, r3
 2306 001c 1546     		mov	r5, r2
 2307              	.LVL147:
1291:/opt/XMClib/XMC_Peripheral_Library_v2.1.16/XMCLib/src/xmc_usbd.c ****   ep->outBytesAvailable -= length;
 2308              		.loc 1 1291 3 is_stmt 1 view .LVU882
 2309 001e FFF7FEFF 		bl	memcpy
 2310              	.LVL148:
1292:/opt/XMClib/XMC_Peripheral_Library_v2.1.16/XMCLib/src/xmc_usbd.c ****   if (ep->outBytesAvailable)
 2311              		.loc 1 1292 3 view .LVU883
1292:/opt/XMClib/XMC_Peripheral_Library_v2.1.16/XMCLib/src/xmc_usbd.c ****   if (ep->outBytesAvailable)
 2312              		.loc 1 1292 25 is_stmt 0 view .LVU884
 2313 0022 2369     		ldr	r3, [r4, #16]
 2314 0024 5B1B     		subs	r3, r3, r5
 2315 0026 2361     		str	r3, [r4, #16]
1293:/opt/XMClib/XMC_Peripheral_Library_v2.1.16/XMCLib/src/xmc_usbd.c ****   {
 2316              		.loc 1 1293 3 is_stmt 1 view .LVU885
1293:/opt/XMClib/XMC_Peripheral_Library_v2.1.16/XMCLib/src/xmc_usbd.c ****   {
 2317              		.loc 1 1293 6 is_stmt 0 view .LVU886
 2318 0028 0BB1     		cbz	r3, .L164
1295:/opt/XMClib/XMC_Peripheral_Library_v2.1.16/XMCLib/src/xmc_usbd.c ****   }
 2319              		.loc 1 1295 5 is_stmt 1 view .LVU887
1295:/opt/XMClib/XMC_Peripheral_Library_v2.1.16/XMCLib/src/xmc_usbd.c ****   }
 2320              		.loc 1 1295 19 is_stmt 0 view .LVU888
 2321 002a A369     		ldr	r3, [r4, #24]
 2322 002c 2B44     		add	r3, r3, r5
 2323              	.L164:
 2324 002e 3420     		movs	r0, #52
 2325 0030 00FB0766 		mla	r6, r0, r7, r6
1302:/opt/XMClib/XMC_Peripheral_Library_v2.1.16/XMCLib/src/xmc_usbd.c **** 
 2326              		.loc 1 1302 1 view .LVU889
 2327 0034 2846     		mov	r0, r5
 2328 0036 B361     		str	r3, [r6, #24]
1301:/opt/XMClib/XMC_Peripheral_Library_v2.1.16/XMCLib/src/xmc_usbd.c **** }
 2329              		.loc 1 1301 3 is_stmt 1 view .LVU890
1302:/opt/XMClib/XMC_Peripheral_Library_v2.1.16/XMCLib/src/xmc_usbd.c **** 
 2330              		.loc 1 1302 1 is_stmt 0 view .LVU891
 2331 0038 F8BD     		pop	{r3, r4, r5, r6, r7, pc}
 2332              	.LVL149:
 2333              	.L170:
1302:/opt/XMClib/XMC_Peripheral_Library_v2.1.16/XMCLib/src/xmc_usbd.c **** 
 2334              		.loc 1 1302 1 view .LVU892
 2335 003a 00BF     		.align	2
 2336              	.L169:
 2337 003c 00000000 		.word	.LANCHOR0
 2338              		.cfi_endproc
 2339              	.LFE193:
 2341              		.section	.text.XMC_USBD_EndpointWrite,"ax",%progbits
 2342              		.align	1
 2343              		.p2align 2,,3
 2344              		.global	XMC_USBD_EndpointWrite
 2345              		.syntax unified
 2346              		.thumb
 2347              		.thumb_func
 2349              	XMC_USBD_EndpointWrite:
 2350              	.LVL150:
 2351              	.LFB194:
1308:/opt/XMClib/XMC_Peripheral_Library_v2.1.16/XMCLib/src/xmc_usbd.c ****   XMC_USBD_EP_t * ep = &xmc_device.ep[ep_num & (uint8_t)XMC_USBD_EP_NUM_MASK];
 2352              		.loc 1 1308 1 is_stmt 1 view -0
 2353              		.cfi_startproc
 2354              		@ args = 0, pretend = 0, frame = 0
 2355              		@ frame_needed = 0, uses_anonymous_args = 0
1309:/opt/XMClib/XMC_Peripheral_Library_v2.1.16/XMCLib/src/xmc_usbd.c ****   int32_t result;
 2356              		.loc 1 1309 3 view .LVU894
1308:/opt/XMClib/XMC_Peripheral_Library_v2.1.16/XMCLib/src/xmc_usbd.c ****   XMC_USBD_EP_t * ep = &xmc_device.ep[ep_num & (uint8_t)XMC_USBD_EP_NUM_MASK];
 2357              		.loc 1 1308 1 is_stmt 0 view .LVU895
 2358 0000 F8B5     		push	{r3, r4, r5, r6, r7, lr}
 2359              	.LCFI13:
 2360              		.cfi_def_cfa_offset 24
 2361              		.cfi_offset 3, -24
 2362              		.cfi_offset 4, -20
 2363              		.cfi_offset 5, -16
 2364              		.cfi_offset 6, -12
 2365              		.cfi_offset 7, -8
 2366              		.cfi_offset 14, -4
1311:/opt/XMClib/XMC_Peripheral_Library_v2.1.16/XMCLib/src/xmc_usbd.c ****   {
 2367              		.loc 1 1311 7 view .LVU896
 2368 0002 164F     		ldr	r7, .L177
 2369 0004 00F00F06 		and	r6, r0, #15
 2370              	.LVL151:
1310:/opt/XMClib/XMC_Peripheral_Library_v2.1.16/XMCLib/src/xmc_usbd.c ****   if (!ep->isConfigured)
 2371              		.loc 1 1310 3 is_stmt 1 view .LVU897
1311:/opt/XMClib/XMC_Peripheral_Library_v2.1.16/XMCLib/src/xmc_usbd.c ****   {
 2372              		.loc 1 1311 3 view .LVU898
1311:/opt/XMClib/XMC_Peripheral_Library_v2.1.16/XMCLib/src/xmc_usbd.c ****   {
 2373              		.loc 1 1311 7 is_stmt 0 view .LVU899
 2374 0008 3424     		movs	r4, #52
 2375 000a 04FB0674 		mla	r4, r4, r6, r7
 2376 000e 2379     		ldrb	r3, [r4, #4]	@ zero_extendqisi2
1311:/opt/XMClib/XMC_Peripheral_Library_v2.1.16/XMCLib/src/xmc_usbd.c ****   {
 2377              		.loc 1 1311 6 view .LVU900
 2378 0010 5807     		lsls	r0, r3, #29
 2379              	.LVL152:
1311:/opt/XMClib/XMC_Peripheral_Library_v2.1.16/XMCLib/src/xmc_usbd.c ****   {
 2380              		.loc 1 1311 6 view .LVU901
 2381 0012 04D5     		bpl	.L173
1315:/opt/XMClib/XMC_Peripheral_Library_v2.1.16/XMCLib/src/xmc_usbd.c ****   {
 2382              		.loc 1 1315 8 is_stmt 1 view .LVU902
1315:/opt/XMClib/XMC_Peripheral_Library_v2.1.16/XMCLib/src/xmc_usbd.c ****   {
 2383              		.loc 1 1315 14 is_stmt 0 view .LVU903
 2384 0014 6368     		ldr	r3, [r4, #4]
1315:/opt/XMClib/XMC_Peripheral_Library_v2.1.16/XMCLib/src/xmc_usbd.c ****   {
 2385              		.loc 1 1315 11 view .LVU904
 2386 0016 1B07     		lsls	r3, r3, #28
 2387 0018 03D5     		bpl	.L176
1317:/opt/XMClib/XMC_Peripheral_Library_v2.1.16/XMCLib/src/xmc_usbd.c ****   }
 2388              		.loc 1 1317 11 view .LVU905
 2389 001a 0020     		movs	r0, #0
 2390              	.LVL153:
1337:/opt/XMClib/XMC_Peripheral_Library_v2.1.16/XMCLib/src/xmc_usbd.c **** }
 2391              		.loc 1 1337 3 is_stmt 1 view .LVU906
1338:/opt/XMClib/XMC_Peripheral_Library_v2.1.16/XMCLib/src/xmc_usbd.c **** 
 2392              		.loc 1 1338 1 is_stmt 0 view .LVU907
 2393 001c F8BD     		pop	{r3, r4, r5, r6, r7, pc}
 2394              	.LVL154:
 2395              	.L173:
1313:/opt/XMClib/XMC_Peripheral_Library_v2.1.16/XMCLib/src/xmc_usbd.c ****   }
 2396              		.loc 1 1313 12 view .LVU908
 2397 001e 0120     		movs	r0, #1
1338:/opt/XMClib/XMC_Peripheral_Library_v2.1.16/XMCLib/src/xmc_usbd.c **** 
 2398              		.loc 1 1338 1 view .LVU909
 2399 0020 F8BD     		pop	{r3, r4, r5, r6, r7, pc}
 2400              	.LVL155:
 2401              	.L176:
1321:/opt/XMClib/XMC_Peripheral_Library_v2.1.16/XMCLib/src/xmc_usbd.c ****     {
 2402              		.loc 1 1321 5 is_stmt 1 view .LVU910
 2403 0022 256A     		ldr	r5, [r4, #32]
1326:/opt/XMClib/XMC_Peripheral_Library_v2.1.16/XMCLib/src/xmc_usbd.c **** 		ep->xferBuffer = ep->inBuffer;
 2404              		.loc 1 1326 3 is_stmt 0 view .LVU911
 2405 0024 E069     		ldr	r0, [r4, #28]
 2406 0026 9542     		cmp	r5, r2
 2407 0028 28BF     		it	cs
 2408 002a 1546     		movcs	r5, r2
 2409              	.LVL156:
1326:/opt/XMClib/XMC_Peripheral_Library_v2.1.16/XMCLib/src/xmc_usbd.c **** 		ep->xferBuffer = ep->inBuffer;
 2410              		.loc 1 1326 3 is_stmt 1 view .LVU912
 2411 002c 2A46     		mov	r2, r5
 2412 002e FFF7FEFF 		bl	memcpy
 2413              	.LVL157:
1327:/opt/XMClib/XMC_Peripheral_Library_v2.1.16/XMCLib/src/xmc_usbd.c ****     ep->xferTotal = length;
 2414              		.loc 1 1327 3 view .LVU913
1327:/opt/XMClib/XMC_Peripheral_Library_v2.1.16/XMCLib/src/xmc_usbd.c ****     ep->xferTotal = length;
 2415              		.loc 1 1327 18 is_stmt 0 view .LVU914
 2416 0032 E369     		ldr	r3, [r4, #28]
 2417 0034 6362     		str	r3, [r4, #36]
1328:/opt/XMClib/XMC_Peripheral_Library_v2.1.16/XMCLib/src/xmc_usbd.c ****     /* set transfer values */
 2418              		.loc 1 1328 5 is_stmt 1 view .LVU915
1332:/opt/XMClib/XMC_Peripheral_Library_v2.1.16/XMCLib/src/xmc_usbd.c ****     /* start the transfer */
 2419              		.loc 1 1332 17 is_stmt 0 view .LVU916
 2420 0036 6368     		ldr	r3, [r4, #4]
1328:/opt/XMClib/XMC_Peripheral_Library_v2.1.16/XMCLib/src/xmc_usbd.c ****     /* set transfer values */
 2421              		.loc 1 1328 19 view .LVU917
 2422 0038 2563     		str	r5, [r4, #48]
1330:/opt/XMClib/XMC_Peripheral_Library_v2.1.16/XMCLib/src/xmc_usbd.c ****     ep->xferCount = 0U;
 2423              		.loc 1 1330 5 is_stmt 1 view .LVU918
1309:/opt/XMClib/XMC_Peripheral_Library_v2.1.16/XMCLib/src/xmc_usbd.c ****   int32_t result;
 2424              		.loc 1 1309 19 is_stmt 0 view .LVU919
 2425 003a 06EB4600 		add	r0, r6, r6, lsl #1
1330:/opt/XMClib/XMC_Peripheral_Library_v2.1.16/XMCLib/src/xmc_usbd.c ****     ep->xferCount = 0U;
 2426              		.loc 1 1330 20 view .LVU920
 2427 003e 0022     		movs	r2, #0
1332:/opt/XMClib/XMC_Peripheral_Library_v2.1.16/XMCLib/src/xmc_usbd.c ****     /* start the transfer */
 2428              		.loc 1 1332 17 view .LVU921
 2429 0040 43F00803 		orr	r3, r3, #8
1309:/opt/XMClib/XMC_Peripheral_Library_v2.1.16/XMCLib/src/xmc_usbd.c ****   int32_t result;
 2430              		.loc 1 1309 19 view .LVU922
 2431 0044 06EB8000 		add	r0, r6, r0, lsl #2
1334:/opt/XMClib/XMC_Peripheral_Library_v2.1.16/XMCLib/src/xmc_usbd.c ****     result=(int32_t)ep->xferTotal;
 2432              		.loc 1 1334 5 view .LVU923
 2433 0048 07EB8000 		add	r0, r7, r0, lsl #2
1331:/opt/XMClib/XMC_Peripheral_Library_v2.1.16/XMCLib/src/xmc_usbd.c ****     ep->inInUse = 1U;
 2434              		.loc 1 1331 19 view .LVU924
 2435 004c C4E90A22 		strd	r2, r2, [r4, #40]
1332:/opt/XMClib/XMC_Peripheral_Library_v2.1.16/XMCLib/src/xmc_usbd.c ****     /* start the transfer */
 2436              		.loc 1 1332 5 is_stmt 1 view .LVU925
1334:/opt/XMClib/XMC_Peripheral_Library_v2.1.16/XMCLib/src/xmc_usbd.c ****     result=(int32_t)ep->xferTotal;
 2437              		.loc 1 1334 5 view .LVU926
1332:/opt/XMClib/XMC_Peripheral_Library_v2.1.16/XMCLib/src/xmc_usbd.c ****     /* start the transfer */
 2438              		.loc 1 1332 17 is_stmt 0 view .LVU927
 2439 0050 6360     		str	r3, [r4, #4]
1334:/opt/XMClib/XMC_Peripheral_Library_v2.1.16/XMCLib/src/xmc_usbd.c ****     result=(int32_t)ep->xferTotal;
 2440              		.loc 1 1334 5 view .LVU928
 2441 0052 FFF7FEFF 		bl	XMC_USBD_lStartWriteXfer
 2442              	.LVL158:
1335:/opt/XMClib/XMC_Peripheral_Library_v2.1.16/XMCLib/src/xmc_usbd.c ****   }
 2443              		.loc 1 1335 5 is_stmt 1 view .LVU929
1335:/opt/XMClib/XMC_Peripheral_Library_v2.1.16/XMCLib/src/xmc_usbd.c ****   }
 2444              		.loc 1 1335 11 is_stmt 0 view .LVU930
 2445 0056 206B     		ldr	r0, [r4, #48]
 2446              	.LVL159:
1338:/opt/XMClib/XMC_Peripheral_Library_v2.1.16/XMCLib/src/xmc_usbd.c **** 
 2447              		.loc 1 1338 1 view .LVU931
 2448 0058 F8BD     		pop	{r3, r4, r5, r6, r7, pc}
 2449              	.LVL160:
 2450              	.L178:
1338:/opt/XMClib/XMC_Peripheral_Library_v2.1.16/XMCLib/src/xmc_usbd.c **** 
 2451              		.loc 1 1338 1 view .LVU932
 2452 005a 00BF     		.align	2
 2453              	.L177:
 2454 005c 00000000 		.word	.LANCHOR0
 2455              		.cfi_endproc
 2456              	.LFE194:
 2458              		.section	.text.XMC_USBD_DeviceGetState,"ax",%progbits
 2459              		.align	1
 2460              		.p2align 2,,3
 2461              		.global	XMC_USBD_DeviceGetState
 2462              		.syntax unified
 2463              		.thumb
 2464              		.thumb_func
 2466              	XMC_USBD_DeviceGetState:
 2467              	.LVL161:
 2468              	.LFB191:
1241:/opt/XMClib/XMC_Peripheral_Library_v2.1.16/XMCLib/src/xmc_usbd.c ****   XMC_USBD_STATE_t state={0U};
 2469              		.loc 1 1241 1 is_stmt 1 view -0
 2470              		.cfi_startproc
 2471              		@ args = 0, pretend = 0, frame = 0
 2472              		@ frame_needed = 0, uses_anonymous_args = 0
1242:/opt/XMClib/XMC_Peripheral_Library_v2.1.16/XMCLib/src/xmc_usbd.c ****   state.speed = XMC_USBD_SPEED_FULL;
 2473              		.loc 1 1242 3 view .LVU934
1241:/opt/XMClib/XMC_Peripheral_Library_v2.1.16/XMCLib/src/xmc_usbd.c ****   XMC_USBD_STATE_t state={0U};
 2474              		.loc 1 1241 1 is_stmt 0 view .LVU935
 2475 0000 70B5     		push	{r4, r5, r6, lr}
 2476              	.LCFI14:
 2477              		.cfi_def_cfa_offset 16
 2478              		.cfi_offset 4, -16
 2479              		.cfi_offset 5, -12
 2480              		.cfi_offset 6, -8
 2481              		.cfi_offset 14, -4
1244:/opt/XMClib/XMC_Peripheral_Library_v2.1.16/XMCLib/src/xmc_usbd.c ****   state.active = XMC_USBD_lDeviceActive(obj);
 2482              		.loc 1 1244 31 view .LVU936
 2483 0002 1B4C     		ldr	r4, .L191
 2484              	.LBB87:
 2485              	.LBB88:
 184:/opt/XMClib/XMC_Peripheral_Library_v2.1.16/XMCLib/src/xmc_usbd.c ****   {
 2486              		.loc 1 184 32 view .LVU937
 2487 0004 057B     		ldrb	r5, [r0, #12]	@ zero_extendqisi2
 2488              	.LBE88:
 2489              	.LBE87:
1244:/opt/XMClib/XMC_Peripheral_Library_v2.1.16/XMCLib/src/xmc_usbd.c ****   state.active = XMC_USBD_lDeviceActive(obj);
 2490              		.loc 1 1244 31 view .LVU938
 2491 0006 94F8FE31 		ldrb	r3, [r4, #510]	@ zero_extendqisi2
1242:/opt/XMClib/XMC_Peripheral_Library_v2.1.16/XMCLib/src/xmc_usbd.c ****   state.speed = XMC_USBD_SPEED_FULL;
 2492              		.loc 1 1242 20 view .LVU939
 2493 000a 0020     		movs	r0, #0
 2494              	.LVL162:
1243:/opt/XMClib/XMC_Peripheral_Library_v2.1.16/XMCLib/src/xmc_usbd.c ****   state.connected = xmc_device.IsConnected;
 2495              		.loc 1 1243 3 is_stmt 1 view .LVU940
1244:/opt/XMClib/XMC_Peripheral_Library_v2.1.16/XMCLib/src/xmc_usbd.c ****   state.active = XMC_USBD_lDeviceActive(obj);
 2496              		.loc 1 1244 3 view .LVU941
1244:/opt/XMClib/XMC_Peripheral_Library_v2.1.16/XMCLib/src/xmc_usbd.c ****   state.active = XMC_USBD_lDeviceActive(obj);
 2497              		.loc 1 1244 31 is_stmt 0 view .LVU942
 2498 000c 03F00106 		and	r6, r3, #1
 2499              	.LVL163:
1245:/opt/XMClib/XMC_Peripheral_Library_v2.1.16/XMCLib/src/xmc_usbd.c ****   state.powered = xmc_device.IsPowered;
 2500              		.loc 1 1245 3 is_stmt 1 view .LVU943
 2501              	.LBB92:
 2502              	.LBI87:
 180:/opt/XMClib/XMC_Peripheral_Library_v2.1.16/XMCLib/src/xmc_usbd.c **** {
 2503              		.loc 1 180 9 view .LVU944
 2504              	.LBB89:
 182:/opt/XMClib/XMC_Peripheral_Library_v2.1.16/XMCLib/src/xmc_usbd.c ****   uint8_t result = 0U;
 2505              		.loc 1 182 3 view .LVU945
 183:/opt/XMClib/XMC_Peripheral_Library_v2.1.16/XMCLib/src/xmc_usbd.c ****   for (i = 0U; i < (uint8_t)obj->usbd_max_num_eps; i++)
 2506              		.loc 1 183 3 view .LVU946
 184:/opt/XMClib/XMC_Peripheral_Library_v2.1.16/XMCLib/src/xmc_usbd.c ****   {
 2507              		.loc 1 184 3 view .LVU947
 184:/opt/XMClib/XMC_Peripheral_Library_v2.1.16/XMCLib/src/xmc_usbd.c ****   {
 2508              		.loc 1 184 16 view .LVU948
 184:/opt/XMClib/XMC_Peripheral_Library_v2.1.16/XMCLib/src/xmc_usbd.c ****   {
 2509              		.loc 1 184 3 is_stmt 0 view .LVU949
 2510 0010 5DB3     		cbz	r5, .L183
 2511              	.LVL164:
 184:/opt/XMClib/XMC_Peripheral_Library_v2.1.16/XMCLib/src/xmc_usbd.c ****   {
 2512              		.loc 1 184 3 view .LVU950
 2513 0012 0246     		mov	r2, r0
 183:/opt/XMClib/XMC_Peripheral_Library_v2.1.16/XMCLib/src/xmc_usbd.c ****   for (i = 0U; i < (uint8_t)obj->usbd_max_num_eps; i++)
 2514              		.loc 1 183 11 view .LVU951
 2515 0014 8446     		mov	ip, r0
 2516 0016 0346     		mov	r3, r0
 2517              	.LVL165:
 186:/opt/XMClib/XMC_Peripheral_Library_v2.1.16/XMCLib/src/xmc_usbd.c ****     {
 2518              		.loc 1 186 25 view .LVU952
 2519 0018 4FF0340E 		mov	lr, #52
 2520 001c 09E0     		b	.L182
 2521              	.LVL166:
 2522              	.L190:
 186:/opt/XMClib/XMC_Peripheral_Library_v2.1.16/XMCLib/src/xmc_usbd.c ****     {
 2523              		.loc 1 186 53 view .LVU953
 2524 001e 5B68     		ldr	r3, [r3, #4]
 184:/opt/XMClib/XMC_Peripheral_Library_v2.1.16/XMCLib/src/xmc_usbd.c ****   {
 2525              		.loc 1 184 3 view .LVU954
 2526 0020 0132     		adds	r2, r2, #1
 2527              	.LVL167:
 188:/opt/XMClib/XMC_Peripheral_Library_v2.1.16/XMCLib/src/xmc_usbd.c ****     }
 2528              		.loc 1 188 14 view .LVU955
 2529 0022 13F0100F 		tst	r3, #16
 184:/opt/XMClib/XMC_Peripheral_Library_v2.1.16/XMCLib/src/xmc_usbd.c ****   {
 2530              		.loc 1 184 3 view .LVU956
 2531 0026 D3B2     		uxtb	r3, r2
 188:/opt/XMClib/XMC_Peripheral_Library_v2.1.16/XMCLib/src/xmc_usbd.c ****     }
 2532              		.loc 1 188 14 view .LVU957
 2533 0028 18BF     		it	ne
 2534 002a 4FF0010C 		movne	ip, #1
 2535              	.LVL168:
 184:/opt/XMClib/XMC_Peripheral_Library_v2.1.16/XMCLib/src/xmc_usbd.c ****   {
 2536              		.loc 1 184 52 is_stmt 1 view .LVU958
 184:/opt/XMClib/XMC_Peripheral_Library_v2.1.16/XMCLib/src/xmc_usbd.c ****   {
 2537              		.loc 1 184 16 view .LVU959
 184:/opt/XMClib/XMC_Peripheral_Library_v2.1.16/XMCLib/src/xmc_usbd.c ****   {
 2538              		.loc 1 184 3 is_stmt 0 view .LVU960
 2539 002e 9D42     		cmp	r5, r3
 2540 0030 0AD9     		bls	.L189
 2541              	.LVL169:
 2542              	.L182:
 186:/opt/XMClib/XMC_Peripheral_Library_v2.1.16/XMCLib/src/xmc_usbd.c ****     {
 2543              		.loc 1 186 5 is_stmt 1 view .LVU961
 186:/opt/XMClib/XMC_Peripheral_Library_v2.1.16/XMCLib/src/xmc_usbd.c ****     {
 2544              		.loc 1 186 25 is_stmt 0 view .LVU962
 2545 0032 0EFB0343 		mla	r3, lr, r3, r4
 2546 0036 5968     		ldr	r1, [r3, #4]
 186:/opt/XMClib/XMC_Peripheral_Library_v2.1.16/XMCLib/src/xmc_usbd.c ****     {
 2547              		.loc 1 186 8 view .LVU963
 2548 0038 0907     		lsls	r1, r1, #28
 2549 003a F0D5     		bpl	.L190
 184:/opt/XMClib/XMC_Peripheral_Library_v2.1.16/XMCLib/src/xmc_usbd.c ****   {
 2550              		.loc 1 184 3 view .LVU964
 2551 003c 0132     		adds	r2, r2, #1
 2552              	.LVL170:
 184:/opt/XMClib/XMC_Peripheral_Library_v2.1.16/XMCLib/src/xmc_usbd.c ****   {
 2553              		.loc 1 184 3 view .LVU965
 2554 003e D3B2     		uxtb	r3, r2
 2555 0040 9D42     		cmp	r5, r3
 188:/opt/XMClib/XMC_Peripheral_Library_v2.1.16/XMCLib/src/xmc_usbd.c ****     }
 2556              		.loc 1 188 14 view .LVU966
 2557 0042 4FF0010C 		mov	ip, #1
 2558              	.LVL171:
 184:/opt/XMClib/XMC_Peripheral_Library_v2.1.16/XMCLib/src/xmc_usbd.c ****   {
 2559              		.loc 1 184 52 is_stmt 1 view .LVU967
 184:/opt/XMClib/XMC_Peripheral_Library_v2.1.16/XMCLib/src/xmc_usbd.c ****   {
 2560              		.loc 1 184 16 view .LVU968
 184:/opt/XMClib/XMC_Peripheral_Library_v2.1.16/XMCLib/src/xmc_usbd.c ****   {
 2561              		.loc 1 184 3 is_stmt 0 view .LVU969
 2562 0046 F4D8     		bhi	.L182
 2563              	.L189:
 184:/opt/XMClib/XMC_Peripheral_Library_v2.1.16/XMCLib/src/xmc_usbd.c ****   {
 2564              		.loc 1 184 3 view .LVU970
 2565              	.LBE89:
 2566              	.LBE92:
1245:/opt/XMClib/XMC_Peripheral_Library_v2.1.16/XMCLib/src/xmc_usbd.c ****   state.powered = xmc_device.IsPowered;
 2567              		.loc 1 1245 18 view .LVU971
 2568 0048 0CF0010C 		and	ip, ip, #1
 2569              	.LVL172:
 2570              	.L180:
 2571              	.LBB93:
 2572              	.LBB90:
 191:/opt/XMClib/XMC_Peripheral_Library_v2.1.16/XMCLib/src/xmc_usbd.c **** }
 2573              		.loc 1 191 3 is_stmt 1 view .LVU972
 191:/opt/XMClib/XMC_Peripheral_Library_v2.1.16/XMCLib/src/xmc_usbd.c **** }
 2574              		.loc 1 191 3 is_stmt 0 view .LVU973
 2575              	.LBE90:
 2576              	.LBE93:
1246:/opt/XMClib/XMC_Peripheral_Library_v2.1.16/XMCLib/src/xmc_usbd.c ****   return state;
 2577              		.loc 1 1246 3 is_stmt 1 view .LVU974
1247:/opt/XMClib/XMC_Peripheral_Library_v2.1.16/XMCLib/src/xmc_usbd.c **** }
 2578              		.loc 1 1247 3 view .LVU975
1246:/opt/XMClib/XMC_Peripheral_Library_v2.1.16/XMCLib/src/xmc_usbd.c ****   return state;
 2579              		.loc 1 1246 29 is_stmt 0 view .LVU976
 2580 004c 94F8FE31 		ldrb	r3, [r4, #510]	@ zero_extendqisi2
 2581 0050 C3F38003 		ubfx	r3, r3, #2, #1
1247:/opt/XMClib/XMC_Peripheral_Library_v2.1.16/XMCLib/src/xmc_usbd.c **** }
 2582              		.loc 1 1247 10 view .LVU977
 2583 0054 43F00803 		orr	r3, r3, #8
 2584 0058 43EA4603 		orr	r3, r3, r6, lsl #1
 2585 005c 43EA8C0C 		orr	ip, r3, ip, lsl #2
 2586 0060 0CF01F0C 		and	ip, ip, #31
 2587 0064 6CF30700 		bfi	r0, ip, #0, #8
 2588              	.LVL173:
 2589              	.LVL174:
1248:/opt/XMClib/XMC_Peripheral_Library_v2.1.16/XMCLib/src/xmc_usbd.c **** 
 2590              		.loc 1 1248 1 view .LVU978
 2591 0068 70BD     		pop	{r4, r5, r6, pc}
 2592              	.LVL175:
 2593              	.L183:
 2594              	.LBB94:
 2595              	.LBB91:
 184:/opt/XMClib/XMC_Peripheral_Library_v2.1.16/XMCLib/src/xmc_usbd.c ****   {
 2596              		.loc 1 184 3 view .LVU979
 2597 006a 8446     		mov	ip, r0
 2598 006c EEE7     		b	.L180
 2599              	.L192:
 2600 006e 00BF     		.align	2
 2601              	.L191:
 2602 0070 00000000 		.word	.LANCHOR0
 2603              	.LBE91:
 2604              	.LBE94:
 2605              		.cfi_endproc
 2606              	.LFE191:
 2608              		.section	.text.XMC_USBD_lDeviceActive,"ax",%progbits
 2609              		.align	1
 2610              		.p2align 2,,3
 2611              		.global	XMC_USBD_lDeviceActive
 2612              		.syntax unified
 2613              		.thumb
 2614              		.thumb_func
 2616              	XMC_USBD_lDeviceActive:
 2617              	.LVL176:
 2618              	.LFB162:
 181:/opt/XMClib/XMC_Peripheral_Library_v2.1.16/XMCLib/src/xmc_usbd.c ****   uint8_t i;
 2619              		.loc 1 181 1 is_stmt 1 view -0
 2620              		.cfi_startproc
 2621              		@ args = 0, pretend = 0, frame = 0
 2622              		@ frame_needed = 0, uses_anonymous_args = 0
 2623              		@ link register save eliminated.
 182:/opt/XMClib/XMC_Peripheral_Library_v2.1.16/XMCLib/src/xmc_usbd.c ****   uint8_t result = 0U;
 2624              		.loc 1 182 3 view .LVU981
 183:/opt/XMClib/XMC_Peripheral_Library_v2.1.16/XMCLib/src/xmc_usbd.c ****   for (i = 0U; i < (uint8_t)obj->usbd_max_num_eps; i++)
 2625              		.loc 1 183 3 view .LVU982
 184:/opt/XMClib/XMC_Peripheral_Library_v2.1.16/XMCLib/src/xmc_usbd.c ****   {
 2626              		.loc 1 184 3 view .LVU983
 184:/opt/XMClib/XMC_Peripheral_Library_v2.1.16/XMCLib/src/xmc_usbd.c ****   {
 2627              		.loc 1 184 16 view .LVU984
 181:/opt/XMClib/XMC_Peripheral_Library_v2.1.16/XMCLib/src/xmc_usbd.c ****   uint8_t i;
 2628              		.loc 1 181 1 is_stmt 0 view .LVU985
 2629 0000 30B4     		push	{r4, r5}
 2630              	.LCFI15:
 2631              		.cfi_def_cfa_offset 8
 2632              		.cfi_offset 4, -8
 2633              		.cfi_offset 5, -4
 184:/opt/XMClib/XMC_Peripheral_Library_v2.1.16/XMCLib/src/xmc_usbd.c ****   {
 2634              		.loc 1 184 32 view .LVU986
 2635 0002 047B     		ldrb	r4, [r0, #12]	@ zero_extendqisi2
 184:/opt/XMClib/XMC_Peripheral_Library_v2.1.16/XMCLib/src/xmc_usbd.c ****   {
 2636              		.loc 1 184 3 view .LVU987
 2637 0004 DCB1     		cbz	r4, .L197
 2638 0006 0023     		movs	r3, #0
 2639 0008 0E4D     		ldr	r5, .L203
 183:/opt/XMClib/XMC_Peripheral_Library_v2.1.16/XMCLib/src/xmc_usbd.c ****   for (i = 0U; i < (uint8_t)obj->usbd_max_num_eps; i++)
 2640              		.loc 1 183 11 view .LVU988
 2641 000a 1846     		mov	r0, r3
 2642              	.LVL177:
 186:/opt/XMClib/XMC_Peripheral_Library_v2.1.16/XMCLib/src/xmc_usbd.c ****     {
 2643              		.loc 1 186 25 view .LVU989
 2644 000c 4FF0340C 		mov	ip, #52
 2645 0010 08E0     		b	.L196
 2646              	.LVL178:
 2647              	.L202:
 186:/opt/XMClib/XMC_Peripheral_Library_v2.1.16/XMCLib/src/xmc_usbd.c ****     {
 2648              		.loc 1 186 53 discriminator 1 view .LVU990
 2649 0012 5268     		ldr	r2, [r2, #4]
 184:/opt/XMClib/XMC_Peripheral_Library_v2.1.16/XMCLib/src/xmc_usbd.c ****   {
 2650              		.loc 1 184 3 discriminator 1 view .LVU991
 2651 0014 0133     		adds	r3, r3, #1
 2652              	.LVL179:
 188:/opt/XMClib/XMC_Peripheral_Library_v2.1.16/XMCLib/src/xmc_usbd.c ****     }
 2653              		.loc 1 188 14 discriminator 1 view .LVU992
 2654 0016 12F0100F 		tst	r2, #16
 184:/opt/XMClib/XMC_Peripheral_Library_v2.1.16/XMCLib/src/xmc_usbd.c ****   {
 2655              		.loc 1 184 3 discriminator 1 view .LVU993
 2656 001a DAB2     		uxtb	r2, r3
 188:/opt/XMClib/XMC_Peripheral_Library_v2.1.16/XMCLib/src/xmc_usbd.c ****     }
 2657              		.loc 1 188 14 discriminator 1 view .LVU994
 2658 001c 18BF     		it	ne
 2659 001e 0120     		movne	r0, #1
 2660              	.LVL180:
 184:/opt/XMClib/XMC_Peripheral_Library_v2.1.16/XMCLib/src/xmc_usbd.c ****   {
 2661              		.loc 1 184 52 is_stmt 1 discriminator 1 view .LVU995
 184:/opt/XMClib/XMC_Peripheral_Library_v2.1.16/XMCLib/src/xmc_usbd.c ****   {
 2662              		.loc 1 184 16 discriminator 1 view .LVU996
 184:/opt/XMClib/XMC_Peripheral_Library_v2.1.16/XMCLib/src/xmc_usbd.c ****   {
 2663              		.loc 1 184 3 is_stmt 0 discriminator 1 view .LVU997
 2664 0020 A242     		cmp	r2, r4
 2665 0022 0AD2     		bcs	.L194
 2666              	.LVL181:
 2667              	.L196:
 186:/opt/XMClib/XMC_Peripheral_Library_v2.1.16/XMCLib/src/xmc_usbd.c ****     {
 2668              		.loc 1 186 5 is_stmt 1 view .LVU998
 186:/opt/XMClib/XMC_Peripheral_Library_v2.1.16/XMCLib/src/xmc_usbd.c ****     {
 2669              		.loc 1 186 25 is_stmt 0 view .LVU999
 2670 0024 0CFB0352 		mla	r2, ip, r3, r5
 2671 0028 5168     		ldr	r1, [r2, #4]
 186:/opt/XMClib/XMC_Peripheral_Library_v2.1.16/XMCLib/src/xmc_usbd.c ****     {
 2672              		.loc 1 186 8 view .LVU1000
 2673 002a 0907     		lsls	r1, r1, #28
 2674 002c F1D5     		bpl	.L202
 184:/opt/XMClib/XMC_Peripheral_Library_v2.1.16/XMCLib/src/xmc_usbd.c ****   {
 2675              		.loc 1 184 3 view .LVU1001
 2676 002e 0133     		adds	r3, r3, #1
 2677              	.LVL182:
 184:/opt/XMClib/XMC_Peripheral_Library_v2.1.16/XMCLib/src/xmc_usbd.c ****   {
 2678              		.loc 1 184 3 view .LVU1002
 2679 0030 DAB2     		uxtb	r2, r3
 2680 0032 A242     		cmp	r2, r4
 188:/opt/XMClib/XMC_Peripheral_Library_v2.1.16/XMCLib/src/xmc_usbd.c ****     }
 2681              		.loc 1 188 14 view .LVU1003
 2682 0034 4FF00100 		mov	r0, #1
 2683              	.LVL183:
 184:/opt/XMClib/XMC_Peripheral_Library_v2.1.16/XMCLib/src/xmc_usbd.c ****   {
 2684              		.loc 1 184 52 is_stmt 1 view .LVU1004
 184:/opt/XMClib/XMC_Peripheral_Library_v2.1.16/XMCLib/src/xmc_usbd.c ****   {
 2685              		.loc 1 184 16 view .LVU1005
 184:/opt/XMClib/XMC_Peripheral_Library_v2.1.16/XMCLib/src/xmc_usbd.c ****   {
 2686              		.loc 1 184 3 is_stmt 0 view .LVU1006
 2687 0038 F4D3     		bcc	.L196
 2688              	.L194:
 191:/opt/XMClib/XMC_Peripheral_Library_v2.1.16/XMCLib/src/xmc_usbd.c **** }
 2689              		.loc 1 191 3 is_stmt 1 view .LVU1007
 192:/opt/XMClib/XMC_Peripheral_Library_v2.1.16/XMCLib/src/xmc_usbd.c **** 
 2690              		.loc 1 192 1 is_stmt 0 view .LVU1008
 2691 003a 30BC     		pop	{r4, r5}
 2692              	.LCFI16:
 2693              		.cfi_remember_state
 2694              		.cfi_restore 5
 2695              		.cfi_restore 4
 2696              		.cfi_def_cfa_offset 0
 2697 003c 7047     		bx	lr
 2698              	.LVL184:
 2699              	.L197:
 2700              	.LCFI17:
 2701              		.cfi_restore_state
 183:/opt/XMClib/XMC_Peripheral_Library_v2.1.16/XMCLib/src/xmc_usbd.c ****   for (i = 0U; i < (uint8_t)obj->usbd_max_num_eps; i++)
 2702              		.loc 1 183 11 view .LVU1009
 2703 003e 2046     		mov	r0, r4
 2704              	.LVL185:
 191:/opt/XMClib/XMC_Peripheral_Library_v2.1.16/XMCLib/src/xmc_usbd.c **** }
 2705              		.loc 1 191 3 is_stmt 1 view .LVU1010
 192:/opt/XMClib/XMC_Peripheral_Library_v2.1.16/XMCLib/src/xmc_usbd.c **** 
 2706              		.loc 1 192 1 is_stmt 0 view .LVU1011
 2707 0040 30BC     		pop	{r4, r5}
 2708              	.LCFI18:
 2709              		.cfi_restore 5
 2710              		.cfi_restore 4
 2711              		.cfi_def_cfa_offset 0
 2712 0042 7047     		bx	lr
 2713              	.L204:
 2714              		.align	2
 2715              	.L203:
 2716 0044 00000000 		.word	.LANCHOR0
 2717              		.cfi_endproc
 2718              	.LFE162:
 2720              		.section	.text.XMC_USBD_IRQHandler,"ax",%progbits
 2721              		.align	1
 2722              		.p2align 2,,3
 2723              		.global	XMC_USBD_IRQHandler
 2724              		.syntax unified
 2725              		.thumb
 2726              		.thumb_func
 2728              	XMC_USBD_IRQHandler:
 2729              	.LVL186:
 2730              	.LFB177:
 867:/opt/XMClib/XMC_Peripheral_Library_v2.1.16/XMCLib/src/xmc_usbd.c ****   gintmsk_data_t gintmsk;
 2731              		.loc 1 867 1 is_stmt 1 view -0
 2732              		.cfi_startproc
 2733              		@ args = 0, pretend = 0, frame = 48
 2734              		@ frame_needed = 0, uses_anonymous_args = 0
 868:/opt/XMClib/XMC_Peripheral_Library_v2.1.16/XMCLib/src/xmc_usbd.c ****   gintsts_data_t data;
 2735              		.loc 1 868 3 view .LVU1013
 869:/opt/XMClib/XMC_Peripheral_Library_v2.1.16/XMCLib/src/xmc_usbd.c **** 	
 2736              		.loc 1 869 3 view .LVU1014
 871:/opt/XMClib/XMC_Peripheral_Library_v2.1.16/XMCLib/src/xmc_usbd.c ****   data.d32 = xmc_device.global_register->gintsts & gintmsk.d32;
 2737              		.loc 1 871 3 view .LVU1015
 867:/opt/XMClib/XMC_Peripheral_Library_v2.1.16/XMCLib/src/xmc_usbd.c ****   gintmsk_data_t gintmsk;
 2738              		.loc 1 867 1 is_stmt 0 view .LVU1016
 2739 0000 2DE9F04F 		push	{r4, r5, r6, r7, r8, r9, r10, fp, lr}
 2740              	.LCFI19:
 2741              		.cfi_def_cfa_offset 36
 2742              		.cfi_offset 4, -36
 2743              		.cfi_offset 5, -32
 2744              		.cfi_offset 6, -28
 2745              		.cfi_offset 7, -24
 2746              		.cfi_offset 8, -20
 2747              		.cfi_offset 9, -16
 2748              		.cfi_offset 10, -12
 2749              		.cfi_offset 11, -8
 2750              		.cfi_offset 14, -4
 871:/opt/XMClib/XMC_Peripheral_Library_v2.1.16/XMCLib/src/xmc_usbd.c ****   data.d32 = xmc_device.global_register->gintsts & gintmsk.d32;
 2751              		.loc 1 871 27 view .LVU1017
 2752 0004 944C     		ldr	r4, .L327
 2753 0006 D4F8A031 		ldr	r3, [r4, #416]
 871:/opt/XMClib/XMC_Peripheral_Library_v2.1.16/XMCLib/src/xmc_usbd.c ****   data.d32 = xmc_device.global_register->gintsts & gintmsk.d32;
 2754              		.loc 1 871 43 view .LVU1018
 2755 000a 9E69     		ldr	r6, [r3, #24]
 2756              	.LVL187:
 872:/opt/XMClib/XMC_Peripheral_Library_v2.1.16/XMCLib/src/xmc_usbd.c **** 	
 2757              		.loc 1 872 3 is_stmt 1 view .LVU1019
 872:/opt/XMClib/XMC_Peripheral_Library_v2.1.16/XMCLib/src/xmc_usbd.c **** 	
 2758              		.loc 1 872 40 is_stmt 0 view .LVU1020
 2759 000c 5D69     		ldr	r5, [r3, #20]
 867:/opt/XMClib/XMC_Peripheral_Library_v2.1.16/XMCLib/src/xmc_usbd.c ****   gintmsk_data_t gintmsk;
 2760              		.loc 1 867 1 view .LVU1021
 2761 000e 8DB0     		sub	sp, sp, #52
 2762              	.LCFI20:
 2763              		.cfi_def_cfa_offset 88
 872:/opt/XMClib/XMC_Peripheral_Library_v2.1.16/XMCLib/src/xmc_usbd.c **** 	
 2764              		.loc 1 872 50 view .LVU1022
 2765 0010 3540     		ands	r5, r5, r6
 2766              	.LVL188:
 874:/opt/XMClib/XMC_Peripheral_Library_v2.1.16/XMCLib/src/xmc_usbd.c ****   {
 2767              		.loc 1 874 3 is_stmt 1 view .LVU1023
 874:/opt/XMClib/XMC_Peripheral_Library_v2.1.16/XMCLib/src/xmc_usbd.c ****   {
 2768              		.loc 1 874 7 is_stmt 0 view .LVU1024
 2769 0012 EBB2     		uxtb	r3, r5
 2770 0014 0093     		str	r3, [sp]
 874:/opt/XMClib/XMC_Peripheral_Library_v2.1.16/XMCLib/src/xmc_usbd.c ****   {
 2771              		.loc 1 874 6 view .LVU1025
 2772 0016 2B07     		lsls	r3, r5, #28
 867:/opt/XMClib/XMC_Peripheral_Library_v2.1.16/XMCLib/src/xmc_usbd.c ****   gintmsk_data_t gintmsk;
 2773              		.loc 1 867 1 view .LVU1026
 2774 0018 8146     		mov	r9, r0
 874:/opt/XMClib/XMC_Peripheral_Library_v2.1.16/XMCLib/src/xmc_usbd.c ****   {
 2775              		.loc 1 874 6 view .LVU1027
 2776 001a 07D5     		bpl	.L206
 876:/opt/XMClib/XMC_Peripheral_Library_v2.1.16/XMCLib/src/xmc_usbd.c ****     XMC_USBD_ClearEvent(XMC_USBD_EVENT_SOF);
 2777              		.loc 1 876 5 is_stmt 1 view .LVU1028
 2778 001c D4F80032 		ldr	r3, [r4, #512]
 2779 0020 0920     		movs	r0, #9
 2780              	.LVL189:
 876:/opt/XMClib/XMC_Peripheral_Library_v2.1.16/XMCLib/src/xmc_usbd.c ****     XMC_USBD_ClearEvent(XMC_USBD_EVENT_SOF);
 2781              		.loc 1 876 5 is_stmt 0 view .LVU1029
 2782 0022 9847     		blx	r3
 2783              	.LVL190:
 877:/opt/XMClib/XMC_Peripheral_Library_v2.1.16/XMCLib/src/xmc_usbd.c ****   }
 2784              		.loc 1 877 5 is_stmt 1 view .LVU1030
 2785              	.LBB148:
 2786              	.LBI148:
 967:/opt/XMClib/XMC_Peripheral_Library_v2.1.16/XMCLib/src/xmc_usbd.c **** {
 2787              		.loc 1 967 6 view .LVU1031
 2788              	.LBB149:
 969:/opt/XMClib/XMC_Peripheral_Library_v2.1.16/XMCLib/src/xmc_usbd.c ****   clear.d32 = 0U;
 2789              		.loc 1 969 3 view .LVU1032
 970:/opt/XMClib/XMC_Peripheral_Library_v2.1.16/XMCLib/src/xmc_usbd.c ****   switch(event)
 2790              		.loc 1 970 3 view .LVU1033
 971:/opt/XMClib/XMC_Peripheral_Library_v2.1.16/XMCLib/src/xmc_usbd.c ****   {
 2791              		.loc 1 971 3 view .LVU1034
 989:/opt/XMClib/XMC_Peripheral_Library_v2.1.16/XMCLib/src/xmc_usbd.c **** 	  break;
 2792              		.loc 1 989 4 view .LVU1035
 990:/opt/XMClib/XMC_Peripheral_Library_v2.1.16/XMCLib/src/xmc_usbd.c ****     case (XMC_USBD_EVENT_EARLYSUSPEND):
 2793              		.loc 1 990 4 view .LVU1036
1003:/opt/XMClib/XMC_Peripheral_Library_v2.1.16/XMCLib/src/xmc_usbd.c **** }
 2794              		.loc 1 1003 2 view .LVU1037
1003:/opt/XMClib/XMC_Peripheral_Library_v2.1.16/XMCLib/src/xmc_usbd.c **** }
 2795              		.loc 1 1003 12 is_stmt 0 view .LVU1038
 2796 0024 D4F8A031 		ldr	r3, [r4, #416]
1003:/opt/XMClib/XMC_Peripheral_Library_v2.1.16/XMCLib/src/xmc_usbd.c **** }
 2797              		.loc 1 1003 38 view .LVU1039
 2798 0028 0822     		movs	r2, #8
 2799 002a 5A61     		str	r2, [r3, #20]
 2800              	.LVL191:
 2801              	.L206:
1003:/opt/XMClib/XMC_Peripheral_Library_v2.1.16/XMCLib/src/xmc_usbd.c **** }
 2802              		.loc 1 1003 38 view .LVU1040
 2803              	.LBE149:
 2804              	.LBE148:
 879:/opt/XMClib/XMC_Peripheral_Library_v2.1.16/XMCLib/src/xmc_usbd.c ****   {
 2805              		.loc 1 879 3 is_stmt 1 view .LVU1041
 879:/opt/XMClib/XMC_Peripheral_Library_v2.1.16/XMCLib/src/xmc_usbd.c ****   {
 2806              		.loc 1 879 5 is_stmt 0 view .LVU1042
 2807 002c 99F80D30 		ldrb	r3, [r9, #13]	@ zero_extendqisi2
 2808 0030 012B     		cmp	r3, #1
 2809 0032 46D0     		beq	.L315
 2810              	.L207:
 891:/opt/XMClib/XMC_Peripheral_Library_v2.1.16/XMCLib/src/xmc_usbd.c ****   {
 2811              		.loc 1 891 3 is_stmt 1 view .LVU1043
 891:/opt/XMClib/XMC_Peripheral_Library_v2.1.16/XMCLib/src/xmc_usbd.c ****   {
 2812              		.loc 1 891 6 is_stmt 0 view .LVU1044
 2813 0034 6805     		lsls	r0, r5, #21
 891:/opt/XMClib/XMC_Peripheral_Library_v2.1.16/XMCLib/src/xmc_usbd.c ****   {
 2814              		.loc 1 891 7 view .LVU1045
 2815 0036 C5F30726 		ubfx	r6, r5, #8, #8
 2816              	.LVL192:
 891:/opt/XMClib/XMC_Peripheral_Library_v2.1.16/XMCLib/src/xmc_usbd.c ****   {
 2817              		.loc 1 891 6 view .LVU1046
 2818 003a 04D5     		bpl	.L209
 893:/opt/XMClib/XMC_Peripheral_Library_v2.1.16/XMCLib/src/xmc_usbd.c ****   }
 2819              		.loc 1 893 5 is_stmt 1 view .LVU1047
 2820              	.LVL193:
 2821              	.LBB150:
 2822              	.LBI150:
 967:/opt/XMClib/XMC_Peripheral_Library_v2.1.16/XMCLib/src/xmc_usbd.c **** {
 2823              		.loc 1 967 6 view .LVU1048
 2824              	.LBB151:
 969:/opt/XMClib/XMC_Peripheral_Library_v2.1.16/XMCLib/src/xmc_usbd.c ****   clear.d32 = 0U;
 2825              		.loc 1 969 3 view .LVU1049
 970:/opt/XMClib/XMC_Peripheral_Library_v2.1.16/XMCLib/src/xmc_usbd.c ****   switch(event)
 2826              		.loc 1 970 3 view .LVU1050
 971:/opt/XMClib/XMC_Peripheral_Library_v2.1.16/XMCLib/src/xmc_usbd.c ****   {
 2827              		.loc 1 971 3 view .LVU1051
 992:/opt/XMClib/XMC_Peripheral_Library_v2.1.16/XMCLib/src/xmc_usbd.c **** 	  break;
 2828              		.loc 1 992 4 view .LVU1052
 993:/opt/XMClib/XMC_Peripheral_Library_v2.1.16/XMCLib/src/xmc_usbd.c ****     case (XMC_USBD_EVENT_ENUMDONE):
 2829              		.loc 1 993 4 view .LVU1053
1003:/opt/XMClib/XMC_Peripheral_Library_v2.1.16/XMCLib/src/xmc_usbd.c **** }
 2830              		.loc 1 1003 2 view .LVU1054
1003:/opt/XMClib/XMC_Peripheral_Library_v2.1.16/XMCLib/src/xmc_usbd.c **** }
 2831              		.loc 1 1003 12 is_stmt 0 view .LVU1055
 2832 003c D4F8A031 		ldr	r3, [r4, #416]
1003:/opt/XMClib/XMC_Peripheral_Library_v2.1.16/XMCLib/src/xmc_usbd.c **** }
 2833              		.loc 1 1003 38 view .LVU1056
 2834 0040 4FF48062 		mov	r2, #1024
 2835 0044 5A61     		str	r2, [r3, #20]
 2836              	.LVL194:
 2837              	.L209:
1003:/opt/XMClib/XMC_Peripheral_Library_v2.1.16/XMCLib/src/xmc_usbd.c **** }
 2838              		.loc 1 1003 38 view .LVU1057
 2839              	.LBE151:
 2840              	.LBE150:
 895:/opt/XMClib/XMC_Peripheral_Library_v2.1.16/XMCLib/src/xmc_usbd.c ****   {
 2841              		.loc 1 895 3 is_stmt 1 view .LVU1058
 895:/opt/XMClib/XMC_Peripheral_Library_v2.1.16/XMCLib/src/xmc_usbd.c ****   {
 2842              		.loc 1 895 6 is_stmt 0 view .LVU1059
 2843 0046 3107     		lsls	r1, r6, #28
 2844 0048 08D5     		bpl	.L210
 897:/opt/XMClib/XMC_Peripheral_Library_v2.1.16/XMCLib/src/xmc_usbd.c ****     XMC_USBD_ClearEvent(XMC_USBD_EVENT_SUSPEND);
 2845              		.loc 1 897 5 is_stmt 1 view .LVU1060
 2846 004a D4F80032 		ldr	r3, [r4, #512]
 2847 004e 0620     		movs	r0, #6
 2848 0050 9847     		blx	r3
 2849              	.LVL195:
 898:/opt/XMClib/XMC_Peripheral_Library_v2.1.16/XMCLib/src/xmc_usbd.c ****   }
 2850              		.loc 1 898 5 view .LVU1061
 2851              	.LBB152:
 2852              	.LBI152:
 967:/opt/XMClib/XMC_Peripheral_Library_v2.1.16/XMCLib/src/xmc_usbd.c **** {
 2853              		.loc 1 967 6 view .LVU1062
 2854              	.LBB153:
 969:/opt/XMClib/XMC_Peripheral_Library_v2.1.16/XMCLib/src/xmc_usbd.c ****   clear.d32 = 0U;
 2855              		.loc 1 969 3 view .LVU1063
 970:/opt/XMClib/XMC_Peripheral_Library_v2.1.16/XMCLib/src/xmc_usbd.c ****   switch(event)
 2856              		.loc 1 970 3 view .LVU1064
 971:/opt/XMClib/XMC_Peripheral_Library_v2.1.16/XMCLib/src/xmc_usbd.c ****   {
 2857              		.loc 1 971 3 view .LVU1065
 980:/opt/XMClib/XMC_Peripheral_Library_v2.1.16/XMCLib/src/xmc_usbd.c **** 	  break;
 2858              		.loc 1 980 4 view .LVU1066
 981:/opt/XMClib/XMC_Peripheral_Library_v2.1.16/XMCLib/src/xmc_usbd.c ****     case (XMC_USBD_EVENT_RESUME):
 2859              		.loc 1 981 4 view .LVU1067
1003:/opt/XMClib/XMC_Peripheral_Library_v2.1.16/XMCLib/src/xmc_usbd.c **** }
 2860              		.loc 1 1003 2 view .LVU1068
1003:/opt/XMClib/XMC_Peripheral_Library_v2.1.16/XMCLib/src/xmc_usbd.c **** }
 2861              		.loc 1 1003 12 is_stmt 0 view .LVU1069
 2862 0052 D4F8A031 		ldr	r3, [r4, #416]
1003:/opt/XMClib/XMC_Peripheral_Library_v2.1.16/XMCLib/src/xmc_usbd.c **** }
 2863              		.loc 1 1003 38 view .LVU1070
 2864 0056 4FF40062 		mov	r2, #2048
 2865 005a 5A61     		str	r2, [r3, #20]
 2866              	.LVL196:
 2867              	.L210:
1003:/opt/XMClib/XMC_Peripheral_Library_v2.1.16/XMCLib/src/xmc_usbd.c **** }
 2868              		.loc 1 1003 38 view .LVU1071
 2869              	.LBE153:
 2870              	.LBE152:
 900:/opt/XMClib/XMC_Peripheral_Library_v2.1.16/XMCLib/src/xmc_usbd.c ****   {
 2871              		.loc 1 900 3 is_stmt 1 view .LVU1072
 900:/opt/XMClib/XMC_Peripheral_Library_v2.1.16/XMCLib/src/xmc_usbd.c ****   {
 2872              		.loc 1 900 6 is_stmt 0 view .LVU1073
 2873 005c 002D     		cmp	r5, #0
 900:/opt/XMClib/XMC_Peripheral_Library_v2.1.16/XMCLib/src/xmc_usbd.c ****   {
 2874              		.loc 1 900 7 view .LVU1074
 2875 005e 4FEA1567 		lsr	r7, r5, #24
 900:/opt/XMClib/XMC_Peripheral_Library_v2.1.16/XMCLib/src/xmc_usbd.c ****   {
 2876              		.loc 1 900 6 view .LVU1075
 2877 0062 08DA     		bge	.L211
 902:/opt/XMClib/XMC_Peripheral_Library_v2.1.16/XMCLib/src/xmc_usbd.c ****     XMC_USBD_ClearEvent(XMC_USBD_EVENT_REMOTE_WAKEUP);
 2878              		.loc 1 902 5 is_stmt 1 view .LVU1076
 2879 0064 D4F80032 		ldr	r3, [r4, #512]
 2880 0068 0820     		movs	r0, #8
 2881 006a 9847     		blx	r3
 2882              	.LVL197:
 903:/opt/XMClib/XMC_Peripheral_Library_v2.1.16/XMCLib/src/xmc_usbd.c ****   }
 2883              		.loc 1 903 5 view .LVU1077
 2884              	.LBB154:
 2885              	.LBI154:
 967:/opt/XMClib/XMC_Peripheral_Library_v2.1.16/XMCLib/src/xmc_usbd.c **** {
 2886              		.loc 1 967 6 view .LVU1078
 2887              	.LBB155:
 969:/opt/XMClib/XMC_Peripheral_Library_v2.1.16/XMCLib/src/xmc_usbd.c ****   clear.d32 = 0U;
 2888              		.loc 1 969 3 view .LVU1079
 970:/opt/XMClib/XMC_Peripheral_Library_v2.1.16/XMCLib/src/xmc_usbd.c ****   switch(event)
 2889              		.loc 1 970 3 view .LVU1080
 971:/opt/XMClib/XMC_Peripheral_Library_v2.1.16/XMCLib/src/xmc_usbd.c ****   {
 2890              		.loc 1 971 3 view .LVU1081
 986:/opt/XMClib/XMC_Peripheral_Library_v2.1.16/XMCLib/src/xmc_usbd.c **** 	  break;
 2891              		.loc 1 986 4 view .LVU1082
 987:/opt/XMClib/XMC_Peripheral_Library_v2.1.16/XMCLib/src/xmc_usbd.c ****     case (XMC_USBD_EVENT_SOF):
 2892              		.loc 1 987 4 view .LVU1083
1003:/opt/XMClib/XMC_Peripheral_Library_v2.1.16/XMCLib/src/xmc_usbd.c **** }
 2893              		.loc 1 1003 2 view .LVU1084
1003:/opt/XMClib/XMC_Peripheral_Library_v2.1.16/XMCLib/src/xmc_usbd.c **** }
 2894              		.loc 1 1003 12 is_stmt 0 view .LVU1085
 2895 006c D4F8A031 		ldr	r3, [r4, #416]
1003:/opt/XMClib/XMC_Peripheral_Library_v2.1.16/XMCLib/src/xmc_usbd.c **** }
 2896              		.loc 1 1003 38 view .LVU1086
 2897 0070 4FF00042 		mov	r2, #-2147483648
 2898 0074 5A61     		str	r2, [r3, #20]
 2899              	.LVL198:
 2900              	.L211:
1003:/opt/XMClib/XMC_Peripheral_Library_v2.1.16/XMCLib/src/xmc_usbd.c **** }
 2901              		.loc 1 1003 38 view .LVU1087
 2902              	.LBE155:
 2903              	.LBE154:
 905:/opt/XMClib/XMC_Peripheral_Library_v2.1.16/XMCLib/src/xmc_usbd.c ****   {
 2904              		.loc 1 905 3 is_stmt 1 view .LVU1088
 905:/opt/XMClib/XMC_Peripheral_Library_v2.1.16/XMCLib/src/xmc_usbd.c ****   {
 2905              		.loc 1 905 6 is_stmt 0 view .LVU1089
 2906 0076 7A06     		lsls	r2, r7, #25
 2907 0078 0ED5     		bpl	.L212
 907:/opt/XMClib/XMC_Peripheral_Library_v2.1.16/XMCLib/src/xmc_usbd.c ****     xmc_device.DeviceEvent_cb(XMC_USBD_EVENT_POWER_ON);
 2908              		.loc 1 907 5 is_stmt 1 view .LVU1090
 907:/opt/XMClib/XMC_Peripheral_Library_v2.1.16/XMCLib/src/xmc_usbd.c ****     xmc_device.DeviceEvent_cb(XMC_USBD_EVENT_POWER_ON);
 2909              		.loc 1 907 26 is_stmt 0 view .LVU1091
 2910 007a 94F8FE31 		ldrb	r3, [r4, #510]	@ zero_extendqisi2
 2911 007e 43F00403 		orr	r3, r3, #4
 2912 0082 84F8FE31 		strb	r3, [r4, #510]
 908:/opt/XMClib/XMC_Peripheral_Library_v2.1.16/XMCLib/src/xmc_usbd.c ****     XMC_USBD_ClearEvent(XMC_USBD_EVENT_POWER_ON);
 2913              		.loc 1 908 5 is_stmt 1 view .LVU1092
 2914 0086 0020     		movs	r0, #0
 2915 0088 D4F80032 		ldr	r3, [r4, #512]
 2916 008c 9847     		blx	r3
 2917              	.LVL199:
 909:/opt/XMClib/XMC_Peripheral_Library_v2.1.16/XMCLib/src/xmc_usbd.c ****   }
 2918              		.loc 1 909 5 view .LVU1093
 2919              	.LBB156:
 2920              	.LBI156:
 967:/opt/XMClib/XMC_Peripheral_Library_v2.1.16/XMCLib/src/xmc_usbd.c **** {
 2921              		.loc 1 967 6 view .LVU1094
 2922              	.LBB157:
 969:/opt/XMClib/XMC_Peripheral_Library_v2.1.16/XMCLib/src/xmc_usbd.c ****   clear.d32 = 0U;
 2923              		.loc 1 969 3 view .LVU1095
 970:/opt/XMClib/XMC_Peripheral_Library_v2.1.16/XMCLib/src/xmc_usbd.c ****   switch(event)
 2924              		.loc 1 970 3 view .LVU1096
 971:/opt/XMClib/XMC_Peripheral_Library_v2.1.16/XMCLib/src/xmc_usbd.c ****   {
 2925              		.loc 1 971 3 view .LVU1097
 974:/opt/XMClib/XMC_Peripheral_Library_v2.1.16/XMCLib/src/xmc_usbd.c **** 	  break;
 2926              		.loc 1 974 4 view .LVU1098
 975:/opt/XMClib/XMC_Peripheral_Library_v2.1.16/XMCLib/src/xmc_usbd.c ****     case (XMC_USBD_EVENT_RESET):
 2927              		.loc 1 975 4 view .LVU1099
1003:/opt/XMClib/XMC_Peripheral_Library_v2.1.16/XMCLib/src/xmc_usbd.c **** }
 2928              		.loc 1 1003 2 view .LVU1100
1003:/opt/XMClib/XMC_Peripheral_Library_v2.1.16/XMCLib/src/xmc_usbd.c **** }
 2929              		.loc 1 1003 12 is_stmt 0 view .LVU1101
 2930 008e D4F8A031 		ldr	r3, [r4, #416]
1003:/opt/XMClib/XMC_Peripheral_Library_v2.1.16/XMCLib/src/xmc_usbd.c **** }
 2931              		.loc 1 1003 38 view .LVU1102
 2932 0092 4FF08042 		mov	r2, #1073741824
 2933 0096 5A61     		str	r2, [r3, #20]
 2934              	.LVL200:
 2935              	.L212:
1003:/opt/XMClib/XMC_Peripheral_Library_v2.1.16/XMCLib/src/xmc_usbd.c **** }
 2936              		.loc 1 1003 38 view .LVU1103
 2937              	.LBE157:
 2938              	.LBE156:
 911:/opt/XMClib/XMC_Peripheral_Library_v2.1.16/XMCLib/src/xmc_usbd.c ****   {
 2939              		.loc 1 911 3 is_stmt 1 view .LVU1104
 911:/opt/XMClib/XMC_Peripheral_Library_v2.1.16/XMCLib/src/xmc_usbd.c ****   {
 2940              		.loc 1 911 6 is_stmt 0 view .LVU1105
 2941 0098 F306     		lsls	r3, r6, #27
 2942 009a 00F16781 		bmi	.L316
 2943              	.L213:
 915:/opt/XMClib/XMC_Peripheral_Library_v2.1.16/XMCLib/src/xmc_usbd.c ****   {
 2944              		.loc 1 915 3 is_stmt 1 view .LVU1106
 915:/opt/XMClib/XMC_Peripheral_Library_v2.1.16/XMCLib/src/xmc_usbd.c ****   {
 2945              		.loc 1 915 6 is_stmt 0 view .LVU1107
 2946 009e B106     		lsls	r1, r6, #26
 2947 00a0 00F14781 		bmi	.L317
 2948              	.L219:
 919:/opt/XMClib/XMC_Peripheral_Library_v2.1.16/XMCLib/src/xmc_usbd.c ****   {
 2949              		.loc 1 919 3 is_stmt 1 view .LVU1108
 919:/opt/XMClib/XMC_Peripheral_Library_v2.1.16/XMCLib/src/xmc_usbd.c ****   {
 2950              		.loc 1 919 7 is_stmt 0 view .LVU1109
 2951 00a4 C5F30743 		ubfx	r3, r5, #16, #8
 919:/opt/XMClib/XMC_Peripheral_Library_v2.1.16/XMCLib/src/xmc_usbd.c ****   {
 2952              		.loc 1 919 6 view .LVU1110
 2953 00a8 6A03     		lsls	r2, r5, #13
 919:/opt/XMClib/XMC_Peripheral_Library_v2.1.16/XMCLib/src/xmc_usbd.c ****   {
 2954              		.loc 1 919 7 view .LVU1111
 2955 00aa 0293     		str	r3, [sp, #8]
 919:/opt/XMClib/XMC_Peripheral_Library_v2.1.16/XMCLib/src/xmc_usbd.c ****   {
 2956              		.loc 1 919 6 view .LVU1112
 2957 00ac 00F1D680 		bmi	.L318
 2958              	.LVL201:
 2959              	.L220:
 923:/opt/XMClib/XMC_Peripheral_Library_v2.1.16/XMCLib/src/xmc_usbd.c ****   {
 2960              		.loc 1 923 3 is_stmt 1 view .LVU1113
 923:/opt/XMClib/XMC_Peripheral_Library_v2.1.16/XMCLib/src/xmc_usbd.c ****   {
 2961              		.loc 1 923 6 is_stmt 0 view .LVU1114
 2962 00b0 029B     		ldr	r3, [sp, #8]
 2963 00b2 1B07     		lsls	r3, r3, #28
 2964 00b4 35D4     		bmi	.L319
 2965              	.L235:
 927:/opt/XMClib/XMC_Peripheral_Library_v2.1.16/XMCLib/src/xmc_usbd.c ****   {
 2966              		.loc 1 927 2 is_stmt 1 view .LVU1115
 927:/opt/XMClib/XMC_Peripheral_Library_v2.1.16/XMCLib/src/xmc_usbd.c ****   {
 2967              		.loc 1 927 5 is_stmt 0 view .LVU1116
 2968 00b6 009B     		ldr	r3, [sp]
 2969 00b8 5F07     		lsls	r7, r3, #29
 2970 00ba 1DD4     		bmi	.L320
 932:/opt/XMClib/XMC_Peripheral_Library_v2.1.16/XMCLib/src/xmc_usbd.c **** 
 2971              		.loc 1 932 1 view .LVU1117
 2972 00bc 0DB0     		add	sp, sp, #52
 2973              	.LCFI21:
 2974              		.cfi_remember_state
 2975              		.cfi_def_cfa_offset 36
 2976              		@ sp needed
 2977 00be BDE8F08F 		pop	{r4, r5, r6, r7, r8, r9, r10, fp, pc}
 2978              	.LVL202:
 2979              	.L315:
 2980              	.LCFI22:
 2981              		.cfi_restore_state
 881:/opt/XMClib/XMC_Peripheral_Library_v2.1.16/XMCLib/src/xmc_usbd.c ****     {
 2982              		.loc 1 881 5 is_stmt 1 view .LVU1118
 881:/opt/XMClib/XMC_Peripheral_Library_v2.1.16/XMCLib/src/xmc_usbd.c ****     {
 2983              		.loc 1 881 8 is_stmt 0 view .LVU1119
 2984 00c2 009B     		ldr	r3, [sp]
 2985 00c4 DF06     		lsls	r7, r3, #27
 2986 00c6 B5D5     		bpl	.L207
 884:/opt/XMClib/XMC_Peripheral_Library_v2.1.16/XMCLib/src/xmc_usbd.c ****       xmc_device.global_register->gintmsk = gintmsk.d32;
 2987              		.loc 1 884 7 is_stmt 1 view .LVU1120
 885:/opt/XMClib/XMC_Peripheral_Library_v2.1.16/XMCLib/src/xmc_usbd.c ****       XMC_USBD_lHandleRxFLvl(); /* handle the interrupt */
 2988              		.loc 1 885 17 is_stmt 0 view .LVU1121
 2989 00c8 D4F8A031 		ldr	r3, [r4, #416]
 884:/opt/XMClib/XMC_Peripheral_Library_v2.1.16/XMCLib/src/xmc_usbd.c ****       xmc_device.global_register->gintmsk = gintmsk.d32;
 2990              		.loc 1 884 27 view .LVU1122
 2991 00cc 6FF30416 		bfc	r6, #4, #1
 885:/opt/XMClib/XMC_Peripheral_Library_v2.1.16/XMCLib/src/xmc_usbd.c ****       XMC_USBD_lHandleRxFLvl(); /* handle the interrupt */
 2992              		.loc 1 885 7 is_stmt 1 view .LVU1123
 885:/opt/XMClib/XMC_Peripheral_Library_v2.1.16/XMCLib/src/xmc_usbd.c ****       XMC_USBD_lHandleRxFLvl(); /* handle the interrupt */
 2993              		.loc 1 885 43 is_stmt 0 view .LVU1124
 2994 00d0 9E61     		str	r6, [r3, #24]
 886:/opt/XMClib/XMC_Peripheral_Library_v2.1.16/XMCLib/src/xmc_usbd.c ****       gintmsk.b.rxstsqlvl = 1U;
 2995              		.loc 1 886 7 is_stmt 1 view .LVU1125
 2996              	.LBB158:
 2997              	.LBI158:
 835:/opt/XMClib/XMC_Peripheral_Library_v2.1.16/XMCLib/src/xmc_usbd.c **** {
 2998              		.loc 1 835 13 view .LVU1126
 2999              	.LBB159:
 837:/opt/XMClib/XMC_Peripheral_Library_v2.1.16/XMCLib/src/xmc_usbd.c ****   data.d32 = xmc_device.global_register->grxstsp;
 3000              		.loc 1 837 3 view .LVU1127
 838:/opt/XMClib/XMC_Peripheral_Library_v2.1.16/XMCLib/src/xmc_usbd.c **** 
 3001              		.loc 1 838 3 view .LVU1128
 838:/opt/XMClib/XMC_Peripheral_Library_v2.1.16/XMCLib/src/xmc_usbd.c **** 
 3002              		.loc 1 838 40 is_stmt 0 view .LVU1129
 3003 00d2 186A     		ldr	r0, [r3, #32]
 840:/opt/XMClib/XMC_Peripheral_Library_v2.1.16/XMCLib/src/xmc_usbd.c **** 	{
 3004              		.loc 1 840 3 is_stmt 1 view .LVU1130
 840:/opt/XMClib/XMC_Peripheral_Library_v2.1.16/XMCLib/src/xmc_usbd.c **** 	{
 3005              		.loc 1 840 17 is_stmt 0 view .LVU1131
 3006 00d4 C0F34342 		ubfx	r2, r0, #17, #4
 840:/opt/XMClib/XMC_Peripheral_Library_v2.1.16/XMCLib/src/xmc_usbd.c **** 	{
 3007              		.loc 1 840 3 view .LVU1132
 3008 00d8 02F00B02 		and	r2, r2, #11
 3009 00dc 022A     		cmp	r2, #2
 3010 00de 07D1     		bne	.L208
 847:/opt/XMClib/XMC_Peripheral_Library_v2.1.16/XMCLib/src/xmc_usbd.c ****       break;
 3011              		.loc 1 847 7 is_stmt 1 view .LVU1133
 3012 00e0 C0F30A11 		ubfx	r1, r0, #4, #11
 3013 00e4 00F00F00 		and	r0, r0, #15
 3014 00e8 FFF7FEFF 		bl	XMC_USBD_lReadFifo
 3015              	.LVL203:
 848:/opt/XMClib/XMC_Peripheral_Library_v2.1.16/XMCLib/src/xmc_usbd.c ****     case XMC_USBD_GRXSTS_PKTSTS_SETUP:
 3016              		.loc 1 848 7 view .LVU1134
 3017              	.LBE159:
 3018              	.LBE158:
 888:/opt/XMClib/XMC_Peripheral_Library_v2.1.16/XMCLib/src/xmc_usbd.c ****     }
 3019              		.loc 1 888 17 is_stmt 0 view .LVU1135
 3020 00ec D4F8A031 		ldr	r3, [r4, #416]
 3021              	.L208:
 887:/opt/XMClib/XMC_Peripheral_Library_v2.1.16/XMCLib/src/xmc_usbd.c ****       xmc_device.global_register->gintmsk = gintmsk.d32;
 3022              		.loc 1 887 7 is_stmt 1 view .LVU1136
 887:/opt/XMClib/XMC_Peripheral_Library_v2.1.16/XMCLib/src/xmc_usbd.c ****       xmc_device.global_register->gintmsk = gintmsk.d32;
 3023              		.loc 1 887 27 is_stmt 0 view .LVU1137
 3024 00f0 46F01006 		orr	r6, r6, #16
 3025              	.LVL204:
 888:/opt/XMClib/XMC_Peripheral_Library_v2.1.16/XMCLib/src/xmc_usbd.c ****     }
 3026              		.loc 1 888 7 is_stmt 1 view .LVU1138
 888:/opt/XMClib/XMC_Peripheral_Library_v2.1.16/XMCLib/src/xmc_usbd.c ****     }
 3027              		.loc 1 888 43 is_stmt 0 view .LVU1139
 3028 00f4 9E61     		str	r6, [r3, #24]
 3029 00f6 9DE7     		b	.L207
 3030              	.LVL205:
 3031              	.L320:
 929:/opt/XMClib/XMC_Peripheral_Library_v2.1.16/XMCLib/src/xmc_usbd.c ****   }
 3032              		.loc 1 929 4 is_stmt 1 view .LVU1140
 3033              	.LBB160:
 3034              	.LBI160:
 603:/opt/XMClib/XMC_Peripheral_Library_v2.1.16/XMCLib/src/xmc_usbd.c **** {
 3035              		.loc 1 603 13 view .LVU1141
 3036              	.LBB161:
 605:/opt/XMClib/XMC_Peripheral_Library_v2.1.16/XMCLib/src/xmc_usbd.c ****   data.d32 = xmc_device.global_register->gotgint;
 3037              		.loc 1 605 3 view .LVU1142
 606:/opt/XMClib/XMC_Peripheral_Library_v2.1.16/XMCLib/src/xmc_usbd.c ****   if (data.b.sesenddet)
 3038              		.loc 1 606 3 view .LVU1143
 606:/opt/XMClib/XMC_Peripheral_Library_v2.1.16/XMCLib/src/xmc_usbd.c ****   if (data.b.sesenddet)
 3039              		.loc 1 606 24 is_stmt 0 view .LVU1144
 3040 00f8 D4F8A031 		ldr	r3, [r4, #416]
 606:/opt/XMClib/XMC_Peripheral_Library_v2.1.16/XMCLib/src/xmc_usbd.c ****   if (data.b.sesenddet)
 3041              		.loc 1 606 40 view .LVU1145
 3042 00fc 5D68     		ldr	r5, [r3, #4]
 3043              	.LVL206:
 607:/opt/XMClib/XMC_Peripheral_Library_v2.1.16/XMCLib/src/xmc_usbd.c ****   {
 3044              		.loc 1 607 3 is_stmt 1 view .LVU1146
 607:/opt/XMClib/XMC_Peripheral_Library_v2.1.16/XMCLib/src/xmc_usbd.c ****   {
 3045              		.loc 1 607 6 is_stmt 0 view .LVU1147
 3046 00fe 6E07     		lsls	r6, r5, #29
 3047 0100 0BD5     		bpl	.L247
 609:/opt/XMClib/XMC_Peripheral_Library_v2.1.16/XMCLib/src/xmc_usbd.c **** 		xmc_device.DeviceEvent_cb(XMC_USBD_EVENT_POWER_OFF);
 3048              		.loc 1 609 3 is_stmt 1 view .LVU1148
 609:/opt/XMClib/XMC_Peripheral_Library_v2.1.16/XMCLib/src/xmc_usbd.c **** 		xmc_device.DeviceEvent_cb(XMC_USBD_EVENT_POWER_OFF);
 3049              		.loc 1 609 24 is_stmt 0 view .LVU1149
 3050 0102 94F8FE31 		ldrb	r3, [r4, #510]	@ zero_extendqisi2
 610:/opt/XMClib/XMC_Peripheral_Library_v2.1.16/XMCLib/src/xmc_usbd.c ****   }
 3051              		.loc 1 610 3 view .LVU1150
 3052 0106 D4F80022 		ldr	r2, [r4, #512]
 609:/opt/XMClib/XMC_Peripheral_Library_v2.1.16/XMCLib/src/xmc_usbd.c **** 		xmc_device.DeviceEvent_cb(XMC_USBD_EVENT_POWER_OFF);
 3053              		.loc 1 609 24 view .LVU1151
 3054 010a 6FF38203 		bfc	r3, #2, #1
 3055 010e 84F8FE31 		strb	r3, [r4, #510]
 610:/opt/XMClib/XMC_Peripheral_Library_v2.1.16/XMCLib/src/xmc_usbd.c ****   }
 3056              		.loc 1 610 3 is_stmt 1 view .LVU1152
 3057 0112 0120     		movs	r0, #1
 3058 0114 9047     		blx	r2
 3059              	.LVL207:
 3060              	.LBB162:
 3061              	.LBB163:
1013:/opt/XMClib/XMC_Peripheral_Library_v2.1.16/XMCLib/src/xmc_usbd.c **** }
 3062              		.loc 1 1013 13 is_stmt 0 view .LVU1153
 3063 0116 D4F8A031 		ldr	r3, [r4, #416]
 3064              	.L247:
 3065              	.LBE163:
 3066              	.LBE162:
 612:/opt/XMClib/XMC_Peripheral_Library_v2.1.16/XMCLib/src/xmc_usbd.c **** 
 3067              		.loc 1 612 3 is_stmt 1 view .LVU1154
 3068              	.LVL208:
 3069              	.LBB165:
 3070              	.LBI162:
1009:/opt/XMClib/XMC_Peripheral_Library_v2.1.16/XMCLib/src/xmc_usbd.c **** {
 3071              		.loc 1 1009 13 view .LVU1155
 3072              	.LBB164:
1011:/opt/XMClib/XMC_Peripheral_Library_v2.1.16/XMCLib/src/xmc_usbd.c ****   clear.d32 = event;
 3073              		.loc 1 1011 3 view .LVU1156
1012:/opt/XMClib/XMC_Peripheral_Library_v2.1.16/XMCLib/src/xmc_usbd.c ****   xmc_device.global_register->gotgint = clear.d32;
 3074              		.loc 1 1012 3 view .LVU1157
1013:/opt/XMClib/XMC_Peripheral_Library_v2.1.16/XMCLib/src/xmc_usbd.c **** }
 3075              		.loc 1 1013 3 view .LVU1158
1013:/opt/XMClib/XMC_Peripheral_Library_v2.1.16/XMCLib/src/xmc_usbd.c **** }
 3076              		.loc 1 1013 39 is_stmt 0 view .LVU1159
 3077 011a 5D60     		str	r5, [r3, #4]
 3078              	.LVL209:
1013:/opt/XMClib/XMC_Peripheral_Library_v2.1.16/XMCLib/src/xmc_usbd.c **** }
 3079              		.loc 1 1013 39 view .LVU1160
 3080              	.LBE164:
 3081              	.LBE165:
 3082              	.LBE161:
 3083              	.LBE160:
 932:/opt/XMClib/XMC_Peripheral_Library_v2.1.16/XMCLib/src/xmc_usbd.c **** 
 3084              		.loc 1 932 1 view .LVU1161
 3085 011c 0DB0     		add	sp, sp, #52
 3086              	.LCFI23:
 3087              		.cfi_remember_state
 3088              		.cfi_def_cfa_offset 36
 3089              		@ sp needed
 3090 011e BDE8F08F 		pop	{r4, r5, r6, r7, r8, r9, r10, fp, pc}
 3091              	.LVL210:
 3092              	.L319:
 3093              	.LCFI24:
 3094              		.cfi_restore_state
 925:/opt/XMClib/XMC_Peripheral_Library_v2.1.16/XMCLib/src/xmc_usbd.c ****   }
 3095              		.loc 1 925 3 is_stmt 1 view .LVU1162
 3096              	.LBB166:
 3097              	.LBI166:
 654:/opt/XMClib/XMC_Peripheral_Library_v2.1.16/XMCLib/src/xmc_usbd.c **** {
 3098              		.loc 1 654 13 view .LVU1163
 3099              	.LBB167:
 656:/opt/XMClib/XMC_Peripheral_Library_v2.1.16/XMCLib/src/xmc_usbd.c ****   daint_data_t daintmsk;
 3100              		.loc 1 656 3 view .LVU1164
 657:/opt/XMClib/XMC_Peripheral_Library_v2.1.16/XMCLib/src/xmc_usbd.c ****   doepmsk_data_t doepmsk;
 3101              		.loc 1 657 3 view .LVU1165
 658:/opt/XMClib/XMC_Peripheral_Library_v2.1.16/XMCLib/src/xmc_usbd.c ****   doepint_data_t doepint;
 3102              		.loc 1 658 3 view .LVU1166
 659:/opt/XMClib/XMC_Peripheral_Library_v2.1.16/XMCLib/src/xmc_usbd.c ****   deptsiz_data_t doeptsiz;
 3103              		.loc 1 659 3 view .LVU1167
 660:/opt/XMClib/XMC_Peripheral_Library_v2.1.16/XMCLib/src/xmc_usbd.c ****   XMC_USBD_EP_t *ep;
 3104              		.loc 1 660 3 view .LVU1168
 661:/opt/XMClib/XMC_Peripheral_Library_v2.1.16/XMCLib/src/xmc_usbd.c ****   uint16_t temp;
 3105              		.loc 1 661 3 view .LVU1169
 662:/opt/XMClib/XMC_Peripheral_Library_v2.1.16/XMCLib/src/xmc_usbd.c ****   uint16_t temp1;
 3106              		.loc 1 662 3 view .LVU1170
 663:/opt/XMClib/XMC_Peripheral_Library_v2.1.16/XMCLib/src/xmc_usbd.c ****   uint16_t mask;
 3107              		.loc 1 663 3 view .LVU1171
 664:/opt/XMClib/XMC_Peripheral_Library_v2.1.16/XMCLib/src/xmc_usbd.c ****   uint8_t ep_num;
 3108              		.loc 1 664 3 view .LVU1172
 665:/opt/XMClib/XMC_Peripheral_Library_v2.1.16/XMCLib/src/xmc_usbd.c **** 	
 3109              		.loc 1 665 3 view .LVU1173
 667:/opt/XMClib/XMC_Peripheral_Library_v2.1.16/XMCLib/src/xmc_usbd.c ****   
 3110              		.loc 1 667 3 view .LVU1174
 667:/opt/XMClib/XMC_Peripheral_Library_v2.1.16/XMCLib/src/xmc_usbd.c ****   
 3111              		.loc 1 667 25 is_stmt 0 view .LVU1175
 3112 0122 D4F8A421 		ldr	r2, [r4, #420]
 667:/opt/XMClib/XMC_Peripheral_Library_v2.1.16/XMCLib/src/xmc_usbd.c ****   
 3113              		.loc 1 667 41 view .LVU1176
 3114 0126 9169     		ldr	r1, [r2, #24]
 669:/opt/XMClib/XMC_Peripheral_Library_v2.1.16/XMCLib/src/xmc_usbd.c ****   
 3115              		.loc 1 669 3 is_stmt 1 view .LVU1177
 669:/opt/XMClib/XMC_Peripheral_Library_v2.1.16/XMCLib/src/xmc_usbd.c ****   
 3116              		.loc 1 669 44 is_stmt 0 view .LVU1178
 3117 0128 D369     		ldr	r3, [r2, #28]
 671:/opt/XMClib/XMC_Peripheral_Library_v2.1.16/XMCLib/src/xmc_usbd.c ****   
 3118              		.loc 1 671 3 is_stmt 1 view .LVU1179
 671:/opt/XMClib/XMC_Peripheral_Library_v2.1.16/XMCLib/src/xmc_usbd.c ****   
 3119              		.loc 1 671 43 is_stmt 0 view .LVU1180
 3120 012a 5269     		ldr	r2, [r2, #20]
 3121 012c 0292     		str	r2, [sp, #8]
 3122              	.LVL211:
 673:/opt/XMClib/XMC_Peripheral_Library_v2.1.16/XMCLib/src/xmc_usbd.c ****   ep_num = 0U;
 3123              		.loc 1 673 3 is_stmt 1 view .LVU1181
 674:/opt/XMClib/XMC_Peripheral_Library_v2.1.16/XMCLib/src/xmc_usbd.c ****   doeptsiz.d32 = 0U;
 3124              		.loc 1 674 3 view .LVU1182
 675:/opt/XMClib/XMC_Peripheral_Library_v2.1.16/XMCLib/src/xmc_usbd.c ****  
 3125              		.loc 1 675 3 view .LVU1183
 673:/opt/XMClib/XMC_Peripheral_Library_v2.1.16/XMCLib/src/xmc_usbd.c ****   ep_num = 0U;
 3126              		.loc 1 673 8 is_stmt 0 view .LVU1184
 3127 012e C3F30F4A 		ubfx	r10, r3, #16, #16
 677:/opt/XMClib/XMC_Peripheral_Library_v2.1.16/XMCLib/src/xmc_usbd.c ****   {
 3128              		.loc 1 677 9 view .LVU1185
 3129 0132 1AEA114A 		ands	r10, r10, r1, lsr #16
 675:/opt/XMClib/XMC_Peripheral_Library_v2.1.16/XMCLib/src/xmc_usbd.c ****  
 3130              		.loc 1 675 16 view .LVU1186
 3131 0136 4FF00003 		mov	r3, #0
 3132              	.LVL212:
 675:/opt/XMClib/XMC_Peripheral_Library_v2.1.16/XMCLib/src/xmc_usbd.c ****  
 3133              		.loc 1 675 16 view .LVU1187
 3134 013a 0193     		str	r3, [sp, #4]
 677:/opt/XMClib/XMC_Peripheral_Library_v2.1.16/XMCLib/src/xmc_usbd.c ****   {
 3135              		.loc 1 677 3 is_stmt 1 view .LVU1188
 677:/opt/XMClib/XMC_Peripheral_Library_v2.1.16/XMCLib/src/xmc_usbd.c ****   {
 3136              		.loc 1 677 9 view .LVU1189
 3137 013c 57D0     		beq	.L245
 674:/opt/XMClib/XMC_Peripheral_Library_v2.1.16/XMCLib/src/xmc_usbd.c ****   doeptsiz.d32 = 0U;
 3138              		.loc 1 674 10 is_stmt 0 view .LVU1190
 3139 013e 019E     		ldr	r6, [sp, #4]
 3140              	.LVL213:
 677:/opt/XMClib/XMC_Peripheral_Library_v2.1.16/XMCLib/src/xmc_usbd.c ****   {
 3141              		.loc 1 677 9 view .LVU1191
 3142 0140 5346     		mov	r3, r10
 3143              	.LVL214:
 674:/opt/XMClib/XMC_Peripheral_Library_v2.1.16/XMCLib/src/xmc_usbd.c ****   doeptsiz.d32 = 0U;
 3144              		.loc 1 674 10 view .LVU1192
 3145 0142 3546     		mov	r5, r6
 694:/opt/XMClib/XMC_Peripheral_Library_v2.1.16/XMCLib/src/xmc_usbd.c ****         if(obj->usbd_transfer_mode == XMC_USBD_USE_DMA)
 3146              		.loc 1 694 23 view .LVU1193
 3147 0144 4FF03408 		mov	r8, #52
 3148              	.LVL215:
 3149              	.L236:
 679:/opt/XMClib/XMC_Peripheral_Library_v2.1.16/XMCLib/src/xmc_usbd.c ****     temp = temp1 & 0x1U;
 3150              		.loc 1 679 5 is_stmt 1 view .LVU1194
 680:/opt/XMClib/XMC_Peripheral_Library_v2.1.16/XMCLib/src/xmc_usbd.c ****     if (temp)
 3151              		.loc 1 680 5 view .LVU1195
 681:/opt/XMClib/XMC_Peripheral_Library_v2.1.16/XMCLib/src/xmc_usbd.c ****     {
 3152              		.loc 1 681 5 view .LVU1196
 681:/opt/XMClib/XMC_Peripheral_Library_v2.1.16/XMCLib/src/xmc_usbd.c ****     {
 3153              		.loc 1 681 8 is_stmt 0 view .LVU1197
 3154 0148 DF07     		lsls	r7, r3, #31
 3155 014a 4AD5     		bpl	.L237
 684:/opt/XMClib/XMC_Peripheral_Library_v2.1.16/XMCLib/src/xmc_usbd.c ****       doepint.d32 = xmc_device.endpoint_out_register[ep_num]->doepint & doepmsk.d32;
 3156              		.loc 1 684 7 is_stmt 1 view .LVU1198
 3157              	.LVL216:
 685:/opt/XMClib/XMC_Peripheral_Library_v2.1.16/XMCLib/src/xmc_usbd.c ****       if(obj->usbd_transfer_mode == XMC_USBD_USE_DMA)
 3158              		.loc 1 685 7 view .LVU1199
 685:/opt/XMClib/XMC_Peripheral_Library_v2.1.16/XMCLib/src/xmc_usbd.c ****       if(obj->usbd_transfer_mode == XMC_USBD_USE_DMA)
 3159              		.loc 1 685 53 is_stmt 0 view .LVU1200
 3160 014c 06F1700B 		add	fp, r6, #112
 3161              	.LVL217:
 685:/opt/XMClib/XMC_Peripheral_Library_v2.1.16/XMCLib/src/xmc_usbd.c ****       if(obj->usbd_transfer_mode == XMC_USBD_USE_DMA)
 3162              		.loc 1 685 53 view .LVU1201
 3163 0150 04EB8B03 		add	r3, r4, fp, lsl #2
 3164              	.LVL218:
 685:/opt/XMClib/XMC_Peripheral_Library_v2.1.16/XMCLib/src/xmc_usbd.c ****       if(obj->usbd_transfer_mode == XMC_USBD_USE_DMA)
 3165              		.loc 1 685 71 view .LVU1202
 3166 0154 029A     		ldr	r2, [sp, #8]
 685:/opt/XMClib/XMC_Peripheral_Library_v2.1.16/XMCLib/src/xmc_usbd.c ****       if(obj->usbd_transfer_mode == XMC_USBD_USE_DMA)
 3167              		.loc 1 685 53 view .LVU1203
 3168 0156 5B68     		ldr	r3, [r3, #4]
 686:/opt/XMClib/XMC_Peripheral_Library_v2.1.16/XMCLib/src/xmc_usbd.c ****       {
 3169              		.loc 1 686 13 view .LVU1204
 3170 0158 99F80D10 		ldrb	r1, [r9, #13]	@ zero_extendqisi2
 685:/opt/XMClib/XMC_Peripheral_Library_v2.1.16/XMCLib/src/xmc_usbd.c ****       if(obj->usbd_transfer_mode == XMC_USBD_USE_DMA)
 3171              		.loc 1 685 61 view .LVU1205
 3172 015c 9F68     		ldr	r7, [r3, #8]
 685:/opt/XMClib/XMC_Peripheral_Library_v2.1.16/XMCLib/src/xmc_usbd.c ****       if(obj->usbd_transfer_mode == XMC_USBD_USE_DMA)
 3173              		.loc 1 685 71 view .LVU1206
 3174 015e 1740     		ands	r7, r7, r2
 3175              	.LVL219:
 686:/opt/XMClib/XMC_Peripheral_Library_v2.1.16/XMCLib/src/xmc_usbd.c ****       {
 3176              		.loc 1 686 7 is_stmt 1 view .LVU1207
 686:/opt/XMClib/XMC_Peripheral_Library_v2.1.16/XMCLib/src/xmc_usbd.c ****       {
 3177              		.loc 1 686 9 is_stmt 0 view .LVU1208
 3178 0160 0029     		cmp	r1, #0
 3179 0162 66D1     		bne	.L238
 688:/opt/XMClib/XMC_Peripheral_Library_v2.1.16/XMCLib/src/xmc_usbd.c ****       }
 3180              		.loc 1 688 9 is_stmt 1 view .LVU1209
 688:/opt/XMClib/XMC_Peripheral_Library_v2.1.16/XMCLib/src/xmc_usbd.c ****       }
 3181              		.loc 1 688 64 is_stmt 0 view .LVU1210
 3182 0164 1A69     		ldr	r2, [r3, #16]
 3183              	.LVL220:
 688:/opt/XMClib/XMC_Peripheral_Library_v2.1.16/XMCLib/src/xmc_usbd.c ****       }
 3184              		.loc 1 688 64 view .LVU1211
 3185 0166 0192     		str	r2, [sp, #4]
 691:/opt/XMClib/XMC_Peripheral_Library_v2.1.16/XMCLib/src/xmc_usbd.c ****       {
 3186              		.loc 1 691 7 is_stmt 1 view .LVU1212
 691:/opt/XMClib/XMC_Peripheral_Library_v2.1.16/XMCLib/src/xmc_usbd.c ****       {
 3187              		.loc 1 691 10 is_stmt 0 view .LVU1213
 3188 0168 3807     		lsls	r0, r7, #28
 691:/opt/XMClib/XMC_Peripheral_Library_v2.1.16/XMCLib/src/xmc_usbd.c ****       {
 3189              		.loc 1 691 11 view .LVU1214
 3190 016a FAB2     		uxtb	r2, r7
 3191              	.LVL221:
 691:/opt/XMClib/XMC_Peripheral_Library_v2.1.16/XMCLib/src/xmc_usbd.c ****       {
 3192              		.loc 1 691 10 view .LVU1215
 3193 016c 45D5     		bpl	.L321
 694:/opt/XMClib/XMC_Peripheral_Library_v2.1.16/XMCLib/src/xmc_usbd.c ****         if(obj->usbd_transfer_mode == XMC_USBD_USE_DMA)
 3194              		.loc 1 694 9 is_stmt 1 view .LVU1216
 699:/opt/XMClib/XMC_Peripheral_Library_v2.1.16/XMCLib/src/xmc_usbd.c ****         }
 3195              		.loc 1 699 5 is_stmt 0 view .LVU1217
 3196 016e 019B     		ldr	r3, [sp, #4]
 3197              	.LVL222:
 699:/opt/XMClib/XMC_Peripheral_Library_v2.1.16/XMCLib/src/xmc_usbd.c ****         }
 3198              		.loc 1 699 5 view .LVU1218
 3199 0170 C3F34173 		ubfx	r3, r3, #29, #2
 3200              	.LVL223:
 694:/opt/XMClib/XMC_Peripheral_Library_v2.1.16/XMCLib/src/xmc_usbd.c ****         if(obj->usbd_transfer_mode == XMC_USBD_USE_DMA)
 3201              		.loc 1 694 23 view .LVU1219
 3202 0174 08FB0640 		mla	r0, r8, r6, r4
 698:/opt/XMClib/XMC_Peripheral_Library_v2.1.16/XMCLib/src/xmc_usbd.c **** 		  (uint32_t)((deptsiz0_data_t*)&doeptsiz)->b.supcnt)*(uint32_t)XMC_USBD_SETUP_SIZE);
 3203              		.loc 1 698 72 view .LVU1220
 3204 0178 C3F10303 		rsb	r3, r3, #3
 698:/opt/XMClib/XMC_Peripheral_Library_v2.1.16/XMCLib/src/xmc_usbd.c **** 		  (uint32_t)((deptsiz0_data_t*)&doeptsiz)->b.supcnt)*(uint32_t)XMC_USBD_SETUP_SIZE);
 3205              		.loc 1 698 29 view .LVU1221
 3206 017c DB00     		lsls	r3, r3, #3
 698:/opt/XMClib/XMC_Peripheral_Library_v2.1.16/XMCLib/src/xmc_usbd.c **** 		  (uint32_t)((deptsiz0_data_t*)&doeptsiz)->b.supcnt)*(uint32_t)XMC_USBD_SETUP_SIZE);
 3207              		.loc 1 698 27 view .LVU1222
 3208 017e 0361     		str	r3, [r0, #16]
 694:/opt/XMClib/XMC_Peripheral_Library_v2.1.16/XMCLib/src/xmc_usbd.c ****         if(obj->usbd_transfer_mode == XMC_USBD_USE_DMA)
 3209              		.loc 1 694 23 view .LVU1223
 3210 0180 0379     		ldrb	r3, [r0, #4]	@ zero_extendqisi2
 3211 0182 61F34513 		bfi	r3, r1, #5, #1
 3212 0186 0371     		strb	r3, [r0, #4]
 695:/opt/XMClib/XMC_Peripheral_Library_v2.1.16/XMCLib/src/xmc_usbd.c ****         {
 3213              		.loc 1 695 9 is_stmt 1 view .LVU1224
 698:/opt/XMClib/XMC_Peripheral_Library_v2.1.16/XMCLib/src/xmc_usbd.c **** 		  (uint32_t)((deptsiz0_data_t*)&doeptsiz)->b.supcnt)*(uint32_t)XMC_USBD_SETUP_SIZE);
 3214              		.loc 1 698 5 view .LVU1225
 701:/opt/XMClib/XMC_Peripheral_Library_v2.1.16/XMCLib/src/xmc_usbd.c **** 		{
 3215              		.loc 1 701 3 view .LVU1226
 3216              	.L248:
 705:/opt/XMClib/XMC_Peripheral_Library_v2.1.16/XMCLib/src/xmc_usbd.c **** 		xmc_device.EndpointEvent_cb(0U,XMC_USBD_EP_EVENT_SETUP); /* signal endpoint event */
 3217              		.loc 1 705 3 view .LVU1227
 705:/opt/XMClib/XMC_Peripheral_Library_v2.1.16/XMCLib/src/xmc_usbd.c **** 		xmc_device.EndpointEvent_cb(0U,XMC_USBD_EP_EVENT_SETUP); /* signal endpoint event */
 3218              		.loc 1 705 16 is_stmt 0 view .LVU1228
 3219 0188 08FB0643 		mla	r3, r8, r6, r4
 3220 018c 0392     		str	r2, [sp, #12]
 3221 018e 5868     		ldr	r0, [r3, #4]
 3222 0190 6FF30410 		bfc	r0, #4, #1
 706:/opt/XMClib/XMC_Peripheral_Library_v2.1.16/XMCLib/src/xmc_usbd.c **** 				/* clear the interrupt */
 3223              		.loc 1 706 3 view .LVU1229
 3224 0194 0021     		movs	r1, #0
 705:/opt/XMClib/XMC_Peripheral_Library_v2.1.16/XMCLib/src/xmc_usbd.c **** 		xmc_device.EndpointEvent_cb(0U,XMC_USBD_EP_EVENT_SETUP); /* signal endpoint event */
 3225              		.loc 1 705 16 view .LVU1230
 3226 0196 5860     		str	r0, [r3, #4]
 706:/opt/XMClib/XMC_Peripheral_Library_v2.1.16/XMCLib/src/xmc_usbd.c **** 				/* clear the interrupt */
 3227              		.loc 1 706 3 is_stmt 1 view .LVU1231
 3228 0198 D4F80432 		ldr	r3, [r4, #516]
 3229 019c 0846     		mov	r0, r1
 3230 019e 9847     		blx	r3
 3231              	.LVL224:
 708:/opt/XMClib/XMC_Peripheral_Library_v2.1.16/XMCLib/src/xmc_usbd.c ****       }
 3232              		.loc 1 708 3 view .LVU1232
 3233              	.LBB168:
 3234              	.LBI168:
1029:/opt/XMClib/XMC_Peripheral_Library_v2.1.16/XMCLib/src/xmc_usbd.c **** {
 3235              		.loc 1 1029 6 view .LVU1233
 3236              	.LBB169:
1031:/opt/XMClib/XMC_Peripheral_Library_v2.1.16/XMCLib/src/xmc_usbd.c ****   clear.d32 = event;
 3237              		.loc 1 1031 3 view .LVU1234
1032:/opt/XMClib/XMC_Peripheral_Library_v2.1.16/XMCLib/src/xmc_usbd.c ****   xmc_device.endpoint_out_register[ep_num]->doepint = clear.d32;
 3238              		.loc 1 1032 3 view .LVU1235
1033:/opt/XMClib/XMC_Peripheral_Library_v2.1.16/XMCLib/src/xmc_usbd.c **** }
 3239              		.loc 1 1033 3 view .LVU1236
1033:/opt/XMClib/XMC_Peripheral_Library_v2.1.16/XMCLib/src/xmc_usbd.c **** }
 3240              		.loc 1 1033 35 is_stmt 0 view .LVU1237
 3241 01a0 04EB8B03 		add	r3, r4, fp, lsl #2
 3242              	.LBE169:
 3243              	.LBE168:
 710:/opt/XMClib/XMC_Peripheral_Library_v2.1.16/XMCLib/src/xmc_usbd.c ****       {
 3244              		.loc 1 710 10 view .LVU1238
 3245 01a4 039A     		ldr	r2, [sp, #12]
 3246              	.LBB172:
 3247              	.LBB170:
1033:/opt/XMClib/XMC_Peripheral_Library_v2.1.16/XMCLib/src/xmc_usbd.c **** }
 3248              		.loc 1 1033 35 view .LVU1239
 3249 01a6 5B68     		ldr	r3, [r3, #4]
1033:/opt/XMClib/XMC_Peripheral_Library_v2.1.16/XMCLib/src/xmc_usbd.c **** }
 3250              		.loc 1 1033 53 view .LVU1240
 3251 01a8 0821     		movs	r1, #8
 3252              	.LBE170:
 3253              	.LBE172:
 710:/opt/XMClib/XMC_Peripheral_Library_v2.1.16/XMCLib/src/xmc_usbd.c ****       {
 3254              		.loc 1 710 10 view .LVU1241
 3255 01aa D207     		lsls	r2, r2, #31
 3256              	.LBB173:
 3257              	.LBB171:
1033:/opt/XMClib/XMC_Peripheral_Library_v2.1.16/XMCLib/src/xmc_usbd.c **** }
 3258              		.loc 1 1033 53 view .LVU1242
 3259 01ac 9960     		str	r1, [r3, #8]
 3260              	.LVL225:
1033:/opt/XMClib/XMC_Peripheral_Library_v2.1.16/XMCLib/src/xmc_usbd.c **** }
 3261              		.loc 1 1033 53 view .LVU1243
 3262              	.LBE171:
 3263              	.LBE173:
 710:/opt/XMClib/XMC_Peripheral_Library_v2.1.16/XMCLib/src/xmc_usbd.c ****       {
 3264              		.loc 1 710 7 is_stmt 1 view .LVU1244
 710:/opt/XMClib/XMC_Peripheral_Library_v2.1.16/XMCLib/src/xmc_usbd.c ****       {
 3265              		.loc 1 710 10 is_stmt 0 view .LVU1245
 3266 01ae 17D5     		bpl	.L241
 712:/opt/XMClib/XMC_Peripheral_Library_v2.1.16/XMCLib/src/xmc_usbd.c ****         {
 3267              		.loc 1 712 9 is_stmt 1 view .LVU1246
 712:/opt/XMClib/XMC_Peripheral_Library_v2.1.16/XMCLib/src/xmc_usbd.c ****         {
 3268              		.loc 1 712 11 is_stmt 0 view .LVU1247
 3269 01b0 99F80D30 		ldrb	r3, [r9, #13]	@ zero_extendqisi2
 3270 01b4 1BB3     		cbz	r3, .L242
 3271              	.L243:
 718:/opt/XMClib/XMC_Peripheral_Library_v2.1.16/XMCLib/src/xmc_usbd.c ****         {
 3272              		.loc 1 718 9 is_stmt 1 view .LVU1248
 718:/opt/XMClib/XMC_Peripheral_Library_v2.1.16/XMCLib/src/xmc_usbd.c ****         {
 3273              		.loc 1 718 15 is_stmt 0 view .LVU1249
 3274 01b6 08FB0640 		mla	r0, r8, r6, r4
 718:/opt/XMClib/XMC_Peripheral_Library_v2.1.16/XMCLib/src/xmc_usbd.c ****         {
 3275              		.loc 1 718 12 view .LVU1250
 3276 01ba 026B     		ldr	r2, [r0, #48]
 3277 01bc 836A     		ldr	r3, [r0, #40]
 3278 01be 9A42     		cmp	r2, r3
 3279 01c0 30D1     		bne	.L244
 3280              	.L322:
 720:/opt/XMClib/XMC_Peripheral_Library_v2.1.16/XMCLib/src/xmc_usbd.c ****           ep->outInUse = 0U;
 3281              		.loc 1 720 11 is_stmt 1 view .LVU1251
 721:/opt/XMClib/XMC_Peripheral_Library_v2.1.16/XMCLib/src/xmc_usbd.c ****           xmc_device.EndpointEvent_cb(ep_num,XMC_USBD_EP_EVENT_OUT);
 3282              		.loc 1 721 24 is_stmt 0 view .LVU1252
 3283 01c2 4368     		ldr	r3, [r0, #4]
 3284 01c4 6FF30413 		bfc	r3, #4, #1
 3285 01c8 4360     		str	r3, [r0, #4]
 3286              	.LBB174:
 3287              	.LBB175:
1033:/opt/XMClib/XMC_Peripheral_Library_v2.1.16/XMCLib/src/xmc_usbd.c **** }
 3288              		.loc 1 1033 35 view .LVU1253
 3289 01ca 04EB8B0B 		add	fp, r4, fp, lsl #2
 3290              	.LBE175:
 3291              	.LBE174:
 720:/opt/XMClib/XMC_Peripheral_Library_v2.1.16/XMCLib/src/xmc_usbd.c ****           ep->outInUse = 0U;
 3292              		.loc 1 720 33 view .LVU1254
 3293 01ce C36A     		ldr	r3, [r0, #44]
 3294 01d0 0361     		str	r3, [r0, #16]
 721:/opt/XMClib/XMC_Peripheral_Library_v2.1.16/XMCLib/src/xmc_usbd.c ****           xmc_device.EndpointEvent_cb(ep_num,XMC_USBD_EP_EVENT_OUT);
 3295              		.loc 1 721 11 is_stmt 1 view .LVU1255
 722:/opt/XMClib/XMC_Peripheral_Library_v2.1.16/XMCLib/src/xmc_usbd.c ****         }
 3296              		.loc 1 722 11 view .LVU1256
 3297 01d2 0121     		movs	r1, #1
 3298 01d4 D4F80432 		ldr	r3, [r4, #516]
 3299 01d8 2846     		mov	r0, r5
 3300 01da 9847     		blx	r3
 3301              	.LVL226:
 3302              	.LBB180:
 3303              	.LBB176:
1033:/opt/XMClib/XMC_Peripheral_Library_v2.1.16/XMCLib/src/xmc_usbd.c **** }
 3304              		.loc 1 1033 35 is_stmt 0 view .LVU1257
 3305 01dc DBF80430 		ldr	r3, [fp, #4]
 3306              	.L241:
 3307              	.LBE176:
 3308              	.LBE180:
 731:/opt/XMClib/XMC_Peripheral_Library_v2.1.16/XMCLib/src/xmc_usbd.c ****     }
 3309              		.loc 1 731 7 is_stmt 1 view .LVU1258
 3310              	.LVL227:
 3311              	.LBB181:
 3312              	.LBI174:
1029:/opt/XMClib/XMC_Peripheral_Library_v2.1.16/XMCLib/src/xmc_usbd.c **** {
 3313              		.loc 1 1029 6 view .LVU1259
 3314              	.LBB177:
1031:/opt/XMClib/XMC_Peripheral_Library_v2.1.16/XMCLib/src/xmc_usbd.c ****   clear.d32 = event;
 3315              		.loc 1 1031 3 view .LVU1260
1032:/opt/XMClib/XMC_Peripheral_Library_v2.1.16/XMCLib/src/xmc_usbd.c ****   xmc_device.endpoint_out_register[ep_num]->doepint = clear.d32;
 3316              		.loc 1 1032 3 view .LVU1261
1033:/opt/XMClib/XMC_Peripheral_Library_v2.1.16/XMCLib/src/xmc_usbd.c **** }
 3317              		.loc 1 1033 3 view .LVU1262
1033:/opt/XMClib/XMC_Peripheral_Library_v2.1.16/XMCLib/src/xmc_usbd.c **** }
 3318              		.loc 1 1033 53 is_stmt 0 view .LVU1263
 3319 01e0 9F60     		str	r7, [r3, #8]
 3320              	.LVL228:
 3321              	.L237:
1033:/opt/XMClib/XMC_Peripheral_Library_v2.1.16/XMCLib/src/xmc_usbd.c **** }
 3322              		.loc 1 1033 53 view .LVU1264
 3323              	.LBE177:
 3324              	.LBE181:
 733:/opt/XMClib/XMC_Peripheral_Library_v2.1.16/XMCLib/src/xmc_usbd.c ****   }
 3325              		.loc 1 733 5 is_stmt 1 view .LVU1265
 733:/opt/XMClib/XMC_Peripheral_Library_v2.1.16/XMCLib/src/xmc_usbd.c ****   }
 3326              		.loc 1 733 11 is_stmt 0 view .LVU1266
 3327 01e2 0135     		adds	r5, r5, #1
 3328              	.LVL229:
 733:/opt/XMClib/XMC_Peripheral_Library_v2.1.16/XMCLib/src/xmc_usbd.c ****   }
 3329              		.loc 1 733 11 view .LVU1267
 3330 01e4 EDB2     		uxtb	r5, r5
 3331              	.LVL230:
 677:/opt/XMClib/XMC_Peripheral_Library_v2.1.16/XMCLib/src/xmc_usbd.c ****   {
 3332              		.loc 1 677 9 is_stmt 1 view .LVU1268
 3333 01e6 5AFA05F3 		asrs	r3, r10, r5
 677:/opt/XMClib/XMC_Peripheral_Library_v2.1.16/XMCLib/src/xmc_usbd.c ****   {
 3334              		.loc 1 677 25 is_stmt 0 view .LVU1269
 3335 01ea 2E46     		mov	r6, r5
 3336              	.LVL231:
 677:/opt/XMClib/XMC_Peripheral_Library_v2.1.16/XMCLib/src/xmc_usbd.c ****   {
 3337              		.loc 1 677 9 view .LVU1270
 3338 01ec ACD1     		bne	.L236
 3339              	.LVL232:
 3340              	.L245:
 737:/opt/XMClib/XMC_Peripheral_Library_v2.1.16/XMCLib/src/xmc_usbd.c **** }
 3341              		.loc 1 737 3 is_stmt 1 view .LVU1271
 3342              	.LBB182:
 3343              	.LBI182:
 967:/opt/XMClib/XMC_Peripheral_Library_v2.1.16/XMCLib/src/xmc_usbd.c **** {
 3344              		.loc 1 967 6 view .LVU1272
 3345              	.LBB183:
 969:/opt/XMClib/XMC_Peripheral_Library_v2.1.16/XMCLib/src/xmc_usbd.c ****   clear.d32 = 0U;
 3346              		.loc 1 969 3 view .LVU1273
 970:/opt/XMClib/XMC_Peripheral_Library_v2.1.16/XMCLib/src/xmc_usbd.c ****   switch(event)
 3347              		.loc 1 970 3 view .LVU1274
 971:/opt/XMClib/XMC_Peripheral_Library_v2.1.16/XMCLib/src/xmc_usbd.c ****   {
 3348              		.loc 1 971 3 view .LVU1275
 998:/opt/XMClib/XMC_Peripheral_Library_v2.1.16/XMCLib/src/xmc_usbd.c **** 	  break;
 3349              		.loc 1 998 4 view .LVU1276
 999:/opt/XMClib/XMC_Peripheral_Library_v2.1.16/XMCLib/src/xmc_usbd.c **** 		default:
 3350              		.loc 1 999 4 view .LVU1277
1003:/opt/XMClib/XMC_Peripheral_Library_v2.1.16/XMCLib/src/xmc_usbd.c **** }
 3351              		.loc 1 1003 2 view .LVU1278
1003:/opt/XMClib/XMC_Peripheral_Library_v2.1.16/XMCLib/src/xmc_usbd.c **** }
 3352              		.loc 1 1003 12 is_stmt 0 view .LVU1279
 3353 01ee D4F8A031 		ldr	r3, [r4, #416]
 3354              	.LVL233:
1003:/opt/XMClib/XMC_Peripheral_Library_v2.1.16/XMCLib/src/xmc_usbd.c **** }
 3355              		.loc 1 1003 38 view .LVU1280
 3356 01f2 4FF40022 		mov	r2, #524288
 3357 01f6 5A61     		str	r2, [r3, #20]
 3358              	.LVL234:
1003:/opt/XMClib/XMC_Peripheral_Library_v2.1.16/XMCLib/src/xmc_usbd.c **** }
 3359              		.loc 1 1003 38 view .LVU1281
 3360              	.LBE183:
 3361              	.LBE182:
 738:/opt/XMClib/XMC_Peripheral_Library_v2.1.16/XMCLib/src/xmc_usbd.c **** 
 3362              		.loc 1 738 1 view .LVU1282
 3363 01f8 5DE7     		b	.L235
 3364              	.LVL235:
 3365              	.L321:
 710:/opt/XMClib/XMC_Peripheral_Library_v2.1.16/XMCLib/src/xmc_usbd.c ****       {
 3366              		.loc 1 710 7 is_stmt 1 view .LVU1283
 710:/opt/XMClib/XMC_Peripheral_Library_v2.1.16/XMCLib/src/xmc_usbd.c ****       {
 3367              		.loc 1 710 10 is_stmt 0 view .LVU1284
 3368 01fa D007     		lsls	r0, r2, #31
 3369 01fc F0D5     		bpl	.L241
 3370              	.L242:
 3371              	.LBB184:
 714:/opt/XMClib/XMC_Peripheral_Library_v2.1.16/XMCLib/src/xmc_usbd.c ****           ep->xferCount += bytes;
 3372              		.loc 1 714 11 is_stmt 1 view .LVU1285
 714:/opt/XMClib/XMC_Peripheral_Library_v2.1.16/XMCLib/src/xmc_usbd.c ****           ep->xferCount += bytes;
 3373              		.loc 1 714 31 is_stmt 0 view .LVU1286
 3374 01fe 08FB0641 		mla	r1, r8, r6, r4
 714:/opt/XMClib/XMC_Peripheral_Library_v2.1.16/XMCLib/src/xmc_usbd.c ****           ep->xferCount += bytes;
 3375              		.loc 1 714 73 view .LVU1287
 3376 0202 019B     		ldr	r3, [sp, #4]
 714:/opt/XMClib/XMC_Peripheral_Library_v2.1.16/XMCLib/src/xmc_usbd.c ****           ep->xferCount += bytes;
 3377              		.loc 1 714 73 view .LVU1288
 3378 0204 8A6A     		ldr	r2, [r1, #40]
 3379              	.LVL236:
 714:/opt/XMClib/XMC_Peripheral_Library_v2.1.16/XMCLib/src/xmc_usbd.c ****           ep->xferCount += bytes;
 3380              		.loc 1 714 73 view .LVU1289
 3381 0206 C3F31203 		ubfx	r3, r3, #0, #19
 3382              	.LVL237:
 714:/opt/XMClib/XMC_Peripheral_Library_v2.1.16/XMCLib/src/xmc_usbd.c ****           ep->xferCount += bytes;
 3383              		.loc 1 714 73 view .LVU1290
 3384 020a D31A     		subs	r3, r2, r3
 714:/opt/XMClib/XMC_Peripheral_Library_v2.1.16/XMCLib/src/xmc_usbd.c ****           ep->xferCount += bytes;
 3385              		.loc 1 714 20 view .LVU1291
 3386 020c CA6A     		ldr	r2, [r1, #44]
 715:/opt/XMClib/XMC_Peripheral_Library_v2.1.16/XMCLib/src/xmc_usbd.c ****           ep->xferBuffer += bytes;
 3387              		.loc 1 715 25 view .LVU1292
 3388 020e CB62     		str	r3, [r1, #44]
 714:/opt/XMClib/XMC_Peripheral_Library_v2.1.16/XMCLib/src/xmc_usbd.c ****           ep->xferCount += bytes;
 3389              		.loc 1 714 20 view .LVU1293
 3390 0210 9B1A     		subs	r3, r3, r2
 3391              	.LVL238:
 715:/opt/XMClib/XMC_Peripheral_Library_v2.1.16/XMCLib/src/xmc_usbd.c ****           ep->xferBuffer += bytes;
 3392              		.loc 1 715 11 is_stmt 1 view .LVU1294
 716:/opt/XMClib/XMC_Peripheral_Library_v2.1.16/XMCLib/src/xmc_usbd.c **** 				}
 3393              		.loc 1 716 11 view .LVU1295
 716:/opt/XMClib/XMC_Peripheral_Library_v2.1.16/XMCLib/src/xmc_usbd.c **** 				}
 3394              		.loc 1 716 26 is_stmt 0 view .LVU1296
 3395 0212 4A6A     		ldr	r2, [r1, #36]
 3396              	.LBE184:
 718:/opt/XMClib/XMC_Peripheral_Library_v2.1.16/XMCLib/src/xmc_usbd.c ****         {
 3397              		.loc 1 718 15 view .LVU1297
 3398 0214 08FB0640 		mla	r0, r8, r6, r4
 3399              	.LBB185:
 716:/opt/XMClib/XMC_Peripheral_Library_v2.1.16/XMCLib/src/xmc_usbd.c **** 				}
 3400              		.loc 1 716 26 view .LVU1298
 3401 0218 1344     		add	r3, r3, r2
 3402              	.LVL239:
 716:/opt/XMClib/XMC_Peripheral_Library_v2.1.16/XMCLib/src/xmc_usbd.c **** 				}
 3403              		.loc 1 716 26 view .LVU1299
 3404 021a 4B62     		str	r3, [r1, #36]
 3405              	.LBE185:
 718:/opt/XMClib/XMC_Peripheral_Library_v2.1.16/XMCLib/src/xmc_usbd.c ****         {
 3406              		.loc 1 718 9 is_stmt 1 view .LVU1300
 718:/opt/XMClib/XMC_Peripheral_Library_v2.1.16/XMCLib/src/xmc_usbd.c ****         {
 3407              		.loc 1 718 12 is_stmt 0 view .LVU1301
 3408 021c 026B     		ldr	r2, [r0, #48]
 3409 021e 836A     		ldr	r3, [r0, #40]
 3410 0220 9A42     		cmp	r2, r3
 3411 0222 CED0     		beq	.L322
 3412              	.L244:
 726:/opt/XMClib/XMC_Peripheral_Library_v2.1.16/XMCLib/src/xmc_usbd.c ****         }
 3413              		.loc 1 726 11 is_stmt 1 view .LVU1302
 3414              	.LBB186:
 3415              	.LBB178:
1033:/opt/XMClib/XMC_Peripheral_Library_v2.1.16/XMCLib/src/xmc_usbd.c **** }
 3416              		.loc 1 1033 35 is_stmt 0 view .LVU1303
 3417 0224 04EB8B0B 		add	fp, r4, fp, lsl #2
 3418              	.LBE178:
 3419              	.LBE186:
 726:/opt/XMClib/XMC_Peripheral_Library_v2.1.16/XMCLib/src/xmc_usbd.c ****         }
 3420              		.loc 1 726 11 view .LVU1304
 3421 0228 FFF7FEFF 		bl	XMC_USBD_lStartReadXfer
 3422              	.LVL240:
 3423              	.LBB187:
 3424              	.LBB179:
1033:/opt/XMClib/XMC_Peripheral_Library_v2.1.16/XMCLib/src/xmc_usbd.c **** }
 3425              		.loc 1 1033 35 view .LVU1305
 3426 022c DBF80430 		ldr	r3, [fp, #4]
 3427 0230 D6E7     		b	.L241
 3428              	.L238:
 3429              	.LBE179:
 3430              	.LBE187:
 691:/opt/XMClib/XMC_Peripheral_Library_v2.1.16/XMCLib/src/xmc_usbd.c ****       {
 3431              		.loc 1 691 7 is_stmt 1 view .LVU1306
 691:/opt/XMClib/XMC_Peripheral_Library_v2.1.16/XMCLib/src/xmc_usbd.c ****       {
 3432              		.loc 1 691 10 is_stmt 0 view .LVU1307
 3433 0232 3807     		lsls	r0, r7, #28
 691:/opt/XMClib/XMC_Peripheral_Library_v2.1.16/XMCLib/src/xmc_usbd.c ****       {
 3434              		.loc 1 691 11 view .LVU1308
 3435 0234 FAB2     		uxtb	r2, r7
 691:/opt/XMClib/XMC_Peripheral_Library_v2.1.16/XMCLib/src/xmc_usbd.c ****       {
 3436              		.loc 1 691 10 view .LVU1309
 3437 0236 0CD5     		bpl	.L323
 694:/opt/XMClib/XMC_Peripheral_Library_v2.1.16/XMCLib/src/xmc_usbd.c ****         if(obj->usbd_transfer_mode == XMC_USBD_USE_DMA)
 3438              		.loc 1 694 9 is_stmt 1 view .LVU1310
 694:/opt/XMClib/XMC_Peripheral_Library_v2.1.16/XMCLib/src/xmc_usbd.c ****         if(obj->usbd_transfer_mode == XMC_USBD_USE_DMA)
 3439              		.loc 1 694 23 is_stmt 0 view .LVU1311
 3440 0238 08FB0640 		mla	r0, r8, r6, r4
 701:/opt/XMClib/XMC_Peripheral_Library_v2.1.16/XMCLib/src/xmc_usbd.c **** 		{
 3441              		.loc 1 701 5 view .LVU1312
 3442 023c 0129     		cmp	r1, #1
 694:/opt/XMClib/XMC_Peripheral_Library_v2.1.16/XMCLib/src/xmc_usbd.c ****         if(obj->usbd_transfer_mode == XMC_USBD_USE_DMA)
 3443              		.loc 1 694 23 view .LVU1313
 3444 023e 0379     		ldrb	r3, [r0, #4]	@ zero_extendqisi2
 3445 0240 6FF34513 		bfc	r3, #5, #1
 3446 0244 0371     		strb	r3, [r0, #4]
 695:/opt/XMClib/XMC_Peripheral_Library_v2.1.16/XMCLib/src/xmc_usbd.c ****         {
 3447              		.loc 1 695 9 is_stmt 1 view .LVU1314
 701:/opt/XMClib/XMC_Peripheral_Library_v2.1.16/XMCLib/src/xmc_usbd.c **** 		{
 3448              		.loc 1 701 3 view .LVU1315
 701:/opt/XMClib/XMC_Peripheral_Library_v2.1.16/XMCLib/src/xmc_usbd.c **** 		{
 3449              		.loc 1 701 5 is_stmt 0 view .LVU1316
 3450 0246 9FD1     		bne	.L248
 703:/opt/XMClib/XMC_Peripheral_Library_v2.1.16/XMCLib/src/xmc_usbd.c **** 		}
 3451              		.loc 1 703 4 is_stmt 1 view .LVU1317
 703:/opt/XMClib/XMC_Peripheral_Library_v2.1.16/XMCLib/src/xmc_usbd.c **** 		}
 3452              		.loc 1 703 26 is_stmt 0 view .LVU1318
 3453 0248 0369     		ldr	r3, [r0, #16]
 3454 024a C16A     		ldr	r1, [r0, #44]
 3455 024c 0B44     		add	r3, r3, r1
 3456 024e 0361     		str	r3, [r0, #16]
 3457 0250 9AE7     		b	.L248
 3458              	.L323:
 710:/opt/XMClib/XMC_Peripheral_Library_v2.1.16/XMCLib/src/xmc_usbd.c ****       {
 3459              		.loc 1 710 7 is_stmt 1 view .LVU1319
 710:/opt/XMClib/XMC_Peripheral_Library_v2.1.16/XMCLib/src/xmc_usbd.c ****       {
 3460              		.loc 1 710 10 is_stmt 0 view .LVU1320
 3461 0252 D107     		lsls	r1, r2, #31
 3462 0254 AFD4     		bmi	.L243
 3463 0256 C3E7     		b	.L241
 3464              	.L328:
 3465              		.align	2
 3466              	.L327:
 3467 0258 00000000 		.word	.LANCHOR0
 3468              	.LVL241:
 3469              	.L318:
 710:/opt/XMClib/XMC_Peripheral_Library_v2.1.16/XMCLib/src/xmc_usbd.c ****       {
 3470              		.loc 1 710 10 view .LVU1321
 3471              	.LBE167:
 3472              	.LBE166:
 921:/opt/XMClib/XMC_Peripheral_Library_v2.1.16/XMCLib/src/xmc_usbd.c ****   }
 3473              		.loc 1 921 5 is_stmt 1 view .LVU1322
 3474              	.LBB188:
 3475              	.LBI188:
 746:/opt/XMClib/XMC_Peripheral_Library_v2.1.16/XMCLib/src/xmc_usbd.c **** {
 3476              		.loc 1 746 13 view .LVU1323
 3477              	.LBB189:
 748:/opt/XMClib/XMC_Peripheral_Library_v2.1.16/XMCLib/src/xmc_usbd.c ****   daint_data_t daint;
 3478              		.loc 1 748 3 view .LVU1324
 749:/opt/XMClib/XMC_Peripheral_Library_v2.1.16/XMCLib/src/xmc_usbd.c ****   diepmsk_data_t diepmsk;
 3479              		.loc 1 749 3 view .LVU1325
 750:/opt/XMClib/XMC_Peripheral_Library_v2.1.16/XMCLib/src/xmc_usbd.c ****   diepint_data_t diepint;
 3480              		.loc 1 750 3 view .LVU1326
 751:/opt/XMClib/XMC_Peripheral_Library_v2.1.16/XMCLib/src/xmc_usbd.c ****   deptsiz_data_t dieptsiz;
 3481              		.loc 1 751 3 view .LVU1327
 752:/opt/XMClib/XMC_Peripheral_Library_v2.1.16/XMCLib/src/xmc_usbd.c ****   uint16_t temp;
 3482              		.loc 1 752 3 view .LVU1328
 753:/opt/XMClib/XMC_Peripheral_Library_v2.1.16/XMCLib/src/xmc_usbd.c ****   uint16_t temp1;
 3483              		.loc 1 753 3 view .LVU1329
 754:/opt/XMClib/XMC_Peripheral_Library_v2.1.16/XMCLib/src/xmc_usbd.c ****   uint16_t mask;
 3484              		.loc 1 754 3 view .LVU1330
 755:/opt/XMClib/XMC_Peripheral_Library_v2.1.16/XMCLib/src/xmc_usbd.c ****   uint8_t ep_num;
 3485              		.loc 1 755 3 view .LVU1331
 756:/opt/XMClib/XMC_Peripheral_Library_v2.1.16/XMCLib/src/xmc_usbd.c ****   uint32_t inepint;
 3486              		.loc 1 756 3 view .LVU1332
 757:/opt/XMClib/XMC_Peripheral_Library_v2.1.16/XMCLib/src/xmc_usbd.c **** 	
 3487              		.loc 1 757 3 view .LVU1333
 759:/opt/XMClib/XMC_Peripheral_Library_v2.1.16/XMCLib/src/xmc_usbd.c ****   
 3488              		.loc 1 759 3 view .LVU1334
 759:/opt/XMClib/XMC_Peripheral_Library_v2.1.16/XMCLib/src/xmc_usbd.c ****   
 3489              		.loc 1 759 25 is_stmt 0 view .LVU1335
 3490 025c D4F8A431 		ldr	r3, [r4, #420]
 759:/opt/XMClib/XMC_Peripheral_Library_v2.1.16/XMCLib/src/xmc_usbd.c ****   
 3491              		.loc 1 759 41 view .LVU1336
 3492 0260 9A69     		ldr	r2, [r3, #24]
 761:/opt/XMClib/XMC_Peripheral_Library_v2.1.16/XMCLib/src/xmc_usbd.c ****   
 3493              		.loc 1 761 3 is_stmt 1 view .LVU1337
 761:/opt/XMClib/XMC_Peripheral_Library_v2.1.16/XMCLib/src/xmc_usbd.c ****   
 3494              		.loc 1 761 43 is_stmt 0 view .LVU1338
 3495 0262 1B69     		ldr	r3, [r3, #16]
 3496 0264 0393     		str	r3, [sp, #12]
 3497              	.LVL242:
 763:/opt/XMClib/XMC_Peripheral_Library_v2.1.16/XMCLib/src/xmc_usbd.c ****   mask = daint.ep.in;
 3498              		.loc 1 763 3 is_stmt 1 view .LVU1339
 764:/opt/XMClib/XMC_Peripheral_Library_v2.1.16/XMCLib/src/xmc_usbd.c ****   ep_num = 0U;
 3499              		.loc 1 764 3 view .LVU1340
 765:/opt/XMClib/XMC_Peripheral_Library_v2.1.16/XMCLib/src/xmc_usbd.c ****   
 3500              		.loc 1 765 3 view .LVU1341
 767:/opt/XMClib/XMC_Peripheral_Library_v2.1.16/XMCLib/src/xmc_usbd.c ****   {
 3501              		.loc 1 767 3 view .LVU1342
 767:/opt/XMClib/XMC_Peripheral_Library_v2.1.16/XMCLib/src/xmc_usbd.c ****   {
 3502              		.loc 1 767 9 view .LVU1343
 3503 0266 1FFA82FB 		uxth	fp, r2
 3504 026a BBF1000F 		cmp	fp, #0
 3505 026e 5BD0     		beq	.L234
 765:/opt/XMClib/XMC_Peripheral_Library_v2.1.16/XMCLib/src/xmc_usbd.c ****   
 3506              		.loc 1 765 10 is_stmt 0 view .LVU1344
 3507 0270 0025     		movs	r5, #0
 3508              	.LVL243:
 767:/opt/XMClib/XMC_Peripheral_Library_v2.1.16/XMCLib/src/xmc_usbd.c ****   {
 3509              		.loc 1 767 9 view .LVU1345
 3510 0272 5B46     		mov	r3, fp
 3511              	.LVL244:
 767:/opt/XMClib/XMC_Peripheral_Library_v2.1.16/XMCLib/src/xmc_usbd.c ****   {
 3512              		.loc 1 767 25 view .LVU1346
 3513 0274 2846     		mov	r0, r5
 776:/opt/XMClib/XMC_Peripheral_Library_v2.1.16/XMCLib/src/xmc_usbd.c ****                      0x1U) << 7U) | (uint32_t)diepmsk.d32);
 3514              		.loc 1 776 107 view .LVU1347
 3515 0276 4FF0340A 		mov	r10, #52
 3516 027a C846     		mov	r8, r9
 3517              	.LVL245:
 3518              	.L221:
 769:/opt/XMClib/XMC_Peripheral_Library_v2.1.16/XMCLib/src/xmc_usbd.c ****     temp = (uint16_t)temp1 & (uint16_t)0x1U;
 3519              		.loc 1 769 5 is_stmt 1 view .LVU1348
 770:/opt/XMClib/XMC_Peripheral_Library_v2.1.16/XMCLib/src/xmc_usbd.c ****     if ((uint16_t)temp)
 3520              		.loc 1 770 5 view .LVU1349
 771:/opt/XMClib/XMC_Peripheral_Library_v2.1.16/XMCLib/src/xmc_usbd.c ****     {
 3521              		.loc 1 771 5 view .LVU1350
 771:/opt/XMClib/XMC_Peripheral_Library_v2.1.16/XMCLib/src/xmc_usbd.c ****     {
 3522              		.loc 1 771 8 is_stmt 0 view .LVU1351
 3523 027c DB07     		lsls	r3, r3, #31
 3524              	.LVL246:
 771:/opt/XMClib/XMC_Peripheral_Library_v2.1.16/XMCLib/src/xmc_usbd.c ****     {
 3525              		.loc 1 771 8 view .LVU1352
 3526 027e 4CD5     		bpl	.L222
 773:/opt/XMClib/XMC_Peripheral_Library_v2.1.16/XMCLib/src/xmc_usbd.c **** 			inepint = (uint32_t)xmc_device.endpoint_in_register[ep_num]->diepint;
 3527              		.loc 1 773 7 is_stmt 1 view .LVU1353
 3528              	.LVL247:
 774:/opt/XMClib/XMC_Peripheral_Library_v2.1.16/XMCLib/src/xmc_usbd.c ****       diepint.d32 = inepint &
 3529              		.loc 1 774 4 view .LVU1354
 774:/opt/XMClib/XMC_Peripheral_Library_v2.1.16/XMCLib/src/xmc_usbd.c ****       diepint.d32 = inepint &
 3530              		.loc 1 774 55 is_stmt 0 view .LVU1355
 3531 0280 00F16A03 		add	r3, r0, #106
 776:/opt/XMClib/XMC_Peripheral_Library_v2.1.16/XMCLib/src/xmc_usbd.c ****                      0x1U) << 7U) | (uint32_t)diepmsk.d32);
 3532              		.loc 1 776 107 view .LVU1356
 3533 0284 0AFB00F2 		mul	r2, r10, r0
 776:/opt/XMClib/XMC_Peripheral_Library_v2.1.16/XMCLib/src/xmc_usbd.c ****                      0x1U) << 7U) | (uint32_t)diepmsk.d32);
 3534              		.loc 1 776 41 view .LVU1357
 3535 0288 D4F8A491 		ldr	r9, [r4, #420]
 774:/opt/XMClib/XMC_Peripheral_Library_v2.1.16/XMCLib/src/xmc_usbd.c ****       diepint.d32 = inepint &
 3536              		.loc 1 774 55 view .LVU1358
 3537 028c 0193     		str	r3, [sp, #4]
 3538 028e 54F82330 		ldr	r3, [r4, r3, lsl #2]
 776:/opt/XMClib/XMC_Peripheral_Library_v2.1.16/XMCLib/src/xmc_usbd.c ****                      0x1U) << 7U) | (uint32_t)diepmsk.d32);
 3539              		.loc 1 776 107 view .LVU1359
 3540 0292 14F802C0 		ldrb	ip, [r4, r2]	@ zero_extendqisi2
 774:/opt/XMClib/XMC_Peripheral_Library_v2.1.16/XMCLib/src/xmc_usbd.c ****       diepint.d32 = inepint &
 3541              		.loc 1 774 12 view .LVU1360
 3542 0296 9968     		ldr	r1, [r3, #8]
 3543              	.LVL248:
 775:/opt/XMClib/XMC_Peripheral_Library_v2.1.16/XMCLib/src/xmc_usbd.c ****       ((((uint32_t)((uint32_t)xmc_device.device_register->dtknqr4_fifoemptymsk >> ep->address_u.add
 3544              		.loc 1 775 7 is_stmt 1 view .LVU1361
 776:/opt/XMClib/XMC_Peripheral_Library_v2.1.16/XMCLib/src/xmc_usbd.c ****                      0x1U) << 7U) | (uint32_t)diepmsk.d32);
 3545              		.loc 1 776 57 is_stmt 0 view .LVU1362
 3546 0298 D9F83460 		ldr	r6, [r9, #52]
 776:/opt/XMClib/XMC_Peripheral_Library_v2.1.16/XMCLib/src/xmc_usbd.c ****                      0x1U) << 7U) | (uint32_t)diepmsk.d32);
 3547              		.loc 1 776 107 view .LVU1363
 3548 029c 0CF00F0C 		and	ip, ip, #15
 3549 02a0 2244     		add	r2, r2, r4
 776:/opt/XMClib/XMC_Peripheral_Library_v2.1.16/XMCLib/src/xmc_usbd.c ****                      0x1U) << 7U) | (uint32_t)diepmsk.d32);
 3550              		.loc 1 776 10 view .LVU1364
 3551 02a2 26FA0CF6 		lsr	r6, r6, ip
 776:/opt/XMClib/XMC_Peripheral_Library_v2.1.16/XMCLib/src/xmc_usbd.c ****                      0x1U) << 7U) | (uint32_t)diepmsk.d32);
 3552              		.loc 1 776 107 view .LVU1365
 3553 02a6 0492     		str	r2, [sp, #16]
 777:/opt/XMClib/XMC_Peripheral_Library_v2.1.16/XMCLib/src/xmc_usbd.c ****       if(obj->usbd_transfer_mode == XMC_USBD_USE_DMA)
 3554              		.loc 1 777 28 view .LVU1366
 3555 02a8 F601     		lsls	r6, r6, #7
 777:/opt/XMClib/XMC_Peripheral_Library_v2.1.16/XMCLib/src/xmc_usbd.c ****       if(obj->usbd_transfer_mode == XMC_USBD_USE_DMA)
 3556              		.loc 1 777 35 view .LVU1367
 3557 02aa 039A     		ldr	r2, [sp, #12]
 777:/opt/XMClib/XMC_Peripheral_Library_v2.1.16/XMCLib/src/xmc_usbd.c ****       if(obj->usbd_transfer_mode == XMC_USBD_USE_DMA)
 3558              		.loc 1 777 28 view .LVU1368
 3559 02ac F6B2     		uxtb	r6, r6
 777:/opt/XMClib/XMC_Peripheral_Library_v2.1.16/XMCLib/src/xmc_usbd.c ****       if(obj->usbd_transfer_mode == XMC_USBD_USE_DMA)
 3560              		.loc 1 777 35 view .LVU1369
 3561 02ae 1643     		orrs	r6, r6, r2
 775:/opt/XMClib/XMC_Peripheral_Library_v2.1.16/XMCLib/src/xmc_usbd.c ****       ((((uint32_t)((uint32_t)xmc_device.device_register->dtknqr4_fifoemptymsk >> ep->address_u.add
 3562              		.loc 1 775 29 view .LVU1370
 3563 02b0 0E40     		ands	r6, r6, r1
 3564              	.LVL249:
 778:/opt/XMClib/XMC_Peripheral_Library_v2.1.16/XMCLib/src/xmc_usbd.c ****       {
 3565              		.loc 1 778 7 is_stmt 1 view .LVU1371
 778:/opt/XMClib/XMC_Peripheral_Library_v2.1.16/XMCLib/src/xmc_usbd.c ****       {
 3566              		.loc 1 778 13 is_stmt 0 view .LVU1372
 3567 02b2 98F80D10 		ldrb	r1, [r8, #13]	@ zero_extendqisi2
 3568              	.LVL250:
 778:/opt/XMClib/XMC_Peripheral_Library_v2.1.16/XMCLib/src/xmc_usbd.c ****       {
 3569              		.loc 1 778 9 view .LVU1373
 3570 02b6 C1B9     		cbnz	r1, .L223
 780:/opt/XMClib/XMC_Peripheral_Library_v2.1.16/XMCLib/src/xmc_usbd.c ****       }
 3571              		.loc 1 780 9 is_stmt 1 view .LVU1374
 792:/opt/XMClib/XMC_Peripheral_Library_v2.1.16/XMCLib/src/xmc_usbd.c ****       {
 3572              		.loc 1 792 10 is_stmt 0 view .LVU1375
 3573 02b8 F707     		lsls	r7, r6, #31
 780:/opt/XMClib/XMC_Peripheral_Library_v2.1.16/XMCLib/src/xmc_usbd.c ****       }
 3574              		.loc 1 780 63 view .LVU1376
 3575 02ba 1969     		ldr	r1, [r3, #16]
 3576              	.LVL251:
 782:/opt/XMClib/XMC_Peripheral_Library_v2.1.16/XMCLib/src/xmc_usbd.c ****       {
 3577              		.loc 1 782 7 is_stmt 1 view .LVU1377
 792:/opt/XMClib/XMC_Peripheral_Library_v2.1.16/XMCLib/src/xmc_usbd.c ****       {
 3578              		.loc 1 792 7 view .LVU1378
 792:/opt/XMClib/XMC_Peripheral_Library_v2.1.16/XMCLib/src/xmc_usbd.c ****       {
 3579              		.loc 1 792 10 is_stmt 0 view .LVU1379
 3580 02bc 2CD5     		bpl	.L225
 797:/opt/XMClib/XMC_Peripheral_Library_v2.1.16/XMCLib/src/xmc_usbd.c ****           {
 3581              		.loc 1 797 11 is_stmt 1 view .LVU1380
 797:/opt/XMClib/XMC_Peripheral_Library_v2.1.16/XMCLib/src/xmc_usbd.c ****           {
 3582              		.loc 1 797 14 is_stmt 0 view .LVU1381
 3583 02be 31F06043 		bics	r3, r1, #-536870912
 3584 02c2 07D1     		bne	.L231
 3585              	.LBB190:
 799:/opt/XMClib/XMC_Peripheral_Library_v2.1.16/XMCLib/src/xmc_usbd.c ****             ep->xferCount += Bytes;
 3586              		.loc 1 799 13 is_stmt 1 view .LVU1382
 799:/opt/XMClib/XMC_Peripheral_Library_v2.1.16/XMCLib/src/xmc_usbd.c ****             ep->xferCount += Bytes;
 3587              		.loc 1 799 32 is_stmt 0 view .LVU1383
 3588 02c4 049A     		ldr	r2, [sp, #16]
 799:/opt/XMClib/XMC_Peripheral_Library_v2.1.16/XMCLib/src/xmc_usbd.c ****             ep->xferCount += Bytes;
 3589              		.loc 1 799 22 view .LVU1384
 3590 02c6 D2E90A31 		ldrd	r3, r1, [r2, #40]
 3591 02ca 591A     		subs	r1, r3, r1
 3592              	.LVL252:
 800:/opt/XMClib/XMC_Peripheral_Library_v2.1.16/XMCLib/src/xmc_usbd.c ****             ep->xferBuffer += Bytes;
 3593              		.loc 1 800 13 is_stmt 1 view .LVU1385
 801:/opt/XMClib/XMC_Peripheral_Library_v2.1.16/XMCLib/src/xmc_usbd.c ****           }
 3594              		.loc 1 801 13 view .LVU1386
 800:/opt/XMClib/XMC_Peripheral_Library_v2.1.16/XMCLib/src/xmc_usbd.c ****             ep->xferBuffer += Bytes;
 3595              		.loc 1 800 27 is_stmt 0 view .LVU1387
 3596 02cc D362     		str	r3, [r2, #44]
 801:/opt/XMClib/XMC_Peripheral_Library_v2.1.16/XMCLib/src/xmc_usbd.c ****           }
 3597              		.loc 1 801 28 view .LVU1388
 3598 02ce 536A     		ldr	r3, [r2, #36]
 3599 02d0 0B44     		add	r3, r3, r1
 3600 02d2 5362     		str	r3, [r2, #36]
 3601              	.LVL253:
 3602              	.L231:
 801:/opt/XMClib/XMC_Peripheral_Library_v2.1.16/XMCLib/src/xmc_usbd.c ****           }
 3603              		.loc 1 801 28 view .LVU1389
 3604              	.LBE190:
 804:/opt/XMClib/XMC_Peripheral_Library_v2.1.16/XMCLib/src/xmc_usbd.c ****         {
 3605              		.loc 1 804 9 is_stmt 1 view .LVU1390
 804:/opt/XMClib/XMC_Peripheral_Library_v2.1.16/XMCLib/src/xmc_usbd.c ****         {
 3606              		.loc 1 804 30 is_stmt 0 view .LVU1391
 3607 02d4 0AFB0041 		mla	r1, r10, r0, r4
 804:/opt/XMClib/XMC_Peripheral_Library_v2.1.16/XMCLib/src/xmc_usbd.c ****         {
 3608              		.loc 1 804 12 view .LVU1392
 3609 02d8 8A6A     		ldr	r2, [r1, #40]
 3610 02da 0B6B     		ldr	r3, [r1, #48]
 3611 02dc 9A42     		cmp	r2, r3
 3612 02de 14D1     		bne	.L232
 806:/opt/XMClib/XMC_Peripheral_Library_v2.1.16/XMCLib/src/xmc_usbd.c ****           if(obj->usbd_transfer_mode == XMC_USBD_USE_FIFO)
 3613              		.loc 1 806 11 is_stmt 1 view .LVU1393
 806:/opt/XMClib/XMC_Peripheral_Library_v2.1.16/XMCLib/src/xmc_usbd.c ****           if(obj->usbd_transfer_mode == XMC_USBD_USE_FIFO)
 3614              		.loc 1 806 23 is_stmt 0 view .LVU1394
 3615 02e0 4B68     		ldr	r3, [r1, #4]
 3616 02e2 6FF3C303 		bfc	r3, #3, #1
 3617 02e6 4B60     		str	r3, [r1, #4]
 807:/opt/XMClib/XMC_Peripheral_Library_v2.1.16/XMCLib/src/xmc_usbd.c ****           {
 3618              		.loc 1 807 11 is_stmt 1 view .LVU1395
 3619 02e8 E0E0     		b	.L233
 3620              	.L223:
 782:/opt/XMClib/XMC_Peripheral_Library_v2.1.16/XMCLib/src/xmc_usbd.c ****       {
 3621              		.loc 1 782 7 view .LVU1396
 782:/opt/XMClib/XMC_Peripheral_Library_v2.1.16/XMCLib/src/xmc_usbd.c ****       {
 3622              		.loc 1 782 9 is_stmt 0 view .LVU1397
 3623 02ea 0129     		cmp	r1, #1
 3624 02ec 02D1     		bne	.L226
 784:/opt/XMClib/XMC_Peripheral_Library_v2.1.16/XMCLib/src/xmc_usbd.c ****         {
 3625              		.loc 1 784 9 is_stmt 1 view .LVU1398
 784:/opt/XMClib/XMC_Peripheral_Library_v2.1.16/XMCLib/src/xmc_usbd.c ****         {
 3626              		.loc 1 784 12 is_stmt 0 view .LVU1399
 3627 02ee 3206     		lsls	r2, r6, #24
 3628 02f0 00F1E680 		bmi	.L324
 3629              	.LVL254:
 3630              	.L226:
 792:/opt/XMClib/XMC_Peripheral_Library_v2.1.16/XMCLib/src/xmc_usbd.c ****       {
 3631              		.loc 1 792 7 is_stmt 1 view .LVU1400
 792:/opt/XMClib/XMC_Peripheral_Library_v2.1.16/XMCLib/src/xmc_usbd.c ****       {
 3632              		.loc 1 792 10 is_stmt 0 view .LVU1401
 3633 02f4 F207     		lsls	r2, r6, #31
 3634 02f6 0FD5     		bpl	.L225
 804:/opt/XMClib/XMC_Peripheral_Library_v2.1.16/XMCLib/src/xmc_usbd.c ****         {
 3635              		.loc 1 804 9 is_stmt 1 view .LVU1402
 804:/opt/XMClib/XMC_Peripheral_Library_v2.1.16/XMCLib/src/xmc_usbd.c ****         {
 3636              		.loc 1 804 15 is_stmt 0 view .LVU1403
 3637 02f8 0AFB004C 		mla	ip, r10, r0, r4
 804:/opt/XMClib/XMC_Peripheral_Library_v2.1.16/XMCLib/src/xmc_usbd.c ****         {
 3638              		.loc 1 804 12 view .LVU1404
 3639 02fc DCF83020 		ldr	r2, [ip, #48]
 3640 0300 DCF82830 		ldr	r3, [ip, #40]
 3641 0304 9A42     		cmp	r2, r3
 3642 0306 00F0C180 		beq	.L325
 3643              	.L232:
 818:/opt/XMClib/XMC_Peripheral_Library_v2.1.16/XMCLib/src/xmc_usbd.c ****         }
 3644              		.loc 1 818 11 is_stmt 1 view .LVU1405
 3645 030a 0AFB0040 		mla	r0, r10, r0, r4
 3646 030e FFF7FEFF 		bl	XMC_USBD_lStartWriteXfer
 3647              	.LVL255:
 3648              	.LBB191:
 3649              	.LBB192:
1023:/opt/XMClib/XMC_Peripheral_Library_v2.1.16/XMCLib/src/xmc_usbd.c **** }
 3650              		.loc 1 1023 34 is_stmt 0 view .LVU1406
 3651 0312 019B     		ldr	r3, [sp, #4]
 3652 0314 54F82330 		ldr	r3, [r4, r3, lsl #2]
 3653              	.L225:
 3654              	.LBE192:
 3655              	.LBE191:
 823:/opt/XMClib/XMC_Peripheral_Library_v2.1.16/XMCLib/src/xmc_usbd.c ****     }
 3656              		.loc 1 823 7 is_stmt 1 view .LVU1407
 3657              	.LVL256:
 3658              	.LBB195:
 3659              	.LBI191:
1019:/opt/XMClib/XMC_Peripheral_Library_v2.1.16/XMCLib/src/xmc_usbd.c **** {
 3660              		.loc 1 1019 6 view .LVU1408
 3661              	.LBB193:
1021:/opt/XMClib/XMC_Peripheral_Library_v2.1.16/XMCLib/src/xmc_usbd.c ****   clear.d32 = event;
 3662              		.loc 1 1021 3 view .LVU1409
1022:/opt/XMClib/XMC_Peripheral_Library_v2.1.16/XMCLib/src/xmc_usbd.c ****   xmc_device.endpoint_in_register[ep_num]->diepint = clear.d32;
 3663              		.loc 1 1022 3 view .LVU1410
1023:/opt/XMClib/XMC_Peripheral_Library_v2.1.16/XMCLib/src/xmc_usbd.c **** }
 3664              		.loc 1 1023 3 view .LVU1411
1023:/opt/XMClib/XMC_Peripheral_Library_v2.1.16/XMCLib/src/xmc_usbd.c **** }
 3665              		.loc 1 1023 52 is_stmt 0 view .LVU1412
 3666 0318 9E60     		str	r6, [r3, #8]
 3667              	.LVL257:
 3668              	.L222:
1023:/opt/XMClib/XMC_Peripheral_Library_v2.1.16/XMCLib/src/xmc_usbd.c **** }
 3669              		.loc 1 1023 52 view .LVU1413
 3670              	.LBE193:
 3671              	.LBE195:
 825:/opt/XMClib/XMC_Peripheral_Library_v2.1.16/XMCLib/src/xmc_usbd.c ****   }
 3672              		.loc 1 825 5 is_stmt 1 view .LVU1414
 825:/opt/XMClib/XMC_Peripheral_Library_v2.1.16/XMCLib/src/xmc_usbd.c ****   }
 3673              		.loc 1 825 11 is_stmt 0 view .LVU1415
 3674 031a 0135     		adds	r5, r5, #1
 3675              	.LVL258:
 825:/opt/XMClib/XMC_Peripheral_Library_v2.1.16/XMCLib/src/xmc_usbd.c ****   }
 3676              		.loc 1 825 11 view .LVU1416
 3677 031c EDB2     		uxtb	r5, r5
 3678              	.LVL259:
 767:/opt/XMClib/XMC_Peripheral_Library_v2.1.16/XMCLib/src/xmc_usbd.c ****   {
 3679              		.loc 1 767 9 is_stmt 1 view .LVU1417
 3680 031e 5BFA05F3 		asrs	r3, fp, r5
 767:/opt/XMClib/XMC_Peripheral_Library_v2.1.16/XMCLib/src/xmc_usbd.c ****   {
 3681              		.loc 1 767 25 is_stmt 0 view .LVU1418
 3682 0322 2846     		mov	r0, r5
 767:/opt/XMClib/XMC_Peripheral_Library_v2.1.16/XMCLib/src/xmc_usbd.c ****   {
 3683              		.loc 1 767 9 view .LVU1419
 3684 0324 AAD1     		bne	.L221
 3685 0326 C146     		mov	r9, r8
 3686              	.LVL260:
 3687              	.L234:
 827:/opt/XMClib/XMC_Peripheral_Library_v2.1.16/XMCLib/src/xmc_usbd.c **** }
 3688              		.loc 1 827 3 is_stmt 1 view .LVU1420
 3689              	.LBB196:
 3690              	.LBI196:
 967:/opt/XMClib/XMC_Peripheral_Library_v2.1.16/XMCLib/src/xmc_usbd.c **** {
 3691              		.loc 1 967 6 view .LVU1421
 3692              	.LBB197:
 969:/opt/XMClib/XMC_Peripheral_Library_v2.1.16/XMCLib/src/xmc_usbd.c ****   clear.d32 = 0U;
 3693              		.loc 1 969 3 view .LVU1422
 970:/opt/XMClib/XMC_Peripheral_Library_v2.1.16/XMCLib/src/xmc_usbd.c ****   switch(event)
 3694              		.loc 1 970 3 view .LVU1423
 971:/opt/XMClib/XMC_Peripheral_Library_v2.1.16/XMCLib/src/xmc_usbd.c ****   {
 3695              		.loc 1 971 3 view .LVU1424
1003:/opt/XMClib/XMC_Peripheral_Library_v2.1.16/XMCLib/src/xmc_usbd.c **** }
 3696              		.loc 1 1003 2 view .LVU1425
1003:/opt/XMClib/XMC_Peripheral_Library_v2.1.16/XMCLib/src/xmc_usbd.c **** }
 3697              		.loc 1 1003 12 is_stmt 0 view .LVU1426
 3698 0328 D4F8A031 		ldr	r3, [r4, #416]
1003:/opt/XMClib/XMC_Peripheral_Library_v2.1.16/XMCLib/src/xmc_usbd.c **** }
 3699              		.loc 1 1003 38 view .LVU1427
 3700 032c 0022     		movs	r2, #0
 3701 032e 5A61     		str	r2, [r3, #20]
 3702              	.LVL261:
1003:/opt/XMClib/XMC_Peripheral_Library_v2.1.16/XMCLib/src/xmc_usbd.c **** }
 3703              		.loc 1 1003 38 view .LVU1428
 3704              	.LBE197:
 3705              	.LBE196:
 828:/opt/XMClib/XMC_Peripheral_Library_v2.1.16/XMCLib/src/xmc_usbd.c **** 
 3706              		.loc 1 828 1 view .LVU1429
 3707 0330 BEE6     		b	.L220
 3708              	.LVL262:
 3709              	.L317:
 828:/opt/XMClib/XMC_Peripheral_Library_v2.1.16/XMCLib/src/xmc_usbd.c **** 
 3710              		.loc 1 828 1 view .LVU1430
 3711              	.LBE189:
 3712              	.LBE188:
 917:/opt/XMClib/XMC_Peripheral_Library_v2.1.16/XMCLib/src/xmc_usbd.c ****   }
 3713              		.loc 1 917 5 is_stmt 1 view .LVU1431
 3714              	.LBB205:
 3715              	.LBI205:
 621:/opt/XMClib/XMC_Peripheral_Library_v2.1.16/XMCLib/src/xmc_usbd.c **** {
 3716              		.loc 1 621 13 view .LVU1432
 3717              	.LBB206:
 625:/opt/XMClib/XMC_Peripheral_Library_v2.1.16/XMCLib/src/xmc_usbd.c ****   gusbcfg_data_t gusbcfg;
 3718              		.loc 1 625 3 view .LVU1433
 626:/opt/XMClib/XMC_Peripheral_Library_v2.1.16/XMCLib/src/xmc_usbd.c **** 	
 3719              		.loc 1 626 3 view .LVU1434
 628:/opt/XMClib/XMC_Peripheral_Library_v2.1.16/XMCLib/src/xmc_usbd.c ****   epctl.b.mps = 0x00U; /* 64 Byte, this is also automatically set for out ep */
 3720              		.loc 1 628 3 view .LVU1435
 628:/opt/XMClib/XMC_Peripheral_Library_v2.1.16/XMCLib/src/xmc_usbd.c ****   epctl.b.mps = 0x00U; /* 64 Byte, this is also automatically set for out ep */
 3721              		.loc 1 628 44 is_stmt 0 view .LVU1436
 3722 0332 D4F8A811 		ldr	r1, [r4, #424]
 633:/opt/XMClib/XMC_Peripheral_Library_v2.1.16/XMCLib/src/xmc_usbd.c ****   xmc_device.IsPowered = 1U;
 3723              		.loc 1 633 26 view .LVU1437
 3724 0336 94F8FE31 		ldrb	r3, [r4, #510]	@ zero_extendqisi2
 628:/opt/XMClib/XMC_Peripheral_Library_v2.1.16/XMCLib/src/xmc_usbd.c ****   epctl.b.mps = 0x00U; /* 64 Byte, this is also automatically set for out ep */
 3725              		.loc 1 628 48 view .LVU1438
 3726 033a 0A68     		ldr	r2, [r1]
 629:/opt/XMClib/XMC_Peripheral_Library_v2.1.16/XMCLib/src/xmc_usbd.c ****   xmc_device.endpoint_in_register[0U]->diepctl = epctl.d32;
 3727              		.loc 1 629 3 is_stmt 1 view .LVU1439
 633:/opt/XMClib/XMC_Peripheral_Library_v2.1.16/XMCLib/src/xmc_usbd.c ****   xmc_device.IsPowered = 1U;
 3728              		.loc 1 633 26 is_stmt 0 view .LVU1440
 3729 033c 23F00503 		bic	r3, r3, #5
 629:/opt/XMClib/XMC_Peripheral_Library_v2.1.16/XMCLib/src/xmc_usbd.c ****   xmc_device.endpoint_in_register[0U]->diepctl = epctl.d32;
 3730              		.loc 1 629 15 view .LVU1441
 3731 0340 6FF30A02 		bfc	r2, #0, #11
 3732              	.LVL263:
 630:/opt/XMClib/XMC_Peripheral_Library_v2.1.16/XMCLib/src/xmc_usbd.c **** 
 3733              		.loc 1 630 3 is_stmt 1 view .LVU1442
 633:/opt/XMClib/XMC_Peripheral_Library_v2.1.16/XMCLib/src/xmc_usbd.c ****   xmc_device.IsPowered = 1U;
 3734              		.loc 1 633 26 is_stmt 0 view .LVU1443
 3735 0344 43F00503 		orr	r3, r3, #5
 630:/opt/XMClib/XMC_Peripheral_Library_v2.1.16/XMCLib/src/xmc_usbd.c **** 
 3736              		.loc 1 630 48 view .LVU1444
 3737 0348 0A60     		str	r2, [r1]
 633:/opt/XMClib/XMC_Peripheral_Library_v2.1.16/XMCLib/src/xmc_usbd.c ****   xmc_device.IsPowered = 1U;
 3738              		.loc 1 633 3 is_stmt 1 view .LVU1445
 634:/opt/XMClib/XMC_Peripheral_Library_v2.1.16/XMCLib/src/xmc_usbd.c **** 
 3739              		.loc 1 634 3 view .LVU1446
 636:/opt/XMClib/XMC_Peripheral_Library_v2.1.16/XMCLib/src/xmc_usbd.c **** 
 3740              		.loc 1 636 3 is_stmt 0 view .LVU1447
 3741 034a 0220     		movs	r0, #2
 633:/opt/XMClib/XMC_Peripheral_Library_v2.1.16/XMCLib/src/xmc_usbd.c ****   xmc_device.IsPowered = 1U;
 3742              		.loc 1 633 26 view .LVU1448
 3743 034c 84F8FE31 		strb	r3, [r4, #510]
 636:/opt/XMClib/XMC_Peripheral_Library_v2.1.16/XMCLib/src/xmc_usbd.c **** 
 3744              		.loc 1 636 3 is_stmt 1 view .LVU1449
 3745 0350 D4F80032 		ldr	r3, [r4, #512]
 3746 0354 9847     		blx	r3
 3747              	.LVL264:
 639:/opt/XMClib/XMC_Peripheral_Library_v2.1.16/XMCLib/src/xmc_usbd.c ****   gusbcfg.b.usbtrdtim = 9U; /* default value for LS/FS */
 3748              		.loc 1 639 3 view .LVU1450
 639:/opt/XMClib/XMC_Peripheral_Library_v2.1.16/XMCLib/src/xmc_usbd.c ****   gusbcfg.b.usbtrdtim = 9U; /* default value for LS/FS */
 3749              		.loc 1 639 27 is_stmt 0 view .LVU1451
 3750 0356 D4F8A021 		ldr	r2, [r4, #416]
 639:/opt/XMClib/XMC_Peripheral_Library_v2.1.16/XMCLib/src/xmc_usbd.c ****   gusbcfg.b.usbtrdtim = 9U; /* default value for LS/FS */
 3751              		.loc 1 639 43 view .LVU1452
 3752 035a D368     		ldr	r3, [r2, #12]
 640:/opt/XMClib/XMC_Peripheral_Library_v2.1.16/XMCLib/src/xmc_usbd.c ****   xmc_device.global_register->gusbcfg = gusbcfg.d32;
 3753              		.loc 1 640 3 is_stmt 1 view .LVU1453
 640:/opt/XMClib/XMC_Peripheral_Library_v2.1.16/XMCLib/src/xmc_usbd.c ****   xmc_device.global_register->gusbcfg = gusbcfg.d32;
 3754              		.loc 1 640 23 is_stmt 0 view .LVU1454
 3755 035c 0921     		movs	r1, #9
 3756 035e 61F38D23 		bfi	r3, r1, #10, #4
 3757              	.LVL265:
 641:/opt/XMClib/XMC_Peripheral_Library_v2.1.16/XMCLib/src/xmc_usbd.c **** 
 3758              		.loc 1 641 3 is_stmt 1 view .LVU1455
 641:/opt/XMClib/XMC_Peripheral_Library_v2.1.16/XMCLib/src/xmc_usbd.c **** 
 3759              		.loc 1 641 39 is_stmt 0 view .LVU1456
 3760 0362 D360     		str	r3, [r2, #12]
 644:/opt/XMClib/XMC_Peripheral_Library_v2.1.16/XMCLib/src/xmc_usbd.c **** }
 3761              		.loc 1 644 3 is_stmt 1 view .LVU1457
 3762              	.LVL266:
 3763              	.LBB207:
 3764              	.LBI207:
 967:/opt/XMClib/XMC_Peripheral_Library_v2.1.16/XMCLib/src/xmc_usbd.c **** {
 3765              		.loc 1 967 6 view .LVU1458
 3766              	.LBB208:
 969:/opt/XMClib/XMC_Peripheral_Library_v2.1.16/XMCLib/src/xmc_usbd.c ****   clear.d32 = 0U;
 3767              		.loc 1 969 3 view .LVU1459
 970:/opt/XMClib/XMC_Peripheral_Library_v2.1.16/XMCLib/src/xmc_usbd.c ****   switch(event)
 3768              		.loc 1 970 3 view .LVU1460
 971:/opt/XMClib/XMC_Peripheral_Library_v2.1.16/XMCLib/src/xmc_usbd.c ****   {
 3769              		.loc 1 971 3 view .LVU1461
 995:/opt/XMClib/XMC_Peripheral_Library_v2.1.16/XMCLib/src/xmc_usbd.c **** 	  break;
 3770              		.loc 1 995 4 view .LVU1462
 996:/opt/XMClib/XMC_Peripheral_Library_v2.1.16/XMCLib/src/xmc_usbd.c ****     case (XMC_USBD_EVENT_OUTEP):
 3771              		.loc 1 996 4 view .LVU1463
1003:/opt/XMClib/XMC_Peripheral_Library_v2.1.16/XMCLib/src/xmc_usbd.c **** }
 3772              		.loc 1 1003 2 view .LVU1464
1003:/opt/XMClib/XMC_Peripheral_Library_v2.1.16/XMCLib/src/xmc_usbd.c **** }
 3773              		.loc 1 1003 38 is_stmt 0 view .LVU1465
 3774 0364 4FF40053 		mov	r3, #8192
 3775              	.LVL267:
1003:/opt/XMClib/XMC_Peripheral_Library_v2.1.16/XMCLib/src/xmc_usbd.c **** }
 3776              		.loc 1 1003 38 view .LVU1466
 3777 0368 5361     		str	r3, [r2, #20]
 3778              	.LVL268:
1003:/opt/XMClib/XMC_Peripheral_Library_v2.1.16/XMCLib/src/xmc_usbd.c **** }
 3779              		.loc 1 1003 38 view .LVU1467
 3780              	.LBE208:
 3781              	.LBE207:
 645:/opt/XMClib/XMC_Peripheral_Library_v2.1.16/XMCLib/src/xmc_usbd.c **** 
 3782              		.loc 1 645 1 view .LVU1468
 3783 036a 9BE6     		b	.L219
 3784              	.L316:
 3785              	.LBE206:
 3786              	.LBE205:
 913:/opt/XMClib/XMC_Peripheral_Library_v2.1.16/XMCLib/src/xmc_usbd.c ****   }
 3787              		.loc 1 913 5 is_stmt 1 view .LVU1469
 3788              	.LVL269:
 3789              	.LBB209:
 3790              	.LBI209:
 520:/opt/XMClib/XMC_Peripheral_Library_v2.1.16/XMCLib/src/xmc_usbd.c **** {
 3791              		.loc 1 520 13 view .LVU1470
 3792              	.LBB210:
 522:/opt/XMClib/XMC_Peripheral_Library_v2.1.16/XMCLib/src/xmc_usbd.c ****   depctl_data_t epctl;
 3793              		.loc 1 522 3 view .LVU1471
 523:/opt/XMClib/XMC_Peripheral_Library_v2.1.16/XMCLib/src/xmc_usbd.c ****   dctl_data_t dctl;
 3794              		.loc 1 523 3 view .LVU1472
 524:/opt/XMClib/XMC_Peripheral_Library_v2.1.16/XMCLib/src/xmc_usbd.c ****   fifosize_data_t gnptxfsiz;
 3795              		.loc 1 524 3 view .LVU1473
 525:/opt/XMClib/XMC_Peripheral_Library_v2.1.16/XMCLib/src/xmc_usbd.c ****   daint_data_t daint;
 3796              		.loc 1 525 3 view .LVU1474
 526:/opt/XMClib/XMC_Peripheral_Library_v2.1.16/XMCLib/src/xmc_usbd.c ****   dcfg_data_t dcfg;
 3797              		.loc 1 526 3 view .LVU1475
 527:/opt/XMClib/XMC_Peripheral_Library_v2.1.16/XMCLib/src/xmc_usbd.c **** 	
 3798              		.loc 1 527 3 view .LVU1476
 530:/opt/XMClib/XMC_Peripheral_Library_v2.1.16/XMCLib/src/xmc_usbd.c ****   dctl.b.rmtwkupsig = 1U;
 3799              		.loc 1 530 3 view .LVU1477
 530:/opt/XMClib/XMC_Peripheral_Library_v2.1.16/XMCLib/src/xmc_usbd.c ****   dctl.b.rmtwkupsig = 1U;
 3800              		.loc 1 530 24 is_stmt 0 view .LVU1478
 3801 036c D4F8A421 		ldr	r2, [r4, #420]
 3802 0370 7848     		ldr	r0, .L329
 530:/opt/XMClib/XMC_Peripheral_Library_v2.1.16/XMCLib/src/xmc_usbd.c ****   dctl.b.rmtwkupsig = 1U;
 3803              		.loc 1 530 40 view .LVU1479
 3804 0372 5368     		ldr	r3, [r2, #4]
 531:/opt/XMClib/XMC_Peripheral_Library_v2.1.16/XMCLib/src/xmc_usbd.c ****   xmc_device.device_register->dctl = dctl.d32;
 3805              		.loc 1 531 3 is_stmt 1 view .LVU1480
 531:/opt/XMClib/XMC_Peripheral_Library_v2.1.16/XMCLib/src/xmc_usbd.c ****   xmc_device.device_register->dctl = dctl.d32;
 3806              		.loc 1 531 21 is_stmt 0 view .LVU1481
 3807 0374 43F00103 		orr	r3, r3, #1
 3808              	.LVL270:
 532:/opt/XMClib/XMC_Peripheral_Library_v2.1.16/XMCLib/src/xmc_usbd.c **** 
 3809              		.loc 1 532 3 is_stmt 1 view .LVU1482
 532:/opt/XMClib/XMC_Peripheral_Library_v2.1.16/XMCLib/src/xmc_usbd.c **** 
 3810              		.loc 1 532 36 is_stmt 0 view .LVU1483
 3811 0378 5360     		str	r3, [r2, #4]
 535:/opt/XMClib/XMC_Peripheral_Library_v2.1.16/XMCLib/src/xmc_usbd.c ****   {
 3812              		.loc 1 535 3 is_stmt 1 view .LVU1484
 3813              	.LVL271:
 535:/opt/XMClib/XMC_Peripheral_Library_v2.1.16/XMCLib/src/xmc_usbd.c ****   {
 3814              		.loc 1 535 15 view .LVU1485
 3815 037a 00F11C0C 		add	ip, r0, #28
 3816              	.LVL272:
 3817              	.L214:
 537:/opt/XMClib/XMC_Peripheral_Library_v2.1.16/XMCLib/src/xmc_usbd.c **** 		epctl.b.snak = 1U;
 3818              		.loc 1 537 5 view .LVU1486
 537:/opt/XMClib/XMC_Peripheral_Library_v2.1.16/XMCLib/src/xmc_usbd.c **** 		epctl.b.snak = 1U;
 3819              		.loc 1 537 49 is_stmt 0 view .LVU1487
 3820 037e 50F8047B 		ldr	r7, [r0], #4
 537:/opt/XMClib/XMC_Peripheral_Library_v2.1.16/XMCLib/src/xmc_usbd.c **** 		epctl.b.snak = 1U;
 3821              		.loc 1 537 52 view .LVU1488
 3822 0382 3B68     		ldr	r3, [r7]
 3823              	.LVL273:
 539:/opt/XMClib/XMC_Peripheral_Library_v2.1.16/XMCLib/src/xmc_usbd.c **** 		xmc_device.endpoint_out_register[i]->doepctl = epctl.d32;
 3824              		.loc 1 539 17 view .LVU1489
 3825 0384 C3F30F41 		ubfx	r1, r3, #16, #16
 3826 0388 21F40261 		bic	r1, r1, #2080
 538:/opt/XMClib/XMC_Peripheral_Library_v2.1.16/XMCLib/src/xmc_usbd.c **** 		epctl.b.stall = 0U;
 3827              		.loc 1 538 3 is_stmt 1 view .LVU1490
 539:/opt/XMClib/XMC_Peripheral_Library_v2.1.16/XMCLib/src/xmc_usbd.c **** 		xmc_device.endpoint_out_register[i]->doepctl = epctl.d32;
 3828              		.loc 1 539 3 view .LVU1491
 539:/opt/XMClib/XMC_Peripheral_Library_v2.1.16/XMCLib/src/xmc_usbd.c **** 		xmc_device.endpoint_out_register[i]->doepctl = epctl.d32;
 3829              		.loc 1 539 17 is_stmt 0 view .LVU1492
 3830 038c 41F40061 		orr	r1, r1, #2048
 3831 0390 61F31F43 		bfi	r3, r1, #16, #16
 3832              	.LVL274:
 540:/opt/XMClib/XMC_Peripheral_Library_v2.1.16/XMCLib/src/xmc_usbd.c ****   }
 3833              		.loc 1 540 3 is_stmt 1 view .LVU1493
 535:/opt/XMClib/XMC_Peripheral_Library_v2.1.16/XMCLib/src/xmc_usbd.c ****   {
 3834              		.loc 1 535 3 is_stmt 0 view .LVU1494
 3835 0394 8445     		cmp	ip, r0
 540:/opt/XMClib/XMC_Peripheral_Library_v2.1.16/XMCLib/src/xmc_usbd.c ****   }
 3836              		.loc 1 540 48 view .LVU1495
 3837 0396 3B60     		str	r3, [r7]
 535:/opt/XMClib/XMC_Peripheral_Library_v2.1.16/XMCLib/src/xmc_usbd.c ****   {
 3838              		.loc 1 535 45 is_stmt 1 view .LVU1496
 535:/opt/XMClib/XMC_Peripheral_Library_v2.1.16/XMCLib/src/xmc_usbd.c ****   {
 3839              		.loc 1 535 15 view .LVU1497
 535:/opt/XMClib/XMC_Peripheral_Library_v2.1.16/XMCLib/src/xmc_usbd.c ****   {
 3840              		.loc 1 535 3 is_stmt 0 view .LVU1498
 3841 0398 F1D1     		bne	.L214
 545:/opt/XMClib/XMC_Peripheral_Library_v2.1.16/XMCLib/src/xmc_usbd.c ****   /* Calculate the size of the tx fifo for ep 0 */  
 3842              		.loc 1 545 3 is_stmt 1 view .LVU1499
 545:/opt/XMClib/XMC_Peripheral_Library_v2.1.16/XMCLib/src/xmc_usbd.c ****   /* Calculate the size of the tx fifo for ep 0 */  
 3843              		.loc 1 545 13 is_stmt 0 view .LVU1500
 3844 039a D4F8A031 		ldr	r3, [r4, #416]
 3845              	.LVL275:
 554:/opt/XMClib/XMC_Peripheral_Library_v2.1.16/XMCLib/src/xmc_usbd.c ****   }
 3846              		.loc 1 554 48 view .LVU1501
 3847 039e 6E48     		ldr	r0, .L329+4
 3848 03a0 6E49     		ldr	r1, .L329+8
 550:/opt/XMClib/XMC_Peripheral_Library_v2.1.16/XMCLib/src/xmc_usbd.c ****   /* calculate the size for the rest */
 3849              		.loc 1 550 41 view .LVU1502
 3850 03a2 DFF8C0B1 		ldr	fp, .L329+16
 554:/opt/XMClib/XMC_Peripheral_Library_v2.1.16/XMCLib/src/xmc_usbd.c ****   }
 3851              		.loc 1 554 48 view .LVU1503
 3852 03a6 DFF8C081 		ldr	r8, .L329+20
 3853 03aa DFF8C0E1 		ldr	lr, .L329+24
 3854 03ae DFF8C0C1 		ldr	ip, .L329+28
 3855 03b2 6B4F     		ldr	r7, .L329+12
 545:/opt/XMClib/XMC_Peripheral_Library_v2.1.16/XMCLib/src/xmc_usbd.c ****   /* Calculate the size of the tx fifo for ep 0 */  
 3856              		.loc 1 545 39 view .LVU1504
 3857 03b4 4FF0400A 		mov	r10, #64
 3858 03b8 C3F824A0 		str	r10, [r3, #36]
 547:/opt/XMClib/XMC_Peripheral_Library_v2.1.16/XMCLib/src/xmc_usbd.c ****   gnptxfsiz.b.depth = 16U;
 3859              		.loc 1 547 3 is_stmt 1 view .LVU1505
 548:/opt/XMClib/XMC_Peripheral_Library_v2.1.16/XMCLib/src/xmc_usbd.c ****   gnptxfsiz.b.startaddr = 64U;
 3860              		.loc 1 548 3 view .LVU1506
 549:/opt/XMClib/XMC_Peripheral_Library_v2.1.16/XMCLib/src/xmc_usbd.c ****   xmc_device.global_register->gnptxfsiz = gnptxfsiz.d32;
 3861              		.loc 1 549 3 view .LVU1507
 550:/opt/XMClib/XMC_Peripheral_Library_v2.1.16/XMCLib/src/xmc_usbd.c ****   /* calculate the size for the rest */
 3862              		.loc 1 550 3 view .LVU1508
 550:/opt/XMClib/XMC_Peripheral_Library_v2.1.16/XMCLib/src/xmc_usbd.c ****   /* calculate the size for the rest */
 3863              		.loc 1 550 41 is_stmt 0 view .LVU1509
 3864 03bc C3F828B0 		str	fp, [r3, #40]
 552:/opt/XMClib/XMC_Peripheral_Library_v2.1.16/XMCLib/src/xmc_usbd.c ****   {
 3865              		.loc 1 552 3 is_stmt 1 view .LVU1510
 3866              	.LVL276:
 552:/opt/XMClib/XMC_Peripheral_Library_v2.1.16/XMCLib/src/xmc_usbd.c ****   {
 3867              		.loc 1 552 15 view .LVU1511
 554:/opt/XMClib/XMC_Peripheral_Library_v2.1.16/XMCLib/src/xmc_usbd.c ****   }
 3868              		.loc 1 554 5 view .LVU1512
 554:/opt/XMClib/XMC_Peripheral_Library_v2.1.16/XMCLib/src/xmc_usbd.c ****   }
 3869              		.loc 1 554 48 is_stmt 0 view .LVU1513
 3870 03c0 C3F80481 		str	r8, [r3, #260]
 552:/opt/XMClib/XMC_Peripheral_Library_v2.1.16/XMCLib/src/xmc_usbd.c ****   {
 3871              		.loc 1 552 50 is_stmt 1 view .LVU1514
 3872              	.LVL277:
 552:/opt/XMClib/XMC_Peripheral_Library_v2.1.16/XMCLib/src/xmc_usbd.c ****   {
 3873              		.loc 1 552 15 view .LVU1515
 554:/opt/XMClib/XMC_Peripheral_Library_v2.1.16/XMCLib/src/xmc_usbd.c ****   }
 3874              		.loc 1 554 5 view .LVU1516
 554:/opt/XMClib/XMC_Peripheral_Library_v2.1.16/XMCLib/src/xmc_usbd.c ****   }
 3875              		.loc 1 554 48 is_stmt 0 view .LVU1517
 3876 03c4 C3F808E1 		str	lr, [r3, #264]
 552:/opt/XMClib/XMC_Peripheral_Library_v2.1.16/XMCLib/src/xmc_usbd.c ****   {
 3877              		.loc 1 552 50 is_stmt 1 view .LVU1518
 3878              	.LVL278:
 552:/opt/XMClib/XMC_Peripheral_Library_v2.1.16/XMCLib/src/xmc_usbd.c ****   {
 3879              		.loc 1 552 15 view .LVU1519
 554:/opt/XMClib/XMC_Peripheral_Library_v2.1.16/XMCLib/src/xmc_usbd.c ****   }
 3880              		.loc 1 554 5 view .LVU1520
 554:/opt/XMClib/XMC_Peripheral_Library_v2.1.16/XMCLib/src/xmc_usbd.c ****   }
 3881              		.loc 1 554 48 is_stmt 0 view .LVU1521
 3882 03c8 C3F80CC1 		str	ip, [r3, #268]
 552:/opt/XMClib/XMC_Peripheral_Library_v2.1.16/XMCLib/src/xmc_usbd.c ****   {
 3883              		.loc 1 552 50 is_stmt 1 view .LVU1522
 3884              	.LVL279:
 552:/opt/XMClib/XMC_Peripheral_Library_v2.1.16/XMCLib/src/xmc_usbd.c ****   {
 3885              		.loc 1 552 15 view .LVU1523
 554:/opt/XMClib/XMC_Peripheral_Library_v2.1.16/XMCLib/src/xmc_usbd.c ****   }
 3886              		.loc 1 554 5 view .LVU1524
 554:/opt/XMClib/XMC_Peripheral_Library_v2.1.16/XMCLib/src/xmc_usbd.c ****   }
 3887              		.loc 1 554 48 is_stmt 0 view .LVU1525
 3888 03cc C3F81071 		str	r7, [r3, #272]
 552:/opt/XMClib/XMC_Peripheral_Library_v2.1.16/XMCLib/src/xmc_usbd.c ****   {
 3889              		.loc 1 552 50 is_stmt 1 view .LVU1526
 3890              	.LVL280:
 552:/opt/XMClib/XMC_Peripheral_Library_v2.1.16/XMCLib/src/xmc_usbd.c ****   {
 3891              		.loc 1 552 15 view .LVU1527
 554:/opt/XMClib/XMC_Peripheral_Library_v2.1.16/XMCLib/src/xmc_usbd.c ****   }
 3892              		.loc 1 554 5 view .LVU1528
 554:/opt/XMClib/XMC_Peripheral_Library_v2.1.16/XMCLib/src/xmc_usbd.c ****   }
 3893              		.loc 1 554 48 is_stmt 0 view .LVU1529
 3894 03d0 C3F81401 		str	r0, [r3, #276]
 552:/opt/XMClib/XMC_Peripheral_Library_v2.1.16/XMCLib/src/xmc_usbd.c ****   {
 3895              		.loc 1 552 50 is_stmt 1 view .LVU1530
 3896              	.LVL281:
 552:/opt/XMClib/XMC_Peripheral_Library_v2.1.16/XMCLib/src/xmc_usbd.c ****   {
 3897              		.loc 1 552 15 view .LVU1531
 554:/opt/XMClib/XMC_Peripheral_Library_v2.1.16/XMCLib/src/xmc_usbd.c ****   }
 3898              		.loc 1 554 5 view .LVU1532
 554:/opt/XMClib/XMC_Peripheral_Library_v2.1.16/XMCLib/src/xmc_usbd.c ****   }
 3899              		.loc 1 554 48 is_stmt 0 view .LVU1533
 3900 03d4 C3F81811 		str	r1, [r3, #280]
 552:/opt/XMClib/XMC_Peripheral_Library_v2.1.16/XMCLib/src/xmc_usbd.c ****   {
 3901              		.loc 1 552 50 is_stmt 1 view .LVU1534
 3902              	.LVL282:
 552:/opt/XMClib/XMC_Peripheral_Library_v2.1.16/XMCLib/src/xmc_usbd.c ****   {
 3903              		.loc 1 552 15 view .LVU1535
 558:/opt/XMClib/XMC_Peripheral_Library_v2.1.16/XMCLib/src/xmc_usbd.c ****   XMC_USBD_lFlushTXFifo(0x0U);
 3904              		.loc 1 558 3 view .LVU1536
 3905              	.LBB211:
 3906              	.LBI211:
 302:/opt/XMClib/XMC_Peripheral_Library_v2.1.16/XMCLib/src/xmc_usbd.c **** {
 3907              		.loc 1 302 13 view .LVU1537
 3908              	.LBB212:
 304:/opt/XMClib/XMC_Peripheral_Library_v2.1.16/XMCLib/src/xmc_usbd.c ****   uint32_t count;
 3909              		.loc 1 304 3 view .LVU1538
 305:/opt/XMClib/XMC_Peripheral_Library_v2.1.16/XMCLib/src/xmc_usbd.c ****   data.d32 = 0U;
 3910              		.loc 1 305 3 view .LVU1539
 306:/opt/XMClib/XMC_Peripheral_Library_v2.1.16/XMCLib/src/xmc_usbd.c ****   /*flush fifo */
 3911              		.loc 1 306 3 view .LVU1540
 306:/opt/XMClib/XMC_Peripheral_Library_v2.1.16/XMCLib/src/xmc_usbd.c ****   /*flush fifo */
 3912              		.loc 1 306 12 is_stmt 0 view .LVU1541
 3913 03d8 0021     		movs	r1, #0
 3914 03da 0B91     		str	r1, [sp, #44]
 308:/opt/XMClib/XMC_Peripheral_Library_v2.1.16/XMCLib/src/xmc_usbd.c ****   data.b.txfnum = fifo_num;
 3915              		.loc 1 308 3 is_stmt 1 view .LVU1542
 308:/opt/XMClib/XMC_Peripheral_Library_v2.1.16/XMCLib/src/xmc_usbd.c ****   data.b.txfnum = fifo_num;
 3916              		.loc 1 308 18 is_stmt 0 view .LVU1543
 3917 03dc 0B99     		ldr	r1, [sp, #44]
 3918 03de 41F02001 		orr	r1, r1, #32
 3919 03e2 0B91     		str	r1, [sp, #44]
 309:/opt/XMClib/XMC_Peripheral_Library_v2.1.16/XMCLib/src/xmc_usbd.c ****   xmc_device.global_register->grstctl = data.d32;
 3920              		.loc 1 309 3 is_stmt 1 view .LVU1544
 309:/opt/XMClib/XMC_Peripheral_Library_v2.1.16/XMCLib/src/xmc_usbd.c ****   xmc_device.global_register->grstctl = data.d32;
 3921              		.loc 1 309 17 is_stmt 0 view .LVU1545
 3922 03e4 0B99     		ldr	r1, [sp, #44]
 3923 03e6 1020     		movs	r0, #16
 3924 03e8 60F38A11 		bfi	r1, r0, #6, #5
 3925 03ec 0B91     		str	r1, [sp, #44]
 310:/opt/XMClib/XMC_Peripheral_Library_v2.1.16/XMCLib/src/xmc_usbd.c ****   for (count = 0U;count < 1000U; count++){}
 3926              		.loc 1 310 3 is_stmt 1 view .LVU1546
 310:/opt/XMClib/XMC_Peripheral_Library_v2.1.16/XMCLib/src/xmc_usbd.c ****   for (count = 0U;count < 1000U; count++){}
 3927              		.loc 1 310 45 is_stmt 0 view .LVU1547
 3928 03ee 0B99     		ldr	r1, [sp, #44]
 310:/opt/XMClib/XMC_Peripheral_Library_v2.1.16/XMCLib/src/xmc_usbd.c ****   for (count = 0U;count < 1000U; count++){}
 3929              		.loc 1 310 39 view .LVU1548
 3930 03f0 1961     		str	r1, [r3, #16]
 311:/opt/XMClib/XMC_Peripheral_Library_v2.1.16/XMCLib/src/xmc_usbd.c ****   do
 3931              		.loc 1 311 3 is_stmt 1 view .LVU1549
 311:/opt/XMClib/XMC_Peripheral_Library_v2.1.16/XMCLib/src/xmc_usbd.c ****   do
 3932              		.loc 1 311 19 view .LVU1550
 3933              	.L215:
 312:/opt/XMClib/XMC_Peripheral_Library_v2.1.16/XMCLib/src/xmc_usbd.c ****   {
 3934              		.loc 1 312 3 view .LVU1551
 314:/opt/XMClib/XMC_Peripheral_Library_v2.1.16/XMCLib/src/xmc_usbd.c ****   } while (data.b.txfflsh);
 3935              		.loc 1 314 4 view .LVU1552
 314:/opt/XMClib/XMC_Peripheral_Library_v2.1.16/XMCLib/src/xmc_usbd.c ****   } while (data.b.txfflsh);
 3936              		.loc 1 314 41 is_stmt 0 view .LVU1553
 3937 03f2 1969     		ldr	r1, [r3, #16]
 314:/opt/XMClib/XMC_Peripheral_Library_v2.1.16/XMCLib/src/xmc_usbd.c ****   } while (data.b.txfflsh);
 3938              		.loc 1 314 13 view .LVU1554
 3939 03f4 0B91     		str	r1, [sp, #44]
 315:/opt/XMClib/XMC_Peripheral_Library_v2.1.16/XMCLib/src/xmc_usbd.c ****     count = 0U;
 3940              		.loc 1 315 11 is_stmt 1 view .LVU1555
 315:/opt/XMClib/XMC_Peripheral_Library_v2.1.16/XMCLib/src/xmc_usbd.c ****     count = 0U;
 3941              		.loc 1 315 18 is_stmt 0 view .LVU1556
 3942 03f6 0B99     		ldr	r1, [sp, #44]
 315:/opt/XMClib/XMC_Peripheral_Library_v2.1.16/XMCLib/src/xmc_usbd.c ****     count = 0U;
 3943              		.loc 1 315 3 view .LVU1557
 3944 03f8 8F06     		lsls	r7, r1, #26
 315:/opt/XMClib/XMC_Peripheral_Library_v2.1.16/XMCLib/src/xmc_usbd.c ****     count = 0U;
 3945              		.loc 1 315 18 view .LVU1558
 3946 03fa C1F34010 		ubfx	r0, r1, #5, #1
 315:/opt/XMClib/XMC_Peripheral_Library_v2.1.16/XMCLib/src/xmc_usbd.c ****     count = 0U;
 3947              		.loc 1 315 3 view .LVU1559
 3948 03fe F8D4     		bmi	.L215
 320:/opt/XMClib/XMC_Peripheral_Library_v2.1.16/XMCLib/src/xmc_usbd.c **** }
 3949              		.loc 1 320 3 is_stmt 1 view .LVU1560
 317:/opt/XMClib/XMC_Peripheral_Library_v2.1.16/XMCLib/src/xmc_usbd.c ****   {
 3950              		.loc 1 317 9 view .LVU1561
 3951              	.LVL283:
 317:/opt/XMClib/XMC_Peripheral_Library_v2.1.16/XMCLib/src/xmc_usbd.c ****   {
 3952              		.loc 1 317 9 is_stmt 0 view .LVU1562
 3953              	.LBE212:
 3954              	.LBE211:
 559:/opt/XMClib/XMC_Peripheral_Library_v2.1.16/XMCLib/src/xmc_usbd.c ****   XMC_USBD_lFlushRXFifo();
 3955              		.loc 1 559 3 is_stmt 1 view .LVU1563
 3956              	.LBB213:
 3957              	.LBI213:
 302:/opt/XMClib/XMC_Peripheral_Library_v2.1.16/XMCLib/src/xmc_usbd.c **** {
 3958              		.loc 1 302 13 view .LVU1564
 3959              	.LBB214:
 304:/opt/XMClib/XMC_Peripheral_Library_v2.1.16/XMCLib/src/xmc_usbd.c ****   uint32_t count;
 3960              		.loc 1 304 3 view .LVU1565
 305:/opt/XMClib/XMC_Peripheral_Library_v2.1.16/XMCLib/src/xmc_usbd.c ****   data.d32 = 0U;
 3961              		.loc 1 305 3 view .LVU1566
 306:/opt/XMClib/XMC_Peripheral_Library_v2.1.16/XMCLib/src/xmc_usbd.c ****   /*flush fifo */
 3962              		.loc 1 306 3 view .LVU1567
 306:/opt/XMClib/XMC_Peripheral_Library_v2.1.16/XMCLib/src/xmc_usbd.c ****   /*flush fifo */
 3963              		.loc 1 306 12 is_stmt 0 view .LVU1568
 3964 0400 0A90     		str	r0, [sp, #40]
 308:/opt/XMClib/XMC_Peripheral_Library_v2.1.16/XMCLib/src/xmc_usbd.c ****   data.b.txfnum = fifo_num;
 3965              		.loc 1 308 3 is_stmt 1 view .LVU1569
 308:/opt/XMClib/XMC_Peripheral_Library_v2.1.16/XMCLib/src/xmc_usbd.c ****   data.b.txfnum = fifo_num;
 3966              		.loc 1 308 18 is_stmt 0 view .LVU1570
 3967 0402 0A99     		ldr	r1, [sp, #40]
 3968 0404 41F02001 		orr	r1, r1, #32
 3969 0408 0A91     		str	r1, [sp, #40]
 309:/opt/XMClib/XMC_Peripheral_Library_v2.1.16/XMCLib/src/xmc_usbd.c ****   xmc_device.global_register->grstctl = data.d32;
 3970              		.loc 1 309 3 is_stmt 1 view .LVU1571
 309:/opt/XMClib/XMC_Peripheral_Library_v2.1.16/XMCLib/src/xmc_usbd.c ****   xmc_device.global_register->grstctl = data.d32;
 3971              		.loc 1 309 17 is_stmt 0 view .LVU1572
 3972 040a 0A99     		ldr	r1, [sp, #40]
 3973 040c 60F38A11 		bfi	r1, r0, #6, #5
 3974 0410 0A91     		str	r1, [sp, #40]
 310:/opt/XMClib/XMC_Peripheral_Library_v2.1.16/XMCLib/src/xmc_usbd.c ****   for (count = 0U;count < 1000U; count++){}
 3975              		.loc 1 310 3 is_stmt 1 view .LVU1573
 310:/opt/XMClib/XMC_Peripheral_Library_v2.1.16/XMCLib/src/xmc_usbd.c ****   for (count = 0U;count < 1000U; count++){}
 3976              		.loc 1 310 45 is_stmt 0 view .LVU1574
 3977 0412 0A99     		ldr	r1, [sp, #40]
 310:/opt/XMClib/XMC_Peripheral_Library_v2.1.16/XMCLib/src/xmc_usbd.c ****   for (count = 0U;count < 1000U; count++){}
 3978              		.loc 1 310 39 view .LVU1575
 3979 0414 1961     		str	r1, [r3, #16]
 311:/opt/XMClib/XMC_Peripheral_Library_v2.1.16/XMCLib/src/xmc_usbd.c ****   do
 3980              		.loc 1 311 3 is_stmt 1 view .LVU1576
 311:/opt/XMClib/XMC_Peripheral_Library_v2.1.16/XMCLib/src/xmc_usbd.c ****   do
 3981              		.loc 1 311 19 view .LVU1577
 3982              	.L216:
 312:/opt/XMClib/XMC_Peripheral_Library_v2.1.16/XMCLib/src/xmc_usbd.c ****   {
 3983              		.loc 1 312 3 view .LVU1578
 314:/opt/XMClib/XMC_Peripheral_Library_v2.1.16/XMCLib/src/xmc_usbd.c ****   } while (data.b.txfflsh);
 3984              		.loc 1 314 4 view .LVU1579
 314:/opt/XMClib/XMC_Peripheral_Library_v2.1.16/XMCLib/src/xmc_usbd.c ****   } while (data.b.txfflsh);
 3985              		.loc 1 314 41 is_stmt 0 view .LVU1580
 3986 0416 1969     		ldr	r1, [r3, #16]
 314:/opt/XMClib/XMC_Peripheral_Library_v2.1.16/XMCLib/src/xmc_usbd.c ****   } while (data.b.txfflsh);
 3987              		.loc 1 314 13 view .LVU1581
 3988 0418 0A91     		str	r1, [sp, #40]
 315:/opt/XMClib/XMC_Peripheral_Library_v2.1.16/XMCLib/src/xmc_usbd.c ****     count = 0U;
 3989              		.loc 1 315 11 is_stmt 1 view .LVU1582
 315:/opt/XMClib/XMC_Peripheral_Library_v2.1.16/XMCLib/src/xmc_usbd.c ****     count = 0U;
 3990              		.loc 1 315 18 is_stmt 0 view .LVU1583
 3991 041a 0A99     		ldr	r1, [sp, #40]
 3992 041c C1F34010 		ubfx	r0, r1, #5, #1
 315:/opt/XMClib/XMC_Peripheral_Library_v2.1.16/XMCLib/src/xmc_usbd.c ****     count = 0U;
 3993              		.loc 1 315 3 view .LVU1584
 3994 0420 8906     		lsls	r1, r1, #26
 3995 0422 F8D4     		bmi	.L216
 320:/opt/XMClib/XMC_Peripheral_Library_v2.1.16/XMCLib/src/xmc_usbd.c **** }
 3996              		.loc 1 320 3 is_stmt 1 view .LVU1585
 317:/opt/XMClib/XMC_Peripheral_Library_v2.1.16/XMCLib/src/xmc_usbd.c ****   {
 3997              		.loc 1 317 9 view .LVU1586
 3998              	.LVL284:
 317:/opt/XMClib/XMC_Peripheral_Library_v2.1.16/XMCLib/src/xmc_usbd.c ****   {
 3999              		.loc 1 317 9 is_stmt 0 view .LVU1587
 4000              	.LBE214:
 4001              	.LBE213:
 560:/opt/XMClib/XMC_Peripheral_Library_v2.1.16/XMCLib/src/xmc_usbd.c ****   /* Flush learning queue not needed due to fifo config */
 4002              		.loc 1 560 3 is_stmt 1 view .LVU1588
 4003              	.LBB215:
 4004              	.LBI215:
 326:/opt/XMClib/XMC_Peripheral_Library_v2.1.16/XMCLib/src/xmc_usbd.c **** {
 4005              		.loc 1 326 13 view .LVU1589
 4006              	.LBB216:
 328:/opt/XMClib/XMC_Peripheral_Library_v2.1.16/XMCLib/src/xmc_usbd.c ****   uint32_t count;
 4007              		.loc 1 328 3 view .LVU1590
 329:/opt/XMClib/XMC_Peripheral_Library_v2.1.16/XMCLib/src/xmc_usbd.c **** 	
 4008              		.loc 1 329 3 view .LVU1591
 331:/opt/XMClib/XMC_Peripheral_Library_v2.1.16/XMCLib/src/xmc_usbd.c ****   data.b.rxfflsh = 1U;
 4009              		.loc 1 331 2 view .LVU1592
 331:/opt/XMClib/XMC_Peripheral_Library_v2.1.16/XMCLib/src/xmc_usbd.c ****   data.b.rxfflsh = 1U;
 4010              		.loc 1 331 11 is_stmt 0 view .LVU1593
 4011 0424 0990     		str	r0, [sp, #36]
 332:/opt/XMClib/XMC_Peripheral_Library_v2.1.16/XMCLib/src/xmc_usbd.c ****   /* flush FIFO */
 4012              		.loc 1 332 3 is_stmt 1 view .LVU1594
 332:/opt/XMClib/XMC_Peripheral_Library_v2.1.16/XMCLib/src/xmc_usbd.c ****   /* flush FIFO */
 4013              		.loc 1 332 18 is_stmt 0 view .LVU1595
 4014 0426 0999     		ldr	r1, [sp, #36]
 4015 0428 41F01001 		orr	r1, r1, #16
 4016 042c 0991     		str	r1, [sp, #36]
 334:/opt/XMClib/XMC_Peripheral_Library_v2.1.16/XMCLib/src/xmc_usbd.c ****   do
 4017              		.loc 1 334 3 is_stmt 1 view .LVU1596
 334:/opt/XMClib/XMC_Peripheral_Library_v2.1.16/XMCLib/src/xmc_usbd.c ****   do
 4018              		.loc 1 334 45 is_stmt 0 view .LVU1597
 4019 042e 0999     		ldr	r1, [sp, #36]
 334:/opt/XMClib/XMC_Peripheral_Library_v2.1.16/XMCLib/src/xmc_usbd.c ****   do
 4020              		.loc 1 334 39 view .LVU1598
 4021 0430 1961     		str	r1, [r3, #16]
 4022              	.L217:
 335:/opt/XMClib/XMC_Peripheral_Library_v2.1.16/XMCLib/src/xmc_usbd.c ****   {
 4023              		.loc 1 335 3 is_stmt 1 view .LVU1599
 337:/opt/XMClib/XMC_Peripheral_Library_v2.1.16/XMCLib/src/xmc_usbd.c ****     data.d32 = xmc_device.global_register->grstctl;
 4024              		.loc 1 337 5 view .LVU1600
 337:/opt/XMClib/XMC_Peripheral_Library_v2.1.16/XMCLib/src/xmc_usbd.c ****     data.d32 = xmc_device.global_register->grstctl;
 4025              		.loc 1 337 22 view .LVU1601
 338:/opt/XMClib/XMC_Peripheral_Library_v2.1.16/XMCLib/src/xmc_usbd.c ****   } while (data.b.rxfflsh);
 4026              		.loc 1 338 5 view .LVU1602
 338:/opt/XMClib/XMC_Peripheral_Library_v2.1.16/XMCLib/src/xmc_usbd.c ****   } while (data.b.rxfflsh);
 4027              		.loc 1 338 42 is_stmt 0 view .LVU1603
 4028 0432 1969     		ldr	r1, [r3, #16]
 338:/opt/XMClib/XMC_Peripheral_Library_v2.1.16/XMCLib/src/xmc_usbd.c ****   } while (data.b.rxfflsh);
 4029              		.loc 1 338 14 view .LVU1604
 4030 0434 0991     		str	r1, [sp, #36]
 339:/opt/XMClib/XMC_Peripheral_Library_v2.1.16/XMCLib/src/xmc_usbd.c ****   count = 0U;
 4031              		.loc 1 339 11 is_stmt 1 view .LVU1605
 339:/opt/XMClib/XMC_Peripheral_Library_v2.1.16/XMCLib/src/xmc_usbd.c ****   count = 0U;
 4032              		.loc 1 339 18 is_stmt 0 view .LVU1606
 4033 0436 0999     		ldr	r1, [sp, #36]
 339:/opt/XMClib/XMC_Peripheral_Library_v2.1.16/XMCLib/src/xmc_usbd.c ****   count = 0U;
 4034              		.loc 1 339 3 view .LVU1607
 4035 0438 CF06     		lsls	r7, r1, #27
 339:/opt/XMClib/XMC_Peripheral_Library_v2.1.16/XMCLib/src/xmc_usbd.c ****   count = 0U;
 4036              		.loc 1 339 18 view .LVU1608
 4037 043a C1F30010 		ubfx	r0, r1, #4, #1
 339:/opt/XMClib/XMC_Peripheral_Library_v2.1.16/XMCLib/src/xmc_usbd.c ****   count = 0U;
 4038              		.loc 1 339 3 view .LVU1609
 4039 043e F8D4     		bmi	.L217
 344:/opt/XMClib/XMC_Peripheral_Library_v2.1.16/XMCLib/src/xmc_usbd.c **** }
 4040              		.loc 1 344 3 is_stmt 1 view .LVU1610
 341:/opt/XMClib/XMC_Peripheral_Library_v2.1.16/XMCLib/src/xmc_usbd.c ****   {
 4041              		.loc 1 341 9 view .LVU1611
 4042              	.LBE216:
 4043              	.LBE215:
 563:/opt/XMClib/XMC_Peripheral_Library_v2.1.16/XMCLib/src/xmc_usbd.c ****   daint.b.inep0 = 1U;
 4044              		.loc 1 563 3 view .LVU1612
 564:/opt/XMClib/XMC_Peripheral_Library_v2.1.16/XMCLib/src/xmc_usbd.c ****   daint.b.outep0 = 1U;
 4045              		.loc 1 564 3 view .LVU1613
 565:/opt/XMClib/XMC_Peripheral_Library_v2.1.16/XMCLib/src/xmc_usbd.c ****   xmc_device.device_register->daintmsk = daint.d32;
 4046              		.loc 1 565 3 view .LVU1614
 566:/opt/XMClib/XMC_Peripheral_Library_v2.1.16/XMCLib/src/xmc_usbd.c **** 
 4047              		.loc 1 566 3 view .LVU1615
 566:/opt/XMClib/XMC_Peripheral_Library_v2.1.16/XMCLib/src/xmc_usbd.c **** 
 4048              		.loc 1 566 40 is_stmt 0 view .LVU1616
 4049 0440 4FF00113 		mov	r3, #65537
 4050 0444 D361     		str	r3, [r2, #28]
 570:/opt/XMClib/XMC_Peripheral_Library_v2.1.16/XMCLib/src/xmc_usbd.c **** 		  	  	  	  	  	  (uint32_t)XMC_USBD_EVENT_OUT_EP_SETUP | (uint32_t)XMC_USBD_EVENT_OUT_EP_AHB_ERRO
 4051              		.loc 1 570 3 is_stmt 1 view .LVU1617
 4052              	.LVL285:
 4053              	.LBB217:
 4054              	.LBI217:
1039:/opt/XMClib/XMC_Peripheral_Library_v2.1.16/XMCLib/src/xmc_usbd.c **** {
 4055              		.loc 1 1039 6 view .LVU1618
 4056              	.LBB218:
1041:/opt/XMClib/XMC_Peripheral_Library_v2.1.16/XMCLib/src/xmc_usbd.c **** 	doepint.d32 = event;
 4057              		.loc 1 1041 2 view .LVU1619
1042:/opt/XMClib/XMC_Peripheral_Library_v2.1.16/XMCLib/src/xmc_usbd.c **** 	xmc_device.device_register->doepmsk |= doepint.d32;
 4058              		.loc 1 1042 2 view .LVU1620
1043:/opt/XMClib/XMC_Peripheral_Library_v2.1.16/XMCLib/src/xmc_usbd.c **** }
 4059              		.loc 1 1043 2 view .LVU1621
1043:/opt/XMClib/XMC_Peripheral_Library_v2.1.16/XMCLib/src/xmc_usbd.c **** }
 4060              		.loc 1 1043 38 is_stmt 0 view .LVU1622
 4061 0446 5369     		ldr	r3, [r2, #20]
 4062 0448 43F00F03 		orr	r3, r3, #15
 4063 044c 5361     		str	r3, [r2, #20]
 4064              	.LVL286:
1043:/opt/XMClib/XMC_Peripheral_Library_v2.1.16/XMCLib/src/xmc_usbd.c **** }
 4065              		.loc 1 1043 38 view .LVU1623
 4066              	.LBE218:
 4067              	.LBE217:
 574:/opt/XMClib/XMC_Peripheral_Library_v2.1.16/XMCLib/src/xmc_usbd.c **** 		  (uint32_t)XMC_USBD_EVENT_IN_EP_AHB_ERROR | (uint32_t)XMC_USBD_EVENT_IN_EP_TIMEOUT));
 4068              		.loc 1 574 3 is_stmt 1 view .LVU1624
 4069              	.LBB219:
 4070              	.LBI219:
1049:/opt/XMClib/XMC_Peripheral_Library_v2.1.16/XMCLib/src/xmc_usbd.c **** {
 4071              		.loc 1 1049 6 view .LVU1625
 4072              	.LBB220:
1051:/opt/XMClib/XMC_Peripheral_Library_v2.1.16/XMCLib/src/xmc_usbd.c **** 	diepint.d32 = event;
 4073              		.loc 1 1051 2 view .LVU1626
1052:/opt/XMClib/XMC_Peripheral_Library_v2.1.16/XMCLib/src/xmc_usbd.c **** 	xmc_device.device_register->diepmsk |= diepint.d32;
 4074              		.loc 1 1052 2 view .LVU1627
1053:/opt/XMClib/XMC_Peripheral_Library_v2.1.16/XMCLib/src/xmc_usbd.c **** }
 4075              		.loc 1 1053 2 view .LVU1628
1053:/opt/XMClib/XMC_Peripheral_Library_v2.1.16/XMCLib/src/xmc_usbd.c **** }
 4076              		.loc 1 1053 38 is_stmt 0 view .LVU1629
 4077 044e 1369     		ldr	r3, [r2, #16]
 4078 0450 43F00F03 		orr	r3, r3, #15
 4079 0454 1361     		str	r3, [r2, #16]
 4080              	.LVL287:
1053:/opt/XMClib/XMC_Peripheral_Library_v2.1.16/XMCLib/src/xmc_usbd.c **** }
 4081              		.loc 1 1053 38 view .LVU1630
 4082              	.LBE220:
 4083              	.LBE219:
 579:/opt/XMClib/XMC_Peripheral_Library_v2.1.16/XMCLib/src/xmc_usbd.c ****   dcfg.b.devaddr = 0U;
 4084              		.loc 1 579 3 is_stmt 1 view .LVU1631
 579:/opt/XMClib/XMC_Peripheral_Library_v2.1.16/XMCLib/src/xmc_usbd.c ****   dcfg.b.devaddr = 0U;
 4085              		.loc 1 579 40 is_stmt 0 view .LVU1632
 4086 0456 1368     		ldr	r3, [r2]
 580:/opt/XMClib/XMC_Peripheral_Library_v2.1.16/XMCLib/src/xmc_usbd.c ****   xmc_device.device_register->dcfg = dcfg.d32;
 4087              		.loc 1 580 3 is_stmt 1 view .LVU1633
 580:/opt/XMClib/XMC_Peripheral_Library_v2.1.16/XMCLib/src/xmc_usbd.c ****   xmc_device.device_register->dcfg = dcfg.d32;
 4088              		.loc 1 580 18 is_stmt 0 view .LVU1634
 4089 0458 60F30A13 		bfi	r3, r0, #4, #7
 4090              	.LVL288:
 581:/opt/XMClib/XMC_Peripheral_Library_v2.1.16/XMCLib/src/xmc_usbd.c **** 
 4091              		.loc 1 581 3 is_stmt 1 view .LVU1635
 581:/opt/XMClib/XMC_Peripheral_Library_v2.1.16/XMCLib/src/xmc_usbd.c **** 
 4092              		.loc 1 581 36 is_stmt 0 view .LVU1636
 4093 045c 1360     		str	r3, [r2]
 583:/opt/XMClib/XMC_Peripheral_Library_v2.1.16/XMCLib/src/xmc_usbd.c ****   {
 4094              		.loc 1 583 3 is_stmt 1 view .LVU1637
 583:/opt/XMClib/XMC_Peripheral_Library_v2.1.16/XMCLib/src/xmc_usbd.c ****   {
 4095              		.loc 1 583 5 is_stmt 0 view .LVU1638
 4096 045e 99F80D30 		ldrb	r3, [r9, #13]	@ zero_extendqisi2
 4097              	.LVL289:
 583:/opt/XMClib/XMC_Peripheral_Library_v2.1.16/XMCLib/src/xmc_usbd.c ****   {
 4098              		.loc 1 583 5 view .LVU1639
 4099 0462 012B     		cmp	r3, #1
 586:/opt/XMClib/XMC_Peripheral_Library_v2.1.16/XMCLib/src/xmc_usbd.c ****   }
 4100              		.loc 1 586 5 is_stmt 1 view .LVU1640
 586:/opt/XMClib/XMC_Peripheral_Library_v2.1.16/XMCLib/src/xmc_usbd.c ****   }
 4101              		.loc 1 586 54 is_stmt 0 view .LVU1641
 4102 0464 08BF     		it	eq
 4103 0466 5063     		streq	r0, [r2, #52]
 589:/opt/XMClib/XMC_Peripheral_Library_v2.1.16/XMCLib/src/xmc_usbd.c ****   xmc_device.ep[0U].inInUse = 0U;
 4104              		.loc 1 589 3 is_stmt 1 view .LVU1642
 589:/opt/XMClib/XMC_Peripheral_Library_v2.1.16/XMCLib/src/xmc_usbd.c ****   xmc_device.ep[0U].inInUse = 0U;
 4105              		.loc 1 589 30 is_stmt 0 view .LVU1643
 4106 0468 6368     		ldr	r3, [r4, #4]
 4107 046a 6FF30413 		bfc	r3, #4, #1
 4108 046e 6360     		str	r3, [r4, #4]
 590:/opt/XMClib/XMC_Peripheral_Library_v2.1.16/XMCLib/src/xmc_usbd.c **** 
 4109              		.loc 1 590 3 is_stmt 1 view .LVU1644
 590:/opt/XMClib/XMC_Peripheral_Library_v2.1.16/XMCLib/src/xmc_usbd.c **** 
 4110              		.loc 1 590 29 is_stmt 0 view .LVU1645
 4111 0470 6368     		ldr	r3, [r4, #4]
 4112 0472 6FF3C303 		bfc	r3, #3, #1
 4113 0476 6360     		str	r3, [r4, #4]
 592:/opt/XMClib/XMC_Peripheral_Library_v2.1.16/XMCLib/src/xmc_usbd.c **** 
 4114              		.loc 1 592 3 is_stmt 1 view .LVU1646
 4115 0478 0420     		movs	r0, #4
 4116 047a D4F80032 		ldr	r3, [r4, #512]
 4117 047e 9847     		blx	r3
 4118              	.LVL290:
 595:/opt/XMClib/XMC_Peripheral_Library_v2.1.16/XMCLib/src/xmc_usbd.c **** }
 4119              		.loc 1 595 3 view .LVU1647
 4120              	.LBB221:
 4121              	.LBI221:
 967:/opt/XMClib/XMC_Peripheral_Library_v2.1.16/XMCLib/src/xmc_usbd.c **** {
 4122              		.loc 1 967 6 view .LVU1648
 4123              	.LBB222:
 969:/opt/XMClib/XMC_Peripheral_Library_v2.1.16/XMCLib/src/xmc_usbd.c ****   clear.d32 = 0U;
 4124              		.loc 1 969 3 view .LVU1649
 970:/opt/XMClib/XMC_Peripheral_Library_v2.1.16/XMCLib/src/xmc_usbd.c ****   switch(event)
 4125              		.loc 1 970 3 view .LVU1650
 971:/opt/XMClib/XMC_Peripheral_Library_v2.1.16/XMCLib/src/xmc_usbd.c ****   {
 4126              		.loc 1 971 3 view .LVU1651
 977:/opt/XMClib/XMC_Peripheral_Library_v2.1.16/XMCLib/src/xmc_usbd.c **** 	  break;
 4127              		.loc 1 977 4 view .LVU1652
 978:/opt/XMClib/XMC_Peripheral_Library_v2.1.16/XMCLib/src/xmc_usbd.c ****     case (XMC_USBD_EVENT_SUSPEND):
 4128              		.loc 1 978 4 view .LVU1653
1003:/opt/XMClib/XMC_Peripheral_Library_v2.1.16/XMCLib/src/xmc_usbd.c **** }
 4129              		.loc 1 1003 2 view .LVU1654
1003:/opt/XMClib/XMC_Peripheral_Library_v2.1.16/XMCLib/src/xmc_usbd.c **** }
 4130              		.loc 1 1003 12 is_stmt 0 view .LVU1655
 4131 0480 D4F8A031 		ldr	r3, [r4, #416]
1003:/opt/XMClib/XMC_Peripheral_Library_v2.1.16/XMCLib/src/xmc_usbd.c **** }
 4132              		.loc 1 1003 38 view .LVU1656
 4133 0484 4FF48052 		mov	r2, #4096
 4134 0488 5A61     		str	r2, [r3, #20]
 4135              	.LVL291:
1003:/opt/XMClib/XMC_Peripheral_Library_v2.1.16/XMCLib/src/xmc_usbd.c **** }
 4136              		.loc 1 1003 38 view .LVU1657
 4137              	.LBE222:
 4138              	.LBE221:
 596:/opt/XMClib/XMC_Peripheral_Library_v2.1.16/XMCLib/src/xmc_usbd.c **** 
 4139              		.loc 1 596 1 view .LVU1658
 4140 048a 08E6     		b	.L213
 4141              	.LVL292:
 4142              	.L325:
 596:/opt/XMClib/XMC_Peripheral_Library_v2.1.16/XMCLib/src/xmc_usbd.c **** 
 4143              		.loc 1 596 1 view .LVU1659
 4144              	.LBE210:
 4145              	.LBE209:
 4146              	.LBB223:
 4147              	.LBB204:
 806:/opt/XMClib/XMC_Peripheral_Library_v2.1.16/XMCLib/src/xmc_usbd.c ****           if(obj->usbd_transfer_mode == XMC_USBD_USE_FIFO)
 4148              		.loc 1 806 11 is_stmt 1 view .LVU1660
 806:/opt/XMClib/XMC_Peripheral_Library_v2.1.16/XMCLib/src/xmc_usbd.c ****           if(obj->usbd_transfer_mode == XMC_USBD_USE_FIFO)
 4149              		.loc 1 806 23 is_stmt 0 view .LVU1661
 4150 048c DCF80430 		ldr	r3, [ip, #4]
 807:/opt/XMClib/XMC_Peripheral_Library_v2.1.16/XMCLib/src/xmc_usbd.c ****           {
 4151              		.loc 1 807 13 view .LVU1662
 4152 0490 0129     		cmp	r1, #1
 806:/opt/XMClib/XMC_Peripheral_Library_v2.1.16/XMCLib/src/xmc_usbd.c ****           if(obj->usbd_transfer_mode == XMC_USBD_USE_FIFO)
 4153              		.loc 1 806 23 view .LVU1663
 4154 0492 6FF3C303 		bfc	r3, #3, #1
 4155 0496 CCF80430 		str	r3, [ip, #4]
 807:/opt/XMClib/XMC_Peripheral_Library_v2.1.16/XMCLib/src/xmc_usbd.c ****           {
 4156              		.loc 1 807 11 is_stmt 1 view .LVU1664
 807:/opt/XMClib/XMC_Peripheral_Library_v2.1.16/XMCLib/src/xmc_usbd.c ****           {
 4157              		.loc 1 807 13 is_stmt 0 view .LVU1665
 4158 049a 07D1     		bne	.L233
 810:/opt/XMClib/XMC_Peripheral_Library_v2.1.16/XMCLib/src/xmc_usbd.c ****             (uint32_t)(xmc_device.device_register->dtknqr4_fifoemptymsk & ~(((uint32_t)1U << ep_num
 4159              		.loc 1 810 13 is_stmt 1 view .LVU1666
 811:/opt/XMClib/XMC_Peripheral_Library_v2.1.16/XMCLib/src/xmc_usbd.c ****           }
 4160              		.loc 1 811 91 is_stmt 0 view .LVU1667
 4161 049c 01FA00F0 		lsl	r0, r1, r0
 811:/opt/XMClib/XMC_Peripheral_Library_v2.1.16/XMCLib/src/xmc_usbd.c ****           }
 4162              		.loc 1 811 50 view .LVU1668
 4163 04a0 D9F83410 		ldr	r1, [r9, #52]
 811:/opt/XMClib/XMC_Peripheral_Library_v2.1.16/XMCLib/src/xmc_usbd.c ****           }
 4164              		.loc 1 811 13 view .LVU1669
 4165 04a4 21EA0001 		bic	r1, r1, r0
 810:/opt/XMClib/XMC_Peripheral_Library_v2.1.16/XMCLib/src/xmc_usbd.c ****             (uint32_t)(xmc_device.device_register->dtknqr4_fifoemptymsk & ~(((uint32_t)1U << ep_num
 4166              		.loc 1 810 62 view .LVU1670
 4167 04a8 C9F83410 		str	r1, [r9, #52]
 4168              	.L233:
 813:/opt/XMClib/XMC_Peripheral_Library_v2.1.16/XMCLib/src/xmc_usbd.c ****         }
 4169              		.loc 1 813 11 is_stmt 1 view .LVU1671
 4170 04ac D4F80432 		ldr	r3, [r4, #516]
 4171 04b0 0221     		movs	r1, #2
 4172 04b2 45F08000 		orr	r0, r5, #128
 4173 04b6 9847     		blx	r3
 4174              	.LVL293:
 4175              	.LBB198:
 4176              	.LBB194:
1023:/opt/XMClib/XMC_Peripheral_Library_v2.1.16/XMCLib/src/xmc_usbd.c **** }
 4177              		.loc 1 1023 34 is_stmt 0 view .LVU1672
 4178 04b8 019B     		ldr	r3, [sp, #4]
 4179 04ba 54F82330 		ldr	r3, [r4, r3, lsl #2]
 4180              	.LBE194:
 4181              	.LBE198:
 4182 04be 2BE7     		b	.L225
 4183              	.LVL294:
 4184              	.L324:
 4185              	.LBB199:
 786:/opt/XMClib/XMC_Peripheral_Library_v2.1.16/XMCLib/src/xmc_usbd.c ****           bytes = XMC_USBD_lWriteFifo(ep);
 4186              		.loc 1 786 11 is_stmt 1 view .LVU1673
 787:/opt/XMClib/XMC_Peripheral_Library_v2.1.16/XMCLib/src/xmc_usbd.c ****           ep->xferCount += bytes;
 4187              		.loc 1 787 11 view .LVU1674
 4188              	.LBB200:
 4189              	.LBI200:
 258:/opt/XMClib/XMC_Peripheral_Library_v2.1.16/XMCLib/src/xmc_usbd.c **** {
 4190              		.loc 1 258 17 view .LVU1675
 4191              	.LBB201:
 260:/opt/XMClib/XMC_Peripheral_Library_v2.1.16/XMCLib/src/xmc_usbd.c ****   volatile uint32_t *fifo;
 4192              		.loc 1 260 3 view .LVU1676
 261:/opt/XMClib/XMC_Peripheral_Library_v2.1.16/XMCLib/src/xmc_usbd.c ****   uint32_t byte_count;
 4193              		.loc 1 261 3 view .LVU1677
 262:/opt/XMClib/XMC_Peripheral_Library_v2.1.16/XMCLib/src/xmc_usbd.c ****   uint32_t word_count;
 4194              		.loc 1 262 3 view .LVU1678
 263:/opt/XMClib/XMC_Peripheral_Library_v2.1.16/XMCLib/src/xmc_usbd.c ****   uint32_t result;
 4195              		.loc 1 263 3 view .LVU1679
 264:/opt/XMClib/XMC_Peripheral_Library_v2.1.16/XMCLib/src/xmc_usbd.c ****   uint32_t i;
 4196              		.loc 1 264 3 view .LVU1680
 265:/opt/XMClib/XMC_Peripheral_Library_v2.1.16/XMCLib/src/xmc_usbd.c ****   fifo = xmc_device.fifo[ep->address_u.address_st.number]; /* fifo */
 4197              		.loc 1 265 3 view .LVU1681
 266:/opt/XMClib/XMC_Peripheral_Library_v2.1.16/XMCLib/src/xmc_usbd.c ****   freeSpace.d32 = xmc_device.endpoint_in_register[ep->address_u.address_st.number]->dtxfsts;
 4198              		.loc 1 266 3 view .LVU1682
 267:/opt/XMClib/XMC_Peripheral_Library_v2.1.16/XMCLib/src/xmc_usbd.c ****   /* calculate the length and the amount of dwords to copy based on the fifo status */
 4199              		.loc 1 267 3 view .LVU1683
 269:/opt/XMClib/XMC_Peripheral_Library_v2.1.16/XMCLib/src/xmc_usbd.c ****   if (!byte_count)
 4200              		.loc 1 269 3 view .LVU1684
 267:/opt/XMClib/XMC_Peripheral_Library_v2.1.16/XMCLib/src/xmc_usbd.c ****   /* calculate the length and the amount of dwords to copy based on the fifo status */
 4201              		.loc 1 267 50 is_stmt 0 view .LVU1685
 4202 04c0 0CF16A0E 		add	lr, ip, #106
 269:/opt/XMClib/XMC_Peripheral_Library_v2.1.16/XMCLib/src/xmc_usbd.c ****   if (!byte_count)
 4203              		.loc 1 269 35 view .LVU1686
 4204 04c4 049A     		ldr	r2, [sp, #16]
 267:/opt/XMClib/XMC_Peripheral_Library_v2.1.16/XMCLib/src/xmc_usbd.c ****   /* calculate the length and the amount of dwords to copy based on the fifo status */
 4205              		.loc 1 267 50 view .LVU1687
 4206 04c6 54F82EE0 		ldr	lr, [r4, lr, lsl #2]
 267:/opt/XMClib/XMC_Peripheral_Library_v2.1.16/XMCLib/src/xmc_usbd.c ****   /* calculate the length and the amount of dwords to copy based on the fifo status */
 4207              		.loc 1 267 83 view .LVU1688
 4208 04ca DEF81870 		ldr	r7, [lr, #24]
 269:/opt/XMClib/XMC_Peripheral_Library_v2.1.16/XMCLib/src/xmc_usbd.c ****   if (!byte_count)
 4209              		.loc 1 269 14 view .LVU1689
 4210 04ce D2E90A2E 		ldrd	r2, lr, [r2, #40]
 4211              	.LVL295:
 270:/opt/XMClib/XMC_Peripheral_Library_v2.1.16/XMCLib/src/xmc_usbd.c ****   {
 4212              		.loc 1 270 3 is_stmt 1 view .LVU1690
 270:/opt/XMClib/XMC_Peripheral_Library_v2.1.16/XMCLib/src/xmc_usbd.c ****   {
 4213              		.loc 1 270 6 is_stmt 0 view .LVU1691
 4214 04d2 B2EB0E02 		subs	r2, r2, lr
 4215              	.LVL296:
 270:/opt/XMClib/XMC_Peripheral_Library_v2.1.16/XMCLib/src/xmc_usbd.c ****   {
 4216              		.loc 1 270 6 view .LVU1692
 4217 04d6 0492     		str	r2, [sp, #16]
 4218 04d8 2DD0     		beq	.L227
 277:/opt/XMClib/XMC_Peripheral_Library_v2.1.16/XMCLib/src/xmc_usbd.c ****     if (word_count > (uint32_t)freeSpace.b.txfspcavail )
 4219              		.loc 1 277 5 is_stmt 1 view .LVU1693
 277:/opt/XMClib/XMC_Peripheral_Library_v2.1.16/XMCLib/src/xmc_usbd.c ****     if (word_count > (uint32_t)freeSpace.b.txfspcavail )
 4220              		.loc 1 277 40 is_stmt 0 view .LVU1694
 4221 04da 0332     		adds	r2, r2, #3
 4222              	.LVL297:
 277:/opt/XMClib/XMC_Peripheral_Library_v2.1.16/XMCLib/src/xmc_usbd.c ****     if (word_count > (uint32_t)freeSpace.b.txfspcavail )
 4223              		.loc 1 277 40 view .LVU1695
 4224 04dc BFB2     		uxth	r7, r7
 4225 04de 0697     		str	r7, [sp, #24]
 277:/opt/XMClib/XMC_Peripheral_Library_v2.1.16/XMCLib/src/xmc_usbd.c ****     if (word_count > (uint32_t)freeSpace.b.txfspcavail )
 4226              		.loc 1 277 16 view .LVU1696
 4227 04e0 9708     		lsrs	r7, r2, #2
 4228 04e2 0597     		str	r7, [sp, #20]
 4229              	.LVL298:
 278:/opt/XMClib/XMC_Peripheral_Library_v2.1.16/XMCLib/src/xmc_usbd.c ****     {
 4230              		.loc 1 278 5 is_stmt 1 view .LVU1697
 278:/opt/XMClib/XMC_Peripheral_Library_v2.1.16/XMCLib/src/xmc_usbd.c ****     {
 4231              		.loc 1 278 8 is_stmt 0 view .LVU1698
 4232 04e4 069F     		ldr	r7, [sp, #24]
 4233              	.LVL299:
 278:/opt/XMClib/XMC_Peripheral_Library_v2.1.16/XMCLib/src/xmc_usbd.c ****     {
 4234              		.loc 1 278 8 view .LVU1699
 4235 04e6 B7EB920F 		cmp	r7, r2, lsr #2
 280:/opt/XMClib/XMC_Peripheral_Library_v2.1.16/XMCLib/src/xmc_usbd.c ****       byte_count = (uint32_t)word_count << (uint32_t)2U;
 4236              		.loc 1 280 7 is_stmt 1 view .LVU1700
 4237              	.LVL300:
 281:/opt/XMClib/XMC_Peripheral_Library_v2.1.16/XMCLib/src/xmc_usbd.c ****     }
 4238              		.loc 1 281 7 view .LVU1701
 285:/opt/XMClib/XMC_Peripheral_Library_v2.1.16/XMCLib/src/xmc_usbd.c ****     {
 4239              		.loc 1 285 5 view .LVU1702
 285:/opt/XMClib/XMC_Peripheral_Library_v2.1.16/XMCLib/src/xmc_usbd.c ****     {
 4240              		.loc 1 285 18 view .LVU1703
 281:/opt/XMClib/XMC_Peripheral_Library_v2.1.16/XMCLib/src/xmc_usbd.c ****     }
 4241              		.loc 1 281 18 is_stmt 0 view .LVU1704
 4242 04ea 3CBF     		itt	cc
 4243 04ec BA00     		lslcc	r2, r7, #2
 4244 04ee CDE90427 		strdcc	r2, r7, [sp, #16]
 4245              	.LVL301:
 285:/opt/XMClib/XMC_Peripheral_Library_v2.1.16/XMCLib/src/xmc_usbd.c ****     {
 4246              		.loc 1 285 5 view .LVU1705
 4247 04f2 059A     		ldr	r2, [sp, #20]
 4248 04f4 52B3     		cbz	r2, .L326
 266:/opt/XMClib/XMC_Peripheral_Library_v2.1.16/XMCLib/src/xmc_usbd.c ****   freeSpace.d32 = xmc_device.endpoint_in_register[ep->address_u.address_st.number]->dtxfsts;
 4249              		.loc 1 266 8 view .LVU1706
 4250 04f6 0CF1780C 		add	ip, ip, #120
 4251              	.LVL302:
 287:/opt/XMClib/XMC_Peripheral_Library_v2.1.16/XMCLib/src/xmc_usbd.c ****       i++;
 4252              		.loc 1 287 29 view .LVU1707
 4253 04fa 0AFB004E 		mla	lr, r10, r0, r4
 266:/opt/XMClib/XMC_Peripheral_Library_v2.1.16/XMCLib/src/xmc_usbd.c ****   freeSpace.d32 = xmc_device.endpoint_in_register[ep->address_u.address_st.number]->dtxfsts;
 4254              		.loc 1 266 8 view .LVU1708
 4255 04fe 54F82C70 		ldr	r7, [r4, ip, lsl #2]
 4256 0502 0697     		str	r7, [sp, #24]
 287:/opt/XMClib/XMC_Peripheral_Library_v2.1.16/XMCLib/src/xmc_usbd.c ****       i++;
 4257              		.loc 1 287 29 view .LVU1709
 4258 0504 DEF82420 		ldr	r2, [lr, #36]
 4259 0508 059F     		ldr	r7, [sp, #20]
 4260 050a 0590     		str	r0, [sp, #20]
 4261 050c 02EB8707 		add	r7, r2, r7, lsl #2
 4262 0510 BC46     		mov	ip, r7
 4263              	.LVL303:
 287:/opt/XMClib/XMC_Peripheral_Library_v2.1.16/XMCLib/src/xmc_usbd.c ****       i++;
 4264              		.loc 1 287 29 view .LVU1710
 4265 0512 0698     		ldr	r0, [sp, #24]
 4266              	.LVL304:
 287:/opt/XMClib/XMC_Peripheral_Library_v2.1.16/XMCLib/src/xmc_usbd.c ****       i++;
 4267              		.loc 1 287 29 view .LVU1711
 4268 0514 019F     		ldr	r7, [sp, #4]
 4269 0516 0793     		str	r3, [sp, #28]
 4270              	.LVL305:
 4271              	.L230:
 287:/opt/XMClib/XMC_Peripheral_Library_v2.1.16/XMCLib/src/xmc_usbd.c ****       i++;
 4272              		.loc 1 287 7 is_stmt 1 view .LVU1712
 287:/opt/XMClib/XMC_Peripheral_Library_v2.1.16/XMCLib/src/xmc_usbd.c ****       i++;
 4273              		.loc 1 287 15 is_stmt 0 view .LVU1713
 4274 0518 52F8043B 		ldr	r3, [r2], #4
 287:/opt/XMClib/XMC_Peripheral_Library_v2.1.16/XMCLib/src/xmc_usbd.c ****       i++;
 4275              		.loc 1 287 13 view .LVU1714
 4276 051c 0360     		str	r3, [r0]
 288:/opt/XMClib/XMC_Peripheral_Library_v2.1.16/XMCLib/src/xmc_usbd.c ****     }
 4277              		.loc 1 288 7 is_stmt 1 view .LVU1715
 285:/opt/XMClib/XMC_Peripheral_Library_v2.1.16/XMCLib/src/xmc_usbd.c ****     {
 4278              		.loc 1 285 33 view .LVU1716
 285:/opt/XMClib/XMC_Peripheral_Library_v2.1.16/XMCLib/src/xmc_usbd.c ****     {
 4279              		.loc 1 285 5 is_stmt 0 view .LVU1717
 4280 051e 6245     		cmp	r2, ip
 285:/opt/XMClib/XMC_Peripheral_Library_v2.1.16/XMCLib/src/xmc_usbd.c ****     {
 4281              		.loc 1 285 47 view .LVU1718
 4282 0520 CEF82420 		str	r2, [lr, #36]
 285:/opt/XMClib/XMC_Peripheral_Library_v2.1.16/XMCLib/src/xmc_usbd.c ****     {
 4283              		.loc 1 285 18 is_stmt 1 view .LVU1719
 285:/opt/XMClib/XMC_Peripheral_Library_v2.1.16/XMCLib/src/xmc_usbd.c ****     {
 4284              		.loc 1 285 5 is_stmt 0 view .LVU1720
 4285 0524 F8D1     		bne	.L230
 4286              	.LBE201:
 4287              	.LBE200:
 788:/opt/XMClib/XMC_Peripheral_Library_v2.1.16/XMCLib/src/xmc_usbd.c ****           ep->xferBuffer += bytes;
 4288              		.loc 1 788 25 view .LVU1721
 4289 0526 DEF82C20 		ldr	r2, [lr, #44]
 4290 052a 0197     		str	r7, [sp, #4]
 4291 052c 049F     		ldr	r7, [sp, #16]
 4292 052e 0598     		ldr	r0, [sp, #20]
 4293 0530 079B     		ldr	r3, [sp, #28]
 4294 0532 07EB020E 		add	lr, r7, r2
 4295              	.LVL306:
 4296              	.L227:
 4297              	.LBB203:
 4298              	.LBB202:
 292:/opt/XMClib/XMC_Peripheral_Library_v2.1.16/XMCLib/src/xmc_usbd.c **** }
 4299              		.loc 1 292 3 is_stmt 1 view .LVU1722
 292:/opt/XMClib/XMC_Peripheral_Library_v2.1.16/XMCLib/src/xmc_usbd.c **** }
 4300              		.loc 1 292 3 is_stmt 0 view .LVU1723
 4301              	.LBE202:
 4302              	.LBE203:
 788:/opt/XMClib/XMC_Peripheral_Library_v2.1.16/XMCLib/src/xmc_usbd.c ****           ep->xferBuffer += bytes;
 4303              		.loc 1 788 11 is_stmt 1 view .LVU1724
 788:/opt/XMClib/XMC_Peripheral_Library_v2.1.16/XMCLib/src/xmc_usbd.c ****           ep->xferBuffer += bytes;
 4304              		.loc 1 788 25 is_stmt 0 view .LVU1725
 4305 0536 0AFB004C 		mla	ip, r10, r0, r4
 789:/opt/XMClib/XMC_Peripheral_Library_v2.1.16/XMCLib/src/xmc_usbd.c ****         }
 4306              		.loc 1 789 26 view .LVU1726
 4307 053a 049F     		ldr	r7, [sp, #16]
 4308 053c DCF82420 		ldr	r2, [ip, #36]
 788:/opt/XMClib/XMC_Peripheral_Library_v2.1.16/XMCLib/src/xmc_usbd.c ****           ep->xferBuffer += bytes;
 4309              		.loc 1 788 25 view .LVU1727
 4310 0540 CCF82CE0 		str	lr, [ip, #44]
 789:/opt/XMClib/XMC_Peripheral_Library_v2.1.16/XMCLib/src/xmc_usbd.c ****         }
 4311              		.loc 1 789 11 is_stmt 1 view .LVU1728
 789:/opt/XMClib/XMC_Peripheral_Library_v2.1.16/XMCLib/src/xmc_usbd.c ****         }
 4312              		.loc 1 789 26 is_stmt 0 view .LVU1729
 4313 0544 3A44     		add	r2, r2, r7
 4314 0546 CCF82420 		str	r2, [ip, #36]
 4315 054a D3E6     		b	.L226
 4316              	.LVL307:
 4317              	.L326:
 788:/opt/XMClib/XMC_Peripheral_Library_v2.1.16/XMCLib/src/xmc_usbd.c ****           ep->xferBuffer += bytes;
 4318              		.loc 1 788 25 view .LVU1730
 4319 054c 049A     		ldr	r2, [sp, #16]
 4320 054e 9644     		add	lr, lr, r2
 4321 0550 F1E7     		b	.L227
 4322              	.L330:
 4323 0552 00BF     		.align	2
 4324              	.L329:
 4325 0554 C4010000 		.word	.LANCHOR0+452
 4326 0558 90001000 		.word	1048720
 4327 055c A0001000 		.word	1048736
 4328 0560 80001000 		.word	1048704
 4329 0564 40001000 		.word	1048640
 4330 0568 50001000 		.word	1048656
 4331 056c 60001000 		.word	1048672
 4332 0570 70001000 		.word	1048688
 4333              	.LBE199:
 4334              	.LBE204:
 4335              	.LBE223:
 4336              		.cfi_endproc
 4337              	.LFE177:
 4339              		.section	.text.XMC_USBD_Enable,"ax",%progbits
 4340              		.align	1
 4341              		.p2align 2,,3
 4342              		.global	XMC_USBD_Enable
 4343              		.syntax unified
 4344              		.thumb
 4345              		.thumb_func
 4347              	XMC_USBD_Enable:
 4348              	.LFB178:
 942:/opt/XMClib/XMC_Peripheral_Library_v2.1.16/XMCLib/src/xmc_usbd.c **** #if defined(CLOCK_GATING_SUPPORTED)
 4349              		.loc 1 942 1 is_stmt 1 view -0
 4350              		.cfi_startproc
 4351              		@ args = 0, pretend = 0, frame = 0
 4352              		@ frame_needed = 0, uses_anonymous_args = 0
 947:/opt/XMClib/XMC_Peripheral_Library_v2.1.16/XMCLib/src/xmc_usbd.c ****   XMC_SCU_POWER_EnableUsb();
 4353              		.loc 1 947 3 view .LVU1732
 942:/opt/XMClib/XMC_Peripheral_Library_v2.1.16/XMCLib/src/xmc_usbd.c **** #if defined(CLOCK_GATING_SUPPORTED)
 4354              		.loc 1 942 1 is_stmt 0 view .LVU1733
 4355 0000 08B5     		push	{r3, lr}
 4356              	.LCFI25:
 4357              		.cfi_def_cfa_offset 8
 4358              		.cfi_offset 3, -8
 4359              		.cfi_offset 14, -4
 947:/opt/XMClib/XMC_Peripheral_Library_v2.1.16/XMCLib/src/xmc_usbd.c ****   XMC_SCU_POWER_EnableUsb();
 4360              		.loc 1 947 3 view .LVU1734
 4361 0002 0348     		ldr	r0, .L333
 4362 0004 FFF7FEFF 		bl	XMC_SCU_RESET_DeassertPeripheralReset
 4363              	.LVL308:
 948:/opt/XMClib/XMC_Peripheral_Library_v2.1.16/XMCLib/src/xmc_usbd.c **** }
 4364              		.loc 1 948 3 is_stmt 1 view .LVU1735
 949:/opt/XMClib/XMC_Peripheral_Library_v2.1.16/XMCLib/src/xmc_usbd.c **** 
 4365              		.loc 1 949 1 is_stmt 0 view .LVU1736
 4366 0008 BDE80840 		pop	{r3, lr}
 4367              	.LCFI26:
 4368              		.cfi_restore 14
 4369              		.cfi_restore 3
 4370              		.cfi_def_cfa_offset 0
 948:/opt/XMClib/XMC_Peripheral_Library_v2.1.16/XMCLib/src/xmc_usbd.c **** }
 4371              		.loc 1 948 3 view .LVU1737
 4372 000c FFF7FEBF 		b	XMC_SCU_POWER_EnableUsb
 4373              	.LVL309:
 4374              	.L334:
 4375              		.align	2
 4376              	.L333:
 4377 0010 80000020 		.word	536871040
 4378              		.cfi_endproc
 4379              	.LFE178:
 4381              		.section	.text.XMC_USBD_Disable,"ax",%progbits
 4382              		.align	1
 4383              		.p2align 2,,3
 4384              		.global	XMC_USBD_Disable
 4385              		.syntax unified
 4386              		.thumb
 4387              		.thumb_func
 4389              	XMC_USBD_Disable:
 4390              	.LFB179:
 955:/opt/XMClib/XMC_Peripheral_Library_v2.1.16/XMCLib/src/xmc_usbd.c ****   /* Clear Reset and power up */
 4391              		.loc 1 955 1 is_stmt 1 view -0
 4392              		.cfi_startproc
 4393              		@ args = 0, pretend = 0, frame = 0
 4394              		@ frame_needed = 0, uses_anonymous_args = 0
 957:/opt/XMClib/XMC_Peripheral_Library_v2.1.16/XMCLib/src/xmc_usbd.c **** #if defined(CLOCK_GATING_SUPPORTED)
 4395              		.loc 1 957 3 view .LVU1739
 955:/opt/XMClib/XMC_Peripheral_Library_v2.1.16/XMCLib/src/xmc_usbd.c ****   /* Clear Reset and power up */
 4396              		.loc 1 955 1 is_stmt 0 view .LVU1740
 4397 0000 08B5     		push	{r3, lr}
 4398              	.LCFI27:
 4399              		.cfi_def_cfa_offset 8
 4400              		.cfi_offset 3, -8
 4401              		.cfi_offset 14, -4
 957:/opt/XMClib/XMC_Peripheral_Library_v2.1.16/XMCLib/src/xmc_usbd.c **** #if defined(CLOCK_GATING_SUPPORTED)
 4402              		.loc 1 957 3 view .LVU1741
 4403 0002 0348     		ldr	r0, .L337
 4404 0004 FFF7FEFF 		bl	XMC_SCU_RESET_AssertPeripheralReset
 4405              	.LVL310:
 961:/opt/XMClib/XMC_Peripheral_Library_v2.1.16/XMCLib/src/xmc_usbd.c **** }
 4406              		.loc 1 961 3 is_stmt 1 view .LVU1742
 962:/opt/XMClib/XMC_Peripheral_Library_v2.1.16/XMCLib/src/xmc_usbd.c **** 
 4407              		.loc 1 962 1 is_stmt 0 view .LVU1743
 4408 0008 BDE80840 		pop	{r3, lr}
 4409              	.LCFI28:
 4410              		.cfi_restore 14
 4411              		.cfi_restore 3
 4412              		.cfi_def_cfa_offset 0
 961:/opt/XMClib/XMC_Peripheral_Library_v2.1.16/XMCLib/src/xmc_usbd.c **** }
 4413              		.loc 1 961 3 view .LVU1744
 4414 000c FFF7FEBF 		b	XMC_SCU_POWER_DisableUsb
 4415              	.LVL311:
 4416              	.L338:
 4417              		.align	2
 4418              	.L337:
 4419 0010 80000020 		.word	536871040
 4420              		.cfi_endproc
 4421              	.LFE179:
 4423              		.section	.text.XMC_USBD_ClearEvent,"ax",%progbits
 4424              		.align	1
 4425              		.p2align 2,,3
 4426              		.global	XMC_USBD_ClearEvent
 4427              		.syntax unified
 4428              		.thumb
 4429              		.thumb_func
 4431              	XMC_USBD_ClearEvent:
 4432              	.LVL312:
 4433              	.LFB180:
 968:/opt/XMClib/XMC_Peripheral_Library_v2.1.16/XMCLib/src/xmc_usbd.c ****   gintsts_data_t clear;
 4434              		.loc 1 968 1 is_stmt 1 view -0
 4435              		.cfi_startproc
 4436              		@ args = 0, pretend = 0, frame = 0
 4437              		@ frame_needed = 0, uses_anonymous_args = 0
 4438              		@ link register save eliminated.
 969:/opt/XMClib/XMC_Peripheral_Library_v2.1.16/XMCLib/src/xmc_usbd.c ****   clear.d32 = 0U;
 4439              		.loc 1 969 3 view .LVU1746
 970:/opt/XMClib/XMC_Peripheral_Library_v2.1.16/XMCLib/src/xmc_usbd.c ****   switch(event)
 4440              		.loc 1 970 3 view .LVU1747
 971:/opt/XMClib/XMC_Peripheral_Library_v2.1.16/XMCLib/src/xmc_usbd.c ****   {
 4441              		.loc 1 971 3 view .LVU1748
 4442 0000 0D28     		cmp	r0, #13
 4443 0002 08D8     		bhi	.L350
 4444 0004 DFE800F0 		tbb	[pc, r0]
 4445              	.L342:
 4446 0008 3D       		.byte	(.L349-.L342)/2
 4447 0009 07       		.byte	(.L350-.L342)/2
 4448 000a 07       		.byte	(.L350-.L342)/2
 4449 000b 07       		.byte	(.L350-.L342)/2
 4450 000c 36       		.byte	(.L348-.L342)/2
 4451 000d 07       		.byte	(.L350-.L342)/2
 4452 000e 14       		.byte	(.L347-.L342)/2
 4453 000f 0D       		.byte	(.L346-.L342)/2
 4454 0010 0D       		.byte	(.L346-.L342)/2
 4455 0011 1B       		.byte	(.L345-.L342)/2
 4456 0012 21       		.byte	(.L344-.L342)/2
 4457 0013 28       		.byte	(.L343-.L342)/2
 4458 0014 07       		.byte	(.L350-.L342)/2
 4459 0015 2F       		.byte	(.L341-.L342)/2
 4460              		.p2align 1
 4461              	.L350:
 4462 0016 0023     		movs	r3, #0
 4463              	.L340:
1003:/opt/XMClib/XMC_Peripheral_Library_v2.1.16/XMCLib/src/xmc_usbd.c **** }
 4464              		.loc 1 1003 2 view .LVU1749
1003:/opt/XMClib/XMC_Peripheral_Library_v2.1.16/XMCLib/src/xmc_usbd.c **** }
 4465              		.loc 1 1003 12 is_stmt 0 view .LVU1750
 4466 0018 1B4A     		ldr	r2, .L351
 4467 001a D2F8A021 		ldr	r2, [r2, #416]
1003:/opt/XMClib/XMC_Peripheral_Library_v2.1.16/XMCLib/src/xmc_usbd.c **** }
 4468              		.loc 1 1003 38 view .LVU1751
 4469 001e 5361     		str	r3, [r2, #20]
1004:/opt/XMClib/XMC_Peripheral_Library_v2.1.16/XMCLib/src/xmc_usbd.c **** 
 4470              		.loc 1 1004 1 view .LVU1752
 4471 0020 7047     		bx	lr
 4472              	.L346:
 983:/opt/XMClib/XMC_Peripheral_Library_v2.1.16/XMCLib/src/xmc_usbd.c **** 	  break;
 4473              		.loc 1 983 4 is_stmt 1 view .LVU1753
 984:/opt/XMClib/XMC_Peripheral_Library_v2.1.16/XMCLib/src/xmc_usbd.c ****     case (XMC_USBD_EVENT_REMOTE_WAKEUP):
 4474              		.loc 1 984 4 view .LVU1754
1003:/opt/XMClib/XMC_Peripheral_Library_v2.1.16/XMCLib/src/xmc_usbd.c **** }
 4475              		.loc 1 1003 12 is_stmt 0 view .LVU1755
 4476 0022 194A     		ldr	r2, .L351
 4477 0024 D2F8A021 		ldr	r2, [r2, #416]
 984:/opt/XMClib/XMC_Peripheral_Library_v2.1.16/XMCLib/src/xmc_usbd.c ****     case (XMC_USBD_EVENT_REMOTE_WAKEUP):
 4478              		.loc 1 984 4 view .LVU1756
 4479 0028 4FF00043 		mov	r3, #-2147483648
1003:/opt/XMClib/XMC_Peripheral_Library_v2.1.16/XMCLib/src/xmc_usbd.c **** }
 4480              		.loc 1 1003 2 is_stmt 1 view .LVU1757
1003:/opt/XMClib/XMC_Peripheral_Library_v2.1.16/XMCLib/src/xmc_usbd.c **** }
 4481              		.loc 1 1003 38 is_stmt 0 view .LVU1758
 4482 002c 5361     		str	r3, [r2, #20]
1004:/opt/XMClib/XMC_Peripheral_Library_v2.1.16/XMCLib/src/xmc_usbd.c **** 
 4483              		.loc 1 1004 1 view .LVU1759
 4484 002e 7047     		bx	lr
 4485              	.L347:
 980:/opt/XMClib/XMC_Peripheral_Library_v2.1.16/XMCLib/src/xmc_usbd.c **** 	  break;
 4486              		.loc 1 980 4 is_stmt 1 view .LVU1760
 981:/opt/XMClib/XMC_Peripheral_Library_v2.1.16/XMCLib/src/xmc_usbd.c ****     case (XMC_USBD_EVENT_RESUME):
 4487              		.loc 1 981 4 view .LVU1761
1003:/opt/XMClib/XMC_Peripheral_Library_v2.1.16/XMCLib/src/xmc_usbd.c **** }
 4488              		.loc 1 1003 12 is_stmt 0 view .LVU1762
 4489 0030 154A     		ldr	r2, .L351
 4490 0032 D2F8A021 		ldr	r2, [r2, #416]
 981:/opt/XMClib/XMC_Peripheral_Library_v2.1.16/XMCLib/src/xmc_usbd.c ****     case (XMC_USBD_EVENT_RESUME):
 4491              		.loc 1 981 4 view .LVU1763
 4492 0036 4FF40063 		mov	r3, #2048
1003:/opt/XMClib/XMC_Peripheral_Library_v2.1.16/XMCLib/src/xmc_usbd.c **** }
 4493              		.loc 1 1003 2 is_stmt 1 view .LVU1764
1003:/opt/XMClib/XMC_Peripheral_Library_v2.1.16/XMCLib/src/xmc_usbd.c **** }
 4494              		.loc 1 1003 38 is_stmt 0 view .LVU1765
 4495 003a 5361     		str	r3, [r2, #20]
1004:/opt/XMClib/XMC_Peripheral_Library_v2.1.16/XMCLib/src/xmc_usbd.c **** 
 4496              		.loc 1 1004 1 view .LVU1766
 4497 003c 7047     		bx	lr
 4498              	.L345:
 989:/opt/XMClib/XMC_Peripheral_Library_v2.1.16/XMCLib/src/xmc_usbd.c **** 	  break;
 4499              		.loc 1 989 4 is_stmt 1 view .LVU1767
 990:/opt/XMClib/XMC_Peripheral_Library_v2.1.16/XMCLib/src/xmc_usbd.c ****     case (XMC_USBD_EVENT_EARLYSUSPEND):
 4500              		.loc 1 990 4 view .LVU1768
1003:/opt/XMClib/XMC_Peripheral_Library_v2.1.16/XMCLib/src/xmc_usbd.c **** }
 4501              		.loc 1 1003 12 is_stmt 0 view .LVU1769
 4502 003e 124A     		ldr	r2, .L351
 4503 0040 D2F8A021 		ldr	r2, [r2, #416]
 990:/opt/XMClib/XMC_Peripheral_Library_v2.1.16/XMCLib/src/xmc_usbd.c ****     case (XMC_USBD_EVENT_EARLYSUSPEND):
 4504              		.loc 1 990 4 view .LVU1770
 4505 0044 0823     		movs	r3, #8
1003:/opt/XMClib/XMC_Peripheral_Library_v2.1.16/XMCLib/src/xmc_usbd.c **** }
 4506              		.loc 1 1003 2 is_stmt 1 view .LVU1771
1003:/opt/XMClib/XMC_Peripheral_Library_v2.1.16/XMCLib/src/xmc_usbd.c **** }
 4507              		.loc 1 1003 38 is_stmt 0 view .LVU1772
 4508 0046 5361     		str	r3, [r2, #20]
1004:/opt/XMClib/XMC_Peripheral_Library_v2.1.16/XMCLib/src/xmc_usbd.c **** 
 4509              		.loc 1 1004 1 view .LVU1773
 4510 0048 7047     		bx	lr
 4511              	.L344:
 992:/opt/XMClib/XMC_Peripheral_Library_v2.1.16/XMCLib/src/xmc_usbd.c **** 	  break;
 4512              		.loc 1 992 4 is_stmt 1 view .LVU1774
 993:/opt/XMClib/XMC_Peripheral_Library_v2.1.16/XMCLib/src/xmc_usbd.c ****     case (XMC_USBD_EVENT_ENUMDONE):
 4513              		.loc 1 993 4 view .LVU1775
1003:/opt/XMClib/XMC_Peripheral_Library_v2.1.16/XMCLib/src/xmc_usbd.c **** }
 4514              		.loc 1 1003 12 is_stmt 0 view .LVU1776
 4515 004a 0F4A     		ldr	r2, .L351
 4516 004c D2F8A021 		ldr	r2, [r2, #416]
 993:/opt/XMClib/XMC_Peripheral_Library_v2.1.16/XMCLib/src/xmc_usbd.c ****     case (XMC_USBD_EVENT_ENUMDONE):
 4517              		.loc 1 993 4 view .LVU1777
 4518 0050 4FF48063 		mov	r3, #1024
1003:/opt/XMClib/XMC_Peripheral_Library_v2.1.16/XMCLib/src/xmc_usbd.c **** }
 4519              		.loc 1 1003 2 is_stmt 1 view .LVU1778
1003:/opt/XMClib/XMC_Peripheral_Library_v2.1.16/XMCLib/src/xmc_usbd.c **** }
 4520              		.loc 1 1003 38 is_stmt 0 view .LVU1779
 4521 0054 5361     		str	r3, [r2, #20]
1004:/opt/XMClib/XMC_Peripheral_Library_v2.1.16/XMCLib/src/xmc_usbd.c **** 
 4522              		.loc 1 1004 1 view .LVU1780
 4523 0056 7047     		bx	lr
 4524              	.L343:
 995:/opt/XMClib/XMC_Peripheral_Library_v2.1.16/XMCLib/src/xmc_usbd.c **** 	  break;
 4525              		.loc 1 995 4 is_stmt 1 view .LVU1781
 996:/opt/XMClib/XMC_Peripheral_Library_v2.1.16/XMCLib/src/xmc_usbd.c ****     case (XMC_USBD_EVENT_OUTEP):
 4526              		.loc 1 996 4 view .LVU1782
1003:/opt/XMClib/XMC_Peripheral_Library_v2.1.16/XMCLib/src/xmc_usbd.c **** }
 4527              		.loc 1 1003 12 is_stmt 0 view .LVU1783
 4528 0058 0B4A     		ldr	r2, .L351
 4529 005a D2F8A021 		ldr	r2, [r2, #416]
 996:/opt/XMClib/XMC_Peripheral_Library_v2.1.16/XMCLib/src/xmc_usbd.c ****     case (XMC_USBD_EVENT_OUTEP):
 4530              		.loc 1 996 4 view .LVU1784
 4531 005e 4FF40053 		mov	r3, #8192
1003:/opt/XMClib/XMC_Peripheral_Library_v2.1.16/XMCLib/src/xmc_usbd.c **** }
 4532              		.loc 1 1003 2 is_stmt 1 view .LVU1785
1003:/opt/XMClib/XMC_Peripheral_Library_v2.1.16/XMCLib/src/xmc_usbd.c **** }
 4533              		.loc 1 1003 38 is_stmt 0 view .LVU1786
 4534 0062 5361     		str	r3, [r2, #20]
1004:/opt/XMClib/XMC_Peripheral_Library_v2.1.16/XMCLib/src/xmc_usbd.c **** 
 4535              		.loc 1 1004 1 view .LVU1787
 4536 0064 7047     		bx	lr
 4537              	.L341:
 998:/opt/XMClib/XMC_Peripheral_Library_v2.1.16/XMCLib/src/xmc_usbd.c **** 	  break;
 4538              		.loc 1 998 4 is_stmt 1 view .LVU1788
 999:/opt/XMClib/XMC_Peripheral_Library_v2.1.16/XMCLib/src/xmc_usbd.c **** 		default:
 4539              		.loc 1 999 4 view .LVU1789
1003:/opt/XMClib/XMC_Peripheral_Library_v2.1.16/XMCLib/src/xmc_usbd.c **** }
 4540              		.loc 1 1003 12 is_stmt 0 view .LVU1790
 4541 0066 084A     		ldr	r2, .L351
 4542 0068 D2F8A021 		ldr	r2, [r2, #416]
 999:/opt/XMClib/XMC_Peripheral_Library_v2.1.16/XMCLib/src/xmc_usbd.c **** 		default:
 4543              		.loc 1 999 4 view .LVU1791
 4544 006c 4FF40023 		mov	r3, #524288
1003:/opt/XMClib/XMC_Peripheral_Library_v2.1.16/XMCLib/src/xmc_usbd.c **** }
 4545              		.loc 1 1003 2 is_stmt 1 view .LVU1792
1003:/opt/XMClib/XMC_Peripheral_Library_v2.1.16/XMCLib/src/xmc_usbd.c **** }
 4546              		.loc 1 1003 38 is_stmt 0 view .LVU1793
 4547 0070 5361     		str	r3, [r2, #20]
1004:/opt/XMClib/XMC_Peripheral_Library_v2.1.16/XMCLib/src/xmc_usbd.c **** 
 4548              		.loc 1 1004 1 view .LVU1794
 4549 0072 7047     		bx	lr
 4550              	.L348:
 977:/opt/XMClib/XMC_Peripheral_Library_v2.1.16/XMCLib/src/xmc_usbd.c **** 	  break;
 4551              		.loc 1 977 4 is_stmt 1 view .LVU1795
 978:/opt/XMClib/XMC_Peripheral_Library_v2.1.16/XMCLib/src/xmc_usbd.c ****     case (XMC_USBD_EVENT_SUSPEND):
 4552              		.loc 1 978 4 view .LVU1796
1003:/opt/XMClib/XMC_Peripheral_Library_v2.1.16/XMCLib/src/xmc_usbd.c **** }
 4553              		.loc 1 1003 12 is_stmt 0 view .LVU1797
 4554 0074 044A     		ldr	r2, .L351
 4555 0076 D2F8A021 		ldr	r2, [r2, #416]
 978:/opt/XMClib/XMC_Peripheral_Library_v2.1.16/XMCLib/src/xmc_usbd.c ****     case (XMC_USBD_EVENT_SUSPEND):
 4556              		.loc 1 978 4 view .LVU1798
 4557 007a 4FF48053 		mov	r3, #4096
1003:/opt/XMClib/XMC_Peripheral_Library_v2.1.16/XMCLib/src/xmc_usbd.c **** }
 4558              		.loc 1 1003 2 is_stmt 1 view .LVU1799
1003:/opt/XMClib/XMC_Peripheral_Library_v2.1.16/XMCLib/src/xmc_usbd.c **** }
 4559              		.loc 1 1003 38 is_stmt 0 view .LVU1800
 4560 007e 5361     		str	r3, [r2, #20]
1004:/opt/XMClib/XMC_Peripheral_Library_v2.1.16/XMCLib/src/xmc_usbd.c **** 
 4561              		.loc 1 1004 1 view .LVU1801
 4562 0080 7047     		bx	lr
 4563              	.L349:
 971:/opt/XMClib/XMC_Peripheral_Library_v2.1.16/XMCLib/src/xmc_usbd.c ****   {
 4564              		.loc 1 971 3 view .LVU1802
 4565 0082 4FF08043 		mov	r3, #1073741824
 4566 0086 C7E7     		b	.L340
 4567              	.L352:
 4568              		.align	2
 4569              	.L351:
 4570 0088 00000000 		.word	.LANCHOR0
 4571              		.cfi_endproc
 4572              	.LFE180:
 4574              		.section	.text.XMC_USBD_ClearEventINEP,"ax",%progbits
 4575              		.align	1
 4576              		.p2align 2,,3
 4577              		.global	XMC_USBD_ClearEventINEP
 4578              		.syntax unified
 4579              		.thumb
 4580              		.thumb_func
 4582              	XMC_USBD_ClearEventINEP:
 4583              	.LVL313:
 4584              	.LFB182:
1020:/opt/XMClib/XMC_Peripheral_Library_v2.1.16/XMCLib/src/xmc_usbd.c ****   diepint_data_t clear;
 4585              		.loc 1 1020 1 is_stmt 1 view -0
 4586              		.cfi_startproc
 4587              		@ args = 0, pretend = 0, frame = 0
 4588              		@ frame_needed = 0, uses_anonymous_args = 0
 4589              		@ link register save eliminated.
1021:/opt/XMClib/XMC_Peripheral_Library_v2.1.16/XMCLib/src/xmc_usbd.c ****   clear.d32 = event;
 4590              		.loc 1 1021 3 view .LVU1804
1022:/opt/XMClib/XMC_Peripheral_Library_v2.1.16/XMCLib/src/xmc_usbd.c ****   xmc_device.endpoint_in_register[ep_num]->diepint = clear.d32;
 4591              		.loc 1 1022 3 view .LVU1805
1023:/opt/XMClib/XMC_Peripheral_Library_v2.1.16/XMCLib/src/xmc_usbd.c **** }
 4592              		.loc 1 1023 34 is_stmt 0 view .LVU1806
 4593 0000 024B     		ldr	r3, .L354
 4594 0002 6A31     		adds	r1, r1, #106
 4595              	.LVL314:
1023:/opt/XMClib/XMC_Peripheral_Library_v2.1.16/XMCLib/src/xmc_usbd.c **** }
 4596              		.loc 1 1023 34 view .LVU1807
 4597 0004 53F82130 		ldr	r3, [r3, r1, lsl #2]
 4598              	.LVL315:
1023:/opt/XMClib/XMC_Peripheral_Library_v2.1.16/XMCLib/src/xmc_usbd.c **** }
 4599              		.loc 1 1023 3 is_stmt 1 view .LVU1808
1023:/opt/XMClib/XMC_Peripheral_Library_v2.1.16/XMCLib/src/xmc_usbd.c **** }
 4600              		.loc 1 1023 52 is_stmt 0 view .LVU1809
 4601 0008 9860     		str	r0, [r3, #8]
 4602              	.LVL316:
1024:/opt/XMClib/XMC_Peripheral_Library_v2.1.16/XMCLib/src/xmc_usbd.c **** 
 4603              		.loc 1 1024 1 view .LVU1810
 4604 000a 7047     		bx	lr
 4605              	.L355:
 4606              		.align	2
 4607              	.L354:
 4608 000c 00000000 		.word	.LANCHOR0
 4609              		.cfi_endproc
 4610              	.LFE182:
 4612              		.section	.text.XMC_USBD_ClearEventOUTEP,"ax",%progbits
 4613              		.align	1
 4614              		.p2align 2,,3
 4615              		.global	XMC_USBD_ClearEventOUTEP
 4616              		.syntax unified
 4617              		.thumb
 4618              		.thumb_func
 4620              	XMC_USBD_ClearEventOUTEP:
 4621              	.LVL317:
 4622              	.LFB183:
1030:/opt/XMClib/XMC_Peripheral_Library_v2.1.16/XMCLib/src/xmc_usbd.c ****   doepint_data_t clear;
 4623              		.loc 1 1030 1 is_stmt 1 view -0
 4624              		.cfi_startproc
 4625              		@ args = 0, pretend = 0, frame = 0
 4626              		@ frame_needed = 0, uses_anonymous_args = 0
 4627              		@ link register save eliminated.
1031:/opt/XMClib/XMC_Peripheral_Library_v2.1.16/XMCLib/src/xmc_usbd.c ****   clear.d32 = event;
 4628              		.loc 1 1031 3 view .LVU1812
1032:/opt/XMClib/XMC_Peripheral_Library_v2.1.16/XMCLib/src/xmc_usbd.c ****   xmc_device.endpoint_out_register[ep_num]->doepint = clear.d32;
 4629              		.loc 1 1032 3 view .LVU1813
1033:/opt/XMClib/XMC_Peripheral_Library_v2.1.16/XMCLib/src/xmc_usbd.c **** }
 4630              		.loc 1 1033 35 is_stmt 0 view .LVU1814
 4631 0000 034B     		ldr	r3, .L357
 4632 0002 03EB8101 		add	r1, r3, r1, lsl #2
 4633              	.LVL318:
1033:/opt/XMClib/XMC_Peripheral_Library_v2.1.16/XMCLib/src/xmc_usbd.c **** }
 4634              		.loc 1 1033 35 view .LVU1815
 4635 0006 D1F8C431 		ldr	r3, [r1, #452]
 4636              	.LVL319:
1033:/opt/XMClib/XMC_Peripheral_Library_v2.1.16/XMCLib/src/xmc_usbd.c **** }
 4637              		.loc 1 1033 3 is_stmt 1 view .LVU1816
1033:/opt/XMClib/XMC_Peripheral_Library_v2.1.16/XMCLib/src/xmc_usbd.c **** }
 4638              		.loc 1 1033 53 is_stmt 0 view .LVU1817
 4639 000a 9860     		str	r0, [r3, #8]
 4640              	.LVL320:
1034:/opt/XMClib/XMC_Peripheral_Library_v2.1.16/XMCLib/src/xmc_usbd.c **** 
 4641              		.loc 1 1034 1 view .LVU1818
 4642 000c 7047     		bx	lr
 4643              	.L358:
 4644 000e 00BF     		.align	2
 4645              	.L357:
 4646 0010 00000000 		.word	.LANCHOR0
 4647              		.cfi_endproc
 4648              	.LFE183:
 4650              		.section	.text.XMC_USBD_EnableEventOUTEP,"ax",%progbits
 4651              		.align	1
 4652              		.p2align 2,,3
 4653              		.global	XMC_USBD_EnableEventOUTEP
 4654              		.syntax unified
 4655              		.thumb
 4656              		.thumb_func
 4658              	XMC_USBD_EnableEventOUTEP:
 4659              	.LVL321:
 4660              	.LFB184:
1040:/opt/XMClib/XMC_Peripheral_Library_v2.1.16/XMCLib/src/xmc_usbd.c **** 	doepint_data_t doepint;
 4661              		.loc 1 1040 1 is_stmt 1 view -0
 4662              		.cfi_startproc
 4663              		@ args = 0, pretend = 0, frame = 0
 4664              		@ frame_needed = 0, uses_anonymous_args = 0
 4665              		@ link register save eliminated.
1041:/opt/XMClib/XMC_Peripheral_Library_v2.1.16/XMCLib/src/xmc_usbd.c **** 	doepint.d32 = event;
 4666              		.loc 1 1041 2 view .LVU1820
1042:/opt/XMClib/XMC_Peripheral_Library_v2.1.16/XMCLib/src/xmc_usbd.c **** 	xmc_device.device_register->doepmsk |= doepint.d32;
 4667              		.loc 1 1042 2 view .LVU1821
1043:/opt/XMClib/XMC_Peripheral_Library_v2.1.16/XMCLib/src/xmc_usbd.c **** }
 4668              		.loc 1 1043 12 is_stmt 0 view .LVU1822
 4669 0000 034B     		ldr	r3, .L360
 4670              	.LVL322:
1043:/opt/XMClib/XMC_Peripheral_Library_v2.1.16/XMCLib/src/xmc_usbd.c **** }
 4671              		.loc 1 1043 2 is_stmt 1 view .LVU1823
1043:/opt/XMClib/XMC_Peripheral_Library_v2.1.16/XMCLib/src/xmc_usbd.c **** }
 4672              		.loc 1 1043 12 is_stmt 0 view .LVU1824
 4673 0002 D3F8A421 		ldr	r2, [r3, #420]
1043:/opt/XMClib/XMC_Peripheral_Library_v2.1.16/XMCLib/src/xmc_usbd.c **** }
 4674              		.loc 1 1043 38 view .LVU1825
 4675 0006 5369     		ldr	r3, [r2, #20]
 4676 0008 1843     		orrs	r0, r0, r3
 4677              	.LVL323:
1043:/opt/XMClib/XMC_Peripheral_Library_v2.1.16/XMCLib/src/xmc_usbd.c **** }
 4678              		.loc 1 1043 38 view .LVU1826
 4679 000a 5061     		str	r0, [r2, #20]
 4680              	.LVL324:
1044:/opt/XMClib/XMC_Peripheral_Library_v2.1.16/XMCLib/src/xmc_usbd.c **** 
 4681              		.loc 1 1044 1 view .LVU1827
 4682 000c 7047     		bx	lr
 4683              	.L361:
 4684 000e 00BF     		.align	2
 4685              	.L360:
 4686 0010 00000000 		.word	.LANCHOR0
 4687              		.cfi_endproc
 4688              	.LFE184:
 4690              		.section	.text.XMC_USBD_EnableEventINEP,"ax",%progbits
 4691              		.align	1
 4692              		.p2align 2,,3
 4693              		.global	XMC_USBD_EnableEventINEP
 4694              		.syntax unified
 4695              		.thumb
 4696              		.thumb_func
 4698              	XMC_USBD_EnableEventINEP:
 4699              	.LVL325:
 4700              	.LFB185:
1050:/opt/XMClib/XMC_Peripheral_Library_v2.1.16/XMCLib/src/xmc_usbd.c **** 	diepint_data_t diepint;
 4701              		.loc 1 1050 1 is_stmt 1 view -0
 4702              		.cfi_startproc
 4703              		@ args = 0, pretend = 0, frame = 0
 4704              		@ frame_needed = 0, uses_anonymous_args = 0
 4705              		@ link register save eliminated.
1051:/opt/XMClib/XMC_Peripheral_Library_v2.1.16/XMCLib/src/xmc_usbd.c **** 	diepint.d32 = event;
 4706              		.loc 1 1051 2 view .LVU1829
1052:/opt/XMClib/XMC_Peripheral_Library_v2.1.16/XMCLib/src/xmc_usbd.c **** 	xmc_device.device_register->diepmsk |= diepint.d32;
 4707              		.loc 1 1052 2 view .LVU1830
1053:/opt/XMClib/XMC_Peripheral_Library_v2.1.16/XMCLib/src/xmc_usbd.c **** }
 4708              		.loc 1 1053 12 is_stmt 0 view .LVU1831
 4709 0000 034B     		ldr	r3, .L363
 4710              	.LVL326:
1053:/opt/XMClib/XMC_Peripheral_Library_v2.1.16/XMCLib/src/xmc_usbd.c **** }
 4711              		.loc 1 1053 2 is_stmt 1 view .LVU1832
1053:/opt/XMClib/XMC_Peripheral_Library_v2.1.16/XMCLib/src/xmc_usbd.c **** }
 4712              		.loc 1 1053 12 is_stmt 0 view .LVU1833
 4713 0002 D3F8A421 		ldr	r2, [r3, #420]
1053:/opt/XMClib/XMC_Peripheral_Library_v2.1.16/XMCLib/src/xmc_usbd.c **** }
 4714              		.loc 1 1053 38 view .LVU1834
 4715 0006 1369     		ldr	r3, [r2, #16]
 4716 0008 1843     		orrs	r0, r0, r3
 4717              	.LVL327:
1053:/opt/XMClib/XMC_Peripheral_Library_v2.1.16/XMCLib/src/xmc_usbd.c **** }
 4718              		.loc 1 1053 38 view .LVU1835
 4719 000a 1061     		str	r0, [r2, #16]
 4720              	.LVL328:
1054:/opt/XMClib/XMC_Peripheral_Library_v2.1.16/XMCLib/src/xmc_usbd.c **** 
 4721              		.loc 1 1054 1 view .LVU1836
 4722 000c 7047     		bx	lr
 4723              	.L364:
 4724 000e 00BF     		.align	2
 4725              	.L363:
 4726 0010 00000000 		.word	.LANCHOR0
 4727              		.cfi_endproc
 4728              	.LFE185:
 4730              		.global	Driver_USBD0
 4731              		.global	usbd_init
 4732              		.global	xmc_device
 4733              		.global	XMC_USBD_EP_IN_BUFFERSIZE
 4734              		.global	XMC_USBD_EP_OUT_BUFFERSIZE
 4735              		.section	.rodata
 4736              		.align	2
 4739              	Driver_USBD0:
 4740 0000 00000000 		.word	XMC_USBD_GetCapabilities
 4741 0004 00000000 		.word	XMC_USBD_Init
 4742 0008 00000000 		.word	XMC_USBD_Uninitialize
 4743 000c 00000000 		.word	XMC_USBD_DeviceConnect
 4744 0010 00000000 		.word	XMC_USBD_DeviceDisconnect
 4745 0014 00000000 		.word	XMC_USBD_DeviceGetState
 4746 0018 00000000 		.word	XMC_USBD_DeviceSetAddress
 4747 001c 00000000 		.word	XMC_USBD_EndpointConfigure
 4748 0020 00000000 		.word	XMC_USBD_EndpointUnconfigure
 4749 0024 00000000 		.word	XMC_USBD_EndpointStall
 4750 0028 00000000 		.word	XMC_USBD_EndpointReadStart
 4751 002c 00000000 		.word	XMC_USBD_EndpointRead
 4752 0030 00000000 		.word	XMC_USBD_EndpointWrite
 4753 0034 00000000 		.word	XMC_USBD_EndpointAbort
 4754 0038 00000000 		.word	XMC_USBD_GetFrameNumber
 4755 003c 00000000 		.word	XMC_USBD_IsEnumDone
 4756              		.bss
 4757              		.align	2
 4758              		.set	.LANCHOR0,. + 0
 4761              	xmc_device:
 4762 0000 00000000 		.space	520
 4762      00000000 
 4762      00000000 
 4762      00000000 
 4762      00000000 
 4765              	usbd_init:
 4766 0208 00000000 		.space	4
 4769              	XMC_USBD_EP_IN_BUFFERSIZE:
 4770 020c 00000000 		.space	28
 4770      00000000 
 4770      00000000 
 4770      00000000 
 4770      00000000 
 4773              	XMC_USBD_EP_OUT_BUFFERSIZE:
 4774 0228 00000000 		.space	28
 4774      00000000 
 4774      00000000 
 4774      00000000 
 4774      00000000 
 4775              		.section	USB_RAM,"aw"
 4776              		.align	2
 4777              		.set	.LANCHOR1,. + 0
 4780              	XMC_USBD_EP_IN_BUFFER:
 4781 0000 00000000 		.space	1792
 4781      00000000 
 4781      00000000 
 4781      00000000 
 4781      00000000 
 4784              	XMC_USBD_EP_OUT_BUFFER:
 4785 0700 00000000 		.space	1792
 4785      00000000 
 4785      00000000 
 4785      00000000 
 4785      00000000 
 4786              		.text
 4787              	.Letext0:
 4788              		.file 2 "/usr/share/gcc-arm-none-eabi-10.3-2021.10/arm-none-eabi/include/machine/_default_types.h"
 4789              		.file 3 "/usr/share/gcc-arm-none-eabi-10.3-2021.10/arm-none-eabi/include/sys/_stdint.h"
 4790              		.file 4 "/opt/XMClib/XMC_Peripheral_Library_v2.1.16/CMSIS/Infineon/XMC4500_series/Include/XMC4500.
 4791              		.file 5 "/opt/XMClib/XMC_Peripheral_Library_v2.1.16/XMCLib/inc/xmc_usbd_regs.h"
 4792              		.file 6 "/opt/XMClib/XMC_Peripheral_Library_v2.1.16/XMCLib/inc/xmc4_scu.h"
 4793              		.file 7 "/opt/XMClib/XMC_Peripheral_Library_v2.1.16/XMCLib/inc/xmc_usbd.h"
 4794              		.file 8 "<built-in>"
DEFINED SYMBOLS
                            *ABS*:0000000000000000 xmc_usbd.c
     /tmp/ccNFik5N.s:19     .text.XMC_USBD_lReadFifo:0000000000000000 $t
     /tmp/ccNFik5N.s:25     .text.XMC_USBD_lReadFifo:0000000000000000 XMC_USBD_lReadFifo
     /tmp/ccNFik5N.s:182    .text.XMC_USBD_lReadFifo:000000000000009c $d
     /tmp/ccNFik5N.s:187    .text.XMC_USBD_lStartReadXfer:0000000000000000 $t
     /tmp/ccNFik5N.s:193    .text.XMC_USBD_lStartReadXfer:0000000000000000 XMC_USBD_lStartReadXfer
     /tmp/ccNFik5N.s:336    .text.XMC_USBD_lStartReadXfer:0000000000000090 $d
     /tmp/ccNFik5N.s:342    .text.XMC_USBD_lStartWriteXfer:0000000000000000 $t
     /tmp/ccNFik5N.s:348    .text.XMC_USBD_lStartWriteXfer:0000000000000000 XMC_USBD_lStartWriteXfer
     /tmp/ccNFik5N.s:502    .text.XMC_USBD_lStartWriteXfer:00000000000000a4 $d
     /tmp/ccNFik5N.s:508    .text.XMC_USBD_GetCapabilities:0000000000000000 $t
     /tmp/ccNFik5N.s:515    .text.XMC_USBD_GetCapabilities:0000000000000000 XMC_USBD_GetCapabilities
     /tmp/ccNFik5N.s:542    .text.XMC_USBD_DeviceConnect:0000000000000000 $t
     /tmp/ccNFik5N.s:549    .text.XMC_USBD_DeviceConnect:0000000000000000 XMC_USBD_DeviceConnect
     /tmp/ccNFik5N.s:578    .text.XMC_USBD_DeviceConnect:0000000000000014 $d
     /tmp/ccNFik5N.s:583    .text.XMC_USBD_DeviceDisconnect:0000000000000000 $t
     /tmp/ccNFik5N.s:590    .text.XMC_USBD_DeviceDisconnect:0000000000000000 XMC_USBD_DeviceDisconnect
     /tmp/ccNFik5N.s:620    .text.XMC_USBD_DeviceDisconnect:0000000000000014 $d
     /tmp/ccNFik5N.s:625    .text.XMC_USBD_EndpointReadStart:0000000000000000 $t
     /tmp/ccNFik5N.s:632    .text.XMC_USBD_EndpointReadStart:0000000000000000 XMC_USBD_EndpointReadStart
     /tmp/ccNFik5N.s:719    .text.XMC_USBD_EndpointReadStart:000000000000004c $d
     /tmp/ccNFik5N.s:724    .text.XMC_USBD_DeviceSetAddress:0000000000000000 $t
     /tmp/ccNFik5N.s:731    .text.XMC_USBD_DeviceSetAddress:0000000000000000 XMC_USBD_DeviceSetAddress
     /tmp/ccNFik5N.s:766    .text.XMC_USBD_DeviceSetAddress:0000000000000014 $d
     /tmp/ccNFik5N.s:771    .text.XMC_USBD_EndpointStall:0000000000000000 $t
     /tmp/ccNFik5N.s:778    .text.XMC_USBD_EndpointStall:0000000000000000 XMC_USBD_EndpointStall
     /tmp/ccNFik5N.s:891    .text.XMC_USBD_EndpointStall:0000000000000078 $d
     /tmp/ccNFik5N.s:896    .text.XMC_USBD_EndpointAbort:0000000000000000 $t
     /tmp/ccNFik5N.s:903    .text.XMC_USBD_EndpointAbort:0000000000000000 XMC_USBD_EndpointAbort
     /tmp/ccNFik5N.s:966    .text.XMC_USBD_EndpointAbort:000000000000003c $d
     /tmp/ccNFik5N.s:971    .text.XMC_USBD_EndpointUnconfigure:0000000000000000 $t
     /tmp/ccNFik5N.s:978    .text.XMC_USBD_EndpointUnconfigure:0000000000000000 XMC_USBD_EndpointUnconfigure
     /tmp/ccNFik5N.s:1198   .text.XMC_USBD_EndpointUnconfigure:00000000000000e8 $d
     /tmp/ccNFik5N.s:1203   .text.XMC_USBD_GetFrameNumber:0000000000000000 $t
     /tmp/ccNFik5N.s:1210   .text.XMC_USBD_GetFrameNumber:0000000000000000 XMC_USBD_GetFrameNumber
     /tmp/ccNFik5N.s:1236   .text.XMC_USBD_GetFrameNumber:0000000000000010 $d
     /tmp/ccNFik5N.s:1241   .text.XMC_USBD_IsEnumDone:0000000000000000 $t
     /tmp/ccNFik5N.s:1248   .text.XMC_USBD_IsEnumDone:0000000000000000 XMC_USBD_IsEnumDone
     /tmp/ccNFik5N.s:1268   .text.XMC_USBD_IsEnumDone:0000000000000018 $d
     /tmp/ccNFik5N.s:1273   .text.XMC_USBD_Uninitialize:0000000000000000 $t
     /tmp/ccNFik5N.s:1280   .text.XMC_USBD_Uninitialize:0000000000000000 XMC_USBD_Uninitialize
     /tmp/ccNFik5N.s:1321   .text.XMC_USBD_Uninitialize:0000000000000020 $d
     /tmp/ccNFik5N.s:1326   .text.XMC_USBD_EndpointConfigure:0000000000000000 $t
     /tmp/ccNFik5N.s:1333   .text.XMC_USBD_EndpointConfigure:0000000000000000 XMC_USBD_EndpointConfigure
     /tmp/ccNFik5N.s:1881   .text.XMC_USBD_EndpointConfigure:0000000000000274 $d
     /tmp/ccNFik5N.s:1888   .text.XMC_USBD_Init:0000000000000000 $t
     /tmp/ccNFik5N.s:1895   .text.XMC_USBD_Init:0000000000000000 XMC_USBD_Init
     /tmp/ccNFik5N.s:2250   .text.XMC_USBD_Init:000000000000014c $d
     /tmp/ccNFik5N.s:2259   .text.XMC_USBD_EndpointRead:0000000000000000 $t
     /tmp/ccNFik5N.s:2266   .text.XMC_USBD_EndpointRead:0000000000000000 XMC_USBD_EndpointRead
     /tmp/ccNFik5N.s:2337   .text.XMC_USBD_EndpointRead:000000000000003c $d
     /tmp/ccNFik5N.s:2342   .text.XMC_USBD_EndpointWrite:0000000000000000 $t
     /tmp/ccNFik5N.s:2349   .text.XMC_USBD_EndpointWrite:0000000000000000 XMC_USBD_EndpointWrite
     /tmp/ccNFik5N.s:2454   .text.XMC_USBD_EndpointWrite:000000000000005c $d
     /tmp/ccNFik5N.s:2459   .text.XMC_USBD_DeviceGetState:0000000000000000 $t
     /tmp/ccNFik5N.s:2466   .text.XMC_USBD_DeviceGetState:0000000000000000 XMC_USBD_DeviceGetState
     /tmp/ccNFik5N.s:2602   .text.XMC_USBD_DeviceGetState:0000000000000070 $d
     /tmp/ccNFik5N.s:2609   .text.XMC_USBD_lDeviceActive:0000000000000000 $t
     /tmp/ccNFik5N.s:2616   .text.XMC_USBD_lDeviceActive:0000000000000000 XMC_USBD_lDeviceActive
     /tmp/ccNFik5N.s:2716   .text.XMC_USBD_lDeviceActive:0000000000000044 $d
     /tmp/ccNFik5N.s:2721   .text.XMC_USBD_IRQHandler:0000000000000000 $t
     /tmp/ccNFik5N.s:2728   .text.XMC_USBD_IRQHandler:0000000000000000 XMC_USBD_IRQHandler
     /tmp/ccNFik5N.s:3467   .text.XMC_USBD_IRQHandler:0000000000000258 $d
     /tmp/ccNFik5N.s:3490   .text.XMC_USBD_IRQHandler:000000000000025c $t
     /tmp/ccNFik5N.s:4325   .text.XMC_USBD_IRQHandler:0000000000000554 $d
     /tmp/ccNFik5N.s:4340   .text.XMC_USBD_Enable:0000000000000000 $t
     /tmp/ccNFik5N.s:4347   .text.XMC_USBD_Enable:0000000000000000 XMC_USBD_Enable
     /tmp/ccNFik5N.s:4377   .text.XMC_USBD_Enable:0000000000000010 $d
     /tmp/ccNFik5N.s:4382   .text.XMC_USBD_Disable:0000000000000000 $t
     /tmp/ccNFik5N.s:4389   .text.XMC_USBD_Disable:0000000000000000 XMC_USBD_Disable
     /tmp/ccNFik5N.s:4419   .text.XMC_USBD_Disable:0000000000000010 $d
     /tmp/ccNFik5N.s:4424   .text.XMC_USBD_ClearEvent:0000000000000000 $t
     /tmp/ccNFik5N.s:4431   .text.XMC_USBD_ClearEvent:0000000000000000 XMC_USBD_ClearEvent
     /tmp/ccNFik5N.s:4446   .text.XMC_USBD_ClearEvent:0000000000000008 $d
     /tmp/ccNFik5N.s:4460   .text.XMC_USBD_ClearEvent:0000000000000016 $t
     /tmp/ccNFik5N.s:4570   .text.XMC_USBD_ClearEvent:0000000000000088 $d
     /tmp/ccNFik5N.s:4575   .text.XMC_USBD_ClearEventINEP:0000000000000000 $t
     /tmp/ccNFik5N.s:4582   .text.XMC_USBD_ClearEventINEP:0000000000000000 XMC_USBD_ClearEventINEP
     /tmp/ccNFik5N.s:4608   .text.XMC_USBD_ClearEventINEP:000000000000000c $d
     /tmp/ccNFik5N.s:4613   .text.XMC_USBD_ClearEventOUTEP:0000000000000000 $t
     /tmp/ccNFik5N.s:4620   .text.XMC_USBD_ClearEventOUTEP:0000000000000000 XMC_USBD_ClearEventOUTEP
     /tmp/ccNFik5N.s:4646   .text.XMC_USBD_ClearEventOUTEP:0000000000000010 $d
     /tmp/ccNFik5N.s:4651   .text.XMC_USBD_EnableEventOUTEP:0000000000000000 $t
     /tmp/ccNFik5N.s:4658   .text.XMC_USBD_EnableEventOUTEP:0000000000000000 XMC_USBD_EnableEventOUTEP
     /tmp/ccNFik5N.s:4686   .text.XMC_USBD_EnableEventOUTEP:0000000000000010 $d
     /tmp/ccNFik5N.s:4691   .text.XMC_USBD_EnableEventINEP:0000000000000000 $t
     /tmp/ccNFik5N.s:4698   .text.XMC_USBD_EnableEventINEP:0000000000000000 XMC_USBD_EnableEventINEP
     /tmp/ccNFik5N.s:4726   .text.XMC_USBD_EnableEventINEP:0000000000000010 $d
     /tmp/ccNFik5N.s:4739   .rodata:0000000000000000 Driver_USBD0
     /tmp/ccNFik5N.s:4765   .bss:0000000000000208 usbd_init
     /tmp/ccNFik5N.s:4761   .bss:0000000000000000 xmc_device
     /tmp/ccNFik5N.s:4769   .bss:000000000000020c XMC_USBD_EP_IN_BUFFERSIZE
     /tmp/ccNFik5N.s:4773   .bss:0000000000000228 XMC_USBD_EP_OUT_BUFFERSIZE
     /tmp/ccNFik5N.s:4736   .rodata:0000000000000000 $d
     /tmp/ccNFik5N.s:4757   .bss:0000000000000000 $d
     /tmp/ccNFik5N.s:4776   USB_RAM:0000000000000000 $d
     /tmp/ccNFik5N.s:4780   USB_RAM:0000000000000000 XMC_USBD_EP_IN_BUFFER
     /tmp/ccNFik5N.s:4784   USB_RAM:0000000000000700 XMC_USBD_EP_OUT_BUFFER
                           .group:0000000000000000 wm4.0.4841640436a64d53c1d2fc86e9addfab
                           .group:0000000000000000 wm4.stddef.h.39.27677723d43e5b5a7afdf8d798429f1d
                           .group:0000000000000000 wm4._newlib_version.h.4.bfdf54b0af045d4a71376ae00f63a22c
                           .group:0000000000000000 wm4.features.h.33.5bd1eea2d80518b50f7af0b5ce6750e0
                           .group:0000000000000000 wm4._default_types.h.15.247e5cd201eca3442cbf5404108c4935
                           .group:0000000000000000 wm4._intsup.h.10.48bafbb683905c4daa4565a85aeeb264
                           .group:0000000000000000 wm4._stdint.h.10.c24fa3af3bc1706662bb5593a907e841
                           .group:0000000000000000 wm4.stdint.h.23.d53047a68f4a85177f80b422d52785ed
                           .group:0000000000000000 wm4.stdbool.h.29.07dce69c3b78884144b7f7bd19483461
                           .group:0000000000000000 wm4.newlib.h.8.7cb3972cd43265932d4782d5eb589854
                           .group:0000000000000000 wm4.ieeefp.h.77.c88535c35f465c05b101960cf0179075
                           .group:0000000000000000 wm4.config.h.224.c701144a7b0518c6ee9b9b5465b79f81
                           .group:0000000000000000 wm4._ansi.h.31.de524f58584151836e90d8620a16f8e8
                           .group:0000000000000000 wm4._types.h.20.dd0d04dca3800a0d2a6129b87f3adbb2
                           .group:0000000000000000 wm4.stddef.h.155.3588ebfdd1e8c7ede80509bb9c3b8009
                           .group:0000000000000000 wm4._types.h.127.34941de1b2539d59d5cac00e0dd27a45
                           .group:0000000000000000 wm4.reent.h.17.e292bf8b0bec6c96e131a54347145a30
                           .group:0000000000000000 wm4.lock.h.2.1461d1fff82dffe8bfddc23307f6484f
                           .group:0000000000000000 wm4.reent.h.77.dcd6129ff07fe81bd5636db29abe53b2
                           .group:0000000000000000 wm4.cdefs.h.49.a54b2d5c07711bc7320a3fea9f12cb56
                           .group:0000000000000000 wm4.string.h.15.dab3980bf35408a4c507182805e2de3a
                           .group:0000000000000000 wm4.stddef.h.155.ba788add86a0e365f264484f110c3c29
                           .group:0000000000000000 wm4.xmc_device.h.61.ba2d082e12f51240746cffdd60d42b81
                           .group:0000000000000000 wm4.XMC4500.h.55.9aa45b9b5790506b2dcb963e4e7adeaf
                           .group:0000000000000000 wm4.core_cm4.h.32.6c6eb1c8daeca23ce7ba79c8e8120d52
                           .group:0000000000000000 wm4.cmsis_gcc.h.26.91b63349961c35637933e4fba51b867b
                           .group:0000000000000000 wm4.core_cm4.h.172.fdd5a388a160bb6ff767b7d7ee212268
                           .group:0000000000000000 wm4.system_XMC4500.h.42.99124977c10ca8844a71949adbeabd70
                           .group:0000000000000000 wm4.XMC4500.h.208.b340195df97f067735c4c769ba59985a
                           .group:0000000000000000 wm4.xmc_device.h.1460.8860499b404961ffcfbb8d1fefcb2146
                           .group:0000000000000000 wm4.xmc_common.h.92.3f4336a80569affab05a81145b87c2fc
                           .group:0000000000000000 wm4.stdlib.h.13.4ed386f5c1a80d71e72172885d946ef2
                           .group:0000000000000000 wm4.alloca.h.8.dfc0c703c47ec3e69746825b17d9e66d
                           .group:0000000000000000 wm4.stdlib.h.56.f4862cfbf4363a1db01842d5bdf72c18
                           .group:0000000000000000 wm4.xmc_usbd_regs.h.80.57c6c85fa0ecbc9f8327ce445aebb9bc
                           .group:0000000000000000 wm4.xmc4_scu.h.83.0449f5880ac071460ec1a8072311ea51
                           .group:0000000000000000 wm4.xmc_usbd.h.122.ce57a9e6a9da48ee33ece02813c49593

UNDEFINED SYMBOLS
memset
XMC_SCU_RESET_DeassertPeripheralReset
XMC_SCU_POWER_EnableUsb
memcpy
XMC_SCU_RESET_AssertPeripheralReset
XMC_SCU_POWER_DisableUsb
