   1              		.cpu cortex-m4
   2              		.arch armv7e-m
   3              		.fpu fpv4-sp-d16
   4              		.eabi_attribute 27, 1
   5              		.eabi_attribute 20, 1
   6              		.eabi_attribute 21, 1
   7              		.eabi_attribute 23, 3
   8              		.eabi_attribute 24, 1
   9              		.eabi_attribute 25, 1
  10              		.eabi_attribute 26, 1
  11              		.eabi_attribute 30, 2
  12              		.eabi_attribute 34, 1
  13              		.eabi_attribute 18, 4
  14              		.file	"xmc_usbd.c"
  15              		.text
  16              	.Ltext0:
  17              		.cfi_sections	.debug_frame
  18              		.section	.text.XMC_USBD_lReadFifo,"ax",%progbits
  19              		.align	1
  20              		.p2align 2,,3
  21              		.syntax unified
  22              		.thumb
  23              		.thumb_func
  25              	XMC_USBD_lReadFifo:
  26              	.LVL0:
  27              	.LFB163:
  28              		.file 1 "/opt/XMClib/XMC_Peripheral_Library_v2.1.16/XMCLib/src/xmc_usbd.c"
   1:/opt/XMClib/XMC_Peripheral_Library_v2.1.16/XMCLib/src/xmc_usbd.c **** /**
   2:/opt/XMClib/XMC_Peripheral_Library_v2.1.16/XMCLib/src/xmc_usbd.c ****  * @file xmc_usbd.c
   3:/opt/XMClib/XMC_Peripheral_Library_v2.1.16/XMCLib/src/xmc_usbd.c ****  * @date 2015-06-20
   4:/opt/XMClib/XMC_Peripheral_Library_v2.1.16/XMCLib/src/xmc_usbd.c ****  *
   5:/opt/XMClib/XMC_Peripheral_Library_v2.1.16/XMCLib/src/xmc_usbd.c ****  * @cond
   6:/opt/XMClib/XMC_Peripheral_Library_v2.1.16/XMCLib/src/xmc_usbd.c ****  **********************************************************************************
   7:/opt/XMClib/XMC_Peripheral_Library_v2.1.16/XMCLib/src/xmc_usbd.c ****  * XMClib v2.1.16 - XMC Peripheral Driver Library 
   8:/opt/XMClib/XMC_Peripheral_Library_v2.1.16/XMCLib/src/xmc_usbd.c ****  *
   9:/opt/XMClib/XMC_Peripheral_Library_v2.1.16/XMCLib/src/xmc_usbd.c ****  * Copyright (c) 2015-2017, Infineon Technologies AG
  10:/opt/XMClib/XMC_Peripheral_Library_v2.1.16/XMCLib/src/xmc_usbd.c ****  * All rights reserved.                        
  11:/opt/XMClib/XMC_Peripheral_Library_v2.1.16/XMCLib/src/xmc_usbd.c ****  *                                             
  12:/opt/XMClib/XMC_Peripheral_Library_v2.1.16/XMCLib/src/xmc_usbd.c ****  * Redistribution and use in source and binary forms, with or without           
  13:/opt/XMClib/XMC_Peripheral_Library_v2.1.16/XMCLib/src/xmc_usbd.c ****  * modification,are permitted provided that the following conditions are met:   
  14:/opt/XMClib/XMC_Peripheral_Library_v2.1.16/XMCLib/src/xmc_usbd.c ****  *                                                                              
  15:/opt/XMClib/XMC_Peripheral_Library_v2.1.16/XMCLib/src/xmc_usbd.c ****  *   Redistributions of source code must retain the above copyright notice,      
  16:/opt/XMClib/XMC_Peripheral_Library_v2.1.16/XMCLib/src/xmc_usbd.c ****  *   this list of conditions and the following disclaimer.                        
  17:/opt/XMClib/XMC_Peripheral_Library_v2.1.16/XMCLib/src/xmc_usbd.c ****  * 
  18:/opt/XMClib/XMC_Peripheral_Library_v2.1.16/XMCLib/src/xmc_usbd.c ****  *   Redistributions in binary form must reproduce the above copyright notice,   
  19:/opt/XMClib/XMC_Peripheral_Library_v2.1.16/XMCLib/src/xmc_usbd.c ****  *   this list of conditions and the following disclaimer in the documentation    
  20:/opt/XMClib/XMC_Peripheral_Library_v2.1.16/XMCLib/src/xmc_usbd.c ****  *   and/or other materials provided with the distribution.                       
  21:/opt/XMClib/XMC_Peripheral_Library_v2.1.16/XMCLib/src/xmc_usbd.c ****  * 
  22:/opt/XMClib/XMC_Peripheral_Library_v2.1.16/XMCLib/src/xmc_usbd.c ****  *   Neither the name of the copyright holders nor the names of its contributors 
  23:/opt/XMClib/XMC_Peripheral_Library_v2.1.16/XMCLib/src/xmc_usbd.c ****  *   may be used to endorse or promote products derived from this software without
  24:/opt/XMClib/XMC_Peripheral_Library_v2.1.16/XMCLib/src/xmc_usbd.c ****  *   specific prior written permission.                                           
  25:/opt/XMClib/XMC_Peripheral_Library_v2.1.16/XMCLib/src/xmc_usbd.c ****  *                                                                              
  26:/opt/XMClib/XMC_Peripheral_Library_v2.1.16/XMCLib/src/xmc_usbd.c ****  * THIS SOFTWARE IS PROVIDED BY THE COPYRIGHT HOLDERS AND CONTRIBUTORS "AS IS"  
  27:/opt/XMClib/XMC_Peripheral_Library_v2.1.16/XMCLib/src/xmc_usbd.c ****  * AND ANY EXPRESS OR IMPLIED WARRANTIES, INCLUDING, BUT NOT LIMITED TO, THE    
  28:/opt/XMClib/XMC_Peripheral_Library_v2.1.16/XMCLib/src/xmc_usbd.c ****  * IMPLIED WARRANTIES OF MERCHANTABILITY AND FITNESS FOR A PARTICULAR PURPOSE   
  29:/opt/XMClib/XMC_Peripheral_Library_v2.1.16/XMCLib/src/xmc_usbd.c ****  * ARE  DISCLAIMED. IN NO EVENT SHALL THE COPYRIGHT HOLDER OR CONTRIBUTORS BE   
  30:/opt/XMClib/XMC_Peripheral_Library_v2.1.16/XMCLib/src/xmc_usbd.c ****  * LIABLE  FOR ANY DIRECT, INDIRECT, INCIDENTAL, SPECIAL, EXEMPLARY, OR         
  31:/opt/XMClib/XMC_Peripheral_Library_v2.1.16/XMCLib/src/xmc_usbd.c ****  * CONSEQUENTIAL DAMAGES (INCLUDING, BUT NOT LIMITED TO, PROCUREMENT OF         
  32:/opt/XMClib/XMC_Peripheral_Library_v2.1.16/XMCLib/src/xmc_usbd.c ****  * SUBSTITUTE GOODS OR  SERVICES; LOSS OF USE, DATA, OR PROFITS; OR BUSINESS    
  33:/opt/XMClib/XMC_Peripheral_Library_v2.1.16/XMCLib/src/xmc_usbd.c ****  * INTERRUPTION) HOWEVER CAUSED AND ON ANY THEORY OF LIABILITY, WHETHER IN      
  34:/opt/XMClib/XMC_Peripheral_Library_v2.1.16/XMCLib/src/xmc_usbd.c ****  * CONTRACT, STRICT LIABILITY,OR TORT (INCLUDING NEGLIGENCE OR OTHERWISE)       
  35:/opt/XMClib/XMC_Peripheral_Library_v2.1.16/XMCLib/src/xmc_usbd.c ****  * ARISING IN ANY WAY OUT OF THE USE OF THIS SOFTWARE, EVEN IF ADVISED OF THE   
  36:/opt/XMClib/XMC_Peripheral_Library_v2.1.16/XMCLib/src/xmc_usbd.c ****  * POSSIBILITY OF SUCH DAMAGE.                                                  
  37:/opt/XMClib/XMC_Peripheral_Library_v2.1.16/XMCLib/src/xmc_usbd.c ****  *                                                                              
  38:/opt/XMClib/XMC_Peripheral_Library_v2.1.16/XMCLib/src/xmc_usbd.c ****  * To improve the quality of the software, users are encouraged to share        
  39:/opt/XMClib/XMC_Peripheral_Library_v2.1.16/XMCLib/src/xmc_usbd.c ****  * modifications, enhancements or bug fixes with Infineon Technologies AG       
  40:/opt/XMClib/XMC_Peripheral_Library_v2.1.16/XMCLib/src/xmc_usbd.c ****  * dave@infineon.com).                                                          
  41:/opt/XMClib/XMC_Peripheral_Library_v2.1.16/XMCLib/src/xmc_usbd.c ****  **********************************************************************************
  42:/opt/XMClib/XMC_Peripheral_Library_v2.1.16/XMCLib/src/xmc_usbd.c ****  *
  43:/opt/XMClib/XMC_Peripheral_Library_v2.1.16/XMCLib/src/xmc_usbd.c ****  * Change History
  44:/opt/XMClib/XMC_Peripheral_Library_v2.1.16/XMCLib/src/xmc_usbd.c ****  * --------------
  45:/opt/XMClib/XMC_Peripheral_Library_v2.1.16/XMCLib/src/xmc_usbd.c ****  *
  46:/opt/XMClib/XMC_Peripheral_Library_v2.1.16/XMCLib/src/xmc_usbd.c ****  * 2015-02-16:
  47:/opt/XMClib/XMC_Peripheral_Library_v2.1.16/XMCLib/src/xmc_usbd.c ****  *     - Initial Version.<br>           
  48:/opt/XMClib/XMC_Peripheral_Library_v2.1.16/XMCLib/src/xmc_usbd.c ****  * 2015-03-18:
  49:/opt/XMClib/XMC_Peripheral_Library_v2.1.16/XMCLib/src/xmc_usbd.c ****  *     - Updated the XMC_USBD_EndpointStall() to fix issue on USB clear stall. <br>
  50:/opt/XMClib/XMC_Peripheral_Library_v2.1.16/XMCLib/src/xmc_usbd.c ****  *     - Updated the XMC_USBD_EndpointConfigure() to fix issue in EP0 configuration.<br>
  51:/opt/XMClib/XMC_Peripheral_Library_v2.1.16/XMCLib/src/xmc_usbd.c ****  *     - Updated the XMC_USBD_IRQHandler()(Removed the DAVE_CE check on SOF event).<br>
  52:/opt/XMClib/XMC_Peripheral_Library_v2.1.16/XMCLib/src/xmc_usbd.c ****  * 2015-06-20:
  53:/opt/XMClib/XMC_Peripheral_Library_v2.1.16/XMCLib/src/xmc_usbd.c ****  *     - Removed GetDriverVersion API.<br>
  54:/opt/XMClib/XMC_Peripheral_Library_v2.1.16/XMCLib/src/xmc_usbd.c ****  *     - Updated the XMC_USBD_IsEnumDone() API.<br>
  55:/opt/XMClib/XMC_Peripheral_Library_v2.1.16/XMCLib/src/xmc_usbd.c ****  *     - Updated the copy right in the file header.<br>
  56:/opt/XMClib/XMC_Peripheral_Library_v2.1.16/XMCLib/src/xmc_usbd.c ****  *     - Updated the XMC_USBD_Disable() API to gate the clock after programming the SCU registers.<
  57:/opt/XMClib/XMC_Peripheral_Library_v2.1.16/XMCLib/src/xmc_usbd.c ****  *
  58:/opt/XMClib/XMC_Peripheral_Library_v2.1.16/XMCLib/src/xmc_usbd.c ****  * @endcond 
  59:/opt/XMClib/XMC_Peripheral_Library_v2.1.16/XMCLib/src/xmc_usbd.c ****  *
  60:/opt/XMClib/XMC_Peripheral_Library_v2.1.16/XMCLib/src/xmc_usbd.c ****  */
  61:/opt/XMClib/XMC_Peripheral_Library_v2.1.16/XMCLib/src/xmc_usbd.c **** 
  62:/opt/XMClib/XMC_Peripheral_Library_v2.1.16/XMCLib/src/xmc_usbd.c **** 
  63:/opt/XMClib/XMC_Peripheral_Library_v2.1.16/XMCLib/src/xmc_usbd.c **** /*******************************************************************************
  64:/opt/XMClib/XMC_Peripheral_Library_v2.1.16/XMCLib/src/xmc_usbd.c ****  * HEADER FILES
  65:/opt/XMClib/XMC_Peripheral_Library_v2.1.16/XMCLib/src/xmc_usbd.c ****  *******************************************************************************/
  66:/opt/XMClib/XMC_Peripheral_Library_v2.1.16/XMCLib/src/xmc_usbd.c **** #include <xmc_usbd.h>
  67:/opt/XMClib/XMC_Peripheral_Library_v2.1.16/XMCLib/src/xmc_usbd.c **** 
  68:/opt/XMClib/XMC_Peripheral_Library_v2.1.16/XMCLib/src/xmc_usbd.c **** #if defined(USB0)
  69:/opt/XMClib/XMC_Peripheral_Library_v2.1.16/XMCLib/src/xmc_usbd.c **** 	
  70:/opt/XMClib/XMC_Peripheral_Library_v2.1.16/XMCLib/src/xmc_usbd.c **** /**< macro to check the maximum number of endpoints used*/
  71:/opt/XMClib/XMC_Peripheral_Library_v2.1.16/XMCLib/src/xmc_usbd.c **** #define XMC_USBD_CHECK_INPUT_MAX_NUM_EPS(usbd_max_num_eps) \
  72:/opt/XMClib/XMC_Peripheral_Library_v2.1.16/XMCLib/src/xmc_usbd.c ****   ((usbd_max_num_eps ==  XMC_USBD_MAX_NUM_EPS_1 ) || \
  73:/opt/XMClib/XMC_Peripheral_Library_v2.1.16/XMCLib/src/xmc_usbd.c ****    (usbd_max_num_eps ==  XMC_USBD_MAX_NUM_EPS_2 ) || \
  74:/opt/XMClib/XMC_Peripheral_Library_v2.1.16/XMCLib/src/xmc_usbd.c ****    (usbd_max_num_eps ==  XMC_USBD_MAX_NUM_EPS_3 ) || \
  75:/opt/XMClib/XMC_Peripheral_Library_v2.1.16/XMCLib/src/xmc_usbd.c ****    (usbd_max_num_eps ==  XMC_USBD_MAX_NUM_EPS_4 ) || \
  76:/opt/XMClib/XMC_Peripheral_Library_v2.1.16/XMCLib/src/xmc_usbd.c ****    (usbd_max_num_eps ==  XMC_USBD_MAX_NUM_EPS_5 ) || \
  77:/opt/XMClib/XMC_Peripheral_Library_v2.1.16/XMCLib/src/xmc_usbd.c ****    (usbd_max_num_eps ==  XMC_USBD_MAX_NUM_EPS_6 ) || \
  78:/opt/XMClib/XMC_Peripheral_Library_v2.1.16/XMCLib/src/xmc_usbd.c ****    (usbd_max_num_eps == XMC_USBD_MAX_NUM_EPS_7 ))
  79:/opt/XMClib/XMC_Peripheral_Library_v2.1.16/XMCLib/src/xmc_usbd.c **** 
  80:/opt/XMClib/XMC_Peripheral_Library_v2.1.16/XMCLib/src/xmc_usbd.c **** /*******************************************************************************
  81:/opt/XMClib/XMC_Peripheral_Library_v2.1.16/XMCLib/src/xmc_usbd.c ****  *GLOBAL DATA
  82:/opt/XMClib/XMC_Peripheral_Library_v2.1.16/XMCLib/src/xmc_usbd.c ****  *******************************************************************************/
  83:/opt/XMClib/XMC_Peripheral_Library_v2.1.16/XMCLib/src/xmc_usbd.c **** /*
  84:/opt/XMClib/XMC_Peripheral_Library_v2.1.16/XMCLib/src/xmc_usbd.c ****  * Endpoint Out Fifo Size
  85:/opt/XMClib/XMC_Peripheral_Library_v2.1.16/XMCLib/src/xmc_usbd.c ****  */
  86:/opt/XMClib/XMC_Peripheral_Library_v2.1.16/XMCLib/src/xmc_usbd.c **** uint32_t XMC_USBD_EP_OUT_BUFFERSIZE[7] = {0U,0U,0U,0U,0U,0U,0U};
  87:/opt/XMClib/XMC_Peripheral_Library_v2.1.16/XMCLib/src/xmc_usbd.c **** /*
  88:/opt/XMClib/XMC_Peripheral_Library_v2.1.16/XMCLib/src/xmc_usbd.c ****  * Endpoint In Fifo Size
  89:/opt/XMClib/XMC_Peripheral_Library_v2.1.16/XMCLib/src/xmc_usbd.c ****  */
  90:/opt/XMClib/XMC_Peripheral_Library_v2.1.16/XMCLib/src/xmc_usbd.c **** uint32_t XMC_USBD_EP_IN_BUFFERSIZE[7] = {0U,0U,0U,0U,0U,0U,0U};
  91:/opt/XMClib/XMC_Peripheral_Library_v2.1.16/XMCLib/src/xmc_usbd.c **** /*
  92:/opt/XMClib/XMC_Peripheral_Library_v2.1.16/XMCLib/src/xmc_usbd.c ****  * Device definition
  93:/opt/XMClib/XMC_Peripheral_Library_v2.1.16/XMCLib/src/xmc_usbd.c ****  */
  94:/opt/XMClib/XMC_Peripheral_Library_v2.1.16/XMCLib/src/xmc_usbd.c ****  XMC_USBD_DEVICE_t xmc_device;
  95:/opt/XMClib/XMC_Peripheral_Library_v2.1.16/XMCLib/src/xmc_usbd.c **** #ifdef __GNUC__															  /*GCC*/
  96:/opt/XMClib/XMC_Peripheral_Library_v2.1.16/XMCLib/src/xmc_usbd.c **** /*
  97:/opt/XMClib/XMC_Peripheral_Library_v2.1.16/XMCLib/src/xmc_usbd.c ****  * Endpoint Out Fifo
  98:/opt/XMClib/XMC_Peripheral_Library_v2.1.16/XMCLib/src/xmc_usbd.c ****  */
  99:/opt/XMClib/XMC_Peripheral_Library_v2.1.16/XMCLib/src/xmc_usbd.c **** static __attribute__((aligned(4))) uint8_t XMC_USBD_EP_OUT_BUFFER[7][256] __attribute__((section("U
 100:/opt/XMClib/XMC_Peripheral_Library_v2.1.16/XMCLib/src/xmc_usbd.c **** /*
 101:/opt/XMClib/XMC_Peripheral_Library_v2.1.16/XMCLib/src/xmc_usbd.c ****  * Endpoint In Fifo
 102:/opt/XMClib/XMC_Peripheral_Library_v2.1.16/XMCLib/src/xmc_usbd.c ****  */
 103:/opt/XMClib/XMC_Peripheral_Library_v2.1.16/XMCLib/src/xmc_usbd.c **** static __attribute__((aligned(4))) uint8_t XMC_USBD_EP_IN_BUFFER[7][256] __attribute__((section("US
 104:/opt/XMClib/XMC_Peripheral_Library_v2.1.16/XMCLib/src/xmc_usbd.c **** #endif
 105:/opt/XMClib/XMC_Peripheral_Library_v2.1.16/XMCLib/src/xmc_usbd.c **** #if defined(__ICCARM__)
 106:/opt/XMClib/XMC_Peripheral_Library_v2.1.16/XMCLib/src/xmc_usbd.c **** #pragma data_alignment=4
 107:/opt/XMClib/XMC_Peripheral_Library_v2.1.16/XMCLib/src/xmc_usbd.c **** /*
 108:/opt/XMClib/XMC_Peripheral_Library_v2.1.16/XMCLib/src/xmc_usbd.c ****  * Endpoint Out Fifo
 109:/opt/XMClib/XMC_Peripheral_Library_v2.1.16/XMCLib/src/xmc_usbd.c ****  */
 110:/opt/XMClib/XMC_Peripheral_Library_v2.1.16/XMCLib/src/xmc_usbd.c **** static uint8_t XMC_USBD_EP_OUT_BUFFER[7][256] @ ".dram";
 111:/opt/XMClib/XMC_Peripheral_Library_v2.1.16/XMCLib/src/xmc_usbd.c **** /*
 112:/opt/XMClib/XMC_Peripheral_Library_v2.1.16/XMCLib/src/xmc_usbd.c ****  * Endpoint In Fifo
 113:/opt/XMClib/XMC_Peripheral_Library_v2.1.16/XMCLib/src/xmc_usbd.c ****  */
 114:/opt/XMClib/XMC_Peripheral_Library_v2.1.16/XMCLib/src/xmc_usbd.c **** #pragma data_alignment=4
 115:/opt/XMClib/XMC_Peripheral_Library_v2.1.16/XMCLib/src/xmc_usbd.c **** static uint8_t XMC_USBD_EP_IN_BUFFER[7][256] @ ".dram";
 116:/opt/XMClib/XMC_Peripheral_Library_v2.1.16/XMCLib/src/xmc_usbd.c **** #endif
 117:/opt/XMClib/XMC_Peripheral_Library_v2.1.16/XMCLib/src/xmc_usbd.c **** #if defined(__CC_ARM)
 118:/opt/XMClib/XMC_Peripheral_Library_v2.1.16/XMCLib/src/xmc_usbd.c **** /*
 119:/opt/XMClib/XMC_Peripheral_Library_v2.1.16/XMCLib/src/xmc_usbd.c ****  * Endpoint Out Fifo
 120:/opt/XMClib/XMC_Peripheral_Library_v2.1.16/XMCLib/src/xmc_usbd.c ****  */
 121:/opt/XMClib/XMC_Peripheral_Library_v2.1.16/XMCLib/src/xmc_usbd.c **** static __attribute__((aligned(4))) uint8_t XMC_USBD_EP_OUT_BUFFER[7][256] __attribute__((section ("
 122:/opt/XMClib/XMC_Peripheral_Library_v2.1.16/XMCLib/src/xmc_usbd.c **** /*
 123:/opt/XMClib/XMC_Peripheral_Library_v2.1.16/XMCLib/src/xmc_usbd.c ****  * Endpoint In Fifo
 124:/opt/XMClib/XMC_Peripheral_Library_v2.1.16/XMCLib/src/xmc_usbd.c ****  */
 125:/opt/XMClib/XMC_Peripheral_Library_v2.1.16/XMCLib/src/xmc_usbd.c **** static __attribute__((aligned(4))) uint8_t XMC_USBD_EP_IN_BUFFER[7][256] __attribute__((section ("R
 126:/opt/XMClib/XMC_Peripheral_Library_v2.1.16/XMCLib/src/xmc_usbd.c **** #endif
 127:/opt/XMClib/XMC_Peripheral_Library_v2.1.16/XMCLib/src/xmc_usbd.c **** XMC_USBD_t *usbd_init;
 128:/opt/XMClib/XMC_Peripheral_Library_v2.1.16/XMCLib/src/xmc_usbd.c **** 
 129:/opt/XMClib/XMC_Peripheral_Library_v2.1.16/XMCLib/src/xmc_usbd.c **** /*******************************************************************************
 130:/opt/XMClib/XMC_Peripheral_Library_v2.1.16/XMCLib/src/xmc_usbd.c ****  *LOCAL ROUTINES
 131:/opt/XMClib/XMC_Peripheral_Library_v2.1.16/XMCLib/src/xmc_usbd.c ****  *******************************************************************************/
 132:/opt/XMClib/XMC_Peripheral_Library_v2.1.16/XMCLib/src/xmc_usbd.c **** /*Local routines prototypes*/
 133:/opt/XMClib/XMC_Peripheral_Library_v2.1.16/XMCLib/src/xmc_usbd.c **** uint8_t XMC_USBD_lDeviceActive(const XMC_USBD_t *const obj);
 134:/opt/XMClib/XMC_Peripheral_Library_v2.1.16/XMCLib/src/xmc_usbd.c **** static void XMC_USBD_lReadFifo(const uint32_t ep_num,const uint32_t byte_count);
 135:/opt/XMClib/XMC_Peripheral_Library_v2.1.16/XMCLib/src/xmc_usbd.c **** static uint32_t XMC_USBD_lWriteFifo(XMC_USBD_EP_t *ep);
 136:/opt/XMClib/XMC_Peripheral_Library_v2.1.16/XMCLib/src/xmc_usbd.c **** static void XMC_USBD_lFlushTXFifo(const uint8_t fifo_num);
 137:/opt/XMClib/XMC_Peripheral_Library_v2.1.16/XMCLib/src/xmc_usbd.c **** static void XMC_USBD_lFlushRXFifo(void);
 138:/opt/XMClib/XMC_Peripheral_Library_v2.1.16/XMCLib/src/xmc_usbd.c **** static uint8_t XMC_USBD_lAssignTXFifo(void);
 139:/opt/XMClib/XMC_Peripheral_Library_v2.1.16/XMCLib/src/xmc_usbd.c **** static void XMC_USBD_lStartReadXfer(XMC_USBD_EP_t *const ep);
 140:/opt/XMClib/XMC_Peripheral_Library_v2.1.16/XMCLib/src/xmc_usbd.c **** static void XMC_USBD_lStartWriteXfer(XMC_USBD_EP_t *const ep);
 141:/opt/XMClib/XMC_Peripheral_Library_v2.1.16/XMCLib/src/xmc_usbd.c **** static void XMC_USBD_lHandleEnumDone(void);
 142:/opt/XMClib/XMC_Peripheral_Library_v2.1.16/XMCLib/src/xmc_usbd.c **** static void XMC_USBD_lHandleOEPInt(const XMC_USBD_t *const obj);
 143:/opt/XMClib/XMC_Peripheral_Library_v2.1.16/XMCLib/src/xmc_usbd.c **** static void XMC_USBD_lHandleRxFLvl(void);
 144:/opt/XMClib/XMC_Peripheral_Library_v2.1.16/XMCLib/src/xmc_usbd.c **** static void XMC_USBD_lHandleIEPInt(const XMC_USBD_t *const obj);
 145:/opt/XMClib/XMC_Peripheral_Library_v2.1.16/XMCLib/src/xmc_usbd.c **** static void XMC_USBD_lUnassignFifo(const uint8_t fifo_nr);
 146:/opt/XMClib/XMC_Peripheral_Library_v2.1.16/XMCLib/src/xmc_usbd.c **** static void XMC_USBD_lHandleUSBReset(const XMC_USBD_t *const obj);
 147:/opt/XMClib/XMC_Peripheral_Library_v2.1.16/XMCLib/src/xmc_usbd.c **** static void XMC_USBD_lHandleOTGInt(void);
 148:/opt/XMClib/XMC_Peripheral_Library_v2.1.16/XMCLib/src/xmc_usbd.c **** static void XMC_USBD_lClearEventOTG(uint32_t event);
 149:/opt/XMClib/XMC_Peripheral_Library_v2.1.16/XMCLib/src/xmc_usbd.c **** 
 150:/opt/XMClib/XMC_Peripheral_Library_v2.1.16/XMCLib/src/xmc_usbd.c **** /**
 151:/opt/XMClib/XMC_Peripheral_Library_v2.1.16/XMCLib/src/xmc_usbd.c ****  *  The device driver
 152:/opt/XMClib/XMC_Peripheral_Library_v2.1.16/XMCLib/src/xmc_usbd.c ****  */
 153:/opt/XMClib/XMC_Peripheral_Library_v2.1.16/XMCLib/src/xmc_usbd.c **** const XMC_USBD_DRIVER_t Driver_USBD0 =
 154:/opt/XMClib/XMC_Peripheral_Library_v2.1.16/XMCLib/src/xmc_usbd.c **** {
 155:/opt/XMClib/XMC_Peripheral_Library_v2.1.16/XMCLib/src/xmc_usbd.c ****   .GetCapabilities = XMC_USBD_GetCapabilities,
 156:/opt/XMClib/XMC_Peripheral_Library_v2.1.16/XMCLib/src/xmc_usbd.c ****   .Initialize = XMC_USBD_Init,
 157:/opt/XMClib/XMC_Peripheral_Library_v2.1.16/XMCLib/src/xmc_usbd.c ****   .Uninitialize = XMC_USBD_Uninitialize,
 158:/opt/XMClib/XMC_Peripheral_Library_v2.1.16/XMCLib/src/xmc_usbd.c ****   .DeviceConnect = XMC_USBD_DeviceConnect,
 159:/opt/XMClib/XMC_Peripheral_Library_v2.1.16/XMCLib/src/xmc_usbd.c ****   .DeviceDisconnect = XMC_USBD_DeviceDisconnect,
 160:/opt/XMClib/XMC_Peripheral_Library_v2.1.16/XMCLib/src/xmc_usbd.c ****   .DeviceGetState = XMC_USBD_DeviceGetState,
 161:/opt/XMClib/XMC_Peripheral_Library_v2.1.16/XMCLib/src/xmc_usbd.c ****   .DeviceSetAddress = XMC_USBD_DeviceSetAddress,
 162:/opt/XMClib/XMC_Peripheral_Library_v2.1.16/XMCLib/src/xmc_usbd.c ****   .EndpointConfigure = XMC_USBD_EndpointConfigure,
 163:/opt/XMClib/XMC_Peripheral_Library_v2.1.16/XMCLib/src/xmc_usbd.c ****   .EndpointUnconfigure = XMC_USBD_EndpointUnconfigure,
 164:/opt/XMClib/XMC_Peripheral_Library_v2.1.16/XMCLib/src/xmc_usbd.c ****   .EndpointStall = XMC_USBD_EndpointStall,
 165:/opt/XMClib/XMC_Peripheral_Library_v2.1.16/XMCLib/src/xmc_usbd.c ****   .EndpointReadStart = XMC_USBD_EndpointReadStart,
 166:/opt/XMClib/XMC_Peripheral_Library_v2.1.16/XMCLib/src/xmc_usbd.c ****   .EndpointRead = XMC_USBD_EndpointRead,
 167:/opt/XMClib/XMC_Peripheral_Library_v2.1.16/XMCLib/src/xmc_usbd.c ****   .EndpointWrite = XMC_USBD_EndpointWrite,
 168:/opt/XMClib/XMC_Peripheral_Library_v2.1.16/XMCLib/src/xmc_usbd.c ****   .EndpointAbort = XMC_USBD_EndpointAbort,
 169:/opt/XMClib/XMC_Peripheral_Library_v2.1.16/XMCLib/src/xmc_usbd.c ****   .GetFrameNumber = XMC_USBD_GetFrameNumber,
 170:/opt/XMClib/XMC_Peripheral_Library_v2.1.16/XMCLib/src/xmc_usbd.c ****   .IsEnumDone = XMC_USBD_IsEnumDone
 171:/opt/XMClib/XMC_Peripheral_Library_v2.1.16/XMCLib/src/xmc_usbd.c **** };
 172:/opt/XMClib/XMC_Peripheral_Library_v2.1.16/XMCLib/src/xmc_usbd.c **** 
 173:/opt/XMClib/XMC_Peripheral_Library_v2.1.16/XMCLib/src/xmc_usbd.c **** /**
 174:/opt/XMClib/XMC_Peripheral_Library_v2.1.16/XMCLib/src/xmc_usbd.c ****  * @brief Checks if device is active
 175:/opt/XMClib/XMC_Peripheral_Library_v2.1.16/XMCLib/src/xmc_usbd.c ****  *
 176:/opt/XMClib/XMC_Peripheral_Library_v2.1.16/XMCLib/src/xmc_usbd.c ****  * Therefore the endpoint inInUse flag are checked and if one endpoint is in use, 1 is returned,
 177:/opt/XMClib/XMC_Peripheral_Library_v2.1.16/XMCLib/src/xmc_usbd.c ****  * else 0 is returned.
 178:/opt/XMClib/XMC_Peripheral_Library_v2.1.16/XMCLib/src/xmc_usbd.c ****  * @return 1 if an endpoint is active else 0
 179:/opt/XMClib/XMC_Peripheral_Library_v2.1.16/XMCLib/src/xmc_usbd.c ****  */
 180:/opt/XMClib/XMC_Peripheral_Library_v2.1.16/XMCLib/src/xmc_usbd.c **** uint8_t XMC_USBD_lDeviceActive(const XMC_USBD_t *const obj) 
 181:/opt/XMClib/XMC_Peripheral_Library_v2.1.16/XMCLib/src/xmc_usbd.c **** {
 182:/opt/XMClib/XMC_Peripheral_Library_v2.1.16/XMCLib/src/xmc_usbd.c ****   uint8_t i;
 183:/opt/XMClib/XMC_Peripheral_Library_v2.1.16/XMCLib/src/xmc_usbd.c ****   uint8_t result = 0U;
 184:/opt/XMClib/XMC_Peripheral_Library_v2.1.16/XMCLib/src/xmc_usbd.c ****   for (i = 0U; i < (uint8_t)obj->usbd_max_num_eps; i++)
 185:/opt/XMClib/XMC_Peripheral_Library_v2.1.16/XMCLib/src/xmc_usbd.c ****   {
 186:/opt/XMClib/XMC_Peripheral_Library_v2.1.16/XMCLib/src/xmc_usbd.c ****     if (xmc_device.ep[i].inInUse || xmc_device.ep[i].outInUse)
 187:/opt/XMClib/XMC_Peripheral_Library_v2.1.16/XMCLib/src/xmc_usbd.c ****     {
 188:/opt/XMClib/XMC_Peripheral_Library_v2.1.16/XMCLib/src/xmc_usbd.c ****       result = 1U;
 189:/opt/XMClib/XMC_Peripheral_Library_v2.1.16/XMCLib/src/xmc_usbd.c ****     }
 190:/opt/XMClib/XMC_Peripheral_Library_v2.1.16/XMCLib/src/xmc_usbd.c ****   }
 191:/opt/XMClib/XMC_Peripheral_Library_v2.1.16/XMCLib/src/xmc_usbd.c ****   return result;
 192:/opt/XMClib/XMC_Peripheral_Library_v2.1.16/XMCLib/src/xmc_usbd.c **** }
 193:/opt/XMClib/XMC_Peripheral_Library_v2.1.16/XMCLib/src/xmc_usbd.c **** 
 194:/opt/XMClib/XMC_Peripheral_Library_v2.1.16/XMCLib/src/xmc_usbd.c **** 
 195:/opt/XMClib/XMC_Peripheral_Library_v2.1.16/XMCLib/src/xmc_usbd.c **** /**
 196:/opt/XMClib/XMC_Peripheral_Library_v2.1.16/XMCLib/src/xmc_usbd.c ****  * @brief Read data from the rx fifo
 197:/opt/XMClib/XMC_Peripheral_Library_v2.1.16/XMCLib/src/xmc_usbd.c ****  *
 198:/opt/XMClib/XMC_Peripheral_Library_v2.1.16/XMCLib/src/xmc_usbd.c ****  * The data from the fifo is copied in to the buffer specified by @ref xfer_buffer and
 199:/opt/XMClib/XMC_Peripheral_Library_v2.1.16/XMCLib/src/xmc_usbd.c ****  * the transfer values get updated. If the endpoint is disabled or the buffer not existent
 200:/opt/XMClib/XMC_Peripheral_Library_v2.1.16/XMCLib/src/xmc_usbd.c ****  * the function exits.
 201:/opt/XMClib/XMC_Peripheral_Library_v2.1.16/XMCLib/src/xmc_usbd.c ****  *
 202:/opt/XMClib/XMC_Peripheral_Library_v2.1.16/XMCLib/src/xmc_usbd.c ****  * @arg ep_num the endpoint to read for
 203:/opt/XMClib/XMC_Peripheral_Library_v2.1.16/XMCLib/src/xmc_usbd.c ****  * @arg byte_count the byte count to read
 204:/opt/XMClib/XMC_Peripheral_Library_v2.1.16/XMCLib/src/xmc_usbd.c ****  */
 205:/opt/XMClib/XMC_Peripheral_Library_v2.1.16/XMCLib/src/xmc_usbd.c **** static void XMC_USBD_lReadFifo(const uint32_t ep_num,const uint32_t byte_count) 
 206:/opt/XMClib/XMC_Peripheral_Library_v2.1.16/XMCLib/src/xmc_usbd.c **** {
  29              		.loc 1 206 1 view -0
  30              		.cfi_startproc
  31              		@ args = 0, pretend = 0, frame = 0
  32              		@ frame_needed = 0, uses_anonymous_args = 0
 207:/opt/XMClib/XMC_Peripheral_Library_v2.1.16/XMCLib/src/xmc_usbd.c ****   XMC_USBD_EP_t * ep = &xmc_device.ep[ep_num];
  33              		.loc 1 207 3 view .LVU1
 206:/opt/XMClib/XMC_Peripheral_Library_v2.1.16/XMCLib/src/xmc_usbd.c ****   XMC_USBD_EP_t * ep = &xmc_device.ep[ep_num];
  34              		.loc 1 206 1 is_stmt 0 view .LVU2
  35 0000 2DE9F041 		push	{r4, r5, r6, r7, r8, lr}
  36              	.LCFI0:
  37              		.cfi_def_cfa_offset 24
  38              		.cfi_offset 4, -24
  39              		.cfi_offset 5, -20
  40              		.cfi_offset 6, -16
  41              		.cfi_offset 7, -12
  42              		.cfi_offset 8, -8
  43              		.cfi_offset 14, -4
 208:/opt/XMClib/XMC_Peripheral_Library_v2.1.16/XMCLib/src/xmc_usbd.c ****   uint32_t word_count;
 209:/opt/XMClib/XMC_Peripheral_Library_v2.1.16/XMCLib/src/xmc_usbd.c ****   uint32_t temp_data;
 210:/opt/XMClib/XMC_Peripheral_Library_v2.1.16/XMCLib/src/xmc_usbd.c ****   uint32_t temp_word_count;
 211:/opt/XMClib/XMC_Peripheral_Library_v2.1.16/XMCLib/src/xmc_usbd.c ****   volatile uint32_t *fifo = xmc_device.fifo[0U];
 212:/opt/XMClib/XMC_Peripheral_Library_v2.1.16/XMCLib/src/xmc_usbd.c ****   uint32_t i;
 213:/opt/XMClib/XMC_Peripheral_Library_v2.1.16/XMCLib/src/xmc_usbd.c ****   depctl_data_t data;
 214:/opt/XMClib/XMC_Peripheral_Library_v2.1.16/XMCLib/src/xmc_usbd.c ****   data.d32 = xmc_device.endpoint_out_register[ep_num]->doepctl;
  44              		.loc 1 214 46 view .LVU3
  45 0004 254D     		ldr	r5, .L20
  46              	.LVL1:
 208:/opt/XMClib/XMC_Peripheral_Library_v2.1.16/XMCLib/src/xmc_usbd.c ****   uint32_t word_count;
  47              		.loc 1 208 3 is_stmt 1 view .LVU4
 209:/opt/XMClib/XMC_Peripheral_Library_v2.1.16/XMCLib/src/xmc_usbd.c ****   uint32_t temp_word_count;
  48              		.loc 1 209 3 view .LVU5
 210:/opt/XMClib/XMC_Peripheral_Library_v2.1.16/XMCLib/src/xmc_usbd.c ****   volatile uint32_t *fifo = xmc_device.fifo[0U];
  49              		.loc 1 210 3 view .LVU6
 211:/opt/XMClib/XMC_Peripheral_Library_v2.1.16/XMCLib/src/xmc_usbd.c ****   uint32_t i;
  50              		.loc 1 211 3 view .LVU7
 212:/opt/XMClib/XMC_Peripheral_Library_v2.1.16/XMCLib/src/xmc_usbd.c ****   depctl_data_t data;
  51              		.loc 1 212 3 view .LVU8
 213:/opt/XMClib/XMC_Peripheral_Library_v2.1.16/XMCLib/src/xmc_usbd.c ****   data.d32 = xmc_device.endpoint_out_register[ep_num]->doepctl;
  52              		.loc 1 213 3 view .LVU9
  53              		.loc 1 214 3 view .LVU10
  54              		.loc 1 214 46 is_stmt 0 view .LVU11
  55 0006 05EB8003 		add	r3, r5, r0, lsl #2
  56 000a D3F8C431 		ldr	r3, [r3, #452]
  57              		.loc 1 214 54 view .LVU12
  58 000e 1B68     		ldr	r3, [r3]
  59              	.LVL2:
 215:/opt/XMClib/XMC_Peripheral_Library_v2.1.16/XMCLib/src/xmc_usbd.c ****   word_count = (byte_count >> 2U );
  60              		.loc 1 215 3 is_stmt 1 view .LVU13
 216:/opt/XMClib/XMC_Peripheral_Library_v2.1.16/XMCLib/src/xmc_usbd.c ****   temp_word_count = (word_count << 2U);
  61              		.loc 1 216 3 view .LVU14
 217:/opt/XMClib/XMC_Peripheral_Library_v2.1.16/XMCLib/src/xmc_usbd.c ****   /* Check if ep is enabled and has buffer */
 218:/opt/XMClib/XMC_Peripheral_Library_v2.1.16/XMCLib/src/xmc_usbd.c ****   if (!data.b.usbactep)
  62              		.loc 1 218 3 view .LVU15
  63              		.loc 1 218 6 is_stmt 0 view .LVU16
  64 0010 1B04     		lsls	r3, r3, #16
  65              	.LVL3:
  66              		.loc 1 218 6 view .LVU17
  67 0012 01D4     		bmi	.L18
  68              	.L1:
 219:/opt/XMClib/XMC_Peripheral_Library_v2.1.16/XMCLib/src/xmc_usbd.c ****   {
 220:/opt/XMClib/XMC_Peripheral_Library_v2.1.16/XMCLib/src/xmc_usbd.c ****     /*Do Nothing*/
 221:/opt/XMClib/XMC_Peripheral_Library_v2.1.16/XMCLib/src/xmc_usbd.c ****   }
 222:/opt/XMClib/XMC_Peripheral_Library_v2.1.16/XMCLib/src/xmc_usbd.c ****   else if (ep->xferBuffer == NULL)
 223:/opt/XMClib/XMC_Peripheral_Library_v2.1.16/XMCLib/src/xmc_usbd.c ****   {
 224:/opt/XMClib/XMC_Peripheral_Library_v2.1.16/XMCLib/src/xmc_usbd.c **** 	/*Do Nothing*/
 225:/opt/XMClib/XMC_Peripheral_Library_v2.1.16/XMCLib/src/xmc_usbd.c ****   }
 226:/opt/XMClib/XMC_Peripheral_Library_v2.1.16/XMCLib/src/xmc_usbd.c ****   else
 227:/opt/XMClib/XMC_Peripheral_Library_v2.1.16/XMCLib/src/xmc_usbd.c ****   {
 228:/opt/XMClib/XMC_Peripheral_Library_v2.1.16/XMCLib/src/xmc_usbd.c ****     /* store the data */
 229:/opt/XMClib/XMC_Peripheral_Library_v2.1.16/XMCLib/src/xmc_usbd.c ****     for (i = 0U;i < word_count; i++)
 230:/opt/XMClib/XMC_Peripheral_Library_v2.1.16/XMCLib/src/xmc_usbd.c ****     {
 231:/opt/XMClib/XMC_Peripheral_Library_v2.1.16/XMCLib/src/xmc_usbd.c ****       *(((uint32_t*)ep->xferBuffer)+i) = *fifo;
 232:/opt/XMClib/XMC_Peripheral_Library_v2.1.16/XMCLib/src/xmc_usbd.c ****     }
 233:/opt/XMClib/XMC_Peripheral_Library_v2.1.16/XMCLib/src/xmc_usbd.c ****     /* space is not devidable by 4 */
 234:/opt/XMClib/XMC_Peripheral_Library_v2.1.16/XMCLib/src/xmc_usbd.c ****     if (byte_count!=temp_word_count)
 235:/opt/XMClib/XMC_Peripheral_Library_v2.1.16/XMCLib/src/xmc_usbd.c ****     {
 236:/opt/XMClib/XMC_Peripheral_Library_v2.1.16/XMCLib/src/xmc_usbd.c ****       temp_data = *fifo;
 237:/opt/XMClib/XMC_Peripheral_Library_v2.1.16/XMCLib/src/xmc_usbd.c ****       for (i = 0U;(temp_word_count + i) < byte_count;i++)
 238:/opt/XMClib/XMC_Peripheral_Library_v2.1.16/XMCLib/src/xmc_usbd.c ****       {
 239:/opt/XMClib/XMC_Peripheral_Library_v2.1.16/XMCLib/src/xmc_usbd.c ****         ep->xferBuffer[(word_count << 2)+i] = (uint8_t)((temp_data & ((uint32_t)0xFFU << (i * 8U)))
 240:/opt/XMClib/XMC_Peripheral_Library_v2.1.16/XMCLib/src/xmc_usbd.c ****       }
 241:/opt/XMClib/XMC_Peripheral_Library_v2.1.16/XMCLib/src/xmc_usbd.c ****     }
 242:/opt/XMClib/XMC_Peripheral_Library_v2.1.16/XMCLib/src/xmc_usbd.c **** 
 243:/opt/XMClib/XMC_Peripheral_Library_v2.1.16/XMCLib/src/xmc_usbd.c ****     /* save the amount of data */
 244:/opt/XMClib/XMC_Peripheral_Library_v2.1.16/XMCLib/src/xmc_usbd.c ****     ep->xferCount += byte_count;
 245:/opt/XMClib/XMC_Peripheral_Library_v2.1.16/XMCLib/src/xmc_usbd.c ****     ep->xferBuffer += byte_count;
 246:/opt/XMClib/XMC_Peripheral_Library_v2.1.16/XMCLib/src/xmc_usbd.c ****   }
 247:/opt/XMClib/XMC_Peripheral_Library_v2.1.16/XMCLib/src/xmc_usbd.c **** }
  69              		.loc 1 247 1 view .LVU18
  70 0014 BDE8F081 		pop	{r4, r5, r6, r7, r8, pc}
  71              	.L18:
 222:/opt/XMClib/XMC_Peripheral_Library_v2.1.16/XMCLib/src/xmc_usbd.c ****   {
  72              		.loc 1 222 8 is_stmt 1 view .LVU19
 222:/opt/XMClib/XMC_Peripheral_Library_v2.1.16/XMCLib/src/xmc_usbd.c ****   {
  73              		.loc 1 222 14 is_stmt 0 view .LVU20
  74 0018 4FF0340E 		mov	lr, #52
  75 001c 0EFB005E 		mla	lr, lr, r0, r5
  76 0020 DEF82420 		ldr	r2, [lr, #36]
 222:/opt/XMClib/XMC_Peripheral_Library_v2.1.16/XMCLib/src/xmc_usbd.c ****   {
  77              		.loc 1 222 11 view .LVU21
  78 0024 002A     		cmp	r2, #0
  79 0026 F5D0     		beq	.L1
  80              	.LVL4:
 229:/opt/XMClib/XMC_Peripheral_Library_v2.1.16/XMCLib/src/xmc_usbd.c ****     {
  81              		.loc 1 229 17 is_stmt 1 view .LVU22
 229:/opt/XMClib/XMC_Peripheral_Library_v2.1.16/XMCLib/src/xmc_usbd.c ****     {
  82              		.loc 1 229 5 is_stmt 0 view .LVU23
  83 0028 5FEA9108 		lsrs	r8, r1, #2
 211:/opt/XMClib/XMC_Peripheral_Library_v2.1.16/XMCLib/src/xmc_usbd.c ****   uint32_t i;
  84              		.loc 1 211 22 view .LVU24
  85 002c D5F8E061 		ldr	r6, [r5, #480]
 229:/opt/XMClib/XMC_Peripheral_Library_v2.1.16/XMCLib/src/xmc_usbd.c ****     {
  86              		.loc 1 229 5 view .LVU25
  87 0030 0AD0     		beq	.L3
  88 0032 4FEA880C 		lsl	ip, r8, #2
  89 0036 0023     		movs	r3, #0
  90 0038 01E0     		b	.L4
  91              	.LVL5:
  92              	.L19:
 231:/opt/XMClib/XMC_Peripheral_Library_v2.1.16/XMCLib/src/xmc_usbd.c ****     }
  93              		.loc 1 231 23 view .LVU26
  94 003a DEF82420 		ldr	r2, [lr, #36]
  95              	.L4:
 231:/opt/XMClib/XMC_Peripheral_Library_v2.1.16/XMCLib/src/xmc_usbd.c ****     }
  96              		.loc 1 231 7 is_stmt 1 discriminator 3 view .LVU27
 231:/opt/XMClib/XMC_Peripheral_Library_v2.1.16/XMCLib/src/xmc_usbd.c ****     }
  97              		.loc 1 231 42 is_stmt 0 discriminator 3 view .LVU28
  98 003e 3468     		ldr	r4, [r6]
 231:/opt/XMClib/XMC_Peripheral_Library_v2.1.16/XMCLib/src/xmc_usbd.c ****     }
  99              		.loc 1 231 40 discriminator 3 view .LVU29
 100 0040 D450     		str	r4, [r2, r3]
 229:/opt/XMClib/XMC_Peripheral_Library_v2.1.16/XMCLib/src/xmc_usbd.c ****     {
 101              		.loc 1 229 33 is_stmt 1 discriminator 3 view .LVU30
 229:/opt/XMClib/XMC_Peripheral_Library_v2.1.16/XMCLib/src/xmc_usbd.c ****     {
 102              		.loc 1 229 17 discriminator 3 view .LVU31
 229:/opt/XMClib/XMC_Peripheral_Library_v2.1.16/XMCLib/src/xmc_usbd.c ****     {
 103              		.loc 1 229 5 is_stmt 0 discriminator 3 view .LVU32
 104 0042 0433     		adds	r3, r3, #4
 105 0044 9C45     		cmp	ip, r3
 106 0046 F8D1     		bne	.L19
 107              	.L3:
 216:/opt/XMClib/XMC_Peripheral_Library_v2.1.16/XMCLib/src/xmc_usbd.c ****   /* Check if ep is enabled and has buffer */
 108              		.loc 1 216 19 view .LVU33
 109 0048 21F00303 		bic	r3, r1, #3
 234:/opt/XMClib/XMC_Peripheral_Library_v2.1.16/XMCLib/src/xmc_usbd.c ****     {
 110              		.loc 1 234 5 is_stmt 1 view .LVU34
 234:/opt/XMClib/XMC_Peripheral_Library_v2.1.16/XMCLib/src/xmc_usbd.c ****     {
 111              		.loc 1 234 8 is_stmt 0 view .LVU35
 112 004c 9942     		cmp	r1, r3
 113 004e 19D0     		beq	.L6
 236:/opt/XMClib/XMC_Peripheral_Library_v2.1.16/XMCLib/src/xmc_usbd.c ****       for (i = 0U;(temp_word_count + i) < byte_count;i++)
 114              		.loc 1 236 7 is_stmt 1 view .LVU36
 236:/opt/XMClib/XMC_Peripheral_Library_v2.1.16/XMCLib/src/xmc_usbd.c ****       for (i = 0U;(temp_word_count + i) < byte_count;i++)
 115              		.loc 1 236 17 is_stmt 0 view .LVU37
 116 0050 3768     		ldr	r7, [r6]
 117              	.LVL6:
 237:/opt/XMClib/XMC_Peripheral_Library_v2.1.16/XMCLib/src/xmc_usbd.c ****       {
 118              		.loc 1 237 7 is_stmt 1 view .LVU38
 237:/opt/XMClib/XMC_Peripheral_Library_v2.1.16/XMCLib/src/xmc_usbd.c ****       {
 119              		.loc 1 237 19 view .LVU39
 237:/opt/XMClib/XMC_Peripheral_Library_v2.1.16/XMCLib/src/xmc_usbd.c ****       {
 120              		.loc 1 237 7 is_stmt 0 view .LVU40
 121 0052 17D9     		bls	.L6
 122 0054 CE1A     		subs	r6, r1, r3
 239:/opt/XMClib/XMC_Peripheral_Library_v2.1.16/XMCLib/src/xmc_usbd.c ****       }
 123              		.loc 1 239 11 view .LVU41
 124 0056 4FF0340E 		mov	lr, #52
 239:/opt/XMClib/XMC_Peripheral_Library_v2.1.16/XMCLib/src/xmc_usbd.c ****       }
 125              		.loc 1 239 36 view .LVU42
 126 005a 4FEA880C 		lsl	ip, r8, #2
 127 005e F600     		lsls	r6, r6, #3
 239:/opt/XMClib/XMC_Peripheral_Library_v2.1.16/XMCLib/src/xmc_usbd.c ****       }
 128              		.loc 1 239 11 view .LVU43
 129 0060 0EFB005E 		mla	lr, lr, r0, r5
 239:/opt/XMClib/XMC_Peripheral_Library_v2.1.16/XMCLib/src/xmc_usbd.c ****       }
 130              		.loc 1 239 36 view .LVU44
 131 0064 0022     		movs	r2, #0
 239:/opt/XMClib/XMC_Peripheral_Library_v2.1.16/XMCLib/src/xmc_usbd.c ****       }
 132              		.loc 1 239 87 view .LVU45
 133 0066 4FF0FF08 		mov	r8, #255
 134              	.LVL7:
 135              	.L7:
 239:/opt/XMClib/XMC_Peripheral_Library_v2.1.16/XMCLib/src/xmc_usbd.c ****       }
 136              		.loc 1 239 9 is_stmt 1 discriminator 3 view .LVU46
 239:/opt/XMClib/XMC_Peripheral_Library_v2.1.16/XMCLib/src/xmc_usbd.c ****       }
 137              		.loc 1 239 87 is_stmt 0 discriminator 3 view .LVU47
 138 006a 08FA02F3 		lsl	r3, r8, r2
 239:/opt/XMClib/XMC_Peripheral_Library_v2.1.16/XMCLib/src/xmc_usbd.c ****       }
 139              		.loc 1 239 68 discriminator 3 view .LVU48
 140 006e 3B40     		ands	r3, r3, r7
 239:/opt/XMClib/XMC_Peripheral_Library_v2.1.16/XMCLib/src/xmc_usbd.c ****       }
 141              		.loc 1 239 101 discriminator 3 view .LVU49
 142 0070 D340     		lsrs	r3, r3, r2
 239:/opt/XMClib/XMC_Peripheral_Library_v2.1.16/XMCLib/src/xmc_usbd.c ****       }
 143              		.loc 1 239 45 discriminator 3 view .LVU50
 144 0072 DEF82440 		ldr	r4, [lr, #36]
 237:/opt/XMClib/XMC_Peripheral_Library_v2.1.16/XMCLib/src/xmc_usbd.c ****       {
 145              		.loc 1 237 7 discriminator 3 view .LVU51
 146 0076 0832     		adds	r2, r2, #8
 147 0078 B242     		cmp	r2, r6
 239:/opt/XMClib/XMC_Peripheral_Library_v2.1.16/XMCLib/src/xmc_usbd.c ****       }
 148              		.loc 1 239 47 discriminator 3 view .LVU52
 149 007a 04F80C30 		strb	r3, [r4, ip]
 237:/opt/XMClib/XMC_Peripheral_Library_v2.1.16/XMCLib/src/xmc_usbd.c ****       {
 150              		.loc 1 237 54 is_stmt 1 discriminator 3 view .LVU53
 151              	.LVL8:
 237:/opt/XMClib/XMC_Peripheral_Library_v2.1.16/XMCLib/src/xmc_usbd.c ****       {
 152              		.loc 1 237 19 discriminator 3 view .LVU54
 237:/opt/XMClib/XMC_Peripheral_Library_v2.1.16/XMCLib/src/xmc_usbd.c ****       {
 153              		.loc 1 237 7 is_stmt 0 discriminator 3 view .LVU55
 154 007e 0CF1010C 		add	ip, ip, #1
 155 0082 F2D1     		bne	.L7
 156              	.LVL9:
 157              	.L6:
 244:/opt/XMClib/XMC_Peripheral_Library_v2.1.16/XMCLib/src/xmc_usbd.c ****     ep->xferBuffer += byte_count;
 158              		.loc 1 244 5 is_stmt 1 view .LVU56
 244:/opt/XMClib/XMC_Peripheral_Library_v2.1.16/XMCLib/src/xmc_usbd.c ****     ep->xferBuffer += byte_count;
 159              		.loc 1 244 19 is_stmt 0 view .LVU57
 160 0084 3423     		movs	r3, #52
 161 0086 03FB0050 		mla	r0, r3, r0, r5
 162              	.LVL10:
 244:/opt/XMClib/XMC_Peripheral_Library_v2.1.16/XMCLib/src/xmc_usbd.c ****     ep->xferBuffer += byte_count;
 163              		.loc 1 244 19 view .LVU58
 164 008a C26A     		ldr	r2, [r0, #44]
 245:/opt/XMClib/XMC_Peripheral_Library_v2.1.16/XMCLib/src/xmc_usbd.c ****   }
 165              		.loc 1 245 20 view .LVU59
 166 008c 436A     		ldr	r3, [r0, #36]
 244:/opt/XMClib/XMC_Peripheral_Library_v2.1.16/XMCLib/src/xmc_usbd.c ****     ep->xferBuffer += byte_count;
 167              		.loc 1 244 19 view .LVU60
 168 008e 0A44     		add	r2, r2, r1
 245:/opt/XMClib/XMC_Peripheral_Library_v2.1.16/XMCLib/src/xmc_usbd.c ****   }
 169              		.loc 1 245 20 view .LVU61
 170 0090 1944     		add	r1, r1, r3
 171              	.LVL11:
 244:/opt/XMClib/XMC_Peripheral_Library_v2.1.16/XMCLib/src/xmc_usbd.c ****     ep->xferBuffer += byte_count;
 172              		.loc 1 244 19 view .LVU62
 173 0092 C262     		str	r2, [r0, #44]
 245:/opt/XMClib/XMC_Peripheral_Library_v2.1.16/XMCLib/src/xmc_usbd.c ****   }
 174              		.loc 1 245 5 is_stmt 1 view .LVU63
 245:/opt/XMClib/XMC_Peripheral_Library_v2.1.16/XMCLib/src/xmc_usbd.c ****   }
 175              		.loc 1 245 20 is_stmt 0 view .LVU64
 176 0094 4162     		str	r1, [r0, #36]
 177              		.loc 1 247 1 view .LVU65
 178 0096 BDE8F081 		pop	{r4, r5, r6, r7, r8, pc}
 179              	.L21:
 180 009a 00BF     		.align	2
 181              	.L20:
 182 009c 00000000 		.word	.LANCHOR0
 183              		.cfi_endproc
 184              	.LFE163:
 186              		.section	.text.XMC_USBD_lStartReadXfer,"ax",%progbits
 187              		.align	1
 188              		.p2align 2,,3
 189              		.syntax unified
 190              		.thumb
 191              		.thumb_func
 193              	XMC_USBD_lStartReadXfer:
 194              	.LVL12:
 195              	.LFB169:
 248:/opt/XMClib/XMC_Peripheral_Library_v2.1.16/XMCLib/src/xmc_usbd.c **** 
 249:/opt/XMClib/XMC_Peripheral_Library_v2.1.16/XMCLib/src/xmc_usbd.c **** /**
 250:/opt/XMClib/XMC_Peripheral_Library_v2.1.16/XMCLib/src/xmc_usbd.c ****  * @brief Write data to an endpoint fifo
 251:/opt/XMClib/XMC_Peripheral_Library_v2.1.16/XMCLib/src/xmc_usbd.c ****  *
 252:/opt/XMClib/XMC_Peripheral_Library_v2.1.16/XMCLib/src/xmc_usbd.c ****  * The data from the @ref xfer_buffer gets copied in to the tx fifo of the endpoint until the buffe
 253:/opt/XMClib/XMC_Peripheral_Library_v2.1.16/XMCLib/src/xmc_usbd.c ****  *completely or the tx fifo is full. The transfer values are not updated.
 254:/opt/XMClib/XMC_Peripheral_Library_v2.1.16/XMCLib/src/xmc_usbd.c ****  *
 255:/opt/XMClib/XMC_Peripheral_Library_v2.1.16/XMCLib/src/xmc_usbd.c ****  * @arg[in] ep the endpoint to use
 256:/opt/XMClib/XMC_Peripheral_Library_v2.1.16/XMCLib/src/xmc_usbd.c ****  * @return the number of bytes written to the fifo
 257:/opt/XMClib/XMC_Peripheral_Library_v2.1.16/XMCLib/src/xmc_usbd.c ****  */
 258:/opt/XMClib/XMC_Peripheral_Library_v2.1.16/XMCLib/src/xmc_usbd.c **** static uint32_t XMC_USBD_lWriteFifo(XMC_USBD_EP_t *const ep) 
 259:/opt/XMClib/XMC_Peripheral_Library_v2.1.16/XMCLib/src/xmc_usbd.c **** {
 260:/opt/XMClib/XMC_Peripheral_Library_v2.1.16/XMCLib/src/xmc_usbd.c ****   dtxfsts_data_t freeSpace; 
 261:/opt/XMClib/XMC_Peripheral_Library_v2.1.16/XMCLib/src/xmc_usbd.c ****   volatile uint32_t *fifo;
 262:/opt/XMClib/XMC_Peripheral_Library_v2.1.16/XMCLib/src/xmc_usbd.c ****   uint32_t byte_count;
 263:/opt/XMClib/XMC_Peripheral_Library_v2.1.16/XMCLib/src/xmc_usbd.c ****   uint32_t word_count;
 264:/opt/XMClib/XMC_Peripheral_Library_v2.1.16/XMCLib/src/xmc_usbd.c ****   uint32_t result;
 265:/opt/XMClib/XMC_Peripheral_Library_v2.1.16/XMCLib/src/xmc_usbd.c ****   uint32_t i;
 266:/opt/XMClib/XMC_Peripheral_Library_v2.1.16/XMCLib/src/xmc_usbd.c ****   fifo = xmc_device.fifo[ep->address_u.address_st.number]; /* fifo */
 267:/opt/XMClib/XMC_Peripheral_Library_v2.1.16/XMCLib/src/xmc_usbd.c ****   freeSpace.d32 = xmc_device.endpoint_in_register[ep->address_u.address_st.number]->dtxfsts;
 268:/opt/XMClib/XMC_Peripheral_Library_v2.1.16/XMCLib/src/xmc_usbd.c ****   /* calculate the length and the amount of dwords to copy based on the fifo status */
 269:/opt/XMClib/XMC_Peripheral_Library_v2.1.16/XMCLib/src/xmc_usbd.c ****   byte_count = ep->xferLength - ep->xferCount;
 270:/opt/XMClib/XMC_Peripheral_Library_v2.1.16/XMCLib/src/xmc_usbd.c ****   if (!byte_count)
 271:/opt/XMClib/XMC_Peripheral_Library_v2.1.16/XMCLib/src/xmc_usbd.c ****   {
 272:/opt/XMClib/XMC_Peripheral_Library_v2.1.16/XMCLib/src/xmc_usbd.c ****     result = 0U;
 273:/opt/XMClib/XMC_Peripheral_Library_v2.1.16/XMCLib/src/xmc_usbd.c ****   }
 274:/opt/XMClib/XMC_Peripheral_Library_v2.1.16/XMCLib/src/xmc_usbd.c ****   else
 275:/opt/XMClib/XMC_Peripheral_Library_v2.1.16/XMCLib/src/xmc_usbd.c ****   {
 276:/opt/XMClib/XMC_Peripheral_Library_v2.1.16/XMCLib/src/xmc_usbd.c ****     /* add the unaligned bytes to the word count to compare with the fifo space */
 277:/opt/XMClib/XMC_Peripheral_Library_v2.1.16/XMCLib/src/xmc_usbd.c ****     word_count = ((uint32_t)byte_count + 3U) >> 2U;
 278:/opt/XMClib/XMC_Peripheral_Library_v2.1.16/XMCLib/src/xmc_usbd.c ****     if (word_count > (uint32_t)freeSpace.b.txfspcavail )
 279:/opt/XMClib/XMC_Peripheral_Library_v2.1.16/XMCLib/src/xmc_usbd.c ****     {
 280:/opt/XMClib/XMC_Peripheral_Library_v2.1.16/XMCLib/src/xmc_usbd.c ****       word_count = (uint32_t)freeSpace.b.txfspcavail;
 281:/opt/XMClib/XMC_Peripheral_Library_v2.1.16/XMCLib/src/xmc_usbd.c ****       byte_count = (uint32_t)word_count << (uint32_t)2U;
 282:/opt/XMClib/XMC_Peripheral_Library_v2.1.16/XMCLib/src/xmc_usbd.c ****     }
 283:/opt/XMClib/XMC_Peripheral_Library_v2.1.16/XMCLib/src/xmc_usbd.c **** 
 284:/opt/XMClib/XMC_Peripheral_Library_v2.1.16/XMCLib/src/xmc_usbd.c ****     /* copy data dword wise */
 285:/opt/XMClib/XMC_Peripheral_Library_v2.1.16/XMCLib/src/xmc_usbd.c ****     for (i = 0U; i < word_count;ep->xferBuffer+= 4U)
 286:/opt/XMClib/XMC_Peripheral_Library_v2.1.16/XMCLib/src/xmc_usbd.c ****     {
 287:/opt/XMClib/XMC_Peripheral_Library_v2.1.16/XMCLib/src/xmc_usbd.c ****       *fifo = *(uint32_t*)ep->xferBuffer;
 288:/opt/XMClib/XMC_Peripheral_Library_v2.1.16/XMCLib/src/xmc_usbd.c ****       i++;
 289:/opt/XMClib/XMC_Peripheral_Library_v2.1.16/XMCLib/src/xmc_usbd.c ****     }
 290:/opt/XMClib/XMC_Peripheral_Library_v2.1.16/XMCLib/src/xmc_usbd.c ****     result=byte_count;
 291:/opt/XMClib/XMC_Peripheral_Library_v2.1.16/XMCLib/src/xmc_usbd.c ****   }
 292:/opt/XMClib/XMC_Peripheral_Library_v2.1.16/XMCLib/src/xmc_usbd.c ****   return result;
 293:/opt/XMClib/XMC_Peripheral_Library_v2.1.16/XMCLib/src/xmc_usbd.c **** }
 294:/opt/XMClib/XMC_Peripheral_Library_v2.1.16/XMCLib/src/xmc_usbd.c **** 
 295:/opt/XMClib/XMC_Peripheral_Library_v2.1.16/XMCLib/src/xmc_usbd.c **** /**
 296:/opt/XMClib/XMC_Peripheral_Library_v2.1.16/XMCLib/src/xmc_usbd.c ****  * @brief Flush a tx fifo
 297:/opt/XMClib/XMC_Peripheral_Library_v2.1.16/XMCLib/src/xmc_usbd.c ****  *
 298:/opt/XMClib/XMC_Peripheral_Library_v2.1.16/XMCLib/src/xmc_usbd.c ****  * @param[in] fifo_num Fifo number to flush
 299:/opt/XMClib/XMC_Peripheral_Library_v2.1.16/XMCLib/src/xmc_usbd.c ****  *
 300:/opt/XMClib/XMC_Peripheral_Library_v2.1.16/XMCLib/src/xmc_usbd.c ****  * @note Use 0x10 as parameter to flush all tx fifos.
 301:/opt/XMClib/XMC_Peripheral_Library_v2.1.16/XMCLib/src/xmc_usbd.c ****  */
 302:/opt/XMClib/XMC_Peripheral_Library_v2.1.16/XMCLib/src/xmc_usbd.c **** static void XMC_USBD_lFlushTXFifo(const uint8_t fifo_num) 
 303:/opt/XMClib/XMC_Peripheral_Library_v2.1.16/XMCLib/src/xmc_usbd.c **** {
 304:/opt/XMClib/XMC_Peripheral_Library_v2.1.16/XMCLib/src/xmc_usbd.c ****   volatile grstctl_t data;  
 305:/opt/XMClib/XMC_Peripheral_Library_v2.1.16/XMCLib/src/xmc_usbd.c ****   uint32_t count;
 306:/opt/XMClib/XMC_Peripheral_Library_v2.1.16/XMCLib/src/xmc_usbd.c ****   data.d32 = 0U;
 307:/opt/XMClib/XMC_Peripheral_Library_v2.1.16/XMCLib/src/xmc_usbd.c ****   /*flush fifo */
 308:/opt/XMClib/XMC_Peripheral_Library_v2.1.16/XMCLib/src/xmc_usbd.c ****   data.b.txfflsh = 1U;
 309:/opt/XMClib/XMC_Peripheral_Library_v2.1.16/XMCLib/src/xmc_usbd.c ****   data.b.txfnum = fifo_num;
 310:/opt/XMClib/XMC_Peripheral_Library_v2.1.16/XMCLib/src/xmc_usbd.c ****   xmc_device.global_register->grstctl = data.d32;
 311:/opt/XMClib/XMC_Peripheral_Library_v2.1.16/XMCLib/src/xmc_usbd.c ****   for (count = 0U;count < 1000U; count++){}
 312:/opt/XMClib/XMC_Peripheral_Library_v2.1.16/XMCLib/src/xmc_usbd.c ****   do
 313:/opt/XMClib/XMC_Peripheral_Library_v2.1.16/XMCLib/src/xmc_usbd.c ****   {
 314:/opt/XMClib/XMC_Peripheral_Library_v2.1.16/XMCLib/src/xmc_usbd.c ****    data.d32 = xmc_device.global_register->grstctl;
 315:/opt/XMClib/XMC_Peripheral_Library_v2.1.16/XMCLib/src/xmc_usbd.c ****   } while (data.b.txfflsh);
 316:/opt/XMClib/XMC_Peripheral_Library_v2.1.16/XMCLib/src/xmc_usbd.c ****     count = 0U;
 317:/opt/XMClib/XMC_Peripheral_Library_v2.1.16/XMCLib/src/xmc_usbd.c ****   while (count++ < 1000U)
 318:/opt/XMClib/XMC_Peripheral_Library_v2.1.16/XMCLib/src/xmc_usbd.c ****   {
 319:/opt/XMClib/XMC_Peripheral_Library_v2.1.16/XMCLib/src/xmc_usbd.c ****     /* wait 3 phy clocks */
 320:/opt/XMClib/XMC_Peripheral_Library_v2.1.16/XMCLib/src/xmc_usbd.c ****   }
 321:/opt/XMClib/XMC_Peripheral_Library_v2.1.16/XMCLib/src/xmc_usbd.c **** }
 322:/opt/XMClib/XMC_Peripheral_Library_v2.1.16/XMCLib/src/xmc_usbd.c **** 
 323:/opt/XMClib/XMC_Peripheral_Library_v2.1.16/XMCLib/src/xmc_usbd.c **** /**
 324:/opt/XMClib/XMC_Peripheral_Library_v2.1.16/XMCLib/src/xmc_usbd.c ****  * @brief Flush the rx fifo
 325:/opt/XMClib/XMC_Peripheral_Library_v2.1.16/XMCLib/src/xmc_usbd.c ****  */
 326:/opt/XMClib/XMC_Peripheral_Library_v2.1.16/XMCLib/src/xmc_usbd.c **** static void XMC_USBD_lFlushRXFifo(void) 
 327:/opt/XMClib/XMC_Peripheral_Library_v2.1.16/XMCLib/src/xmc_usbd.c **** {
 328:/opt/XMClib/XMC_Peripheral_Library_v2.1.16/XMCLib/src/xmc_usbd.c ****   volatile grstctl_t data;  
 329:/opt/XMClib/XMC_Peripheral_Library_v2.1.16/XMCLib/src/xmc_usbd.c ****   uint32_t count;
 330:/opt/XMClib/XMC_Peripheral_Library_v2.1.16/XMCLib/src/xmc_usbd.c **** 	
 331:/opt/XMClib/XMC_Peripheral_Library_v2.1.16/XMCLib/src/xmc_usbd.c **** 	data.d32 = 0U;
 332:/opt/XMClib/XMC_Peripheral_Library_v2.1.16/XMCLib/src/xmc_usbd.c ****   data.b.rxfflsh = 1U;
 333:/opt/XMClib/XMC_Peripheral_Library_v2.1.16/XMCLib/src/xmc_usbd.c ****   /* flush FIFO */
 334:/opt/XMClib/XMC_Peripheral_Library_v2.1.16/XMCLib/src/xmc_usbd.c ****   xmc_device.global_register->grstctl = data.d32;
 335:/opt/XMClib/XMC_Peripheral_Library_v2.1.16/XMCLib/src/xmc_usbd.c ****   do
 336:/opt/XMClib/XMC_Peripheral_Library_v2.1.16/XMCLib/src/xmc_usbd.c ****   {
 337:/opt/XMClib/XMC_Peripheral_Library_v2.1.16/XMCLib/src/xmc_usbd.c ****     for (count = 0U; count < 1000U; count++){}
 338:/opt/XMClib/XMC_Peripheral_Library_v2.1.16/XMCLib/src/xmc_usbd.c ****     data.d32 = xmc_device.global_register->grstctl;
 339:/opt/XMClib/XMC_Peripheral_Library_v2.1.16/XMCLib/src/xmc_usbd.c ****   } while (data.b.rxfflsh);
 340:/opt/XMClib/XMC_Peripheral_Library_v2.1.16/XMCLib/src/xmc_usbd.c ****   count = 0U;
 341:/opt/XMClib/XMC_Peripheral_Library_v2.1.16/XMCLib/src/xmc_usbd.c ****   while (count++ < 1000U)
 342:/opt/XMClib/XMC_Peripheral_Library_v2.1.16/XMCLib/src/xmc_usbd.c ****   {
 343:/opt/XMClib/XMC_Peripheral_Library_v2.1.16/XMCLib/src/xmc_usbd.c ****     /* wait 3 phy clocks */
 344:/opt/XMClib/XMC_Peripheral_Library_v2.1.16/XMCLib/src/xmc_usbd.c ****   }
 345:/opt/XMClib/XMC_Peripheral_Library_v2.1.16/XMCLib/src/xmc_usbd.c **** }
 346:/opt/XMClib/XMC_Peripheral_Library_v2.1.16/XMCLib/src/xmc_usbd.c **** 
 347:/opt/XMClib/XMC_Peripheral_Library_v2.1.16/XMCLib/src/xmc_usbd.c **** /*
 348:/opt/XMClib/XMC_Peripheral_Library_v2.1.16/XMCLib/src/xmc_usbd.c ****  * Support Functions
 349:/opt/XMClib/XMC_Peripheral_Library_v2.1.16/XMCLib/src/xmc_usbd.c ****  */
 350:/opt/XMClib/XMC_Peripheral_Library_v2.1.16/XMCLib/src/xmc_usbd.c **** 
 351:/opt/XMClib/XMC_Peripheral_Library_v2.1.16/XMCLib/src/xmc_usbd.c **** /**
 352:/opt/XMClib/XMC_Peripheral_Library_v2.1.16/XMCLib/src/xmc_usbd.c ****  * @brief Assign a free tx fifo
 353:/opt/XMClib/XMC_Peripheral_Library_v2.1.16/XMCLib/src/xmc_usbd.c ****  *
 354:/opt/XMClib/XMC_Peripheral_Library_v2.1.16/XMCLib/src/xmc_usbd.c ****  * A free tx fifo will be searched and the number will be returned.
 355:/opt/XMClib/XMC_Peripheral_Library_v2.1.16/XMCLib/src/xmc_usbd.c ****  *
 356:/opt/XMClib/XMC_Peripheral_Library_v2.1.16/XMCLib/src/xmc_usbd.c ****  * @return Fifo number for a free fifo
 357:/opt/XMClib/XMC_Peripheral_Library_v2.1.16/XMCLib/src/xmc_usbd.c ****  */
 358:/opt/XMClib/XMC_Peripheral_Library_v2.1.16/XMCLib/src/xmc_usbd.c **** static uint8_t XMC_USBD_lAssignTXFifo(void) 
 359:/opt/XMClib/XMC_Peripheral_Library_v2.1.16/XMCLib/src/xmc_usbd.c **** {
 360:/opt/XMClib/XMC_Peripheral_Library_v2.1.16/XMCLib/src/xmc_usbd.c ****   uint16_t mask = 1U;
 361:/opt/XMClib/XMC_Peripheral_Library_v2.1.16/XMCLib/src/xmc_usbd.c ****   uint8_t i = 0U;
 362:/opt/XMClib/XMC_Peripheral_Library_v2.1.16/XMCLib/src/xmc_usbd.c ****   uint8_t result = 0U;
 363:/opt/XMClib/XMC_Peripheral_Library_v2.1.16/XMCLib/src/xmc_usbd.c ****   while( (i < (uint8_t)XMC_USBD_NUM_TX_FIFOS)&&((xmc_device.txfifomsk & mask) != 0U))
 364:/opt/XMClib/XMC_Peripheral_Library_v2.1.16/XMCLib/src/xmc_usbd.c ****   {
 365:/opt/XMClib/XMC_Peripheral_Library_v2.1.16/XMCLib/src/xmc_usbd.c ****     mask = (uint16_t)(mask << 1U);
 366:/opt/XMClib/XMC_Peripheral_Library_v2.1.16/XMCLib/src/xmc_usbd.c ****     i++;
 367:/opt/XMClib/XMC_Peripheral_Library_v2.1.16/XMCLib/src/xmc_usbd.c ****   }
 368:/opt/XMClib/XMC_Peripheral_Library_v2.1.16/XMCLib/src/xmc_usbd.c ****   if ((xmc_device.txfifomsk & mask) == 0U)
 369:/opt/XMClib/XMC_Peripheral_Library_v2.1.16/XMCLib/src/xmc_usbd.c ****   {
 370:/opt/XMClib/XMC_Peripheral_Library_v2.1.16/XMCLib/src/xmc_usbd.c ****     xmc_device.txfifomsk |= mask;
 371:/opt/XMClib/XMC_Peripheral_Library_v2.1.16/XMCLib/src/xmc_usbd.c ****     result=i;
 372:/opt/XMClib/XMC_Peripheral_Library_v2.1.16/XMCLib/src/xmc_usbd.c ****   }
 373:/opt/XMClib/XMC_Peripheral_Library_v2.1.16/XMCLib/src/xmc_usbd.c ****   return result;
 374:/opt/XMClib/XMC_Peripheral_Library_v2.1.16/XMCLib/src/xmc_usbd.c **** }
 375:/opt/XMClib/XMC_Peripheral_Library_v2.1.16/XMCLib/src/xmc_usbd.c **** 
 376:/opt/XMClib/XMC_Peripheral_Library_v2.1.16/XMCLib/src/xmc_usbd.c **** /**
 377:/opt/XMClib/XMC_Peripheral_Library_v2.1.16/XMCLib/src/xmc_usbd.c ****  * @brief Free a tx fifo
 378:/opt/XMClib/XMC_Peripheral_Library_v2.1.16/XMCLib/src/xmc_usbd.c ****  *
 379:/opt/XMClib/XMC_Peripheral_Library_v2.1.16/XMCLib/src/xmc_usbd.c ****  * Mark an used tx fifo as free.
 380:/opt/XMClib/XMC_Peripheral_Library_v2.1.16/XMCLib/src/xmc_usbd.c ****  * @param[in] fifo_nr Fifo number to free
 381:/opt/XMClib/XMC_Peripheral_Library_v2.1.16/XMCLib/src/xmc_usbd.c ****  */
 382:/opt/XMClib/XMC_Peripheral_Library_v2.1.16/XMCLib/src/xmc_usbd.c **** static void XMC_USBD_lUnassignFifo(const uint8_t fifo_nr) 
 383:/opt/XMClib/XMC_Peripheral_Library_v2.1.16/XMCLib/src/xmc_usbd.c **** {
 384:/opt/XMClib/XMC_Peripheral_Library_v2.1.16/XMCLib/src/xmc_usbd.c ****   xmc_device.txfifomsk = (uint16_t)((uint32_t)xmc_device.txfifomsk & (uint32_t)(~((uint32_t)((uint3
 385:/opt/XMClib/XMC_Peripheral_Library_v2.1.16/XMCLib/src/xmc_usbd.c **** }
 386:/opt/XMClib/XMC_Peripheral_Library_v2.1.16/XMCLib/src/xmc_usbd.c **** 
 387:/opt/XMClib/XMC_Peripheral_Library_v2.1.16/XMCLib/src/xmc_usbd.c **** /**
 388:/opt/XMClib/XMC_Peripheral_Library_v2.1.16/XMCLib/src/xmc_usbd.c ****  * @brief Start a transfer for an out endpoint
 389:/opt/XMClib/XMC_Peripheral_Library_v2.1.16/XMCLib/src/xmc_usbd.c ****  *
 390:/opt/XMClib/XMC_Peripheral_Library_v2.1.16/XMCLib/src/xmc_usbd.c ****  * Based on the transfer values of the endpoint, the out endpoint registers will be programmed
 391:/opt/XMClib/XMC_Peripheral_Library_v2.1.16/XMCLib/src/xmc_usbd.c ****  * to start a new out transfer.
 392:/opt/XMClib/XMC_Peripheral_Library_v2.1.16/XMCLib/src/xmc_usbd.c ****  *
 393:/opt/XMClib/XMC_Peripheral_Library_v2.1.16/XMCLib/src/xmc_usbd.c ****  * @note No checking of the transfer values are done in this function. Be sure,
 394:/opt/XMClib/XMC_Peripheral_Library_v2.1.16/XMCLib/src/xmc_usbd.c ****  * that the transfer values are reasonable (e.g. buffer size is not exceeded).
 395:/opt/XMClib/XMC_Peripheral_Library_v2.1.16/XMCLib/src/xmc_usbd.c ****  *
 396:/opt/XMClib/XMC_Peripheral_Library_v2.1.16/XMCLib/src/xmc_usbd.c ****  * @param[in] ep Endpoint to start the transfer
 397:/opt/XMClib/XMC_Peripheral_Library_v2.1.16/XMCLib/src/xmc_usbd.c ****  */
 398:/opt/XMClib/XMC_Peripheral_Library_v2.1.16/XMCLib/src/xmc_usbd.c **** static void XMC_USBD_lStartReadXfer(XMC_USBD_EP_t *const ep) 
 399:/opt/XMClib/XMC_Peripheral_Library_v2.1.16/XMCLib/src/xmc_usbd.c **** {
 196              		.loc 1 399 1 is_stmt 1 view -0
 197              		.cfi_startproc
 198              		@ args = 0, pretend = 0, frame = 0
 199              		@ frame_needed = 0, uses_anonymous_args = 0
 200              		@ link register save eliminated.
 400:/opt/XMClib/XMC_Peripheral_Library_v2.1.16/XMCLib/src/xmc_usbd.c ****   deptsiz_data_t data;
 201              		.loc 1 400 3 view .LVU67
 401:/opt/XMClib/XMC_Peripheral_Library_v2.1.16/XMCLib/src/xmc_usbd.c ****   depctl_data_t epctl;
 202              		.loc 1 401 3 view .LVU68
 402:/opt/XMClib/XMC_Peripheral_Library_v2.1.16/XMCLib/src/xmc_usbd.c **** 	
 403:/opt/XMClib/XMC_Peripheral_Library_v2.1.16/XMCLib/src/xmc_usbd.c ****   data.d32 =  0U;
 203              		.loc 1 403 3 view .LVU69
 404:/opt/XMClib/XMC_Peripheral_Library_v2.1.16/XMCLib/src/xmc_usbd.c ****   if ((ep->xferTotal - ep->xferLength) > ep->maxTransferSize)
 204              		.loc 1 404 3 view .LVU70
 205              		.loc 1 404 26 is_stmt 0 view .LVU71
 206 0000 826A     		ldr	r2, [r0, #40]
 207              		.loc 1 404 10 view .LVU72
 208 0002 036B     		ldr	r3, [r0, #48]
 209              		.loc 1 404 44 view .LVU73
 210 0004 8168     		ldr	r1, [r0, #8]
 399:/opt/XMClib/XMC_Peripheral_Library_v2.1.16/XMCLib/src/xmc_usbd.c ****   deptsiz_data_t data;
 211              		.loc 1 399 1 view .LVU74
 212 0006 10B4     		push	{r4}
 213              	.LCFI1:
 214              		.cfi_def_cfa_offset 4
 215              		.cfi_offset 4, -4
 216              		.loc 1 404 44 view .LVU75
 217 0008 C1F31201 		ubfx	r1, r1, #0, #19
 218              		.loc 1 404 22 view .LVU76
 219 000c 9C1A     		subs	r4, r3, r2
 220              		.loc 1 404 6 view .LVU77
 221 000e 8C42     		cmp	r4, r1
 405:/opt/XMClib/XMC_Peripheral_Library_v2.1.16/XMCLib/src/xmc_usbd.c ****   {
 406:/opt/XMClib/XMC_Peripheral_Library_v2.1.16/XMCLib/src/xmc_usbd.c ****     ep->xferLength += ep->maxTransferSize;
 222              		.loc 1 406 5 is_stmt 1 view .LVU78
 223              		.loc 1 406 20 is_stmt 0 view .LVU79
 224 0010 88BF     		it	hi
 225 0012 5218     		addhi	r2, r2, r1
 407:/opt/XMClib/XMC_Peripheral_Library_v2.1.16/XMCLib/src/xmc_usbd.c ****   }
 408:/opt/XMClib/XMC_Peripheral_Library_v2.1.16/XMCLib/src/xmc_usbd.c ****   else
 409:/opt/XMClib/XMC_Peripheral_Library_v2.1.16/XMCLib/src/xmc_usbd.c ****   {
 410:/opt/XMClib/XMC_Peripheral_Library_v2.1.16/XMCLib/src/xmc_usbd.c ****     ep->xferLength = ep->xferTotal;
 411:/opt/XMClib/XMC_Peripheral_Library_v2.1.16/XMCLib/src/xmc_usbd.c ****   }
 412:/opt/XMClib/XMC_Peripheral_Library_v2.1.16/XMCLib/src/xmc_usbd.c ****   if (ep->address_u.address_st.number == 0U)
 226              		.loc 1 412 39 view .LVU80
 227 0014 0178     		ldrb	r1, [r0]	@ zero_extendqisi2
 410:/opt/XMClib/XMC_Peripheral_Library_v2.1.16/XMCLib/src/xmc_usbd.c ****   }
 228              		.loc 1 410 20 view .LVU81
 229 0016 98BF     		it	ls
 230 0018 1A46     		movls	r2, r3
 231              		.loc 1 412 6 view .LVU82
 232 001a 0C07     		lsls	r4, r1, #28
 233 001c 8262     		str	r2, [r0, #40]
 234              		.loc 1 412 3 is_stmt 1 view .LVU83
 235              		.loc 1 412 6 is_stmt 0 view .LVU84
 236 001e 1CD1     		bne	.L24
 237              	.LBB39:
 413:/opt/XMClib/XMC_Peripheral_Library_v2.1.16/XMCLib/src/xmc_usbd.c ****   {
 414:/opt/XMClib/XMC_Peripheral_Library_v2.1.16/XMCLib/src/xmc_usbd.c **** 	/* Setup the endpoint to receive 3 setup packages and one normal package.*/
 415:/opt/XMClib/XMC_Peripheral_Library_v2.1.16/XMCLib/src/xmc_usbd.c **** 	/* Cast the data pointer to use only one variable */
 416:/opt/XMClib/XMC_Peripheral_Library_v2.1.16/XMCLib/src/xmc_usbd.c ****     deptsiz0_data_t *ep0_data = (deptsiz0_data_t*)&data;
 238              		.loc 1 416 5 is_stmt 1 view .LVU85
 239              	.LVL13:
 417:/opt/XMClib/XMC_Peripheral_Library_v2.1.16/XMCLib/src/xmc_usbd.c ****     ep0_data->b.pktcnt = 0x1U;
 240              		.loc 1 417 5 view .LVU86
 418:/opt/XMClib/XMC_Peripheral_Library_v2.1.16/XMCLib/src/xmc_usbd.c ****     ep0_data->b.supcnt = 0x3U;
 241              		.loc 1 418 5 view .LVU87
 419:/opt/XMClib/XMC_Peripheral_Library_v2.1.16/XMCLib/src/xmc_usbd.c ****     ep0_data->b.xfersize = (uint8_t)ep->xferTotal;
 242              		.loc 1 419 5 view .LVU88
 243              		.loc 1 419 26 is_stmt 0 view .LVU89
 244 0020 03F07F03 		and	r3, r3, #127
 245 0024 43F0C043 		orr	r3, r3, #1610612736
 246 0028 43F40023 		orr	r3, r3, #524288
 247              	.LVL14:
 248              	.L25:
 249              		.loc 1 419 26 view .LVU90
 250              	.LBE39:
 420:/opt/XMClib/XMC_Peripheral_Library_v2.1.16/XMCLib/src/xmc_usbd.c ****   }
 421:/opt/XMClib/XMC_Peripheral_Library_v2.1.16/XMCLib/src/xmc_usbd.c ****   else
 422:/opt/XMClib/XMC_Peripheral_Library_v2.1.16/XMCLib/src/xmc_usbd.c ****   {
 423:/opt/XMClib/XMC_Peripheral_Library_v2.1.16/XMCLib/src/xmc_usbd.c ****     /* If requested length is zero, just receive one zero length packet */
 424:/opt/XMClib/XMC_Peripheral_Library_v2.1.16/XMCLib/src/xmc_usbd.c ****     if (ep->xferLength == 0U)
 425:/opt/XMClib/XMC_Peripheral_Library_v2.1.16/XMCLib/src/xmc_usbd.c ****     {
 426:/opt/XMClib/XMC_Peripheral_Library_v2.1.16/XMCLib/src/xmc_usbd.c ****       data.b.xfersize = 0U;
 427:/opt/XMClib/XMC_Peripheral_Library_v2.1.16/XMCLib/src/xmc_usbd.c ****       data.b.pktcnt = 1U;
 428:/opt/XMClib/XMC_Peripheral_Library_v2.1.16/XMCLib/src/xmc_usbd.c ****     }
 429:/opt/XMClib/XMC_Peripheral_Library_v2.1.16/XMCLib/src/xmc_usbd.c ****     else
 430:/opt/XMClib/XMC_Peripheral_Library_v2.1.16/XMCLib/src/xmc_usbd.c ****     {
 431:/opt/XMClib/XMC_Peripheral_Library_v2.1.16/XMCLib/src/xmc_usbd.c ****       /* setup endpoint to recive a amount of packages by given size */
 432:/opt/XMClib/XMC_Peripheral_Library_v2.1.16/XMCLib/src/xmc_usbd.c ****       data.b.pktcnt = (uint16_t)(((ep->xferLength - ep->xferCount) + (ep->maxPacketSize -(uint32_t)
 433:/opt/XMClib/XMC_Peripheral_Library_v2.1.16/XMCLib/src/xmc_usbd.c ****       data.b.xfersize =(uint32_t)(ep->xferLength - ep->xferCount);
 434:/opt/XMClib/XMC_Peripheral_Library_v2.1.16/XMCLib/src/xmc_usbd.c ****     }
 435:/opt/XMClib/XMC_Peripheral_Library_v2.1.16/XMCLib/src/xmc_usbd.c ****   }
 436:/opt/XMClib/XMC_Peripheral_Library_v2.1.16/XMCLib/src/xmc_usbd.c ****   if(usbd_init->usbd_transfer_mode == XMC_USBD_USE_DMA)
 251              		.loc 1 436 3 is_stmt 1 view .LVU91
 252              		.loc 1 436 15 is_stmt 0 view .LVU92
 253 002c 184A     		ldr	r2, .L32
 254 002e D2F80842 		ldr	r4, [r2, #520]
 255              		.loc 1 436 5 view .LVU93
 256 0032 647B     		ldrb	r4, [r4, #13]	@ zero_extendqisi2
 437:/opt/XMClib/XMC_Peripheral_Library_v2.1.16/XMCLib/src/xmc_usbd.c ****   {
 438:/opt/XMClib/XMC_Peripheral_Library_v2.1.16/XMCLib/src/xmc_usbd.c ****     /* Programm dma address if needed */
 439:/opt/XMClib/XMC_Peripheral_Library_v2.1.16/XMCLib/src/xmc_usbd.c ****     xmc_device.endpoint_out_register[ep->address_u.address_st.number]->doepdma = (uint32_t)(ep->xfe
 257              		.loc 1 439 62 view .LVU94
 258 0034 01F00F01 		and	r1, r1, #15
 259              		.loc 1 439 37 view .LVU95
 260 0038 02EB8102 		add	r2, r2, r1, lsl #2
 436:/opt/XMClib/XMC_Peripheral_Library_v2.1.16/XMCLib/src/xmc_usbd.c ****   {
 261              		.loc 1 436 5 view .LVU96
 262 003c 8CB1     		cbz	r4, .L26
 263              		.loc 1 439 37 view .LVU97
 264 003e D2F8C421 		ldr	r2, [r2, #452]
 265              	.L27:
 440:/opt/XMClib/XMC_Peripheral_Library_v2.1.16/XMCLib/src/xmc_usbd.c ****   }
 441:/opt/XMClib/XMC_Peripheral_Library_v2.1.16/XMCLib/src/xmc_usbd.c ****   /* setup endpoint size and enable endpoint */
 442:/opt/XMClib/XMC_Peripheral_Library_v2.1.16/XMCLib/src/xmc_usbd.c ****   xmc_device.endpoint_out_register[ep->address_u.address_st.number]->doeptsiz = data.d32;
 266              		.loc 1 442 3 is_stmt 1 view .LVU98
 267              		.loc 1 442 79 is_stmt 0 view .LVU99
 268 0042 1361     		str	r3, [r2, #16]
 443:/opt/XMClib/XMC_Peripheral_Library_v2.1.16/XMCLib/src/xmc_usbd.c ****  
 444:/opt/XMClib/XMC_Peripheral_Library_v2.1.16/XMCLib/src/xmc_usbd.c ****   epctl.d32 = xmc_device.endpoint_out_register[ep->address_u.address_st.number]->doepctl;
 269              		.loc 1 444 3 is_stmt 1 view .LVU100
 270              		.loc 1 444 80 is_stmt 0 view .LVU101
 271 0044 1368     		ldr	r3, [r2]
 445:/opt/XMClib/XMC_Peripheral_Library_v2.1.16/XMCLib/src/xmc_usbd.c ****   epctl.b.cnak = 1U;
 446:/opt/XMClib/XMC_Peripheral_Library_v2.1.16/XMCLib/src/xmc_usbd.c ****   epctl.b.epena = 1U;
 447:/opt/XMClib/XMC_Peripheral_Library_v2.1.16/XMCLib/src/xmc_usbd.c ****   xmc_device.endpoint_out_register[ep->address_u.address_st.number]->doepctl = epctl.d32;
 448:/opt/XMClib/XMC_Peripheral_Library_v2.1.16/XMCLib/src/xmc_usbd.c **** }
 272              		.loc 1 448 1 view .LVU102
 273 0046 5DF8044B 		ldr	r4, [sp], #4
 274              	.LCFI2:
 275              		.cfi_remember_state
 276              		.cfi_restore 4
 277              		.cfi_def_cfa_offset 0
 445:/opt/XMClib/XMC_Peripheral_Library_v2.1.16/XMCLib/src/xmc_usbd.c ****   epctl.b.cnak = 1U;
 278              		.loc 1 445 16 view .LVU103
 279 004a C3F30761 		ubfx	r1, r3, #24, #8
 445:/opt/XMClib/XMC_Peripheral_Library_v2.1.16/XMCLib/src/xmc_usbd.c ****   epctl.b.cnak = 1U;
 280              		.loc 1 445 3 is_stmt 1 view .LVU104
 446:/opt/XMClib/XMC_Peripheral_Library_v2.1.16/XMCLib/src/xmc_usbd.c ****   xmc_device.endpoint_out_register[ep->address_u.address_st.number]->doepctl = epctl.d32;
 281              		.loc 1 446 3 view .LVU105
 445:/opt/XMClib/XMC_Peripheral_Library_v2.1.16/XMCLib/src/xmc_usbd.c ****   epctl.b.cnak = 1U;
 282              		.loc 1 445 16 is_stmt 0 view .LVU106
 283 004e 61F07B01 		orn	r1, r1, #123
 284 0052 61F31F63 		bfi	r3, r1, #24, #8
 285              	.LVL15:
 447:/opt/XMClib/XMC_Peripheral_Library_v2.1.16/XMCLib/src/xmc_usbd.c **** }
 286              		.loc 1 447 3 is_stmt 1 view .LVU107
 447:/opt/XMClib/XMC_Peripheral_Library_v2.1.16/XMCLib/src/xmc_usbd.c **** }
 287              		.loc 1 447 78 is_stmt 0 view .LVU108
 288 0056 1360     		str	r3, [r2]
 289              		.loc 1 448 1 view .LVU109
 290 0058 7047     		bx	lr
 291              	.LVL16:
 292              	.L24:
 293              	.LCFI3:
 294              		.cfi_restore_state
 424:/opt/XMClib/XMC_Peripheral_Library_v2.1.16/XMCLib/src/xmc_usbd.c ****     {
 295              		.loc 1 424 5 is_stmt 1 view .LVU110
 424:/opt/XMClib/XMC_Peripheral_Library_v2.1.16/XMCLib/src/xmc_usbd.c ****     {
 296              		.loc 1 424 8 is_stmt 0 view .LVU111
 297 005a 3AB9     		cbnz	r2, .L31
 298 005c 4FF40023 		mov	r3, #524288
 299 0060 E4E7     		b	.L25
 300              	.L26:
 439:/opt/XMClib/XMC_Peripheral_Library_v2.1.16/XMCLib/src/xmc_usbd.c ****   }
 301              		.loc 1 439 5 is_stmt 1 view .LVU112
 439:/opt/XMClib/XMC_Peripheral_Library_v2.1.16/XMCLib/src/xmc_usbd.c ****   }
 302              		.loc 1 439 37 is_stmt 0 view .LVU113
 303 0062 D2F8C421 		ldr	r2, [r2, #452]
 439:/opt/XMClib/XMC_Peripheral_Library_v2.1.16/XMCLib/src/xmc_usbd.c ****   }
 304              		.loc 1 439 82 view .LVU114
 305 0066 416A     		ldr	r1, [r0, #36]
 439:/opt/XMClib/XMC_Peripheral_Library_v2.1.16/XMCLib/src/xmc_usbd.c ****   }
 306              		.loc 1 439 80 view .LVU115
 307 0068 5161     		str	r1, [r2, #20]
 308 006a EAE7     		b	.L27
 309              	.L31:
 432:/opt/XMClib/XMC_Peripheral_Library_v2.1.16/XMCLib/src/xmc_usbd.c ****       data.b.xfersize =(uint32_t)(ep->xferLength - ep->xferCount);
 310              		.loc 1 432 7 is_stmt 1 view .LVU116
 432:/opt/XMClib/XMC_Peripheral_Library_v2.1.16/XMCLib/src/xmc_usbd.c ****       data.b.xfersize =(uint32_t)(ep->xferLength - ep->xferCount);
 311              		.loc 1 432 73 is_stmt 0 view .LVU117
 312 006c 4468     		ldr	r4, [r0, #4]
 432:/opt/XMClib/XMC_Peripheral_Library_v2.1.16/XMCLib/src/xmc_usbd.c ****       data.b.xfersize =(uint32_t)(ep->xferLength - ep->xferCount);
 313              		.loc 1 432 51 view .LVU118
 314 006e C36A     		ldr	r3, [r0, #44]
 432:/opt/XMClib/XMC_Peripheral_Library_v2.1.16/XMCLib/src/xmc_usbd.c ****       data.b.xfersize =(uint32_t)(ep->xferLength - ep->xferCount);
 315              		.loc 1 432 73 view .LVU119
 316 0070 C4F3C62C 		ubfx	ip, r4, #11, #7
 433:/opt/XMClib/XMC_Peripheral_Library_v2.1.16/XMCLib/src/xmc_usbd.c ****     }
 317              		.loc 1 433 7 is_stmt 1 view .LVU120
 432:/opt/XMClib/XMC_Peripheral_Library_v2.1.16/XMCLib/src/xmc_usbd.c ****       data.b.xfersize =(uint32_t)(ep->xferLength - ep->xferCount);
 318              		.loc 1 432 51 is_stmt 0 view .LVU121
 319 0074 D21A     		subs	r2, r2, r3
 433:/opt/XMClib/XMC_Peripheral_Library_v2.1.16/XMCLib/src/xmc_usbd.c ****     }
 320              		.loc 1 433 23 view .LVU122
 321 0076 074B     		ldr	r3, .L32+4
 432:/opt/XMClib/XMC_Peripheral_Library_v2.1.16/XMCLib/src/xmc_usbd.c ****       data.b.xfersize =(uint32_t)(ep->xferLength - ep->xferCount);
 322              		.loc 1 432 68 view .LVU123
 323 0078 0CF1FF34 		add	r4, ip, #-1
 324 007c 1444     		add	r4, r4, r2
 433:/opt/XMClib/XMC_Peripheral_Library_v2.1.16/XMCLib/src/xmc_usbd.c ****     }
 325              		.loc 1 433 23 view .LVU124
 326 007e C2F31202 		ubfx	r2, r2, #0, #19
 432:/opt/XMClib/XMC_Peripheral_Library_v2.1.16/XMCLib/src/xmc_usbd.c ****       data.b.xfersize =(uint32_t)(ep->xferLength - ep->xferCount);
 327              		.loc 1 432 104 view .LVU125
 328 0082 B4FBFCF4 		udiv	r4, r4, ip
 433:/opt/XMClib/XMC_Peripheral_Library_v2.1.16/XMCLib/src/xmc_usbd.c ****     }
 329              		.loc 1 433 23 view .LVU126
 330 0086 03EAC443 		and	r3, r3, r4, lsl #19
 331 008a 1343     		orrs	r3, r3, r2
 332 008c CEE7     		b	.L25
 333              	.L33:
 334 008e 00BF     		.align	2
 335              	.L32:
 336 0090 00000000 		.word	.LANCHOR0
 337 0094 0000F81F 		.word	536346624
 338              		.cfi_endproc
 339              	.LFE169:
 341              		.section	.text.XMC_USBD_lStartWriteXfer,"ax",%progbits
 342              		.align	1
 343              		.p2align 2,,3
 344              		.syntax unified
 345              		.thumb
 346              		.thumb_func
 348              	XMC_USBD_lStartWriteXfer:
 349              	.LVL17:
 350              	.LFB170:
 449:/opt/XMClib/XMC_Peripheral_Library_v2.1.16/XMCLib/src/xmc_usbd.c **** 
 450:/opt/XMClib/XMC_Peripheral_Library_v2.1.16/XMCLib/src/xmc_usbd.c **** /**
 451:/opt/XMClib/XMC_Peripheral_Library_v2.1.16/XMCLib/src/xmc_usbd.c ****  * @brief Start a new in transfer
 452:/opt/XMClib/XMC_Peripheral_Library_v2.1.16/XMCLib/src/xmc_usbd.c ****  *
 453:/opt/XMClib/XMC_Peripheral_Library_v2.1.16/XMCLib/src/xmc_usbd.c ****  * Based on the transfer values of the endpoint the in endpoint registers will be programmed
 454:/opt/XMClib/XMC_Peripheral_Library_v2.1.16/XMCLib/src/xmc_usbd.c ****  * to start a new in transfer
 455:/opt/XMClib/XMC_Peripheral_Library_v2.1.16/XMCLib/src/xmc_usbd.c ****  *
 456:/opt/XMClib/XMC_Peripheral_Library_v2.1.16/XMCLib/src/xmc_usbd.c ****  * @param[in] ep Endpoint to start the transfer
 457:/opt/XMClib/XMC_Peripheral_Library_v2.1.16/XMCLib/src/xmc_usbd.c ****  */
 458:/opt/XMClib/XMC_Peripheral_Library_v2.1.16/XMCLib/src/xmc_usbd.c **** static void XMC_USBD_lStartWriteXfer(XMC_USBD_EP_t *const ep) 
 459:/opt/XMClib/XMC_Peripheral_Library_v2.1.16/XMCLib/src/xmc_usbd.c **** {
 351              		.loc 1 459 1 is_stmt 1 view -0
 352              		.cfi_startproc
 353              		@ args = 0, pretend = 0, frame = 0
 354              		@ frame_needed = 0, uses_anonymous_args = 0
 460:/opt/XMClib/XMC_Peripheral_Library_v2.1.16/XMCLib/src/xmc_usbd.c ****   deptsiz_data_t size;
 355              		.loc 1 460 3 view .LVU128
 461:/opt/XMClib/XMC_Peripheral_Library_v2.1.16/XMCLib/src/xmc_usbd.c ****   depctl_data_t ctl;
 356              		.loc 1 461 3 view .LVU129
 462:/opt/XMClib/XMC_Peripheral_Library_v2.1.16/XMCLib/src/xmc_usbd.c **** 	
 463:/opt/XMClib/XMC_Peripheral_Library_v2.1.16/XMCLib/src/xmc_usbd.c ****   size.d32 = 0U;  
 357              		.loc 1 463 3 view .LVU130
 464:/opt/XMClib/XMC_Peripheral_Library_v2.1.16/XMCLib/src/xmc_usbd.c ****   ctl.d32 = xmc_device.endpoint_in_register[ep->address_u.address_st.number]->diepctl;
 358              		.loc 1 464 3 view .LVU131
 459:/opt/XMClib/XMC_Peripheral_Library_v2.1.16/XMCLib/src/xmc_usbd.c ****   deptsiz_data_t size;
 359              		.loc 1 459 1 is_stmt 0 view .LVU132
 360 0000 F0B5     		push	{r4, r5, r6, r7, lr}
 361              	.LCFI4:
 362              		.cfi_def_cfa_offset 20
 363              		.cfi_offset 4, -20
 364              		.cfi_offset 5, -16
 365              		.cfi_offset 6, -12
 366              		.cfi_offset 7, -8
 367              		.cfi_offset 14, -4
 368              		.loc 1 464 69 view .LVU133
 369 0002 90F800E0 		ldrb	lr, [r0]	@ zero_extendqisi2
 370              		.loc 1 464 44 view .LVU134
 371 0006 274D     		ldr	r5, .L45
 465:/opt/XMClib/XMC_Peripheral_Library_v2.1.16/XMCLib/src/xmc_usbd.c **** 
 466:/opt/XMClib/XMC_Peripheral_Library_v2.1.16/XMCLib/src/xmc_usbd.c ****   if ((ep->xferTotal - ep->xferLength)  < ep->maxTransferSize)
 372              		.loc 1 466 26 view .LVU135
 373 0008 866A     		ldr	r6, [r0, #40]
 374              		.loc 1 466 45 view .LVU136
 375 000a 8268     		ldr	r2, [r0, #8]
 464:/opt/XMClib/XMC_Peripheral_Library_v2.1.16/XMCLib/src/xmc_usbd.c **** 
 376              		.loc 1 464 69 view .LVU137
 377 000c 0EF00F0C 		and	ip, lr, #15
 464:/opt/XMClib/XMC_Peripheral_Library_v2.1.16/XMCLib/src/xmc_usbd.c **** 
 378              		.loc 1 464 44 view .LVU138
 379 0010 0CF16A03 		add	r3, ip, #106
 380              		.loc 1 466 45 view .LVU139
 381 0014 C2F31202 		ubfx	r2, r2, #0, #19
 464:/opt/XMClib/XMC_Peripheral_Library_v2.1.16/XMCLib/src/xmc_usbd.c **** 
 382              		.loc 1 464 44 view .LVU140
 383 0018 55F82310 		ldr	r1, [r5, r3, lsl #2]
 384              		.loc 1 466 10 view .LVU141
 385 001c 036B     		ldr	r3, [r0, #48]
 464:/opt/XMClib/XMC_Peripheral_Library_v2.1.16/XMCLib/src/xmc_usbd.c **** 
 386              		.loc 1 464 77 view .LVU142
 387 001e 0C68     		ldr	r4, [r1]
 388              	.LVL18:
 389              		.loc 1 466 3 is_stmt 1 view .LVU143
 390              		.loc 1 466 22 is_stmt 0 view .LVU144
 391 0020 9F1B     		subs	r7, r3, r6
 392              		.loc 1 466 6 view .LVU145
 393 0022 9742     		cmp	r7, r2
 467:/opt/XMClib/XMC_Peripheral_Library_v2.1.16/XMCLib/src/xmc_usbd.c ****   {
 468:/opt/XMClib/XMC_Peripheral_Library_v2.1.16/XMCLib/src/xmc_usbd.c ****     ep->xferLength = ep->xferTotal;
 469:/opt/XMClib/XMC_Peripheral_Library_v2.1.16/XMCLib/src/xmc_usbd.c ****   }
 470:/opt/XMClib/XMC_Peripheral_Library_v2.1.16/XMCLib/src/xmc_usbd.c ****   else
 471:/opt/XMClib/XMC_Peripheral_Library_v2.1.16/XMCLib/src/xmc_usbd.c ****   {
 472:/opt/XMClib/XMC_Peripheral_Library_v2.1.16/XMCLib/src/xmc_usbd.c ****     ep->xferLength += ep->maxTransferSize;
 394              		.loc 1 472 5 is_stmt 1 view .LVU146
 395              		.loc 1 472 20 is_stmt 0 view .LVU147
 396 0024 28BF     		it	cs
 397 0026 B318     		addcs	r3, r6, r2
 398 0028 8362     		str	r3, [r0, #40]
 473:/opt/XMClib/XMC_Peripheral_Library_v2.1.16/XMCLib/src/xmc_usbd.c ****   }
 474:/opt/XMClib/XMC_Peripheral_Library_v2.1.16/XMCLib/src/xmc_usbd.c ****   if (ep->xferLength == 0U)
 399              		.loc 1 474 3 is_stmt 1 view .LVU148
 400              		.loc 1 474 6 is_stmt 0 view .LVU149
 401 002a D3B1     		cbz	r3, .L41
 475:/opt/XMClib/XMC_Peripheral_Library_v2.1.16/XMCLib/src/xmc_usbd.c ****   {
 476:/opt/XMClib/XMC_Peripheral_Library_v2.1.16/XMCLib/src/xmc_usbd.c ****     size.b.xfersize = 0U;
 477:/opt/XMClib/XMC_Peripheral_Library_v2.1.16/XMCLib/src/xmc_usbd.c ****     size.b.pktcnt = 1U;
 478:/opt/XMClib/XMC_Peripheral_Library_v2.1.16/XMCLib/src/xmc_usbd.c ****   }
 479:/opt/XMClib/XMC_Peripheral_Library_v2.1.16/XMCLib/src/xmc_usbd.c ****   else
 480:/opt/XMClib/XMC_Peripheral_Library_v2.1.16/XMCLib/src/xmc_usbd.c ****   {
 481:/opt/XMClib/XMC_Peripheral_Library_v2.1.16/XMCLib/src/xmc_usbd.c ****     if (ep->address_u.address_st.number == 0U)
 402              		.loc 1 481 5 is_stmt 1 view .LVU150
 403              		.loc 1 481 8 is_stmt 0 view .LVU151
 404 002c 1EF00F0F 		tst	lr, #15
 405 0030 22D0     		beq	.L43
 482:/opt/XMClib/XMC_Peripheral_Library_v2.1.16/XMCLib/src/xmc_usbd.c ****     {
 483:/opt/XMClib/XMC_Peripheral_Library_v2.1.16/XMCLib/src/xmc_usbd.c ****       size.b.pktcnt = 1U;
 484:/opt/XMClib/XMC_Peripheral_Library_v2.1.16/XMCLib/src/xmc_usbd.c ****       /* ep->maxXferSize equals maxPacketSize */
 485:/opt/XMClib/XMC_Peripheral_Library_v2.1.16/XMCLib/src/xmc_usbd.c ****       size.b.xfersize = (uint32_t)(ep->xferLength - ep->xferCount);
 486:/opt/XMClib/XMC_Peripheral_Library_v2.1.16/XMCLib/src/xmc_usbd.c ****     }
 487:/opt/XMClib/XMC_Peripheral_Library_v2.1.16/XMCLib/src/xmc_usbd.c ****     else
 488:/opt/XMClib/XMC_Peripheral_Library_v2.1.16/XMCLib/src/xmc_usbd.c ****     {
 489:/opt/XMClib/XMC_Peripheral_Library_v2.1.16/XMCLib/src/xmc_usbd.c ****       size.b.xfersize =(uint32_t)(ep->xferLength - ep->xferCount);
 406              		.loc 1 489 7 is_stmt 1 view .LVU152
 490:/opt/XMClib/XMC_Peripheral_Library_v2.1.16/XMCLib/src/xmc_usbd.c ****       size.b.pktcnt = (uint16_t)(((uint16_t)(ep->xferLength - ep->xferCount) + (uint16_t)((uint16_t
 407              		.loc 1 490 103 is_stmt 0 view .LVU153
 408 0032 4668     		ldr	r6, [r0, #4]
 489:/opt/XMClib/XMC_Peripheral_Library_v2.1.16/XMCLib/src/xmc_usbd.c ****       size.b.pktcnt = (uint16_t)(((uint16_t)(ep->xferLength - ep->xferCount) + (uint16_t)((uint16_t
 409              		.loc 1 489 54 view .LVU154
 410 0034 C26A     		ldr	r2, [r0, #44]
 411              		.loc 1 490 7 is_stmt 1 view .LVU155
 491:/opt/XMClib/XMC_Peripheral_Library_v2.1.16/XMCLib/src/xmc_usbd.c ****     		 ep->maxPacketSize);
 492:/opt/XMClib/XMC_Peripheral_Library_v2.1.16/XMCLib/src/xmc_usbd.c ****     }
 493:/opt/XMClib/XMC_Peripheral_Library_v2.1.16/XMCLib/src/xmc_usbd.c ****     if(usbd_init->usbd_transfer_mode == XMC_USBD_USE_DMA)
 412              		.loc 1 493 5 view .LVU156
 490:/opt/XMClib/XMC_Peripheral_Library_v2.1.16/XMCLib/src/xmc_usbd.c ****     		 ep->maxPacketSize);
 413              		.loc 1 490 103 is_stmt 0 view .LVU157
 414 0036 C6F3C627 		ubfx	r7, r6, #11, #7
 490:/opt/XMClib/XMC_Peripheral_Library_v2.1.16/XMCLib/src/xmc_usbd.c ****     		 ep->maxPacketSize);
 415              		.loc 1 490 35 view .LVU158
 416 003a 9B1A     		subs	r3, r3, r2
 490:/opt/XMClib/XMC_Peripheral_Library_v2.1.16/XMCLib/src/xmc_usbd.c ****     		 ep->maxPacketSize);
 417              		.loc 1 490 80 view .LVU159
 418 003c 7E1E     		subs	r6, r7, #1
 489:/opt/XMClib/XMC_Peripheral_Library_v2.1.16/XMCLib/src/xmc_usbd.c ****       size.b.pktcnt = (uint16_t)(((uint16_t)(ep->xferLength - ep->xferCount) + (uint16_t)((uint16_t
 419              		.loc 1 489 23 view .LVU160
 420 003e 1A4A     		ldr	r2, .L45+4
 490:/opt/XMClib/XMC_Peripheral_Library_v2.1.16/XMCLib/src/xmc_usbd.c ****     		 ep->maxPacketSize);
 421              		.loc 1 490 80 view .LVU161
 422 0040 B6B2     		uxth	r6, r6
 490:/opt/XMClib/XMC_Peripheral_Library_v2.1.16/XMCLib/src/xmc_usbd.c ****     		 ep->maxPacketSize);
 423              		.loc 1 490 78 view .LVU162
 424 0042 16FA83F6 		uxtah	r6, r6, r3
 489:/opt/XMClib/XMC_Peripheral_Library_v2.1.16/XMCLib/src/xmc_usbd.c ****       size.b.pktcnt = (uint16_t)(((uint16_t)(ep->xferLength - ep->xferCount) + (uint16_t)((uint16_t
 425              		.loc 1 489 23 view .LVU163
 426 0046 C3F31203 		ubfx	r3, r3, #0, #19
 490:/opt/XMClib/XMC_Peripheral_Library_v2.1.16/XMCLib/src/xmc_usbd.c ****     		 ep->maxPacketSize);
 427              		.loc 1 490 125 view .LVU164
 428 004a B6FBF7F6 		udiv	r6, r6, r7
 489:/opt/XMClib/XMC_Peripheral_Library_v2.1.16/XMCLib/src/xmc_usbd.c ****       size.b.pktcnt = (uint16_t)(((uint16_t)(ep->xferLength - ep->xferCount) + (uint16_t)((uint16_t
 429              		.loc 1 489 23 view .LVU165
 430 004e 02EAC642 		and	r2, r2, r6, lsl #19
 431 0052 1343     		orrs	r3, r3, r2
 432              	.LVL19:
 433              		.loc 1 493 17 view .LVU166
 434 0054 D5F80822 		ldr	r2, [r5, #520]
 435 0058 527B     		ldrb	r2, [r2, #13]	@ zero_extendqisi2
 436              		.loc 1 493 7 view .LVU167
 437 005a C2B9     		cbnz	r2, .L39
 438              	.L44:
 494:/opt/XMClib/XMC_Peripheral_Library_v2.1.16/XMCLib/src/xmc_usbd.c ****     {
 495:/opt/XMClib/XMC_Peripheral_Library_v2.1.16/XMCLib/src/xmc_usbd.c ****       /* Program dma*/
 496:/opt/XMClib/XMC_Peripheral_Library_v2.1.16/XMCLib/src/xmc_usbd.c ****       xmc_device.endpoint_in_register[ep->address_u.address_st.number]->diepdma = (uint32_t)ep->xfe
 439              		.loc 1 496 7 is_stmt 1 view .LVU168
 440              		.loc 1 496 83 is_stmt 0 view .LVU169
 441 005c 426A     		ldr	r2, [r0, #36]
 442              		.loc 1 496 81 view .LVU170
 443 005e 4A61     		str	r2, [r1, #20]
 497:/opt/XMClib/XMC_Peripheral_Library_v2.1.16/XMCLib/src/xmc_usbd.c ****     }
 498:/opt/XMClib/XMC_Peripheral_Library_v2.1.16/XMCLib/src/xmc_usbd.c ****     if(usbd_init->usbd_transfer_mode == XMC_USBD_USE_FIFO)
 444              		.loc 1 498 5 is_stmt 1 view .LVU171
 445 0060 01E0     		b	.L36
 446              	.L41:
 447              		.loc 1 498 5 is_stmt 0 view .LVU172
 448 0062 4FF40023 		mov	r3, #524288
 449              	.LVL20:
 450              	.L36:
 499:/opt/XMClib/XMC_Peripheral_Library_v2.1.16/XMCLib/src/xmc_usbd.c ****     {
 500:/opt/XMClib/XMC_Peripheral_Library_v2.1.16/XMCLib/src/xmc_usbd.c ****       /* enable fifo empty interrupt */
 501:/opt/XMClib/XMC_Peripheral_Library_v2.1.16/XMCLib/src/xmc_usbd.c **** 			xmc_device.device_register->dtknqr4_fifoemptymsk |= (uint32_t)((uint32_t)1U << (uint8_t)ep->addr
 502:/opt/XMClib/XMC_Peripheral_Library_v2.1.16/XMCLib/src/xmc_usbd.c ****     }
 503:/opt/XMClib/XMC_Peripheral_Library_v2.1.16/XMCLib/src/xmc_usbd.c ****   }
 504:/opt/XMClib/XMC_Peripheral_Library_v2.1.16/XMCLib/src/xmc_usbd.c **** 
 505:/opt/XMClib/XMC_Peripheral_Library_v2.1.16/XMCLib/src/xmc_usbd.c ****   /* Program size of transfer and enable endpoint */
 506:/opt/XMClib/XMC_Peripheral_Library_v2.1.16/XMCLib/src/xmc_usbd.c ****   xmc_device.endpoint_in_register[ep->address_u.address_st.number]->dieptsiz = size.d32;
 451              		.loc 1 506 3 is_stmt 1 view .LVU173
 507:/opt/XMClib/XMC_Peripheral_Library_v2.1.16/XMCLib/src/xmc_usbd.c ****   ctl.b.epena = 1U;
 508:/opt/XMClib/XMC_Peripheral_Library_v2.1.16/XMCLib/src/xmc_usbd.c ****   ctl.b.cnak = 1U;
 452              		.loc 1 508 14 is_stmt 0 view .LVU174
 453 0066 C4F30762 		ubfx	r2, r4, #24, #8
 454 006a 62F07B02 		orn	r2, r2, #123
 455 006e 62F31F64 		bfi	r4, r2, #24, #8
 506:/opt/XMClib/XMC_Peripheral_Library_v2.1.16/XMCLib/src/xmc_usbd.c ****   ctl.b.epena = 1U;
 456              		.loc 1 506 78 view .LVU175
 457 0072 0B61     		str	r3, [r1, #16]
 507:/opt/XMClib/XMC_Peripheral_Library_v2.1.16/XMCLib/src/xmc_usbd.c ****   ctl.b.epena = 1U;
 458              		.loc 1 507 3 is_stmt 1 view .LVU176
 459              		.loc 1 508 3 view .LVU177
 509:/opt/XMClib/XMC_Peripheral_Library_v2.1.16/XMCLib/src/xmc_usbd.c ****   xmc_device.endpoint_in_register[ep->address_u.address_st.number]->diepctl = ctl.d32;
 460              		.loc 1 509 3 view .LVU178
 461              		.loc 1 509 77 is_stmt 0 view .LVU179
 462 0074 0C60     		str	r4, [r1]
 510:/opt/XMClib/XMC_Peripheral_Library_v2.1.16/XMCLib/src/xmc_usbd.c **** }
 463              		.loc 1 510 1 view .LVU180
 464 0076 F0BD     		pop	{r4, r5, r6, r7, pc}
 465              	.LVL21:
 466              	.L43:
 483:/opt/XMClib/XMC_Peripheral_Library_v2.1.16/XMCLib/src/xmc_usbd.c ****       /* ep->maxXferSize equals maxPacketSize */
 467              		.loc 1 483 7 is_stmt 1 view .LVU181
 485:/opt/XMClib/XMC_Peripheral_Library_v2.1.16/XMCLib/src/xmc_usbd.c ****     }
 468              		.loc 1 485 7 view .LVU182
 485:/opt/XMClib/XMC_Peripheral_Library_v2.1.16/XMCLib/src/xmc_usbd.c ****     }
 469              		.loc 1 485 51 is_stmt 0 view .LVU183
 470 0078 C26A     		ldr	r2, [r0, #44]
 471 007a 9B1A     		subs	r3, r3, r2
 493:/opt/XMClib/XMC_Peripheral_Library_v2.1.16/XMCLib/src/xmc_usbd.c ****     {
 472              		.loc 1 493 17 view .LVU184
 473 007c D5F80822 		ldr	r2, [r5, #520]
 474 0080 527B     		ldrb	r2, [r2, #13]	@ zero_extendqisi2
 485:/opt/XMClib/XMC_Peripheral_Library_v2.1.16/XMCLib/src/xmc_usbd.c ****     }
 475              		.loc 1 485 23 view .LVU185
 476 0082 C3F31203 		ubfx	r3, r3, #0, #19
 477 0086 43F40023 		orr	r3, r3, #524288
 493:/opt/XMClib/XMC_Peripheral_Library_v2.1.16/XMCLib/src/xmc_usbd.c ****     {
 478              		.loc 1 493 5 is_stmt 1 view .LVU186
 493:/opt/XMClib/XMC_Peripheral_Library_v2.1.16/XMCLib/src/xmc_usbd.c ****     {
 479              		.loc 1 493 7 is_stmt 0 view .LVU187
 480 008a 002A     		cmp	r2, #0
 481 008c E6D0     		beq	.L44
 482              	.L39:
 498:/opt/XMClib/XMC_Peripheral_Library_v2.1.16/XMCLib/src/xmc_usbd.c ****     {
 483              		.loc 1 498 5 is_stmt 1 view .LVU188
 498:/opt/XMClib/XMC_Peripheral_Library_v2.1.16/XMCLib/src/xmc_usbd.c ****     {
 484              		.loc 1 498 7 is_stmt 0 view .LVU189
 485 008e 012A     		cmp	r2, #1
 486 0090 E9D1     		bne	.L36
 501:/opt/XMClib/XMC_Peripheral_Library_v2.1.16/XMCLib/src/xmc_usbd.c ****     }
 487              		.loc 1 501 4 is_stmt 1 view .LVU190
 501:/opt/XMClib/XMC_Peripheral_Library_v2.1.16/XMCLib/src/xmc_usbd.c ****     }
 488              		.loc 1 501 14 is_stmt 0 view .LVU191
 489 0092 D5F8A401 		ldr	r0, [r5, #420]
 490              	.LVL22:
 501:/opt/XMClib/XMC_Peripheral_Library_v2.1.16/XMCLib/src/xmc_usbd.c ****     }
 491              		.loc 1 501 53 view .LVU192
 492 0096 456B     		ldr	r5, [r0, #52]
 501:/opt/XMClib/XMC_Peripheral_Library_v2.1.16/XMCLib/src/xmc_usbd.c ****     }
 493              		.loc 1 501 56 view .LVU193
 494 0098 02FA0CF2 		lsl	r2, r2, ip
 501:/opt/XMClib/XMC_Peripheral_Library_v2.1.16/XMCLib/src/xmc_usbd.c ****     }
 495              		.loc 1 501 53 view .LVU194
 496 009c 2A43     		orrs	r2, r2, r5
 497 009e 4263     		str	r2, [r0, #52]
 498 00a0 E1E7     		b	.L36
 499              	.L46:
 500 00a2 00BF     		.align	2
 501              	.L45:
 502 00a4 00000000 		.word	.LANCHOR0
 503 00a8 0000F81F 		.word	536346624
 504              		.cfi_endproc
 505              	.LFE170:
 507              		.section	.text.XMC_USBD_GetCapabilities,"ax",%progbits
 508              		.align	1
 509              		.p2align 2,,3
 510              		.global	XMC_USBD_GetCapabilities
 511              		.syntax unified
 512              		.thumb
 513              		.thumb_func
 515              	XMC_USBD_GetCapabilities:
 516              	.LFB186:
 511:/opt/XMClib/XMC_Peripheral_Library_v2.1.16/XMCLib/src/xmc_usbd.c **** 
 512:/opt/XMClib/XMC_Peripheral_Library_v2.1.16/XMCLib/src/xmc_usbd.c **** 
 513:/opt/XMClib/XMC_Peripheral_Library_v2.1.16/XMCLib/src/xmc_usbd.c **** /**
 514:/opt/XMClib/XMC_Peripheral_Library_v2.1.16/XMCLib/src/xmc_usbd.c ****  * @brief Handles the USBD reset interrupt
 515:/opt/XMClib/XMC_Peripheral_Library_v2.1.16/XMCLib/src/xmc_usbd.c ****  *
 516:/opt/XMClib/XMC_Peripheral_Library_v2.1.16/XMCLib/src/xmc_usbd.c ****  * When ever the host sets the bus into reset condition the usb otg_core generates
 517:/opt/XMClib/XMC_Peripheral_Library_v2.1.16/XMCLib/src/xmc_usbd.c ****  * an interrupt, which is handled by this function. It resets the complete otg_core
 518:/opt/XMClib/XMC_Peripheral_Library_v2.1.16/XMCLib/src/xmc_usbd.c ****  * into the default state.
 519:/opt/XMClib/XMC_Peripheral_Library_v2.1.16/XMCLib/src/xmc_usbd.c ****  */
 520:/opt/XMClib/XMC_Peripheral_Library_v2.1.16/XMCLib/src/xmc_usbd.c **** static void XMC_USBD_lHandleUSBReset(const XMC_USBD_t *const obj) 
 521:/opt/XMClib/XMC_Peripheral_Library_v2.1.16/XMCLib/src/xmc_usbd.c **** {
 522:/opt/XMClib/XMC_Peripheral_Library_v2.1.16/XMCLib/src/xmc_usbd.c ****   uint32_t i;
 523:/opt/XMClib/XMC_Peripheral_Library_v2.1.16/XMCLib/src/xmc_usbd.c ****   depctl_data_t epctl;
 524:/opt/XMClib/XMC_Peripheral_Library_v2.1.16/XMCLib/src/xmc_usbd.c ****   dctl_data_t dctl;
 525:/opt/XMClib/XMC_Peripheral_Library_v2.1.16/XMCLib/src/xmc_usbd.c ****   fifosize_data_t gnptxfsiz;
 526:/opt/XMClib/XMC_Peripheral_Library_v2.1.16/XMCLib/src/xmc_usbd.c ****   daint_data_t daint;
 527:/opt/XMClib/XMC_Peripheral_Library_v2.1.16/XMCLib/src/xmc_usbd.c ****   dcfg_data_t dcfg;
 528:/opt/XMClib/XMC_Peripheral_Library_v2.1.16/XMCLib/src/xmc_usbd.c **** 	
 529:/opt/XMClib/XMC_Peripheral_Library_v2.1.16/XMCLib/src/xmc_usbd.c ****   /* Clear the Remote Wakeup Signaling */
 530:/opt/XMClib/XMC_Peripheral_Library_v2.1.16/XMCLib/src/xmc_usbd.c ****   dctl.d32 = xmc_device.device_register->dctl;
 531:/opt/XMClib/XMC_Peripheral_Library_v2.1.16/XMCLib/src/xmc_usbd.c ****   dctl.b.rmtwkupsig = 1U;
 532:/opt/XMClib/XMC_Peripheral_Library_v2.1.16/XMCLib/src/xmc_usbd.c ****   xmc_device.device_register->dctl = dctl.d32;
 533:/opt/XMClib/XMC_Peripheral_Library_v2.1.16/XMCLib/src/xmc_usbd.c **** 
 534:/opt/XMClib/XMC_Peripheral_Library_v2.1.16/XMCLib/src/xmc_usbd.c ****   /* enable naks for all eps */
 535:/opt/XMClib/XMC_Peripheral_Library_v2.1.16/XMCLib/src/xmc_usbd.c ****   for (i = 0U;i < (uint8_t)XMC_USBD_NUM_EPS;i++)
 536:/opt/XMClib/XMC_Peripheral_Library_v2.1.16/XMCLib/src/xmc_usbd.c ****   {
 537:/opt/XMClib/XMC_Peripheral_Library_v2.1.16/XMCLib/src/xmc_usbd.c ****     epctl.d32 = xmc_device.endpoint_out_register[i]->doepctl;
 538:/opt/XMClib/XMC_Peripheral_Library_v2.1.16/XMCLib/src/xmc_usbd.c **** 		epctl.b.snak = 1U;
 539:/opt/XMClib/XMC_Peripheral_Library_v2.1.16/XMCLib/src/xmc_usbd.c **** 		epctl.b.stall = 0U;
 540:/opt/XMClib/XMC_Peripheral_Library_v2.1.16/XMCLib/src/xmc_usbd.c **** 		xmc_device.endpoint_out_register[i]->doepctl = epctl.d32;
 541:/opt/XMClib/XMC_Peripheral_Library_v2.1.16/XMCLib/src/xmc_usbd.c ****   }
 542:/opt/XMClib/XMC_Peripheral_Library_v2.1.16/XMCLib/src/xmc_usbd.c **** 
 543:/opt/XMClib/XMC_Peripheral_Library_v2.1.16/XMCLib/src/xmc_usbd.c ****   /* Configure fifos */
 544:/opt/XMClib/XMC_Peripheral_Library_v2.1.16/XMCLib/src/xmc_usbd.c ****   /* Calculate the size of the rx fifo */
 545:/opt/XMClib/XMC_Peripheral_Library_v2.1.16/XMCLib/src/xmc_usbd.c ****   xmc_device.global_register->grxfsiz = 64U;
 546:/opt/XMClib/XMC_Peripheral_Library_v2.1.16/XMCLib/src/xmc_usbd.c ****   /* Calculate the size of the tx fifo for ep 0 */  
 547:/opt/XMClib/XMC_Peripheral_Library_v2.1.16/XMCLib/src/xmc_usbd.c ****   gnptxfsiz.d32 = 0U;
 548:/opt/XMClib/XMC_Peripheral_Library_v2.1.16/XMCLib/src/xmc_usbd.c ****   gnptxfsiz.b.depth = 16U;
 549:/opt/XMClib/XMC_Peripheral_Library_v2.1.16/XMCLib/src/xmc_usbd.c ****   gnptxfsiz.b.startaddr = 64U;
 550:/opt/XMClib/XMC_Peripheral_Library_v2.1.16/XMCLib/src/xmc_usbd.c ****   xmc_device.global_register->gnptxfsiz = gnptxfsiz.d32;
 551:/opt/XMClib/XMC_Peripheral_Library_v2.1.16/XMCLib/src/xmc_usbd.c ****   /* calculate the size for the rest */
 552:/opt/XMClib/XMC_Peripheral_Library_v2.1.16/XMCLib/src/xmc_usbd.c ****   for (i = 1U;i < (uint8_t)XMC_USBD_NUM_TX_FIFOS;i++)
 553:/opt/XMClib/XMC_Peripheral_Library_v2.1.16/XMCLib/src/xmc_usbd.c ****   {
 554:/opt/XMClib/XMC_Peripheral_Library_v2.1.16/XMCLib/src/xmc_usbd.c ****     xmc_device.global_register->dtxfsiz[i- 1U] = (uint32_t)(((256U + (i*(64U)))/4U) | ((uint32_t)16
 555:/opt/XMClib/XMC_Peripheral_Library_v2.1.16/XMCLib/src/xmc_usbd.c ****   }
 556:/opt/XMClib/XMC_Peripheral_Library_v2.1.16/XMCLib/src/xmc_usbd.c **** 
 557:/opt/XMClib/XMC_Peripheral_Library_v2.1.16/XMCLib/src/xmc_usbd.c ****   /* flush the fifos for proper operation */
 558:/opt/XMClib/XMC_Peripheral_Library_v2.1.16/XMCLib/src/xmc_usbd.c ****   XMC_USBD_lFlushTXFifo(0x10U); /* 0x10 == all fifos, see doc */
 559:/opt/XMClib/XMC_Peripheral_Library_v2.1.16/XMCLib/src/xmc_usbd.c ****   XMC_USBD_lFlushTXFifo(0x0U);
 560:/opt/XMClib/XMC_Peripheral_Library_v2.1.16/XMCLib/src/xmc_usbd.c ****   XMC_USBD_lFlushRXFifo();
 561:/opt/XMClib/XMC_Peripheral_Library_v2.1.16/XMCLib/src/xmc_usbd.c ****   /* Flush learning queue not needed due to fifo config */
 562:/opt/XMClib/XMC_Peripheral_Library_v2.1.16/XMCLib/src/xmc_usbd.c ****   /* enable ep0 interrupts */  
 563:/opt/XMClib/XMC_Peripheral_Library_v2.1.16/XMCLib/src/xmc_usbd.c ****   daint.d32 = 0U;
 564:/opt/XMClib/XMC_Peripheral_Library_v2.1.16/XMCLib/src/xmc_usbd.c ****   daint.b.inep0 = 1U;
 565:/opt/XMClib/XMC_Peripheral_Library_v2.1.16/XMCLib/src/xmc_usbd.c ****   daint.b.outep0 = 1U;
 566:/opt/XMClib/XMC_Peripheral_Library_v2.1.16/XMCLib/src/xmc_usbd.c ****   xmc_device.device_register->daintmsk = daint.d32;
 567:/opt/XMClib/XMC_Peripheral_Library_v2.1.16/XMCLib/src/xmc_usbd.c **** 
 568:/opt/XMClib/XMC_Peripheral_Library_v2.1.16/XMCLib/src/xmc_usbd.c ****   /* enable endpoint interrupts */
 569:/opt/XMClib/XMC_Peripheral_Library_v2.1.16/XMCLib/src/xmc_usbd.c ****   /* out ep interrupts */
 570:/opt/XMClib/XMC_Peripheral_Library_v2.1.16/XMCLib/src/xmc_usbd.c ****   XMC_USBD_EnableEventOUTEP(((uint32_t)XMC_USBD_EVENT_OUT_EP_TX_COMPLET | (uint32_t)XMC_USBD_EVENT_
 571:/opt/XMClib/XMC_Peripheral_Library_v2.1.16/XMCLib/src/xmc_usbd.c **** 		  	  	  	  	  	  (uint32_t)XMC_USBD_EVENT_OUT_EP_SETUP | (uint32_t)XMC_USBD_EVENT_OUT_EP_AHB_ERRO
 572:/opt/XMClib/XMC_Peripheral_Library_v2.1.16/XMCLib/src/xmc_usbd.c **** 
 573:/opt/XMClib/XMC_Peripheral_Library_v2.1.16/XMCLib/src/xmc_usbd.c ****   /*in ep interrupts */
 574:/opt/XMClib/XMC_Peripheral_Library_v2.1.16/XMCLib/src/xmc_usbd.c ****   XMC_USBD_EnableEventINEP(((uint32_t)XMC_USBD_EVENT_IN_EP_TX_COMPLET | (uint32_t)XMC_USBD_EVENT_IN
 575:/opt/XMClib/XMC_Peripheral_Library_v2.1.16/XMCLib/src/xmc_usbd.c **** 		  (uint32_t)XMC_USBD_EVENT_IN_EP_AHB_ERROR | (uint32_t)XMC_USBD_EVENT_IN_EP_TIMEOUT));
 576:/opt/XMClib/XMC_Peripheral_Library_v2.1.16/XMCLib/src/xmc_usbd.c **** 
 577:/opt/XMClib/XMC_Peripheral_Library_v2.1.16/XMCLib/src/xmc_usbd.c **** 
 578:/opt/XMClib/XMC_Peripheral_Library_v2.1.16/XMCLib/src/xmc_usbd.c ****   /* Clear device Address */  
 579:/opt/XMClib/XMC_Peripheral_Library_v2.1.16/XMCLib/src/xmc_usbd.c ****   dcfg.d32 = xmc_device.device_register->dcfg;
 580:/opt/XMClib/XMC_Peripheral_Library_v2.1.16/XMCLib/src/xmc_usbd.c ****   dcfg.b.devaddr = 0U;
 581:/opt/XMClib/XMC_Peripheral_Library_v2.1.16/XMCLib/src/xmc_usbd.c ****   xmc_device.device_register->dcfg = dcfg.d32;
 582:/opt/XMClib/XMC_Peripheral_Library_v2.1.16/XMCLib/src/xmc_usbd.c **** 
 583:/opt/XMClib/XMC_Peripheral_Library_v2.1.16/XMCLib/src/xmc_usbd.c ****   if(obj->usbd_transfer_mode == XMC_USBD_USE_FIFO)
 584:/opt/XMClib/XMC_Peripheral_Library_v2.1.16/XMCLib/src/xmc_usbd.c ****   {
 585:/opt/XMClib/XMC_Peripheral_Library_v2.1.16/XMCLib/src/xmc_usbd.c ****     /* Clear Empty interrupt */
 586:/opt/XMClib/XMC_Peripheral_Library_v2.1.16/XMCLib/src/xmc_usbd.c ****     xmc_device.device_register->dtknqr4_fifoemptymsk = 0U;
 587:/opt/XMClib/XMC_Peripheral_Library_v2.1.16/XMCLib/src/xmc_usbd.c ****   }
 588:/opt/XMClib/XMC_Peripheral_Library_v2.1.16/XMCLib/src/xmc_usbd.c **** 
 589:/opt/XMClib/XMC_Peripheral_Library_v2.1.16/XMCLib/src/xmc_usbd.c ****   xmc_device.ep[0U].outInUse = 0U;
 590:/opt/XMClib/XMC_Peripheral_Library_v2.1.16/XMCLib/src/xmc_usbd.c ****   xmc_device.ep[0U].inInUse = 0U;
 591:/opt/XMClib/XMC_Peripheral_Library_v2.1.16/XMCLib/src/xmc_usbd.c **** 
 592:/opt/XMClib/XMC_Peripheral_Library_v2.1.16/XMCLib/src/xmc_usbd.c ****   xmc_device.DeviceEvent_cb(XMC_USBD_EVENT_RESET);
 593:/opt/XMClib/XMC_Peripheral_Library_v2.1.16/XMCLib/src/xmc_usbd.c **** 
 594:/opt/XMClib/XMC_Peripheral_Library_v2.1.16/XMCLib/src/xmc_usbd.c ****   /* clear reset intr */
 595:/opt/XMClib/XMC_Peripheral_Library_v2.1.16/XMCLib/src/xmc_usbd.c ****   XMC_USBD_ClearEvent(XMC_USBD_EVENT_RESET);
 596:/opt/XMClib/XMC_Peripheral_Library_v2.1.16/XMCLib/src/xmc_usbd.c **** }
 597:/opt/XMClib/XMC_Peripheral_Library_v2.1.16/XMCLib/src/xmc_usbd.c **** 
 598:/opt/XMClib/XMC_Peripheral_Library_v2.1.16/XMCLib/src/xmc_usbd.c **** /**
 599:/opt/XMClib/XMC_Peripheral_Library_v2.1.16/XMCLib/src/xmc_usbd.c **** * @brief Handle OTG Interrupt
 600:/opt/XMClib/XMC_Peripheral_Library_v2.1.16/XMCLib/src/xmc_usbd.c **** *
 601:/opt/XMClib/XMC_Peripheral_Library_v2.1.16/XMCLib/src/xmc_usbd.c **** * It detects especially connect and disconnect events.
 602:/opt/XMClib/XMC_Peripheral_Library_v2.1.16/XMCLib/src/xmc_usbd.c **** */
 603:/opt/XMClib/XMC_Peripheral_Library_v2.1.16/XMCLib/src/xmc_usbd.c **** static void XMC_USBD_lHandleOTGInt(void) 
 604:/opt/XMClib/XMC_Peripheral_Library_v2.1.16/XMCLib/src/xmc_usbd.c **** {
 605:/opt/XMClib/XMC_Peripheral_Library_v2.1.16/XMCLib/src/xmc_usbd.c ****   gotgint_data_t data;
 606:/opt/XMClib/XMC_Peripheral_Library_v2.1.16/XMCLib/src/xmc_usbd.c ****   data.d32 = xmc_device.global_register->gotgint;
 607:/opt/XMClib/XMC_Peripheral_Library_v2.1.16/XMCLib/src/xmc_usbd.c ****   if (data.b.sesenddet)
 608:/opt/XMClib/XMC_Peripheral_Library_v2.1.16/XMCLib/src/xmc_usbd.c ****   {
 609:/opt/XMClib/XMC_Peripheral_Library_v2.1.16/XMCLib/src/xmc_usbd.c **** 		xmc_device.IsPowered = 0U;
 610:/opt/XMClib/XMC_Peripheral_Library_v2.1.16/XMCLib/src/xmc_usbd.c **** 		xmc_device.DeviceEvent_cb(XMC_USBD_EVENT_POWER_OFF);
 611:/opt/XMClib/XMC_Peripheral_Library_v2.1.16/XMCLib/src/xmc_usbd.c ****   }
 612:/opt/XMClib/XMC_Peripheral_Library_v2.1.16/XMCLib/src/xmc_usbd.c ****   XMC_USBD_lClearEventOTG(data.d32);
 613:/opt/XMClib/XMC_Peripheral_Library_v2.1.16/XMCLib/src/xmc_usbd.c **** 
 614:/opt/XMClib/XMC_Peripheral_Library_v2.1.16/XMCLib/src/xmc_usbd.c **** }
 615:/opt/XMClib/XMC_Peripheral_Library_v2.1.16/XMCLib/src/xmc_usbd.c **** 
 616:/opt/XMClib/XMC_Peripheral_Library_v2.1.16/XMCLib/src/xmc_usbd.c **** /**
 617:/opt/XMClib/XMC_Peripheral_Library_v2.1.16/XMCLib/src/xmc_usbd.c ****  * @brief Interrupt handler for device enumeration done.
 618:/opt/XMClib/XMC_Peripheral_Library_v2.1.16/XMCLib/src/xmc_usbd.c ****  *
 619:/opt/XMClib/XMC_Peripheral_Library_v2.1.16/XMCLib/src/xmc_usbd.c ****  * Handles the enumeration done from dwc_otg, when the host has enumerated the device.
 620:/opt/XMClib/XMC_Peripheral_Library_v2.1.16/XMCLib/src/xmc_usbd.c ****  */
 621:/opt/XMClib/XMC_Peripheral_Library_v2.1.16/XMCLib/src/xmc_usbd.c **** static void XMC_USBD_lHandleEnumDone(void) 
 622:/opt/XMClib/XMC_Peripheral_Library_v2.1.16/XMCLib/src/xmc_usbd.c **** {
 623:/opt/XMClib/XMC_Peripheral_Library_v2.1.16/XMCLib/src/xmc_usbd.c ****   /* Normaly we need to check dctl
 624:/opt/XMClib/XMC_Peripheral_Library_v2.1.16/XMCLib/src/xmc_usbd.c ****    * We are always fullspeed, so max it up. */
 625:/opt/XMClib/XMC_Peripheral_Library_v2.1.16/XMCLib/src/xmc_usbd.c ****   depctl_data_t epctl;
 626:/opt/XMClib/XMC_Peripheral_Library_v2.1.16/XMCLib/src/xmc_usbd.c ****   gusbcfg_data_t gusbcfg;
 627:/opt/XMClib/XMC_Peripheral_Library_v2.1.16/XMCLib/src/xmc_usbd.c **** 	
 628:/opt/XMClib/XMC_Peripheral_Library_v2.1.16/XMCLib/src/xmc_usbd.c ****   epctl.d32=xmc_device.endpoint_in_register[0U]->diepctl;
 629:/opt/XMClib/XMC_Peripheral_Library_v2.1.16/XMCLib/src/xmc_usbd.c ****   epctl.b.mps = 0x00U; /* 64 Byte, this is also automatically set for out ep */
 630:/opt/XMClib/XMC_Peripheral_Library_v2.1.16/XMCLib/src/xmc_usbd.c ****   xmc_device.endpoint_in_register[0U]->diepctl = epctl.d32;
 631:/opt/XMClib/XMC_Peripheral_Library_v2.1.16/XMCLib/src/xmc_usbd.c **** 
 632:/opt/XMClib/XMC_Peripheral_Library_v2.1.16/XMCLib/src/xmc_usbd.c ****   /* update device connected flag */
 633:/opt/XMClib/XMC_Peripheral_Library_v2.1.16/XMCLib/src/xmc_usbd.c ****   xmc_device.IsConnected = 1U;
 634:/opt/XMClib/XMC_Peripheral_Library_v2.1.16/XMCLib/src/xmc_usbd.c ****   xmc_device.IsPowered = 1U;
 635:/opt/XMClib/XMC_Peripheral_Library_v2.1.16/XMCLib/src/xmc_usbd.c **** 
 636:/opt/XMClib/XMC_Peripheral_Library_v2.1.16/XMCLib/src/xmc_usbd.c ****   xmc_device.DeviceEvent_cb(XMC_USBD_EVENT_CONNECT);
 637:/opt/XMClib/XMC_Peripheral_Library_v2.1.16/XMCLib/src/xmc_usbd.c **** 
 638:/opt/XMClib/XMC_Peripheral_Library_v2.1.16/XMCLib/src/xmc_usbd.c ****   /* Set Trim */  
 639:/opt/XMClib/XMC_Peripheral_Library_v2.1.16/XMCLib/src/xmc_usbd.c ****   gusbcfg.d32 = xmc_device.global_register->gusbcfg;
 640:/opt/XMClib/XMC_Peripheral_Library_v2.1.16/XMCLib/src/xmc_usbd.c ****   gusbcfg.b.usbtrdtim = 9U; /* default value for LS/FS */
 641:/opt/XMClib/XMC_Peripheral_Library_v2.1.16/XMCLib/src/xmc_usbd.c ****   xmc_device.global_register->gusbcfg = gusbcfg.d32;
 642:/opt/XMClib/XMC_Peripheral_Library_v2.1.16/XMCLib/src/xmc_usbd.c **** 
 643:/opt/XMClib/XMC_Peripheral_Library_v2.1.16/XMCLib/src/xmc_usbd.c ****   /* clear interrupt */
 644:/opt/XMClib/XMC_Peripheral_Library_v2.1.16/XMCLib/src/xmc_usbd.c ****   XMC_USBD_ClearEvent(XMC_USBD_EVENT_ENUMDONE);
 645:/opt/XMClib/XMC_Peripheral_Library_v2.1.16/XMCLib/src/xmc_usbd.c **** }
 646:/opt/XMClib/XMC_Peripheral_Library_v2.1.16/XMCLib/src/xmc_usbd.c **** 
 647:/opt/XMClib/XMC_Peripheral_Library_v2.1.16/XMCLib/src/xmc_usbd.c **** 
 648:/opt/XMClib/XMC_Peripheral_Library_v2.1.16/XMCLib/src/xmc_usbd.c **** /**
 649:/opt/XMClib/XMC_Peripheral_Library_v2.1.16/XMCLib/src/xmc_usbd.c ****  * @brief Handles all interrupts for all out endpoints
 650:/opt/XMClib/XMC_Peripheral_Library_v2.1.16/XMCLib/src/xmc_usbd.c ****  *
 651:/opt/XMClib/XMC_Peripheral_Library_v2.1.16/XMCLib/src/xmc_usbd.c ****  * The interrupt handler first checks, which endpoint has caused the interrupt and then
 652:/opt/XMClib/XMC_Peripheral_Library_v2.1.16/XMCLib/src/xmc_usbd.c ****  * determines, which interrupt should be handled.
 653:/opt/XMClib/XMC_Peripheral_Library_v2.1.16/XMCLib/src/xmc_usbd.c ****  */
 654:/opt/XMClib/XMC_Peripheral_Library_v2.1.16/XMCLib/src/xmc_usbd.c **** static void XMC_USBD_lHandleOEPInt(const XMC_USBD_t *const obj) 
 655:/opt/XMClib/XMC_Peripheral_Library_v2.1.16/XMCLib/src/xmc_usbd.c **** {
 656:/opt/XMClib/XMC_Peripheral_Library_v2.1.16/XMCLib/src/xmc_usbd.c ****   daint_data_t daint;
 657:/opt/XMClib/XMC_Peripheral_Library_v2.1.16/XMCLib/src/xmc_usbd.c ****   daint_data_t daintmsk;
 658:/opt/XMClib/XMC_Peripheral_Library_v2.1.16/XMCLib/src/xmc_usbd.c ****   doepmsk_data_t doepmsk;
 659:/opt/XMClib/XMC_Peripheral_Library_v2.1.16/XMCLib/src/xmc_usbd.c ****   doepint_data_t doepint;
 660:/opt/XMClib/XMC_Peripheral_Library_v2.1.16/XMCLib/src/xmc_usbd.c ****   deptsiz_data_t doeptsiz;
 661:/opt/XMClib/XMC_Peripheral_Library_v2.1.16/XMCLib/src/xmc_usbd.c ****   XMC_USBD_EP_t *ep;
 662:/opt/XMClib/XMC_Peripheral_Library_v2.1.16/XMCLib/src/xmc_usbd.c ****   uint16_t temp;
 663:/opt/XMClib/XMC_Peripheral_Library_v2.1.16/XMCLib/src/xmc_usbd.c ****   uint16_t temp1;
 664:/opt/XMClib/XMC_Peripheral_Library_v2.1.16/XMCLib/src/xmc_usbd.c ****   uint16_t mask;
 665:/opt/XMClib/XMC_Peripheral_Library_v2.1.16/XMCLib/src/xmc_usbd.c ****   uint8_t ep_num;
 666:/opt/XMClib/XMC_Peripheral_Library_v2.1.16/XMCLib/src/xmc_usbd.c **** 	
 667:/opt/XMClib/XMC_Peripheral_Library_v2.1.16/XMCLib/src/xmc_usbd.c ****   daint.d32 = xmc_device.device_register->daint;
 668:/opt/XMClib/XMC_Peripheral_Library_v2.1.16/XMCLib/src/xmc_usbd.c ****   
 669:/opt/XMClib/XMC_Peripheral_Library_v2.1.16/XMCLib/src/xmc_usbd.c ****   daintmsk.d32 = xmc_device.device_register->daintmsk;
 670:/opt/XMClib/XMC_Peripheral_Library_v2.1.16/XMCLib/src/xmc_usbd.c ****   
 671:/opt/XMClib/XMC_Peripheral_Library_v2.1.16/XMCLib/src/xmc_usbd.c ****   doepmsk.d32 = xmc_device.device_register->doepmsk;  
 672:/opt/XMClib/XMC_Peripheral_Library_v2.1.16/XMCLib/src/xmc_usbd.c ****   
 673:/opt/XMClib/XMC_Peripheral_Library_v2.1.16/XMCLib/src/xmc_usbd.c ****   mask = daint.ep.out & daintmsk.ep.out;
 674:/opt/XMClib/XMC_Peripheral_Library_v2.1.16/XMCLib/src/xmc_usbd.c ****   ep_num = 0U;
 675:/opt/XMClib/XMC_Peripheral_Library_v2.1.16/XMCLib/src/xmc_usbd.c ****   doeptsiz.d32 = 0U;
 676:/opt/XMClib/XMC_Peripheral_Library_v2.1.16/XMCLib/src/xmc_usbd.c ****  
 677:/opt/XMClib/XMC_Peripheral_Library_v2.1.16/XMCLib/src/xmc_usbd.c ****   while ((uint16_t)mask >> ep_num)
 678:/opt/XMClib/XMC_Peripheral_Library_v2.1.16/XMCLib/src/xmc_usbd.c ****   {
 679:/opt/XMClib/XMC_Peripheral_Library_v2.1.16/XMCLib/src/xmc_usbd.c ****     temp1 = (mask >> (uint16_t)ep_num);
 680:/opt/XMClib/XMC_Peripheral_Library_v2.1.16/XMCLib/src/xmc_usbd.c ****     temp = temp1 & 0x1U;
 681:/opt/XMClib/XMC_Peripheral_Library_v2.1.16/XMCLib/src/xmc_usbd.c ****     if (temp)
 682:/opt/XMClib/XMC_Peripheral_Library_v2.1.16/XMCLib/src/xmc_usbd.c ****     {
 683:/opt/XMClib/XMC_Peripheral_Library_v2.1.16/XMCLib/src/xmc_usbd.c ****       /* load register data for endpoint */
 684:/opt/XMClib/XMC_Peripheral_Library_v2.1.16/XMCLib/src/xmc_usbd.c ****       ep = &xmc_device.ep[ep_num];
 685:/opt/XMClib/XMC_Peripheral_Library_v2.1.16/XMCLib/src/xmc_usbd.c ****       doepint.d32 = xmc_device.endpoint_out_register[ep_num]->doepint & doepmsk.d32;
 686:/opt/XMClib/XMC_Peripheral_Library_v2.1.16/XMCLib/src/xmc_usbd.c ****       if(obj->usbd_transfer_mode == XMC_USBD_USE_DMA)
 687:/opt/XMClib/XMC_Peripheral_Library_v2.1.16/XMCLib/src/xmc_usbd.c ****       {
 688:/opt/XMClib/XMC_Peripheral_Library_v2.1.16/XMCLib/src/xmc_usbd.c ****         doeptsiz.d32 = xmc_device.endpoint_out_register[ep_num]->doeptsiz;
 689:/opt/XMClib/XMC_Peripheral_Library_v2.1.16/XMCLib/src/xmc_usbd.c ****       }
 690:/opt/XMClib/XMC_Peripheral_Library_v2.1.16/XMCLib/src/xmc_usbd.c **** 	  /* Setup Phase Complete */
 691:/opt/XMClib/XMC_Peripheral_Library_v2.1.16/XMCLib/src/xmc_usbd.c ****       if (doepint.b.setup)
 692:/opt/XMClib/XMC_Peripheral_Library_v2.1.16/XMCLib/src/xmc_usbd.c ****       {
 693:/opt/XMClib/XMC_Peripheral_Library_v2.1.16/XMCLib/src/xmc_usbd.c ****         /* ep0 not stalled any more */
 694:/opt/XMClib/XMC_Peripheral_Library_v2.1.16/XMCLib/src/xmc_usbd.c ****         ep->isStalled = 0U;
 695:/opt/XMClib/XMC_Peripheral_Library_v2.1.16/XMCLib/src/xmc_usbd.c ****         if(obj->usbd_transfer_mode == XMC_USBD_USE_DMA)
 696:/opt/XMClib/XMC_Peripheral_Library_v2.1.16/XMCLib/src/xmc_usbd.c ****         {
 697:/opt/XMClib/XMC_Peripheral_Library_v2.1.16/XMCLib/src/xmc_usbd.c ****           /* calculate size for setup packet */
 698:/opt/XMClib/XMC_Peripheral_Library_v2.1.16/XMCLib/src/xmc_usbd.c **** 		  ep->outBytesAvailable = (uint32_t)(((uint32_t)XMC_USBD_SETUP_COUNT -
 699:/opt/XMClib/XMC_Peripheral_Library_v2.1.16/XMCLib/src/xmc_usbd.c **** 		  (uint32_t)((deptsiz0_data_t*)&doeptsiz)->b.supcnt)*(uint32_t)XMC_USBD_SETUP_SIZE);
 700:/opt/XMClib/XMC_Peripheral_Library_v2.1.16/XMCLib/src/xmc_usbd.c ****         }
 701:/opt/XMClib/XMC_Peripheral_Library_v2.1.16/XMCLib/src/xmc_usbd.c **** 		if(obj->usbd_transfer_mode == XMC_USBD_USE_FIFO)
 702:/opt/XMClib/XMC_Peripheral_Library_v2.1.16/XMCLib/src/xmc_usbd.c **** 		{
 703:/opt/XMClib/XMC_Peripheral_Library_v2.1.16/XMCLib/src/xmc_usbd.c **** 			ep->outBytesAvailable += ep->xferCount;
 704:/opt/XMClib/XMC_Peripheral_Library_v2.1.16/XMCLib/src/xmc_usbd.c **** 		}
 705:/opt/XMClib/XMC_Peripheral_Library_v2.1.16/XMCLib/src/xmc_usbd.c **** 		ep->outInUse = 0U;
 706:/opt/XMClib/XMC_Peripheral_Library_v2.1.16/XMCLib/src/xmc_usbd.c **** 		xmc_device.EndpointEvent_cb(0U,XMC_USBD_EP_EVENT_SETUP); /* signal endpoint event */
 707:/opt/XMClib/XMC_Peripheral_Library_v2.1.16/XMCLib/src/xmc_usbd.c **** 				/* clear the interrupt */
 708:/opt/XMClib/XMC_Peripheral_Library_v2.1.16/XMCLib/src/xmc_usbd.c **** 		XMC_USBD_ClearEventOUTEP((uint32_t)XMC_USBD_EVENT_OUT_EP_SETUP,ep_num);
 709:/opt/XMClib/XMC_Peripheral_Library_v2.1.16/XMCLib/src/xmc_usbd.c ****       }
 710:/opt/XMClib/XMC_Peripheral_Library_v2.1.16/XMCLib/src/xmc_usbd.c ****       if (doepint.b.xfercompl)
 711:/opt/XMClib/XMC_Peripheral_Library_v2.1.16/XMCLib/src/xmc_usbd.c ****       {
 712:/opt/XMClib/XMC_Peripheral_Library_v2.1.16/XMCLib/src/xmc_usbd.c ****         if(obj->usbd_transfer_mode == XMC_USBD_USE_DMA)
 713:/opt/XMClib/XMC_Peripheral_Library_v2.1.16/XMCLib/src/xmc_usbd.c ****         {
 714:/opt/XMClib/XMC_Peripheral_Library_v2.1.16/XMCLib/src/xmc_usbd.c ****           uint32_t bytes = (ep->xferLength - ep->xferCount) - doeptsiz.b.xfersize;
 715:/opt/XMClib/XMC_Peripheral_Library_v2.1.16/XMCLib/src/xmc_usbd.c ****           ep->xferCount += bytes;
 716:/opt/XMClib/XMC_Peripheral_Library_v2.1.16/XMCLib/src/xmc_usbd.c ****           ep->xferBuffer += bytes;
 717:/opt/XMClib/XMC_Peripheral_Library_v2.1.16/XMCLib/src/xmc_usbd.c **** 				}
 718:/opt/XMClib/XMC_Peripheral_Library_v2.1.16/XMCLib/src/xmc_usbd.c ****         if (ep->xferTotal == ep->xferLength)
 719:/opt/XMClib/XMC_Peripheral_Library_v2.1.16/XMCLib/src/xmc_usbd.c ****         {
 720:/opt/XMClib/XMC_Peripheral_Library_v2.1.16/XMCLib/src/xmc_usbd.c ****           ep->outBytesAvailable = ep->xferCount;
 721:/opt/XMClib/XMC_Peripheral_Library_v2.1.16/XMCLib/src/xmc_usbd.c ****           ep->outInUse = 0U;
 722:/opt/XMClib/XMC_Peripheral_Library_v2.1.16/XMCLib/src/xmc_usbd.c ****           xmc_device.EndpointEvent_cb(ep_num,XMC_USBD_EP_EVENT_OUT);
 723:/opt/XMClib/XMC_Peripheral_Library_v2.1.16/XMCLib/src/xmc_usbd.c ****         }
 724:/opt/XMClib/XMC_Peripheral_Library_v2.1.16/XMCLib/src/xmc_usbd.c ****         else
 725:/opt/XMClib/XMC_Peripheral_Library_v2.1.16/XMCLib/src/xmc_usbd.c ****         {
 726:/opt/XMClib/XMC_Peripheral_Library_v2.1.16/XMCLib/src/xmc_usbd.c ****           XMC_USBD_lStartReadXfer(ep);
 727:/opt/XMClib/XMC_Peripheral_Library_v2.1.16/XMCLib/src/xmc_usbd.c ****         }
 728:/opt/XMClib/XMC_Peripheral_Library_v2.1.16/XMCLib/src/xmc_usbd.c **** 
 729:/opt/XMClib/XMC_Peripheral_Library_v2.1.16/XMCLib/src/xmc_usbd.c ****       }
 730:/opt/XMClib/XMC_Peripheral_Library_v2.1.16/XMCLib/src/xmc_usbd.c **** 
 731:/opt/XMClib/XMC_Peripheral_Library_v2.1.16/XMCLib/src/xmc_usbd.c ****       XMC_USBD_ClearEventOUTEP(doepint.d32,ep_num);
 732:/opt/XMClib/XMC_Peripheral_Library_v2.1.16/XMCLib/src/xmc_usbd.c ****     }
 733:/opt/XMClib/XMC_Peripheral_Library_v2.1.16/XMCLib/src/xmc_usbd.c ****     ep_num++;
 734:/opt/XMClib/XMC_Peripheral_Library_v2.1.16/XMCLib/src/xmc_usbd.c ****   }
 735:/opt/XMClib/XMC_Peripheral_Library_v2.1.16/XMCLib/src/xmc_usbd.c **** 
 736:/opt/XMClib/XMC_Peripheral_Library_v2.1.16/XMCLib/src/xmc_usbd.c ****   /* clear interrupt */
 737:/opt/XMClib/XMC_Peripheral_Library_v2.1.16/XMCLib/src/xmc_usbd.c ****   XMC_USBD_ClearEvent(XMC_USBD_EVENT_OUTEP);
 738:/opt/XMClib/XMC_Peripheral_Library_v2.1.16/XMCLib/src/xmc_usbd.c **** }
 739:/opt/XMClib/XMC_Peripheral_Library_v2.1.16/XMCLib/src/xmc_usbd.c **** 
 740:/opt/XMClib/XMC_Peripheral_Library_v2.1.16/XMCLib/src/xmc_usbd.c **** /**
 741:/opt/XMClib/XMC_Peripheral_Library_v2.1.16/XMCLib/src/xmc_usbd.c ****  * @brief Handles all interrupts for all in endpoints
 742:/opt/XMClib/XMC_Peripheral_Library_v2.1.16/XMCLib/src/xmc_usbd.c ****  *
 743:/opt/XMClib/XMC_Peripheral_Library_v2.1.16/XMCLib/src/xmc_usbd.c ****  * The interrupt handler first checks, which endpoint has caused the interrupt and then
 744:/opt/XMClib/XMC_Peripheral_Library_v2.1.16/XMCLib/src/xmc_usbd.c ****  * determines, which interrupt should be handled.
 745:/opt/XMClib/XMC_Peripheral_Library_v2.1.16/XMCLib/src/xmc_usbd.c ****  */
 746:/opt/XMClib/XMC_Peripheral_Library_v2.1.16/XMCLib/src/xmc_usbd.c **** static void XMC_USBD_lHandleIEPInt(const XMC_USBD_t *const obj) 
 747:/opt/XMClib/XMC_Peripheral_Library_v2.1.16/XMCLib/src/xmc_usbd.c **** {
 748:/opt/XMClib/XMC_Peripheral_Library_v2.1.16/XMCLib/src/xmc_usbd.c ****   XMC_USBD_EP_t *ep;
 749:/opt/XMClib/XMC_Peripheral_Library_v2.1.16/XMCLib/src/xmc_usbd.c ****   daint_data_t daint;
 750:/opt/XMClib/XMC_Peripheral_Library_v2.1.16/XMCLib/src/xmc_usbd.c ****   diepmsk_data_t diepmsk;
 751:/opt/XMClib/XMC_Peripheral_Library_v2.1.16/XMCLib/src/xmc_usbd.c ****   diepint_data_t diepint;
 752:/opt/XMClib/XMC_Peripheral_Library_v2.1.16/XMCLib/src/xmc_usbd.c ****   deptsiz_data_t dieptsiz;
 753:/opt/XMClib/XMC_Peripheral_Library_v2.1.16/XMCLib/src/xmc_usbd.c ****   uint16_t temp;
 754:/opt/XMClib/XMC_Peripheral_Library_v2.1.16/XMCLib/src/xmc_usbd.c ****   uint16_t temp1;
 755:/opt/XMClib/XMC_Peripheral_Library_v2.1.16/XMCLib/src/xmc_usbd.c ****   uint16_t mask;
 756:/opt/XMClib/XMC_Peripheral_Library_v2.1.16/XMCLib/src/xmc_usbd.c ****   uint8_t ep_num;
 757:/opt/XMClib/XMC_Peripheral_Library_v2.1.16/XMCLib/src/xmc_usbd.c ****   uint32_t inepint;
 758:/opt/XMClib/XMC_Peripheral_Library_v2.1.16/XMCLib/src/xmc_usbd.c **** 	
 759:/opt/XMClib/XMC_Peripheral_Library_v2.1.16/XMCLib/src/xmc_usbd.c ****   daint.d32 = xmc_device.device_register->daint;
 760:/opt/XMClib/XMC_Peripheral_Library_v2.1.16/XMCLib/src/xmc_usbd.c ****   
 761:/opt/XMClib/XMC_Peripheral_Library_v2.1.16/XMCLib/src/xmc_usbd.c ****   diepmsk.d32 = xmc_device.device_register->diepmsk;
 762:/opt/XMClib/XMC_Peripheral_Library_v2.1.16/XMCLib/src/xmc_usbd.c ****   
 763:/opt/XMClib/XMC_Peripheral_Library_v2.1.16/XMCLib/src/xmc_usbd.c ****   dieptsiz.d32 = 0U;
 764:/opt/XMClib/XMC_Peripheral_Library_v2.1.16/XMCLib/src/xmc_usbd.c ****   mask = daint.ep.in;
 765:/opt/XMClib/XMC_Peripheral_Library_v2.1.16/XMCLib/src/xmc_usbd.c ****   ep_num = 0U;
 766:/opt/XMClib/XMC_Peripheral_Library_v2.1.16/XMCLib/src/xmc_usbd.c ****   
 767:/opt/XMClib/XMC_Peripheral_Library_v2.1.16/XMCLib/src/xmc_usbd.c ****   while ((uint16_t)mask >> ep_num)
 768:/opt/XMClib/XMC_Peripheral_Library_v2.1.16/XMCLib/src/xmc_usbd.c ****   {
 769:/opt/XMClib/XMC_Peripheral_Library_v2.1.16/XMCLib/src/xmc_usbd.c ****     temp1 = ((uint16_t)mask >> (uint16_t)ep_num);
 770:/opt/XMClib/XMC_Peripheral_Library_v2.1.16/XMCLib/src/xmc_usbd.c ****     temp = (uint16_t)temp1 & (uint16_t)0x1U;
 771:/opt/XMClib/XMC_Peripheral_Library_v2.1.16/XMCLib/src/xmc_usbd.c ****     if ((uint16_t)temp)
 772:/opt/XMClib/XMC_Peripheral_Library_v2.1.16/XMCLib/src/xmc_usbd.c ****     {
 773:/opt/XMClib/XMC_Peripheral_Library_v2.1.16/XMCLib/src/xmc_usbd.c ****       ep = &xmc_device.ep[ep_num];
 774:/opt/XMClib/XMC_Peripheral_Library_v2.1.16/XMCLib/src/xmc_usbd.c **** 			inepint = (uint32_t)xmc_device.endpoint_in_register[ep_num]->diepint;
 775:/opt/XMClib/XMC_Peripheral_Library_v2.1.16/XMCLib/src/xmc_usbd.c ****       diepint.d32 = inepint &
 776:/opt/XMClib/XMC_Peripheral_Library_v2.1.16/XMCLib/src/xmc_usbd.c ****       ((((uint32_t)((uint32_t)xmc_device.device_register->dtknqr4_fifoemptymsk >> ep->address_u.add
 777:/opt/XMClib/XMC_Peripheral_Library_v2.1.16/XMCLib/src/xmc_usbd.c ****                      0x1U) << 7U) | (uint32_t)diepmsk.d32);
 778:/opt/XMClib/XMC_Peripheral_Library_v2.1.16/XMCLib/src/xmc_usbd.c ****       if(obj->usbd_transfer_mode == XMC_USBD_USE_DMA)
 779:/opt/XMClib/XMC_Peripheral_Library_v2.1.16/XMCLib/src/xmc_usbd.c ****       {
 780:/opt/XMClib/XMC_Peripheral_Library_v2.1.16/XMCLib/src/xmc_usbd.c ****         dieptsiz.d32 = xmc_device.endpoint_in_register[ep_num]->dieptsiz;
 781:/opt/XMClib/XMC_Peripheral_Library_v2.1.16/XMCLib/src/xmc_usbd.c ****       }
 782:/opt/XMClib/XMC_Peripheral_Library_v2.1.16/XMCLib/src/xmc_usbd.c ****       if(obj->usbd_transfer_mode == XMC_USBD_USE_FIFO)
 783:/opt/XMClib/XMC_Peripheral_Library_v2.1.16/XMCLib/src/xmc_usbd.c ****       {
 784:/opt/XMClib/XMC_Peripheral_Library_v2.1.16/XMCLib/src/xmc_usbd.c ****         if (diepint.b.emptyintr)
 785:/opt/XMClib/XMC_Peripheral_Library_v2.1.16/XMCLib/src/xmc_usbd.c ****         {
 786:/opt/XMClib/XMC_Peripheral_Library_v2.1.16/XMCLib/src/xmc_usbd.c ****           uint32_t bytes;
 787:/opt/XMClib/XMC_Peripheral_Library_v2.1.16/XMCLib/src/xmc_usbd.c ****           bytes = XMC_USBD_lWriteFifo(ep);
 788:/opt/XMClib/XMC_Peripheral_Library_v2.1.16/XMCLib/src/xmc_usbd.c ****           ep->xferCount += bytes;
 789:/opt/XMClib/XMC_Peripheral_Library_v2.1.16/XMCLib/src/xmc_usbd.c ****           ep->xferBuffer += bytes;
 790:/opt/XMClib/XMC_Peripheral_Library_v2.1.16/XMCLib/src/xmc_usbd.c ****         }
 791:/opt/XMClib/XMC_Peripheral_Library_v2.1.16/XMCLib/src/xmc_usbd.c ****       }
 792:/opt/XMClib/XMC_Peripheral_Library_v2.1.16/XMCLib/src/xmc_usbd.c ****       if (diepint.b.xfercompl)
 793:/opt/XMClib/XMC_Peripheral_Library_v2.1.16/XMCLib/src/xmc_usbd.c ****       {
 794:/opt/XMClib/XMC_Peripheral_Library_v2.1.16/XMCLib/src/xmc_usbd.c ****         if(obj->usbd_transfer_mode == XMC_USBD_USE_DMA)
 795:/opt/XMClib/XMC_Peripheral_Library_v2.1.16/XMCLib/src/xmc_usbd.c ****         {
 796:/opt/XMClib/XMC_Peripheral_Library_v2.1.16/XMCLib/src/xmc_usbd.c ****           /* update xfer values */
 797:/opt/XMClib/XMC_Peripheral_Library_v2.1.16/XMCLib/src/xmc_usbd.c ****           if ((dieptsiz.b.pktcnt == 0U) && (dieptsiz.b.xfersize == 0U))
 798:/opt/XMClib/XMC_Peripheral_Library_v2.1.16/XMCLib/src/xmc_usbd.c ****           {
 799:/opt/XMClib/XMC_Peripheral_Library_v2.1.16/XMCLib/src/xmc_usbd.c ****             uint32_t Bytes = ep->xferLength - ep->xferCount;
 800:/opt/XMClib/XMC_Peripheral_Library_v2.1.16/XMCLib/src/xmc_usbd.c ****             ep->xferCount += Bytes;
 801:/opt/XMClib/XMC_Peripheral_Library_v2.1.16/XMCLib/src/xmc_usbd.c ****             ep->xferBuffer += Bytes;
 802:/opt/XMClib/XMC_Peripheral_Library_v2.1.16/XMCLib/src/xmc_usbd.c ****           }
 803:/opt/XMClib/XMC_Peripheral_Library_v2.1.16/XMCLib/src/xmc_usbd.c ****         }
 804:/opt/XMClib/XMC_Peripheral_Library_v2.1.16/XMCLib/src/xmc_usbd.c ****         if (ep->xferTotal==ep->xferLength)
 805:/opt/XMClib/XMC_Peripheral_Library_v2.1.16/XMCLib/src/xmc_usbd.c ****         {
 806:/opt/XMClib/XMC_Peripheral_Library_v2.1.16/XMCLib/src/xmc_usbd.c ****           ep->inInUse = 0U;
 807:/opt/XMClib/XMC_Peripheral_Library_v2.1.16/XMCLib/src/xmc_usbd.c ****           if(obj->usbd_transfer_mode == XMC_USBD_USE_FIFO)
 808:/opt/XMClib/XMC_Peripheral_Library_v2.1.16/XMCLib/src/xmc_usbd.c ****           {
 809:/opt/XMClib/XMC_Peripheral_Library_v2.1.16/XMCLib/src/xmc_usbd.c ****             /* mask fifo empty interrupt */
 810:/opt/XMClib/XMC_Peripheral_Library_v2.1.16/XMCLib/src/xmc_usbd.c ****             xmc_device.device_register->dtknqr4_fifoemptymsk =
 811:/opt/XMClib/XMC_Peripheral_Library_v2.1.16/XMCLib/src/xmc_usbd.c ****             (uint32_t)(xmc_device.device_register->dtknqr4_fifoemptymsk & ~(((uint32_t)1U << ep_num
 812:/opt/XMClib/XMC_Peripheral_Library_v2.1.16/XMCLib/src/xmc_usbd.c ****           }
 813:/opt/XMClib/XMC_Peripheral_Library_v2.1.16/XMCLib/src/xmc_usbd.c ****           xmc_device.EndpointEvent_cb(0x80U | ep_num,XMC_USBD_EP_EVENT_IN);
 814:/opt/XMClib/XMC_Peripheral_Library_v2.1.16/XMCLib/src/xmc_usbd.c ****         }
 815:/opt/XMClib/XMC_Peripheral_Library_v2.1.16/XMCLib/src/xmc_usbd.c ****         else
 816:/opt/XMClib/XMC_Peripheral_Library_v2.1.16/XMCLib/src/xmc_usbd.c ****         {
 817:/opt/XMClib/XMC_Peripheral_Library_v2.1.16/XMCLib/src/xmc_usbd.c ****           /* start next step of transfer */
 818:/opt/XMClib/XMC_Peripheral_Library_v2.1.16/XMCLib/src/xmc_usbd.c ****           XMC_USBD_lStartWriteXfer(ep);
 819:/opt/XMClib/XMC_Peripheral_Library_v2.1.16/XMCLib/src/xmc_usbd.c ****         }
 820:/opt/XMClib/XMC_Peripheral_Library_v2.1.16/XMCLib/src/xmc_usbd.c **** 
 821:/opt/XMClib/XMC_Peripheral_Library_v2.1.16/XMCLib/src/xmc_usbd.c ****       }
 822:/opt/XMClib/XMC_Peripheral_Library_v2.1.16/XMCLib/src/xmc_usbd.c **** 
 823:/opt/XMClib/XMC_Peripheral_Library_v2.1.16/XMCLib/src/xmc_usbd.c ****       XMC_USBD_ClearEventINEP((uint32_t)diepint.d32,ep_num);
 824:/opt/XMClib/XMC_Peripheral_Library_v2.1.16/XMCLib/src/xmc_usbd.c ****     }
 825:/opt/XMClib/XMC_Peripheral_Library_v2.1.16/XMCLib/src/xmc_usbd.c ****     ep_num++;
 826:/opt/XMClib/XMC_Peripheral_Library_v2.1.16/XMCLib/src/xmc_usbd.c ****   }
 827:/opt/XMClib/XMC_Peripheral_Library_v2.1.16/XMCLib/src/xmc_usbd.c ****   XMC_USBD_ClearEvent(XMC_USBD_EVENT_INEP);
 828:/opt/XMClib/XMC_Peripheral_Library_v2.1.16/XMCLib/src/xmc_usbd.c **** }
 829:/opt/XMClib/XMC_Peripheral_Library_v2.1.16/XMCLib/src/xmc_usbd.c **** 
 830:/opt/XMClib/XMC_Peripheral_Library_v2.1.16/XMCLib/src/xmc_usbd.c **** /**
 831:/opt/XMClib/XMC_Peripheral_Library_v2.1.16/XMCLib/src/xmc_usbd.c ****  * @brief RX Fifo interrupt handler
 832:/opt/XMClib/XMC_Peripheral_Library_v2.1.16/XMCLib/src/xmc_usbd.c ****  *
 833:/opt/XMClib/XMC_Peripheral_Library_v2.1.16/XMCLib/src/xmc_usbd.c ****  * This function handles the interrupt, when the rx fifo is not empty anymore.
 834:/opt/XMClib/XMC_Peripheral_Library_v2.1.16/XMCLib/src/xmc_usbd.c ****  */
 835:/opt/XMClib/XMC_Peripheral_Library_v2.1.16/XMCLib/src/xmc_usbd.c **** static void XMC_USBD_lHandleRxFLvl(void) 
 836:/opt/XMClib/XMC_Peripheral_Library_v2.1.16/XMCLib/src/xmc_usbd.c **** {
 837:/opt/XMClib/XMC_Peripheral_Library_v2.1.16/XMCLib/src/xmc_usbd.c ****   device_grxsts_data_t data;	
 838:/opt/XMClib/XMC_Peripheral_Library_v2.1.16/XMCLib/src/xmc_usbd.c ****   data.d32 = xmc_device.global_register->grxstsp;
 839:/opt/XMClib/XMC_Peripheral_Library_v2.1.16/XMCLib/src/xmc_usbd.c **** 
 840:/opt/XMClib/XMC_Peripheral_Library_v2.1.16/XMCLib/src/xmc_usbd.c ****   switch (data.b.pktsts)
 841:/opt/XMClib/XMC_Peripheral_Library_v2.1.16/XMCLib/src/xmc_usbd.c **** 	{
 842:/opt/XMClib/XMC_Peripheral_Library_v2.1.16/XMCLib/src/xmc_usbd.c ****     case XMC_USBD_GRXSTS_PKTSTS_GOUTNAK:
 843:/opt/XMClib/XMC_Peripheral_Library_v2.1.16/XMCLib/src/xmc_usbd.c ****       break;
 844:/opt/XMClib/XMC_Peripheral_Library_v2.1.16/XMCLib/src/xmc_usbd.c ****     case XMC_USBD_GRXSTS_PKTSTS_OUTCMPL:
 845:/opt/XMClib/XMC_Peripheral_Library_v2.1.16/XMCLib/src/xmc_usbd.c ****       break;
 846:/opt/XMClib/XMC_Peripheral_Library_v2.1.16/XMCLib/src/xmc_usbd.c ****     case XMC_USBD_GRXSTS_PKTSTS_OUTDATA:
 847:/opt/XMClib/XMC_Peripheral_Library_v2.1.16/XMCLib/src/xmc_usbd.c ****       XMC_USBD_lReadFifo((uint32_t)data.b.epnum,(uint32_t)data.b.bcnt);
 848:/opt/XMClib/XMC_Peripheral_Library_v2.1.16/XMCLib/src/xmc_usbd.c ****       break;
 849:/opt/XMClib/XMC_Peripheral_Library_v2.1.16/XMCLib/src/xmc_usbd.c ****     case XMC_USBD_GRXSTS_PKTSTS_SETUP:
 850:/opt/XMClib/XMC_Peripheral_Library_v2.1.16/XMCLib/src/xmc_usbd.c ****       XMC_USBD_lReadFifo((uint32_t)data.b.epnum,(uint32_t)data.b.bcnt);
 851:/opt/XMClib/XMC_Peripheral_Library_v2.1.16/XMCLib/src/xmc_usbd.c ****       break;
 852:/opt/XMClib/XMC_Peripheral_Library_v2.1.16/XMCLib/src/xmc_usbd.c ****     case XMC_USBD_GRXSTS_PKTSTS_SETUPCMPL:
 853:/opt/XMClib/XMC_Peripheral_Library_v2.1.16/XMCLib/src/xmc_usbd.c ****       break;
 854:/opt/XMClib/XMC_Peripheral_Library_v2.1.16/XMCLib/src/xmc_usbd.c ****     default:
 855:/opt/XMClib/XMC_Peripheral_Library_v2.1.16/XMCLib/src/xmc_usbd.c ****       break;
 856:/opt/XMClib/XMC_Peripheral_Library_v2.1.16/XMCLib/src/xmc_usbd.c **** 	}
 857:/opt/XMClib/XMC_Peripheral_Library_v2.1.16/XMCLib/src/xmc_usbd.c ****   /* no need to clear */
 858:/opt/XMClib/XMC_Peripheral_Library_v2.1.16/XMCLib/src/xmc_usbd.c **** }
 859:/opt/XMClib/XMC_Peripheral_Library_v2.1.16/XMCLib/src/xmc_usbd.c **** 
 860:/opt/XMClib/XMC_Peripheral_Library_v2.1.16/XMCLib/src/xmc_usbd.c **** /**
 861:/opt/XMClib/XMC_Peripheral_Library_v2.1.16/XMCLib/src/xmc_usbd.c ****  * @brief Global interrupt handler
 862:/opt/XMClib/XMC_Peripheral_Library_v2.1.16/XMCLib/src/xmc_usbd.c ****  *
 863:/opt/XMClib/XMC_Peripheral_Library_v2.1.16/XMCLib/src/xmc_usbd.c ****  * The handler first checks, which global interrupt has caused the interrupt
 864:/opt/XMClib/XMC_Peripheral_Library_v2.1.16/XMCLib/src/xmc_usbd.c ****  * and then dispatches interrupt to the corresponding sub-handler.
 865:/opt/XMClib/XMC_Peripheral_Library_v2.1.16/XMCLib/src/xmc_usbd.c ****  */
 866:/opt/XMClib/XMC_Peripheral_Library_v2.1.16/XMCLib/src/xmc_usbd.c **** void XMC_USBD_IRQHandler(const XMC_USBD_t *const obj) 
 867:/opt/XMClib/XMC_Peripheral_Library_v2.1.16/XMCLib/src/xmc_usbd.c **** {
 868:/opt/XMClib/XMC_Peripheral_Library_v2.1.16/XMCLib/src/xmc_usbd.c ****   gintmsk_data_t gintmsk;
 869:/opt/XMClib/XMC_Peripheral_Library_v2.1.16/XMCLib/src/xmc_usbd.c ****   gintsts_data_t data;
 870:/opt/XMClib/XMC_Peripheral_Library_v2.1.16/XMCLib/src/xmc_usbd.c **** 	
 871:/opt/XMClib/XMC_Peripheral_Library_v2.1.16/XMCLib/src/xmc_usbd.c ****   gintmsk.d32 = xmc_device.global_register->gintmsk;
 872:/opt/XMClib/XMC_Peripheral_Library_v2.1.16/XMCLib/src/xmc_usbd.c ****   data.d32 = xmc_device.global_register->gintsts & gintmsk.d32;
 873:/opt/XMClib/XMC_Peripheral_Library_v2.1.16/XMCLib/src/xmc_usbd.c **** 	
 874:/opt/XMClib/XMC_Peripheral_Library_v2.1.16/XMCLib/src/xmc_usbd.c ****   if (data.b.sofintr)
 875:/opt/XMClib/XMC_Peripheral_Library_v2.1.16/XMCLib/src/xmc_usbd.c ****   {
 876:/opt/XMClib/XMC_Peripheral_Library_v2.1.16/XMCLib/src/xmc_usbd.c ****     xmc_device.DeviceEvent_cb(XMC_USBD_EVENT_SOF);
 877:/opt/XMClib/XMC_Peripheral_Library_v2.1.16/XMCLib/src/xmc_usbd.c ****     XMC_USBD_ClearEvent(XMC_USBD_EVENT_SOF);
 878:/opt/XMClib/XMC_Peripheral_Library_v2.1.16/XMCLib/src/xmc_usbd.c ****   }
 879:/opt/XMClib/XMC_Peripheral_Library_v2.1.16/XMCLib/src/xmc_usbd.c ****   if(obj->usbd_transfer_mode == XMC_USBD_USE_FIFO)
 880:/opt/XMClib/XMC_Peripheral_Library_v2.1.16/XMCLib/src/xmc_usbd.c ****   {
 881:/opt/XMClib/XMC_Peripheral_Library_v2.1.16/XMCLib/src/xmc_usbd.c ****     if (data.b.rxstsqlvl)
 882:/opt/XMClib/XMC_Peripheral_Library_v2.1.16/XMCLib/src/xmc_usbd.c ****     {
 883:/opt/XMClib/XMC_Peripheral_Library_v2.1.16/XMCLib/src/xmc_usbd.c ****       /* Masked that interrupt so its only done once */
 884:/opt/XMClib/XMC_Peripheral_Library_v2.1.16/XMCLib/src/xmc_usbd.c ****       gintmsk.b.rxstsqlvl = 0U;
 885:/opt/XMClib/XMC_Peripheral_Library_v2.1.16/XMCLib/src/xmc_usbd.c ****       xmc_device.global_register->gintmsk = gintmsk.d32;
 886:/opt/XMClib/XMC_Peripheral_Library_v2.1.16/XMCLib/src/xmc_usbd.c ****       XMC_USBD_lHandleRxFLvl(); /* handle the interrupt */
 887:/opt/XMClib/XMC_Peripheral_Library_v2.1.16/XMCLib/src/xmc_usbd.c ****       gintmsk.b.rxstsqlvl = 1U;
 888:/opt/XMClib/XMC_Peripheral_Library_v2.1.16/XMCLib/src/xmc_usbd.c ****       xmc_device.global_register->gintmsk = gintmsk.d32;
 889:/opt/XMClib/XMC_Peripheral_Library_v2.1.16/XMCLib/src/xmc_usbd.c ****     }
 890:/opt/XMClib/XMC_Peripheral_Library_v2.1.16/XMCLib/src/xmc_usbd.c ****   }
 891:/opt/XMClib/XMC_Peripheral_Library_v2.1.16/XMCLib/src/xmc_usbd.c ****   if (data.b.erlysuspend)
 892:/opt/XMClib/XMC_Peripheral_Library_v2.1.16/XMCLib/src/xmc_usbd.c ****   {
 893:/opt/XMClib/XMC_Peripheral_Library_v2.1.16/XMCLib/src/xmc_usbd.c ****     XMC_USBD_ClearEvent(XMC_USBD_EVENT_EARLYSUSPEND);
 894:/opt/XMClib/XMC_Peripheral_Library_v2.1.16/XMCLib/src/xmc_usbd.c ****   }
 895:/opt/XMClib/XMC_Peripheral_Library_v2.1.16/XMCLib/src/xmc_usbd.c ****   if (data.b.usbsuspend)
 896:/opt/XMClib/XMC_Peripheral_Library_v2.1.16/XMCLib/src/xmc_usbd.c ****   {
 897:/opt/XMClib/XMC_Peripheral_Library_v2.1.16/XMCLib/src/xmc_usbd.c ****     xmc_device.DeviceEvent_cb(XMC_USBD_EVENT_SUSPEND);
 898:/opt/XMClib/XMC_Peripheral_Library_v2.1.16/XMCLib/src/xmc_usbd.c ****     XMC_USBD_ClearEvent(XMC_USBD_EVENT_SUSPEND);
 899:/opt/XMClib/XMC_Peripheral_Library_v2.1.16/XMCLib/src/xmc_usbd.c ****   }
 900:/opt/XMClib/XMC_Peripheral_Library_v2.1.16/XMCLib/src/xmc_usbd.c ****   if (data.b.wkupintr)
 901:/opt/XMClib/XMC_Peripheral_Library_v2.1.16/XMCLib/src/xmc_usbd.c ****   {
 902:/opt/XMClib/XMC_Peripheral_Library_v2.1.16/XMCLib/src/xmc_usbd.c ****     xmc_device.DeviceEvent_cb(XMC_USBD_EVENT_REMOTE_WAKEUP);
 903:/opt/XMClib/XMC_Peripheral_Library_v2.1.16/XMCLib/src/xmc_usbd.c ****     XMC_USBD_ClearEvent(XMC_USBD_EVENT_REMOTE_WAKEUP);
 904:/opt/XMClib/XMC_Peripheral_Library_v2.1.16/XMCLib/src/xmc_usbd.c ****   }
 905:/opt/XMClib/XMC_Peripheral_Library_v2.1.16/XMCLib/src/xmc_usbd.c ****   if (data.b.sessreqintr)
 906:/opt/XMClib/XMC_Peripheral_Library_v2.1.16/XMCLib/src/xmc_usbd.c ****   {
 907:/opt/XMClib/XMC_Peripheral_Library_v2.1.16/XMCLib/src/xmc_usbd.c ****     xmc_device.IsPowered = 1U;
 908:/opt/XMClib/XMC_Peripheral_Library_v2.1.16/XMCLib/src/xmc_usbd.c ****     xmc_device.DeviceEvent_cb(XMC_USBD_EVENT_POWER_ON);
 909:/opt/XMClib/XMC_Peripheral_Library_v2.1.16/XMCLib/src/xmc_usbd.c ****     XMC_USBD_ClearEvent(XMC_USBD_EVENT_POWER_ON);
 910:/opt/XMClib/XMC_Peripheral_Library_v2.1.16/XMCLib/src/xmc_usbd.c ****   }
 911:/opt/XMClib/XMC_Peripheral_Library_v2.1.16/XMCLib/src/xmc_usbd.c ****   if (data.b.usbreset)
 912:/opt/XMClib/XMC_Peripheral_Library_v2.1.16/XMCLib/src/xmc_usbd.c ****   {
 913:/opt/XMClib/XMC_Peripheral_Library_v2.1.16/XMCLib/src/xmc_usbd.c ****     XMC_USBD_lHandleUSBReset(obj);
 914:/opt/XMClib/XMC_Peripheral_Library_v2.1.16/XMCLib/src/xmc_usbd.c ****   }
 915:/opt/XMClib/XMC_Peripheral_Library_v2.1.16/XMCLib/src/xmc_usbd.c ****   if (data.b.enumdone)
 916:/opt/XMClib/XMC_Peripheral_Library_v2.1.16/XMCLib/src/xmc_usbd.c ****   {
 917:/opt/XMClib/XMC_Peripheral_Library_v2.1.16/XMCLib/src/xmc_usbd.c ****     XMC_USBD_lHandleEnumDone();
 918:/opt/XMClib/XMC_Peripheral_Library_v2.1.16/XMCLib/src/xmc_usbd.c ****   }
 919:/opt/XMClib/XMC_Peripheral_Library_v2.1.16/XMCLib/src/xmc_usbd.c ****   if (data.b.inepint)
 920:/opt/XMClib/XMC_Peripheral_Library_v2.1.16/XMCLib/src/xmc_usbd.c ****   {
 921:/opt/XMClib/XMC_Peripheral_Library_v2.1.16/XMCLib/src/xmc_usbd.c ****     XMC_USBD_lHandleIEPInt(obj);
 922:/opt/XMClib/XMC_Peripheral_Library_v2.1.16/XMCLib/src/xmc_usbd.c ****   }
 923:/opt/XMClib/XMC_Peripheral_Library_v2.1.16/XMCLib/src/xmc_usbd.c ****   if (data.b.outepintr)
 924:/opt/XMClib/XMC_Peripheral_Library_v2.1.16/XMCLib/src/xmc_usbd.c ****   {
 925:/opt/XMClib/XMC_Peripheral_Library_v2.1.16/XMCLib/src/xmc_usbd.c **** 		XMC_USBD_lHandleOEPInt(obj);
 926:/opt/XMClib/XMC_Peripheral_Library_v2.1.16/XMCLib/src/xmc_usbd.c ****   }
 927:/opt/XMClib/XMC_Peripheral_Library_v2.1.16/XMCLib/src/xmc_usbd.c **** 	if (data.b.otgintr)
 928:/opt/XMClib/XMC_Peripheral_Library_v2.1.16/XMCLib/src/xmc_usbd.c ****   {
 929:/opt/XMClib/XMC_Peripheral_Library_v2.1.16/XMCLib/src/xmc_usbd.c **** 	  XMC_USBD_lHandleOTGInt();
 930:/opt/XMClib/XMC_Peripheral_Library_v2.1.16/XMCLib/src/xmc_usbd.c ****   }
 931:/opt/XMClib/XMC_Peripheral_Library_v2.1.16/XMCLib/src/xmc_usbd.c **** 
 932:/opt/XMClib/XMC_Peripheral_Library_v2.1.16/XMCLib/src/xmc_usbd.c **** }
 933:/opt/XMClib/XMC_Peripheral_Library_v2.1.16/XMCLib/src/xmc_usbd.c **** 
 934:/opt/XMClib/XMC_Peripheral_Library_v2.1.16/XMCLib/src/xmc_usbd.c **** 
 935:/opt/XMClib/XMC_Peripheral_Library_v2.1.16/XMCLib/src/xmc_usbd.c **** /*******************************************************************************
 936:/opt/XMClib/XMC_Peripheral_Library_v2.1.16/XMCLib/src/xmc_usbd.c ****  * API IMPLEMENTATION
 937:/opt/XMClib/XMC_Peripheral_Library_v2.1.16/XMCLib/src/xmc_usbd.c ****  *******************************************************************************/
 938:/opt/XMClib/XMC_Peripheral_Library_v2.1.16/XMCLib/src/xmc_usbd.c **** /**
 939:/opt/XMClib/XMC_Peripheral_Library_v2.1.16/XMCLib/src/xmc_usbd.c ****  * Enables the USB0 module
 940:/opt/XMClib/XMC_Peripheral_Library_v2.1.16/XMCLib/src/xmc_usbd.c ****  **/
 941:/opt/XMClib/XMC_Peripheral_Library_v2.1.16/XMCLib/src/xmc_usbd.c **** void XMC_USBD_Enable(void) 
 942:/opt/XMClib/XMC_Peripheral_Library_v2.1.16/XMCLib/src/xmc_usbd.c **** {
 943:/opt/XMClib/XMC_Peripheral_Library_v2.1.16/XMCLib/src/xmc_usbd.c **** #if defined(CLOCK_GATING_SUPPORTED)
 944:/opt/XMClib/XMC_Peripheral_Library_v2.1.16/XMCLib/src/xmc_usbd.c ****   XMC_SCU_CLOCK_UngatePeripheralClock(XMC_SCU_PERIPHERAL_CLOCK_USB0);
 945:/opt/XMClib/XMC_Peripheral_Library_v2.1.16/XMCLib/src/xmc_usbd.c **** #endif
 946:/opt/XMClib/XMC_Peripheral_Library_v2.1.16/XMCLib/src/xmc_usbd.c ****   /* Reset and power up */
 947:/opt/XMClib/XMC_Peripheral_Library_v2.1.16/XMCLib/src/xmc_usbd.c ****   XMC_SCU_RESET_DeassertPeripheralReset(XMC_SCU_PERIPHERAL_RESET_USB0);
 948:/opt/XMClib/XMC_Peripheral_Library_v2.1.16/XMCLib/src/xmc_usbd.c ****   XMC_SCU_POWER_EnableUsb();
 949:/opt/XMClib/XMC_Peripheral_Library_v2.1.16/XMCLib/src/xmc_usbd.c **** }
 950:/opt/XMClib/XMC_Peripheral_Library_v2.1.16/XMCLib/src/xmc_usbd.c **** 
 951:/opt/XMClib/XMC_Peripheral_Library_v2.1.16/XMCLib/src/xmc_usbd.c **** /**
 952:/opt/XMClib/XMC_Peripheral_Library_v2.1.16/XMCLib/src/xmc_usbd.c ****  * Disables the USB0 module
 953:/opt/XMClib/XMC_Peripheral_Library_v2.1.16/XMCLib/src/xmc_usbd.c ****  **/
 954:/opt/XMClib/XMC_Peripheral_Library_v2.1.16/XMCLib/src/xmc_usbd.c **** void XMC_USBD_Disable(void) 
 955:/opt/XMClib/XMC_Peripheral_Library_v2.1.16/XMCLib/src/xmc_usbd.c **** {
 956:/opt/XMClib/XMC_Peripheral_Library_v2.1.16/XMCLib/src/xmc_usbd.c ****   /* Clear Reset and power up */
 957:/opt/XMClib/XMC_Peripheral_Library_v2.1.16/XMCLib/src/xmc_usbd.c ****   XMC_SCU_RESET_AssertPeripheralReset(XMC_SCU_PERIPHERAL_RESET_USB0);
 958:/opt/XMClib/XMC_Peripheral_Library_v2.1.16/XMCLib/src/xmc_usbd.c **** #if defined(CLOCK_GATING_SUPPORTED)
 959:/opt/XMClib/XMC_Peripheral_Library_v2.1.16/XMCLib/src/xmc_usbd.c ****   XMC_SCU_CLOCK_GatePeripheralClock(XMC_SCU_PERIPHERAL_CLOCK_USB0);
 960:/opt/XMClib/XMC_Peripheral_Library_v2.1.16/XMCLib/src/xmc_usbd.c **** #endif
 961:/opt/XMClib/XMC_Peripheral_Library_v2.1.16/XMCLib/src/xmc_usbd.c ****   XMC_SCU_POWER_DisableUsb();
 962:/opt/XMClib/XMC_Peripheral_Library_v2.1.16/XMCLib/src/xmc_usbd.c **** }
 963:/opt/XMClib/XMC_Peripheral_Library_v2.1.16/XMCLib/src/xmc_usbd.c **** 
 964:/opt/XMClib/XMC_Peripheral_Library_v2.1.16/XMCLib/src/xmc_usbd.c **** /**
 965:/opt/XMClib/XMC_Peripheral_Library_v2.1.16/XMCLib/src/xmc_usbd.c ****  * Clear the USB device event
 966:/opt/XMClib/XMC_Peripheral_Library_v2.1.16/XMCLib/src/xmc_usbd.c ****  **/
 967:/opt/XMClib/XMC_Peripheral_Library_v2.1.16/XMCLib/src/xmc_usbd.c **** void XMC_USBD_ClearEvent(const XMC_USBD_EVENT_t event) 
 968:/opt/XMClib/XMC_Peripheral_Library_v2.1.16/XMCLib/src/xmc_usbd.c **** {
 969:/opt/XMClib/XMC_Peripheral_Library_v2.1.16/XMCLib/src/xmc_usbd.c ****   gintsts_data_t clear;
 970:/opt/XMClib/XMC_Peripheral_Library_v2.1.16/XMCLib/src/xmc_usbd.c ****   clear.d32 = 0U;
 971:/opt/XMClib/XMC_Peripheral_Library_v2.1.16/XMCLib/src/xmc_usbd.c ****   switch(event)
 972:/opt/XMClib/XMC_Peripheral_Library_v2.1.16/XMCLib/src/xmc_usbd.c ****   {
 973:/opt/XMClib/XMC_Peripheral_Library_v2.1.16/XMCLib/src/xmc_usbd.c ****     case (XMC_USBD_EVENT_POWER_ON):
 974:/opt/XMClib/XMC_Peripheral_Library_v2.1.16/XMCLib/src/xmc_usbd.c **** 	  clear.b.sessreqintr = 1U;
 975:/opt/XMClib/XMC_Peripheral_Library_v2.1.16/XMCLib/src/xmc_usbd.c **** 	  break;
 976:/opt/XMClib/XMC_Peripheral_Library_v2.1.16/XMCLib/src/xmc_usbd.c ****     case (XMC_USBD_EVENT_RESET):
 977:/opt/XMClib/XMC_Peripheral_Library_v2.1.16/XMCLib/src/xmc_usbd.c **** 	  clear.b.usbreset = 1U;
 978:/opt/XMClib/XMC_Peripheral_Library_v2.1.16/XMCLib/src/xmc_usbd.c **** 	  break;
 979:/opt/XMClib/XMC_Peripheral_Library_v2.1.16/XMCLib/src/xmc_usbd.c ****     case (XMC_USBD_EVENT_SUSPEND):
 980:/opt/XMClib/XMC_Peripheral_Library_v2.1.16/XMCLib/src/xmc_usbd.c **** 	  clear.b.usbsuspend = 1U;
 981:/opt/XMClib/XMC_Peripheral_Library_v2.1.16/XMCLib/src/xmc_usbd.c **** 	  break;
 982:/opt/XMClib/XMC_Peripheral_Library_v2.1.16/XMCLib/src/xmc_usbd.c ****     case (XMC_USBD_EVENT_RESUME):
 983:/opt/XMClib/XMC_Peripheral_Library_v2.1.16/XMCLib/src/xmc_usbd.c **** 	  clear.b.wkupintr = 1U;
 984:/opt/XMClib/XMC_Peripheral_Library_v2.1.16/XMCLib/src/xmc_usbd.c **** 	  break;
 985:/opt/XMClib/XMC_Peripheral_Library_v2.1.16/XMCLib/src/xmc_usbd.c ****     case (XMC_USBD_EVENT_REMOTE_WAKEUP):
 986:/opt/XMClib/XMC_Peripheral_Library_v2.1.16/XMCLib/src/xmc_usbd.c **** 	  clear.b.wkupintr = 1U;
 987:/opt/XMClib/XMC_Peripheral_Library_v2.1.16/XMCLib/src/xmc_usbd.c **** 	  break;
 988:/opt/XMClib/XMC_Peripheral_Library_v2.1.16/XMCLib/src/xmc_usbd.c ****     case (XMC_USBD_EVENT_SOF):
 989:/opt/XMClib/XMC_Peripheral_Library_v2.1.16/XMCLib/src/xmc_usbd.c **** 	  clear.b.sofintr = 1U;
 990:/opt/XMClib/XMC_Peripheral_Library_v2.1.16/XMCLib/src/xmc_usbd.c **** 	  break;
 991:/opt/XMClib/XMC_Peripheral_Library_v2.1.16/XMCLib/src/xmc_usbd.c ****     case (XMC_USBD_EVENT_EARLYSUSPEND):
 992:/opt/XMClib/XMC_Peripheral_Library_v2.1.16/XMCLib/src/xmc_usbd.c **** 	  clear.b.erlysuspend = 1U;
 993:/opt/XMClib/XMC_Peripheral_Library_v2.1.16/XMCLib/src/xmc_usbd.c **** 	  break;
 994:/opt/XMClib/XMC_Peripheral_Library_v2.1.16/XMCLib/src/xmc_usbd.c ****     case (XMC_USBD_EVENT_ENUMDONE):
 995:/opt/XMClib/XMC_Peripheral_Library_v2.1.16/XMCLib/src/xmc_usbd.c **** 	  clear.b.enumdone = 1U;
 996:/opt/XMClib/XMC_Peripheral_Library_v2.1.16/XMCLib/src/xmc_usbd.c **** 	  break;
 997:/opt/XMClib/XMC_Peripheral_Library_v2.1.16/XMCLib/src/xmc_usbd.c ****     case (XMC_USBD_EVENT_OUTEP):
 998:/opt/XMClib/XMC_Peripheral_Library_v2.1.16/XMCLib/src/xmc_usbd.c **** 	  clear.b.outepintr = 1U;
 999:/opt/XMClib/XMC_Peripheral_Library_v2.1.16/XMCLib/src/xmc_usbd.c **** 	  break;
1000:/opt/XMClib/XMC_Peripheral_Library_v2.1.16/XMCLib/src/xmc_usbd.c **** 		default:
1001:/opt/XMClib/XMC_Peripheral_Library_v2.1.16/XMCLib/src/xmc_usbd.c **** 		break;
1002:/opt/XMClib/XMC_Peripheral_Library_v2.1.16/XMCLib/src/xmc_usbd.c **** 	}
1003:/opt/XMClib/XMC_Peripheral_Library_v2.1.16/XMCLib/src/xmc_usbd.c **** 	xmc_device.global_register->gintsts = clear.d32;
1004:/opt/XMClib/XMC_Peripheral_Library_v2.1.16/XMCLib/src/xmc_usbd.c **** }
1005:/opt/XMClib/XMC_Peripheral_Library_v2.1.16/XMCLib/src/xmc_usbd.c **** 
1006:/opt/XMClib/XMC_Peripheral_Library_v2.1.16/XMCLib/src/xmc_usbd.c **** /**
1007:/opt/XMClib/XMC_Peripheral_Library_v2.1.16/XMCLib/src/xmc_usbd.c ****  * Clear the USB OTG events
1008:/opt/XMClib/XMC_Peripheral_Library_v2.1.16/XMCLib/src/xmc_usbd.c ****  **/
1009:/opt/XMClib/XMC_Peripheral_Library_v2.1.16/XMCLib/src/xmc_usbd.c **** static void XMC_USBD_lClearEventOTG(uint32_t event)
1010:/opt/XMClib/XMC_Peripheral_Library_v2.1.16/XMCLib/src/xmc_usbd.c **** {
1011:/opt/XMClib/XMC_Peripheral_Library_v2.1.16/XMCLib/src/xmc_usbd.c ****   gotgint_data_t clear = { .d32 = 0U};
1012:/opt/XMClib/XMC_Peripheral_Library_v2.1.16/XMCLib/src/xmc_usbd.c ****   clear.d32 = event;
1013:/opt/XMClib/XMC_Peripheral_Library_v2.1.16/XMCLib/src/xmc_usbd.c ****   xmc_device.global_register->gotgint = clear.d32;
1014:/opt/XMClib/XMC_Peripheral_Library_v2.1.16/XMCLib/src/xmc_usbd.c **** }
1015:/opt/XMClib/XMC_Peripheral_Library_v2.1.16/XMCLib/src/xmc_usbd.c **** 
1016:/opt/XMClib/XMC_Peripheral_Library_v2.1.16/XMCLib/src/xmc_usbd.c **** /**
1017:/opt/XMClib/XMC_Peripheral_Library_v2.1.16/XMCLib/src/xmc_usbd.c ****  * Clear the USB IN EP events
1018:/opt/XMClib/XMC_Peripheral_Library_v2.1.16/XMCLib/src/xmc_usbd.c ****  **/
1019:/opt/XMClib/XMC_Peripheral_Library_v2.1.16/XMCLib/src/xmc_usbd.c **** void XMC_USBD_ClearEventINEP(uint32_t event,const uint8_t ep_num)
1020:/opt/XMClib/XMC_Peripheral_Library_v2.1.16/XMCLib/src/xmc_usbd.c **** {
1021:/opt/XMClib/XMC_Peripheral_Library_v2.1.16/XMCLib/src/xmc_usbd.c ****   diepint_data_t clear;
1022:/opt/XMClib/XMC_Peripheral_Library_v2.1.16/XMCLib/src/xmc_usbd.c ****   clear.d32 = event;
1023:/opt/XMClib/XMC_Peripheral_Library_v2.1.16/XMCLib/src/xmc_usbd.c ****   xmc_device.endpoint_in_register[ep_num]->diepint = clear.d32;
1024:/opt/XMClib/XMC_Peripheral_Library_v2.1.16/XMCLib/src/xmc_usbd.c **** }
1025:/opt/XMClib/XMC_Peripheral_Library_v2.1.16/XMCLib/src/xmc_usbd.c **** 
1026:/opt/XMClib/XMC_Peripheral_Library_v2.1.16/XMCLib/src/xmc_usbd.c **** /**
1027:/opt/XMClib/XMC_Peripheral_Library_v2.1.16/XMCLib/src/xmc_usbd.c ****  * Clear the USB OUT EP events
1028:/opt/XMClib/XMC_Peripheral_Library_v2.1.16/XMCLib/src/xmc_usbd.c ****  **/
1029:/opt/XMClib/XMC_Peripheral_Library_v2.1.16/XMCLib/src/xmc_usbd.c **** void XMC_USBD_ClearEventOUTEP(uint32_t event,const uint8_t ep_num)
1030:/opt/XMClib/XMC_Peripheral_Library_v2.1.16/XMCLib/src/xmc_usbd.c **** {
1031:/opt/XMClib/XMC_Peripheral_Library_v2.1.16/XMCLib/src/xmc_usbd.c ****   doepint_data_t clear;
1032:/opt/XMClib/XMC_Peripheral_Library_v2.1.16/XMCLib/src/xmc_usbd.c ****   clear.d32 = event;
1033:/opt/XMClib/XMC_Peripheral_Library_v2.1.16/XMCLib/src/xmc_usbd.c ****   xmc_device.endpoint_out_register[ep_num]->doepint = clear.d32;
1034:/opt/XMClib/XMC_Peripheral_Library_v2.1.16/XMCLib/src/xmc_usbd.c **** }
1035:/opt/XMClib/XMC_Peripheral_Library_v2.1.16/XMCLib/src/xmc_usbd.c **** 
1036:/opt/XMClib/XMC_Peripheral_Library_v2.1.16/XMCLib/src/xmc_usbd.c **** /**
1037:/opt/XMClib/XMC_Peripheral_Library_v2.1.16/XMCLib/src/xmc_usbd.c ****  * Enable the USB OUT EP events
1038:/opt/XMClib/XMC_Peripheral_Library_v2.1.16/XMCLib/src/xmc_usbd.c ****  **/
1039:/opt/XMClib/XMC_Peripheral_Library_v2.1.16/XMCLib/src/xmc_usbd.c **** void XMC_USBD_EnableEventOUTEP(uint32_t event)
1040:/opt/XMClib/XMC_Peripheral_Library_v2.1.16/XMCLib/src/xmc_usbd.c **** {
1041:/opt/XMClib/XMC_Peripheral_Library_v2.1.16/XMCLib/src/xmc_usbd.c **** 	doepint_data_t doepint;
1042:/opt/XMClib/XMC_Peripheral_Library_v2.1.16/XMCLib/src/xmc_usbd.c **** 	doepint.d32 = event;
1043:/opt/XMClib/XMC_Peripheral_Library_v2.1.16/XMCLib/src/xmc_usbd.c **** 	xmc_device.device_register->doepmsk |= doepint.d32;
1044:/opt/XMClib/XMC_Peripheral_Library_v2.1.16/XMCLib/src/xmc_usbd.c **** }
1045:/opt/XMClib/XMC_Peripheral_Library_v2.1.16/XMCLib/src/xmc_usbd.c **** 
1046:/opt/XMClib/XMC_Peripheral_Library_v2.1.16/XMCLib/src/xmc_usbd.c **** /**
1047:/opt/XMClib/XMC_Peripheral_Library_v2.1.16/XMCLib/src/xmc_usbd.c ****  * Enable the USB IN EP events
1048:/opt/XMClib/XMC_Peripheral_Library_v2.1.16/XMCLib/src/xmc_usbd.c ****  **/
1049:/opt/XMClib/XMC_Peripheral_Library_v2.1.16/XMCLib/src/xmc_usbd.c **** void XMC_USBD_EnableEventINEP(uint32_t event)
1050:/opt/XMClib/XMC_Peripheral_Library_v2.1.16/XMCLib/src/xmc_usbd.c **** {
1051:/opt/XMClib/XMC_Peripheral_Library_v2.1.16/XMCLib/src/xmc_usbd.c **** 	diepint_data_t diepint;
1052:/opt/XMClib/XMC_Peripheral_Library_v2.1.16/XMCLib/src/xmc_usbd.c **** 	diepint.d32 = event;
1053:/opt/XMClib/XMC_Peripheral_Library_v2.1.16/XMCLib/src/xmc_usbd.c **** 	xmc_device.device_register->diepmsk |= diepint.d32;
1054:/opt/XMClib/XMC_Peripheral_Library_v2.1.16/XMCLib/src/xmc_usbd.c **** }
1055:/opt/XMClib/XMC_Peripheral_Library_v2.1.16/XMCLib/src/xmc_usbd.c **** 
1056:/opt/XMClib/XMC_Peripheral_Library_v2.1.16/XMCLib/src/xmc_usbd.c **** /**
1057:/opt/XMClib/XMC_Peripheral_Library_v2.1.16/XMCLib/src/xmc_usbd.c ****  * Gets the USB device capabilities
1058:/opt/XMClib/XMC_Peripheral_Library_v2.1.16/XMCLib/src/xmc_usbd.c ****  **/
1059:/opt/XMClib/XMC_Peripheral_Library_v2.1.16/XMCLib/src/xmc_usbd.c **** XMC_USBD_CAPABILITIES_t XMC_USBD_GetCapabilities()
1060:/opt/XMClib/XMC_Peripheral_Library_v2.1.16/XMCLib/src/xmc_usbd.c **** {
 517              		.loc 1 1060 1 is_stmt 1 view -0
 518              		.cfi_startproc
 519              		@ args = 0, pretend = 0, frame = 0
 520              		@ frame_needed = 0, uses_anonymous_args = 0
 521              		@ link register save eliminated.
1061:/opt/XMClib/XMC_Peripheral_Library_v2.1.16/XMCLib/src/xmc_usbd.c ****   XMC_USBD_CAPABILITIES_t cap={0U};
 522              		.loc 1 1061 3 view .LVU196
 523              	.LVL23:
1062:/opt/XMClib/XMC_Peripheral_Library_v2.1.16/XMCLib/src/xmc_usbd.c ****   cap.event_connect = 1U;
 524              		.loc 1 1062 3 view .LVU197
1063:/opt/XMClib/XMC_Peripheral_Library_v2.1.16/XMCLib/src/xmc_usbd.c ****   cap.event_disconnect = 1U;
 525              		.loc 1 1063 3 view .LVU198
1064:/opt/XMClib/XMC_Peripheral_Library_v2.1.16/XMCLib/src/xmc_usbd.c **** #if UC_SERIES == 45
1065:/opt/XMClib/XMC_Peripheral_Library_v2.1.16/XMCLib/src/xmc_usbd.c ****   cap.event_power_off = 1U;
 526              		.loc 1 1065 3 view .LVU199
1066:/opt/XMClib/XMC_Peripheral_Library_v2.1.16/XMCLib/src/xmc_usbd.c ****   cap.event_power_on = 1U;
 527              		.loc 1 1066 3 view .LVU200
1067:/opt/XMClib/XMC_Peripheral_Library_v2.1.16/XMCLib/src/xmc_usbd.c **** #else
1068:/opt/XMClib/XMC_Peripheral_Library_v2.1.16/XMCLib/src/xmc_usbd.c ****   cap.event_power_off = 0U;
1069:/opt/XMClib/XMC_Peripheral_Library_v2.1.16/XMCLib/src/xmc_usbd.c ****   cap.event_power_on = 0U;
1070:/opt/XMClib/XMC_Peripheral_Library_v2.1.16/XMCLib/src/xmc_usbd.c **** #endif
1071:/opt/XMClib/XMC_Peripheral_Library_v2.1.16/XMCLib/src/xmc_usbd.c ****   cap.event_high_speed = 0U;
 528              		.loc 1 1071 3 view .LVU201
1072:/opt/XMClib/XMC_Peripheral_Library_v2.1.16/XMCLib/src/xmc_usbd.c ****   cap.event_remote_wakeup = 1U;
 529              		.loc 1 1072 3 view .LVU202
1073:/opt/XMClib/XMC_Peripheral_Library_v2.1.16/XMCLib/src/xmc_usbd.c ****   cap.event_reset = 1U;
 530              		.loc 1 1073 3 view .LVU203
1074:/opt/XMClib/XMC_Peripheral_Library_v2.1.16/XMCLib/src/xmc_usbd.c ****   cap.event_resume = 1U;
 531              		.loc 1 1074 3 view .LVU204
1075:/opt/XMClib/XMC_Peripheral_Library_v2.1.16/XMCLib/src/xmc_usbd.c ****   cap.event_suspend = 1U;
 532              		.loc 1 1075 3 view .LVU205
1076:/opt/XMClib/XMC_Peripheral_Library_v2.1.16/XMCLib/src/xmc_usbd.c ****   cap.reserved = 0U;
 533              		.loc 1 1076 3 view .LVU206
1077:/opt/XMClib/XMC_Peripheral_Library_v2.1.16/XMCLib/src/xmc_usbd.c ****   return cap;
 534              		.loc 1 1077 3 view .LVU207
1078:/opt/XMClib/XMC_Peripheral_Library_v2.1.16/XMCLib/src/xmc_usbd.c **** }
 535              		.loc 1 1078 1 is_stmt 0 view .LVU208
 536 0000 40F2DF10 		movw	r0, #479
 537 0004 7047     		bx	lr
 538              		.cfi_endproc
 539              	.LFE186:
 541 0006 00BF     		.section	.text.XMC_USBD_DeviceConnect,"ax",%progbits
 542              		.align	1
 543              		.p2align 2,,3
 544              		.global	XMC_USBD_DeviceConnect
 545              		.syntax unified
 546              		.thumb
 547              		.thumb_func
 549              	XMC_USBD_DeviceConnect:
 550              	.LFB189:
1079:/opt/XMClib/XMC_Peripheral_Library_v2.1.16/XMCLib/src/xmc_usbd.c **** 
1080:/opt/XMClib/XMC_Peripheral_Library_v2.1.16/XMCLib/src/xmc_usbd.c **** /**
1081:/opt/XMClib/XMC_Peripheral_Library_v2.1.16/XMCLib/src/xmc_usbd.c ****  * Initializes the USB device
1082:/opt/XMClib/XMC_Peripheral_Library_v2.1.16/XMCLib/src/xmc_usbd.c ****  **/
1083:/opt/XMClib/XMC_Peripheral_Library_v2.1.16/XMCLib/src/xmc_usbd.c **** XMC_USBD_STATUS_t XMC_USBD_Init(XMC_USBD_t *obj)
1084:/opt/XMClib/XMC_Peripheral_Library_v2.1.16/XMCLib/src/xmc_usbd.c **** {
1085:/opt/XMClib/XMC_Peripheral_Library_v2.1.16/XMCLib/src/xmc_usbd.c ****   uint8_t *XMC_USBD_BASE_ADDRESS;
1086:/opt/XMClib/XMC_Peripheral_Library_v2.1.16/XMCLib/src/xmc_usbd.c ****   uint32_t i;
1087:/opt/XMClib/XMC_Peripheral_Library_v2.1.16/XMCLib/src/xmc_usbd.c ****   gahbcfg_data_t gahbcfg;
1088:/opt/XMClib/XMC_Peripheral_Library_v2.1.16/XMCLib/src/xmc_usbd.c ****   gusbcfg_data_t gusbcfg;
1089:/opt/XMClib/XMC_Peripheral_Library_v2.1.16/XMCLib/src/xmc_usbd.c ****   dcfg_data_t dcfg;
1090:/opt/XMClib/XMC_Peripheral_Library_v2.1.16/XMCLib/src/xmc_usbd.c ****   dctl_data_t dctl;
1091:/opt/XMClib/XMC_Peripheral_Library_v2.1.16/XMCLib/src/xmc_usbd.c ****   gintmsk_data_t gintmsk;
1092:/opt/XMClib/XMC_Peripheral_Library_v2.1.16/XMCLib/src/xmc_usbd.c **** 
1093:/opt/XMClib/XMC_Peripheral_Library_v2.1.16/XMCLib/src/xmc_usbd.c ****   XMC_ASSERT("XMC_USBD_Init: obj.usbd_max_num_eps not of type XMC_USBD_MAX_NUM_EPS_t",
1094:/opt/XMClib/XMC_Peripheral_Library_v2.1.16/XMCLib/src/xmc_usbd.c ****  		      XMC_USBD_CHECK_INPUT_MAX_NUM_EPS(obj->usbd_max_num_eps))
1095:/opt/XMClib/XMC_Peripheral_Library_v2.1.16/XMCLib/src/xmc_usbd.c ****   
1096:/opt/XMClib/XMC_Peripheral_Library_v2.1.16/XMCLib/src/xmc_usbd.c ****   XMC_USBD_Enable();
1097:/opt/XMClib/XMC_Peripheral_Library_v2.1.16/XMCLib/src/xmc_usbd.c ****   
1098:/opt/XMClib/XMC_Peripheral_Library_v2.1.16/XMCLib/src/xmc_usbd.c ****   usbd_init = obj;
1099:/opt/XMClib/XMC_Peripheral_Library_v2.1.16/XMCLib/src/xmc_usbd.c **** 
1100:/opt/XMClib/XMC_Peripheral_Library_v2.1.16/XMCLib/src/xmc_usbd.c ****   /* Filling out buffer size */
1101:/opt/XMClib/XMC_Peripheral_Library_v2.1.16/XMCLib/src/xmc_usbd.c ****   for(i = 0U;i < (uint32_t)XMC_USBD_NUM_EPS;i++)
1102:/opt/XMClib/XMC_Peripheral_Library_v2.1.16/XMCLib/src/xmc_usbd.c ****   {
1103:/opt/XMClib/XMC_Peripheral_Library_v2.1.16/XMCLib/src/xmc_usbd.c **** 	  XMC_USBD_EP_OUT_BUFFERSIZE[i] = XMC_USBD_EP0_BUFFER_SIZE;
1104:/opt/XMClib/XMC_Peripheral_Library_v2.1.16/XMCLib/src/xmc_usbd.c **** 	  XMC_USBD_EP_IN_BUFFERSIZE[i] 	= XMC_USBD_EP0_BUFFER_SIZE;
1105:/opt/XMClib/XMC_Peripheral_Library_v2.1.16/XMCLib/src/xmc_usbd.c ****   }
1106:/opt/XMClib/XMC_Peripheral_Library_v2.1.16/XMCLib/src/xmc_usbd.c **** 
1107:/opt/XMClib/XMC_Peripheral_Library_v2.1.16/XMCLib/src/xmc_usbd.c ****   /* clear device status */
1108:/opt/XMClib/XMC_Peripheral_Library_v2.1.16/XMCLib/src/xmc_usbd.c ****   memset((void*)&xmc_device,0x0U,sizeof(XMC_USBD_DEVICE_t));
1109:/opt/XMClib/XMC_Peripheral_Library_v2.1.16/XMCLib/src/xmc_usbd.c **** 
1110:/opt/XMClib/XMC_Peripheral_Library_v2.1.16/XMCLib/src/xmc_usbd.c ****   /* assign callbacks */
1111:/opt/XMClib/XMC_Peripheral_Library_v2.1.16/XMCLib/src/xmc_usbd.c ****   xmc_device.DeviceEvent_cb = obj->cb_xmc_device_event;
1112:/opt/XMClib/XMC_Peripheral_Library_v2.1.16/XMCLib/src/xmc_usbd.c ****   xmc_device.EndpointEvent_cb = obj->cb_endpoint_event;
1113:/opt/XMClib/XMC_Peripheral_Library_v2.1.16/XMCLib/src/xmc_usbd.c ****   XMC_USBD_BASE_ADDRESS = (uint8_t *)(obj->usbd);
1114:/opt/XMClib/XMC_Peripheral_Library_v2.1.16/XMCLib/src/xmc_usbd.c ****   /* assign register address */
1115:/opt/XMClib/XMC_Peripheral_Library_v2.1.16/XMCLib/src/xmc_usbd.c ****   xmc_device.global_register = (dwc_otg_core_global_regs_t*)(obj->usbd);
1116:/opt/XMClib/XMC_Peripheral_Library_v2.1.16/XMCLib/src/xmc_usbd.c ****   xmc_device.device_register = ((dwc_otg_device_global_regs_t*)(XMC_USBD_BASE_ADDRESS + DWC_DEV_GLO
1117:/opt/XMClib/XMC_Peripheral_Library_v2.1.16/XMCLib/src/xmc_usbd.c ****   for (i = 0U;i < (uint32_t)XMC_USBD_NUM_EPS;i++)
1118:/opt/XMClib/XMC_Peripheral_Library_v2.1.16/XMCLib/src/xmc_usbd.c ****   {
1119:/opt/XMClib/XMC_Peripheral_Library_v2.1.16/XMCLib/src/xmc_usbd.c ****     xmc_device.endpoint_in_register[i] = (dwc_otg_dev_in_ep_regs_t*)(XMC_USBD_BASE_ADDRESS + DWC_DE
1120:/opt/XMClib/XMC_Peripheral_Library_v2.1.16/XMCLib/src/xmc_usbd.c ****     ((uint32_t)DWC_EP_REG_OFFSET*i));
1121:/opt/XMClib/XMC_Peripheral_Library_v2.1.16/XMCLib/src/xmc_usbd.c ****   }
1122:/opt/XMClib/XMC_Peripheral_Library_v2.1.16/XMCLib/src/xmc_usbd.c ****   for (i = 0U;i < (uint32_t)XMC_USBD_NUM_EPS;i++)
1123:/opt/XMClib/XMC_Peripheral_Library_v2.1.16/XMCLib/src/xmc_usbd.c ****   {
1124:/opt/XMClib/XMC_Peripheral_Library_v2.1.16/XMCLib/src/xmc_usbd.c ****     xmc_device.endpoint_out_register[i] = (dwc_otg_dev_out_ep_regs_t*)(XMC_USBD_BASE_ADDRESS +
1125:/opt/XMClib/XMC_Peripheral_Library_v2.1.16/XMCLib/src/xmc_usbd.c ****     									  DWC_DEV_OUT_EP_REG_OFFSET +
1126:/opt/XMClib/XMC_Peripheral_Library_v2.1.16/XMCLib/src/xmc_usbd.c ****     									  ((uint32_t)DWC_EP_REG_OFFSET*i));
1127:/opt/XMClib/XMC_Peripheral_Library_v2.1.16/XMCLib/src/xmc_usbd.c ****   }
1128:/opt/XMClib/XMC_Peripheral_Library_v2.1.16/XMCLib/src/xmc_usbd.c ****   for (i = 0U;i < (uint32_t)XMC_USBD_NUM_TX_FIFOS;i++)
1129:/opt/XMClib/XMC_Peripheral_Library_v2.1.16/XMCLib/src/xmc_usbd.c ****   {
1130:/opt/XMClib/XMC_Peripheral_Library_v2.1.16/XMCLib/src/xmc_usbd.c ****     xmc_device.fifo[i] = (uint32_t*)(XMC_USBD_BASE_ADDRESS +
1131:/opt/XMClib/XMC_Peripheral_Library_v2.1.16/XMCLib/src/xmc_usbd.c ****     						XMC_USBD_TX_FIFO_REG_OFFSET +
1132:/opt/XMClib/XMC_Peripheral_Library_v2.1.16/XMCLib/src/xmc_usbd.c ****     						(i * XMC_USBD_TX_FIFO_OFFSET));
1133:/opt/XMClib/XMC_Peripheral_Library_v2.1.16/XMCLib/src/xmc_usbd.c ****   }
1134:/opt/XMClib/XMC_Peripheral_Library_v2.1.16/XMCLib/src/xmc_usbd.c ****   /* obj data structure for endpoint 0 */
1135:/opt/XMClib/XMC_Peripheral_Library_v2.1.16/XMCLib/src/xmc_usbd.c ****   /* Done by driver core */
1136:/opt/XMClib/XMC_Peripheral_Library_v2.1.16/XMCLib/src/xmc_usbd.c ****   /* configure ahb details */  
1137:/opt/XMClib/XMC_Peripheral_Library_v2.1.16/XMCLib/src/xmc_usbd.c ****   gahbcfg.d32 = xmc_device.global_register->gahbcfg;
1138:/opt/XMClib/XMC_Peripheral_Library_v2.1.16/XMCLib/src/xmc_usbd.c ****   gahbcfg.b.glblintrmsk = 1U; /* enable interrupts ( global mask ) */
1139:/opt/XMClib/XMC_Peripheral_Library_v2.1.16/XMCLib/src/xmc_usbd.c ****   gahbcfg.b.nptxfemplvl_txfemplvl = 1U;
1140:/opt/XMClib/XMC_Peripheral_Library_v2.1.16/XMCLib/src/xmc_usbd.c ****   if(obj->usbd_transfer_mode == XMC_USBD_USE_DMA)
1141:/opt/XMClib/XMC_Peripheral_Library_v2.1.16/XMCLib/src/xmc_usbd.c ****   {
1142:/opt/XMClib/XMC_Peripheral_Library_v2.1.16/XMCLib/src/xmc_usbd.c ****     /* Enable dma if needed */
1143:/opt/XMClib/XMC_Peripheral_Library_v2.1.16/XMCLib/src/xmc_usbd.c ****     gahbcfg.b.dmaenable = 1U; /* enable dma if needed */
1144:/opt/XMClib/XMC_Peripheral_Library_v2.1.16/XMCLib/src/xmc_usbd.c ****   }
1145:/opt/XMClib/XMC_Peripheral_Library_v2.1.16/XMCLib/src/xmc_usbd.c ****   else
1146:/opt/XMClib/XMC_Peripheral_Library_v2.1.16/XMCLib/src/xmc_usbd.c ****   {
1147:/opt/XMClib/XMC_Peripheral_Library_v2.1.16/XMCLib/src/xmc_usbd.c ****     gahbcfg.b.dmaenable = 0U;
1148:/opt/XMClib/XMC_Peripheral_Library_v2.1.16/XMCLib/src/xmc_usbd.c ****   }
1149:/opt/XMClib/XMC_Peripheral_Library_v2.1.16/XMCLib/src/xmc_usbd.c ****   xmc_device.global_register->gahbcfg = gahbcfg.d32;
1150:/opt/XMClib/XMC_Peripheral_Library_v2.1.16/XMCLib/src/xmc_usbd.c ****   /* configure usb details */  
1151:/opt/XMClib/XMC_Peripheral_Library_v2.1.16/XMCLib/src/xmc_usbd.c ****   gusbcfg.d32= xmc_device.global_register->gusbcfg;
1152:/opt/XMClib/XMC_Peripheral_Library_v2.1.16/XMCLib/src/xmc_usbd.c ****   gusbcfg.b.force_dev_mode = 1U; /* force us into device mode */
1153:/opt/XMClib/XMC_Peripheral_Library_v2.1.16/XMCLib/src/xmc_usbd.c ****   gusbcfg.b.srpcap = 1U; /* enable session request protocoll */
1154:/opt/XMClib/XMC_Peripheral_Library_v2.1.16/XMCLib/src/xmc_usbd.c ****   xmc_device.global_register->gusbcfg = gusbcfg.d32;
1155:/opt/XMClib/XMC_Peripheral_Library_v2.1.16/XMCLib/src/xmc_usbd.c **** 
1156:/opt/XMClib/XMC_Peripheral_Library_v2.1.16/XMCLib/src/xmc_usbd.c ****   /* Device init */
1157:/opt/XMClib/XMC_Peripheral_Library_v2.1.16/XMCLib/src/xmc_usbd.c ****   /* configure device speed */  
1158:/opt/XMClib/XMC_Peripheral_Library_v2.1.16/XMCLib/src/xmc_usbd.c ****   dcfg.d32 = xmc_device.device_register->dcfg;
1159:/opt/XMClib/XMC_Peripheral_Library_v2.1.16/XMCLib/src/xmc_usbd.c ****   dcfg.b.devspd = XMC_USBD_DCFG_DEVSPD_FS;
1160:/opt/XMClib/XMC_Peripheral_Library_v2.1.16/XMCLib/src/xmc_usbd.c ****   dcfg.b.descdma = 0U;
1161:/opt/XMClib/XMC_Peripheral_Library_v2.1.16/XMCLib/src/xmc_usbd.c ****   xmc_device.device_register->dcfg = dcfg.d32;
1162:/opt/XMClib/XMC_Peripheral_Library_v2.1.16/XMCLib/src/xmc_usbd.c ****   /* configure device functions */  
1163:/opt/XMClib/XMC_Peripheral_Library_v2.1.16/XMCLib/src/xmc_usbd.c ****   dctl.d32 = xmc_device.device_register->dctl;
1164:/opt/XMClib/XMC_Peripheral_Library_v2.1.16/XMCLib/src/xmc_usbd.c ****   dctl.b.sftdiscon = 1U; /* disconnect the device until its connected by the user */
1165:/opt/XMClib/XMC_Peripheral_Library_v2.1.16/XMCLib/src/xmc_usbd.c ****   /* all other config is done by default register value */
1166:/opt/XMClib/XMC_Peripheral_Library_v2.1.16/XMCLib/src/xmc_usbd.c ****   xmc_device.device_register->dctl = dctl.d32;
1167:/opt/XMClib/XMC_Peripheral_Library_v2.1.16/XMCLib/src/xmc_usbd.c ****   /* flush the fifos for proper operation */
1168:/opt/XMClib/XMC_Peripheral_Library_v2.1.16/XMCLib/src/xmc_usbd.c ****   XMC_USBD_lFlushTXFifo((uint8_t)0x10U); /* 0x10 == all fifos, see doc */
1169:/opt/XMClib/XMC_Peripheral_Library_v2.1.16/XMCLib/src/xmc_usbd.c ****   XMC_USBD_lFlushRXFifo();
1170:/opt/XMClib/XMC_Peripheral_Library_v2.1.16/XMCLib/src/xmc_usbd.c ****   /* Enable Global Interrupts */
1171:/opt/XMClib/XMC_Peripheral_Library_v2.1.16/XMCLib/src/xmc_usbd.c ****   /* clear interrupt status bits prior to unmasking */
1172:/opt/XMClib/XMC_Peripheral_Library_v2.1.16/XMCLib/src/xmc_usbd.c ****   xmc_device.global_register->gintmsk = 0U; /* disable all interrupts */
1173:/opt/XMClib/XMC_Peripheral_Library_v2.1.16/XMCLib/src/xmc_usbd.c ****   xmc_device.global_register->gintsts = 0xFFFFFFFFU; /* clear all interrupts */
1174:/opt/XMClib/XMC_Peripheral_Library_v2.1.16/XMCLib/src/xmc_usbd.c ****  
1175:/opt/XMClib/XMC_Peripheral_Library_v2.1.16/XMCLib/src/xmc_usbd.c ****   gintmsk.d32 = 0U;
1176:/opt/XMClib/XMC_Peripheral_Library_v2.1.16/XMCLib/src/xmc_usbd.c ****   /* enable common interrupts */
1177:/opt/XMClib/XMC_Peripheral_Library_v2.1.16/XMCLib/src/xmc_usbd.c ****   gintmsk.b.modemismatch = 1U;
1178:/opt/XMClib/XMC_Peripheral_Library_v2.1.16/XMCLib/src/xmc_usbd.c ****   gintmsk.b.otgintr = 1U;
1179:/opt/XMClib/XMC_Peripheral_Library_v2.1.16/XMCLib/src/xmc_usbd.c ****   gintmsk.b.sessreqintr = 1U;
1180:/opt/XMClib/XMC_Peripheral_Library_v2.1.16/XMCLib/src/xmc_usbd.c ****   /* enable device interrupts */
1181:/opt/XMClib/XMC_Peripheral_Library_v2.1.16/XMCLib/src/xmc_usbd.c ****   gintmsk.b.usbreset = 1U;
1182:/opt/XMClib/XMC_Peripheral_Library_v2.1.16/XMCLib/src/xmc_usbd.c ****   gintmsk.b.enumdone = 1U;
1183:/opt/XMClib/XMC_Peripheral_Library_v2.1.16/XMCLib/src/xmc_usbd.c ****   gintmsk.b.erlysuspend = 1U;
1184:/opt/XMClib/XMC_Peripheral_Library_v2.1.16/XMCLib/src/xmc_usbd.c ****   gintmsk.b.usbsuspend = 1U;
1185:/opt/XMClib/XMC_Peripheral_Library_v2.1.16/XMCLib/src/xmc_usbd.c ****   gintmsk.b.wkupintr = 1U;
1186:/opt/XMClib/XMC_Peripheral_Library_v2.1.16/XMCLib/src/xmc_usbd.c ****   gintmsk.b.sofintr = 1U;
1187:/opt/XMClib/XMC_Peripheral_Library_v2.1.16/XMCLib/src/xmc_usbd.c ****   if(obj->usbd_transfer_mode == XMC_USBD_USE_FIFO)
1188:/opt/XMClib/XMC_Peripheral_Library_v2.1.16/XMCLib/src/xmc_usbd.c ****   {
1189:/opt/XMClib/XMC_Peripheral_Library_v2.1.16/XMCLib/src/xmc_usbd.c ****     gintmsk.b.rxstsqlvl = 1U;
1190:/opt/XMClib/XMC_Peripheral_Library_v2.1.16/XMCLib/src/xmc_usbd.c ****   }
1191:/opt/XMClib/XMC_Peripheral_Library_v2.1.16/XMCLib/src/xmc_usbd.c ****   gintmsk.b.outepintr = 1U;
1192:/opt/XMClib/XMC_Peripheral_Library_v2.1.16/XMCLib/src/xmc_usbd.c ****   gintmsk.b.inepintr = 1U;
1193:/opt/XMClib/XMC_Peripheral_Library_v2.1.16/XMCLib/src/xmc_usbd.c ****   xmc_device.global_register->gintmsk = gintmsk.d32;
1194:/opt/XMClib/XMC_Peripheral_Library_v2.1.16/XMCLib/src/xmc_usbd.c ****   return XMC_USBD_STATUS_OK;
1195:/opt/XMClib/XMC_Peripheral_Library_v2.1.16/XMCLib/src/xmc_usbd.c **** }
1196:/opt/XMClib/XMC_Peripheral_Library_v2.1.16/XMCLib/src/xmc_usbd.c **** 
1197:/opt/XMClib/XMC_Peripheral_Library_v2.1.16/XMCLib/src/xmc_usbd.c **** /**
1198:/opt/XMClib/XMC_Peripheral_Library_v2.1.16/XMCLib/src/xmc_usbd.c ****  * Uninitializes the USB device
1199:/opt/XMClib/XMC_Peripheral_Library_v2.1.16/XMCLib/src/xmc_usbd.c ****  **/
1200:/opt/XMClib/XMC_Peripheral_Library_v2.1.16/XMCLib/src/xmc_usbd.c **** XMC_USBD_STATUS_t XMC_USBD_Uninitialize() 
1201:/opt/XMClib/XMC_Peripheral_Library_v2.1.16/XMCLib/src/xmc_usbd.c **** {
1202:/opt/XMClib/XMC_Peripheral_Library_v2.1.16/XMCLib/src/xmc_usbd.c ****   /* Disconnect the device */
1203:/opt/XMClib/XMC_Peripheral_Library_v2.1.16/XMCLib/src/xmc_usbd.c ****   dctl_data_t dctl;
1204:/opt/XMClib/XMC_Peripheral_Library_v2.1.16/XMCLib/src/xmc_usbd.c **** 	dctl.d32 = xmc_device.device_register->dctl;
1205:/opt/XMClib/XMC_Peripheral_Library_v2.1.16/XMCLib/src/xmc_usbd.c ****   dctl.b.sftdiscon = 1U;
1206:/opt/XMClib/XMC_Peripheral_Library_v2.1.16/XMCLib/src/xmc_usbd.c ****   xmc_device.device_register->dctl = dctl.d32;
1207:/opt/XMClib/XMC_Peripheral_Library_v2.1.16/XMCLib/src/xmc_usbd.c ****   /* clean up */
1208:/opt/XMClib/XMC_Peripheral_Library_v2.1.16/XMCLib/src/xmc_usbd.c ****   memset((void*)&xmc_device,0U,sizeof(xmc_device));
1209:/opt/XMClib/XMC_Peripheral_Library_v2.1.16/XMCLib/src/xmc_usbd.c ****   return XMC_USBD_STATUS_OK;
1210:/opt/XMClib/XMC_Peripheral_Library_v2.1.16/XMCLib/src/xmc_usbd.c **** }
1211:/opt/XMClib/XMC_Peripheral_Library_v2.1.16/XMCLib/src/xmc_usbd.c **** 
1212:/opt/XMClib/XMC_Peripheral_Library_v2.1.16/XMCLib/src/xmc_usbd.c **** /**
1213:/opt/XMClib/XMC_Peripheral_Library_v2.1.16/XMCLib/src/xmc_usbd.c ****  * Connects the USB device to host
1214:/opt/XMClib/XMC_Peripheral_Library_v2.1.16/XMCLib/src/xmc_usbd.c ****  **/
1215:/opt/XMClib/XMC_Peripheral_Library_v2.1.16/XMCLib/src/xmc_usbd.c **** XMC_USBD_STATUS_t XMC_USBD_DeviceConnect() 
1216:/opt/XMClib/XMC_Peripheral_Library_v2.1.16/XMCLib/src/xmc_usbd.c **** {
 551              		.loc 1 1216 1 is_stmt 1 view -0
 552              		.cfi_startproc
 553              		@ args = 0, pretend = 0, frame = 0
 554              		@ frame_needed = 0, uses_anonymous_args = 0
 555              		@ link register save eliminated.
1217:/opt/XMClib/XMC_Peripheral_Library_v2.1.16/XMCLib/src/xmc_usbd.c ****   /* Just disable softdisconnect */
1218:/opt/XMClib/XMC_Peripheral_Library_v2.1.16/XMCLib/src/xmc_usbd.c ****   dctl_data_t dctl;
 556              		.loc 1 1218 3 view .LVU210
1219:/opt/XMClib/XMC_Peripheral_Library_v2.1.16/XMCLib/src/xmc_usbd.c **** 	dctl.d32 = xmc_device.device_register->dctl;
 557              		.loc 1 1219 2 view .LVU211
 558              		.loc 1 1219 23 is_stmt 0 view .LVU212
 559 0000 044B     		ldr	r3, .L49
 560 0002 D3F8A421 		ldr	r2, [r3, #420]
 561              		.loc 1 1219 39 view .LVU213
 562 0006 5368     		ldr	r3, [r2, #4]
1220:/opt/XMClib/XMC_Peripheral_Library_v2.1.16/XMCLib/src/xmc_usbd.c ****   dctl.b.sftdiscon = 0U;
 563              		.loc 1 1220 3 is_stmt 1 view .LVU214
 564              		.loc 1 1220 20 is_stmt 0 view .LVU215
 565 0008 6FF34103 		bfc	r3, #1, #1
 566              	.LVL24:
1221:/opt/XMClib/XMC_Peripheral_Library_v2.1.16/XMCLib/src/xmc_usbd.c ****   xmc_device.device_register->dctl = dctl.d32;
 567              		.loc 1 1221 3 is_stmt 1 view .LVU216
1222:/opt/XMClib/XMC_Peripheral_Library_v2.1.16/XMCLib/src/xmc_usbd.c ****   return XMC_USBD_STATUS_OK;
1223:/opt/XMClib/XMC_Peripheral_Library_v2.1.16/XMCLib/src/xmc_usbd.c **** }
 568              		.loc 1 1223 1 is_stmt 0 view .LVU217
 569 000c 0020     		movs	r0, #0
1221:/opt/XMClib/XMC_Peripheral_Library_v2.1.16/XMCLib/src/xmc_usbd.c ****   xmc_device.device_register->dctl = dctl.d32;
 570              		.loc 1 1221 36 view .LVU218
 571 000e 5360     		str	r3, [r2, #4]
1222:/opt/XMClib/XMC_Peripheral_Library_v2.1.16/XMCLib/src/xmc_usbd.c ****   return XMC_USBD_STATUS_OK;
 572              		.loc 1 1222 3 is_stmt 1 view .LVU219
 573              		.loc 1 1223 1 is_stmt 0 view .LVU220
 574 0010 7047     		bx	lr
 575              	.L50:
 576 0012 00BF     		.align	2
 577              	.L49:
 578 0014 00000000 		.word	.LANCHOR0
 579              		.cfi_endproc
 580              	.LFE189:
 582              		.section	.text.XMC_USBD_DeviceDisconnect,"ax",%progbits
 583              		.align	1
 584              		.p2align 2,,3
 585              		.global	XMC_USBD_DeviceDisconnect
 586              		.syntax unified
 587              		.thumb
 588              		.thumb_func
 590              	XMC_USBD_DeviceDisconnect:
 591              	.LFB190:
1224:/opt/XMClib/XMC_Peripheral_Library_v2.1.16/XMCLib/src/xmc_usbd.c **** 
1225:/opt/XMClib/XMC_Peripheral_Library_v2.1.16/XMCLib/src/xmc_usbd.c **** /**
1226:/opt/XMClib/XMC_Peripheral_Library_v2.1.16/XMCLib/src/xmc_usbd.c ****  * Disconnects the USB device from host
1227:/opt/XMClib/XMC_Peripheral_Library_v2.1.16/XMCLib/src/xmc_usbd.c ****  **/
1228:/opt/XMClib/XMC_Peripheral_Library_v2.1.16/XMCLib/src/xmc_usbd.c **** XMC_USBD_STATUS_t XMC_USBD_DeviceDisconnect() 
1229:/opt/XMClib/XMC_Peripheral_Library_v2.1.16/XMCLib/src/xmc_usbd.c **** {
 592              		.loc 1 1229 1 is_stmt 1 view -0
 593              		.cfi_startproc
 594              		@ args = 0, pretend = 0, frame = 0
 595              		@ frame_needed = 0, uses_anonymous_args = 0
 596              		@ link register save eliminated.
1230:/opt/XMClib/XMC_Peripheral_Library_v2.1.16/XMCLib/src/xmc_usbd.c ****   dctl_data_t dctl;
 597              		.loc 1 1230 3 view .LVU222
1231:/opt/XMClib/XMC_Peripheral_Library_v2.1.16/XMCLib/src/xmc_usbd.c **** 	dctl.d32 = xmc_device.device_register->dctl;
 598              		.loc 1 1231 2 view .LVU223
 599              		.loc 1 1231 23 is_stmt 0 view .LVU224
 600 0000 044B     		ldr	r3, .L52
 601 0002 D3F8A421 		ldr	r2, [r3, #420]
 602              		.loc 1 1231 39 view .LVU225
 603 0006 5368     		ldr	r3, [r2, #4]
1232:/opt/XMClib/XMC_Peripheral_Library_v2.1.16/XMCLib/src/xmc_usbd.c ****   dctl.b.sftdiscon = 1U;
 604              		.loc 1 1232 3 is_stmt 1 view .LVU226
 605              		.loc 1 1232 20 is_stmt 0 view .LVU227
 606 0008 43F00203 		orr	r3, r3, #2
 607              	.LVL25:
1233:/opt/XMClib/XMC_Peripheral_Library_v2.1.16/XMCLib/src/xmc_usbd.c ****   xmc_device.device_register->dctl = dctl.d32;
 608              		.loc 1 1233 3 is_stmt 1 view .LVU228
1234:/opt/XMClib/XMC_Peripheral_Library_v2.1.16/XMCLib/src/xmc_usbd.c ****   return XMC_USBD_STATUS_OK;
1235:/opt/XMClib/XMC_Peripheral_Library_v2.1.16/XMCLib/src/xmc_usbd.c **** }
 609              		.loc 1 1235 1 is_stmt 0 view .LVU229
 610 000c 0020     		movs	r0, #0
 611              	.LVL26:
1233:/opt/XMClib/XMC_Peripheral_Library_v2.1.16/XMCLib/src/xmc_usbd.c ****   xmc_device.device_register->dctl = dctl.d32;
 612              		.loc 1 1233 36 view .LVU230
 613 000e 5360     		str	r3, [r2, #4]
1234:/opt/XMClib/XMC_Peripheral_Library_v2.1.16/XMCLib/src/xmc_usbd.c ****   return XMC_USBD_STATUS_OK;
 614              		.loc 1 1234 3 is_stmt 1 view .LVU231
 615              		.loc 1 1235 1 is_stmt 0 view .LVU232
 616 0010 7047     		bx	lr
 617              	.L53:
 618 0012 00BF     		.align	2
 619              	.L52:
 620 0014 00000000 		.word	.LANCHOR0
 621              		.cfi_endproc
 622              	.LFE190:
 624              		.section	.text.XMC_USBD_EndpointReadStart,"ax",%progbits
 625              		.align	1
 626              		.p2align 2,,3
 627              		.global	XMC_USBD_EndpointReadStart
 628              		.syntax unified
 629              		.thumb
 630              		.thumb_func
 632              	XMC_USBD_EndpointReadStart:
 633              	.LVL27:
 634              	.LFB192:
1236:/opt/XMClib/XMC_Peripheral_Library_v2.1.16/XMCLib/src/xmc_usbd.c **** 
1237:/opt/XMClib/XMC_Peripheral_Library_v2.1.16/XMCLib/src/xmc_usbd.c **** /**
1238:/opt/XMClib/XMC_Peripheral_Library_v2.1.16/XMCLib/src/xmc_usbd.c ****  * Gets the USB device state.
1239:/opt/XMClib/XMC_Peripheral_Library_v2.1.16/XMCLib/src/xmc_usbd.c ****  **/
1240:/opt/XMClib/XMC_Peripheral_Library_v2.1.16/XMCLib/src/xmc_usbd.c **** XMC_USBD_STATE_t XMC_USBD_DeviceGetState(const XMC_USBD_t *const obj) 
1241:/opt/XMClib/XMC_Peripheral_Library_v2.1.16/XMCLib/src/xmc_usbd.c **** {
1242:/opt/XMClib/XMC_Peripheral_Library_v2.1.16/XMCLib/src/xmc_usbd.c ****   XMC_USBD_STATE_t state={0U};
1243:/opt/XMClib/XMC_Peripheral_Library_v2.1.16/XMCLib/src/xmc_usbd.c ****   state.speed = XMC_USBD_SPEED_FULL;
1244:/opt/XMClib/XMC_Peripheral_Library_v2.1.16/XMCLib/src/xmc_usbd.c ****   state.connected = xmc_device.IsConnected;
1245:/opt/XMClib/XMC_Peripheral_Library_v2.1.16/XMCLib/src/xmc_usbd.c ****   state.active = XMC_USBD_lDeviceActive(obj);
1246:/opt/XMClib/XMC_Peripheral_Library_v2.1.16/XMCLib/src/xmc_usbd.c ****   state.powered = xmc_device.IsPowered;
1247:/opt/XMClib/XMC_Peripheral_Library_v2.1.16/XMCLib/src/xmc_usbd.c ****   return state;
1248:/opt/XMClib/XMC_Peripheral_Library_v2.1.16/XMCLib/src/xmc_usbd.c **** }
1249:/opt/XMClib/XMC_Peripheral_Library_v2.1.16/XMCLib/src/xmc_usbd.c **** 
1250:/opt/XMClib/XMC_Peripheral_Library_v2.1.16/XMCLib/src/xmc_usbd.c **** /**
1251:/opt/XMClib/XMC_Peripheral_Library_v2.1.16/XMCLib/src/xmc_usbd.c ****  * Prepares the endpoint to read next OUT packet
1252:/opt/XMClib/XMC_Peripheral_Library_v2.1.16/XMCLib/src/xmc_usbd.c ****  **/
1253:/opt/XMClib/XMC_Peripheral_Library_v2.1.16/XMCLib/src/xmc_usbd.c **** XMC_USBD_STATUS_t XMC_USBD_EndpointReadStart(const uint8_t ep_addr, uint32_t size) 
1254:/opt/XMClib/XMC_Peripheral_Library_v2.1.16/XMCLib/src/xmc_usbd.c **** {
 635              		.loc 1 1254 1 is_stmt 1 view -0
 636              		.cfi_startproc
 637              		@ args = 0, pretend = 0, frame = 0
 638              		@ frame_needed = 0, uses_anonymous_args = 0
1255:/opt/XMClib/XMC_Peripheral_Library_v2.1.16/XMCLib/src/xmc_usbd.c ****   XMC_USBD_EP_t *ep = &xmc_device.ep[ep_addr & (uint8_t)XMC_USBD_EP_NUM_MASK];
 639              		.loc 1 1255 3 view .LVU234
1254:/opt/XMClib/XMC_Peripheral_Library_v2.1.16/XMCLib/src/xmc_usbd.c ****   XMC_USBD_EP_t *ep = &xmc_device.ep[ep_addr & (uint8_t)XMC_USBD_EP_NUM_MASK];
 640              		.loc 1 1254 1 is_stmt 0 view .LVU235
 641 0000 38B5     		push	{r3, r4, r5, lr}
 642              	.LCFI5:
 643              		.cfi_def_cfa_offset 16
 644              		.cfi_offset 3, -16
 645              		.cfi_offset 4, -12
 646              		.cfi_offset 5, -8
 647              		.cfi_offset 14, -4
1256:/opt/XMClib/XMC_Peripheral_Library_v2.1.16/XMCLib/src/xmc_usbd.c ****   XMC_USBD_STATUS_t result;
1257:/opt/XMClib/XMC_Peripheral_Library_v2.1.16/XMCLib/src/xmc_usbd.c **** 	
1258:/opt/XMClib/XMC_Peripheral_Library_v2.1.16/XMCLib/src/xmc_usbd.c ****   if (ep->outInUse || !ep->isConfigured)
 648              		.loc 1 1258 9 view .LVU236
 649 0002 124D     		ldr	r5, .L60
 650 0004 00F00F02 		and	r2, r0, #15
 651              	.LVL28:
1256:/opt/XMClib/XMC_Peripheral_Library_v2.1.16/XMCLib/src/xmc_usbd.c ****   XMC_USBD_STATUS_t result;
 652              		.loc 1 1256 3 is_stmt 1 view .LVU237
 653              		.loc 1 1258 3 view .LVU238
 654              		.loc 1 1258 9 is_stmt 0 view .LVU239
 655 0008 3423     		movs	r3, #52
 656 000a 03FB0253 		mla	r3, r3, r2, r5
 657 000e 5868     		ldr	r0, [r3, #4]
 658              	.LVL29:
 659              		.loc 1 1258 9 view .LVU240
 660 0010 C0F30014 		ubfx	r4, r0, #4, #1
 661              		.loc 1 1258 6 view .LVU241
 662 0014 C006     		lsls	r0, r0, #27
 663 0016 02D4     		bmi	.L57
 664              		.loc 1 1258 23 discriminator 1 view .LVU242
 665 0018 1879     		ldrb	r0, [r3, #4]	@ zero_extendqisi2
 666              		.loc 1 1258 20 discriminator 1 view .LVU243
 667 001a 4007     		lsls	r0, r0, #29
 668 001c 01D4     		bmi	.L59
 669              	.L57:
1259:/opt/XMClib/XMC_Peripheral_Library_v2.1.16/XMCLib/src/xmc_usbd.c ****   {
1260:/opt/XMClib/XMC_Peripheral_Library_v2.1.16/XMCLib/src/xmc_usbd.c ****     result = XMC_USBD_STATUS_ERROR;
 670              		.loc 1 1260 12 view .LVU244
 671 001e 0120     		movs	r0, #1
 672              	.LVL30:
1261:/opt/XMClib/XMC_Peripheral_Library_v2.1.16/XMCLib/src/xmc_usbd.c ****   }
1262:/opt/XMClib/XMC_Peripheral_Library_v2.1.16/XMCLib/src/xmc_usbd.c ****   else
1263:/opt/XMClib/XMC_Peripheral_Library_v2.1.16/XMCLib/src/xmc_usbd.c ****   {
1264:/opt/XMClib/XMC_Peripheral_Library_v2.1.16/XMCLib/src/xmc_usbd.c ****     /* short the length to buffer size if needed */
1265:/opt/XMClib/XMC_Peripheral_Library_v2.1.16/XMCLib/src/xmc_usbd.c ****     if (size > ep->outBufferSize)
1266:/opt/XMClib/XMC_Peripheral_Library_v2.1.16/XMCLib/src/xmc_usbd.c ****     {
1267:/opt/XMClib/XMC_Peripheral_Library_v2.1.16/XMCLib/src/xmc_usbd.c ****       size = ep->outBufferSize;
1268:/opt/XMClib/XMC_Peripheral_Library_v2.1.16/XMCLib/src/xmc_usbd.c ****     }
1269:/opt/XMClib/XMC_Peripheral_Library_v2.1.16/XMCLib/src/xmc_usbd.c ****     /* set ep values */
1270:/opt/XMClib/XMC_Peripheral_Library_v2.1.16/XMCLib/src/xmc_usbd.c ****     ep->xferTotal = size;
1271:/opt/XMClib/XMC_Peripheral_Library_v2.1.16/XMCLib/src/xmc_usbd.c ****     ep->xferCount = 0U;
1272:/opt/XMClib/XMC_Peripheral_Library_v2.1.16/XMCLib/src/xmc_usbd.c ****     ep->xferLength = 0U;
1273:/opt/XMClib/XMC_Peripheral_Library_v2.1.16/XMCLib/src/xmc_usbd.c ****     ep->xferBuffer = ep->outBuffer;
1274:/opt/XMClib/XMC_Peripheral_Library_v2.1.16/XMCLib/src/xmc_usbd.c ****     ep->outBytesAvailable = 0U;
1275:/opt/XMClib/XMC_Peripheral_Library_v2.1.16/XMCLib/src/xmc_usbd.c ****     XMC_USBD_lStartReadXfer(ep);
1276:/opt/XMClib/XMC_Peripheral_Library_v2.1.16/XMCLib/src/xmc_usbd.c ****     result= XMC_USBD_STATUS_OK;
1277:/opt/XMClib/XMC_Peripheral_Library_v2.1.16/XMCLib/src/xmc_usbd.c ****   }
1278:/opt/XMClib/XMC_Peripheral_Library_v2.1.16/XMCLib/src/xmc_usbd.c ****   return result;
 673              		.loc 1 1278 3 is_stmt 1 view .LVU245
1279:/opt/XMClib/XMC_Peripheral_Library_v2.1.16/XMCLib/src/xmc_usbd.c **** }
 674              		.loc 1 1279 1 is_stmt 0 view .LVU246
 675 0020 38BD     		pop	{r3, r4, r5, pc}
 676              	.LVL31:
 677              	.L59:
1265:/opt/XMClib/XMC_Peripheral_Library_v2.1.16/XMCLib/src/xmc_usbd.c ****     {
 678              		.loc 1 1265 5 is_stmt 1 view .LVU247
1270:/opt/XMClib/XMC_Peripheral_Library_v2.1.16/XMCLib/src/xmc_usbd.c ****     ep->xferCount = 0U;
 679              		.loc 1 1270 5 view .LVU248
1270:/opt/XMClib/XMC_Peripheral_Library_v2.1.16/XMCLib/src/xmc_usbd.c ****     ep->xferCount = 0U;
 680              		.loc 1 1270 19 is_stmt 0 view .LVU249
 681 0022 5869     		ldr	r0, [r3, #20]
1274:/opt/XMClib/XMC_Peripheral_Library_v2.1.16/XMCLib/src/xmc_usbd.c ****     XMC_USBD_lStartReadXfer(ep);
 682              		.loc 1 1274 27 view .LVU250
 683 0024 1C61     		str	r4, [r3, #16]
1270:/opt/XMClib/XMC_Peripheral_Library_v2.1.16/XMCLib/src/xmc_usbd.c ****     ep->xferCount = 0U;
 684              		.loc 1 1270 19 view .LVU251
 685 0026 8142     		cmp	r1, r0
 686 0028 28BF     		it	cs
 687 002a 0146     		movcs	r1, r0
 688              	.LVL32:
1255:/opt/XMClib/XMC_Peripheral_Library_v2.1.16/XMCLib/src/xmc_usbd.c ****   XMC_USBD_STATUS_t result;
 689              		.loc 1 1255 18 view .LVU252
 690 002c 02EB4200 		add	r0, r2, r2, lsl #1
1270:/opt/XMClib/XMC_Peripheral_Library_v2.1.16/XMCLib/src/xmc_usbd.c ****     ep->xferCount = 0U;
 691              		.loc 1 1270 19 view .LVU253
 692 0030 1963     		str	r1, [r3, #48]
1271:/opt/XMClib/XMC_Peripheral_Library_v2.1.16/XMCLib/src/xmc_usbd.c ****     ep->xferLength = 0U;
 693              		.loc 1 1271 5 is_stmt 1 view .LVU254
1272:/opt/XMClib/XMC_Peripheral_Library_v2.1.16/XMCLib/src/xmc_usbd.c ****     ep->xferBuffer = ep->outBuffer;
 694              		.loc 1 1272 5 view .LVU255
1273:/opt/XMClib/XMC_Peripheral_Library_v2.1.16/XMCLib/src/xmc_usbd.c ****     ep->outBytesAvailable = 0U;
 695              		.loc 1 1273 5 view .LVU256
1255:/opt/XMClib/XMC_Peripheral_Library_v2.1.16/XMCLib/src/xmc_usbd.c ****   XMC_USBD_STATUS_t result;
 696              		.loc 1 1255 18 is_stmt 0 view .LVU257
 697 0032 02EB8000 		add	r0, r2, r0, lsl #2
1273:/opt/XMClib/XMC_Peripheral_Library_v2.1.16/XMCLib/src/xmc_usbd.c ****     ep->outBytesAvailable = 0U;
 698              		.loc 1 1273 20 view .LVU258
 699 0036 D968     		ldr	r1, [r3, #12]
 700 0038 5962     		str	r1, [r3, #36]
1274:/opt/XMClib/XMC_Peripheral_Library_v2.1.16/XMCLib/src/xmc_usbd.c ****     XMC_USBD_lStartReadXfer(ep);
 701              		.loc 1 1274 5 is_stmt 1 view .LVU259
1275:/opt/XMClib/XMC_Peripheral_Library_v2.1.16/XMCLib/src/xmc_usbd.c ****     result= XMC_USBD_STATUS_OK;
 702              		.loc 1 1275 5 view .LVU260
 703 003a 05EB8000 		add	r0, r5, r0, lsl #2
1272:/opt/XMClib/XMC_Peripheral_Library_v2.1.16/XMCLib/src/xmc_usbd.c ****     ep->xferBuffer = ep->outBuffer;
 704              		.loc 1 1272 20 is_stmt 0 view .LVU261
 705 003e C3E90A44 		strd	r4, r4, [r3, #40]
1275:/opt/XMClib/XMC_Peripheral_Library_v2.1.16/XMCLib/src/xmc_usbd.c ****     result= XMC_USBD_STATUS_OK;
 706              		.loc 1 1275 5 view .LVU262
 707 0042 FFF7FEFF 		bl	XMC_USBD_lStartReadXfer
 708              	.LVL33:
1276:/opt/XMClib/XMC_Peripheral_Library_v2.1.16/XMCLib/src/xmc_usbd.c ****   }
 709              		.loc 1 1276 5 is_stmt 1 view .LVU263
1276:/opt/XMClib/XMC_Peripheral_Library_v2.1.16/XMCLib/src/xmc_usbd.c ****   }
 710              		.loc 1 1276 11 is_stmt 0 view .LVU264
 711 0046 2046     		mov	r0, r4
 712              	.LVL34:
1278:/opt/XMClib/XMC_Peripheral_Library_v2.1.16/XMCLib/src/xmc_usbd.c **** }
 713              		.loc 1 1278 3 is_stmt 1 view .LVU265
 714              		.loc 1 1279 1 is_stmt 0 view .LVU266
 715 0048 38BD     		pop	{r3, r4, r5, pc}
 716              	.L61:
 717 004a 00BF     		.align	2
 718              	.L60:
 719 004c 00000000 		.word	.LANCHOR0
 720              		.cfi_endproc
 721              	.LFE192:
 723              		.section	.text.XMC_USBD_DeviceSetAddress,"ax",%progbits
 724              		.align	1
 725              		.p2align 2,,3
 726              		.global	XMC_USBD_DeviceSetAddress
 727              		.syntax unified
 728              		.thumb
 729              		.thumb_func
 731              	XMC_USBD_DeviceSetAddress:
 732              	.LVL35:
 733              	.LFB195:
1280:/opt/XMClib/XMC_Peripheral_Library_v2.1.16/XMCLib/src/xmc_usbd.c **** 
1281:/opt/XMClib/XMC_Peripheral_Library_v2.1.16/XMCLib/src/xmc_usbd.c **** /**
1282:/opt/XMClib/XMC_Peripheral_Library_v2.1.16/XMCLib/src/xmc_usbd.c ****  * Reads the number of bytes from the USB OUT endpoint
1283:/opt/XMClib/XMC_Peripheral_Library_v2.1.16/XMCLib/src/xmc_usbd.c ****  **/
1284:/opt/XMClib/XMC_Peripheral_Library_v2.1.16/XMCLib/src/xmc_usbd.c **** int32_t XMC_USBD_EndpointRead(const uint8_t ep_num,uint8_t * buffer,uint32_t length) 
1285:/opt/XMClib/XMC_Peripheral_Library_v2.1.16/XMCLib/src/xmc_usbd.c **** {
1286:/opt/XMClib/XMC_Peripheral_Library_v2.1.16/XMCLib/src/xmc_usbd.c ****   XMC_USBD_EP_t *ep = &xmc_device.ep[ep_num];
1287:/opt/XMClib/XMC_Peripheral_Library_v2.1.16/XMCLib/src/xmc_usbd.c ****   if (length > ep->outBytesAvailable)
1288:/opt/XMClib/XMC_Peripheral_Library_v2.1.16/XMCLib/src/xmc_usbd.c ****   {
1289:/opt/XMClib/XMC_Peripheral_Library_v2.1.16/XMCLib/src/xmc_usbd.c ****     length = ep->outBytesAvailable;
1290:/opt/XMClib/XMC_Peripheral_Library_v2.1.16/XMCLib/src/xmc_usbd.c ****   }
1291:/opt/XMClib/XMC_Peripheral_Library_v2.1.16/XMCLib/src/xmc_usbd.c ****   memcpy(buffer,&ep->outBuffer[ep->outOffset],length);
1292:/opt/XMClib/XMC_Peripheral_Library_v2.1.16/XMCLib/src/xmc_usbd.c ****   ep->outBytesAvailable -= length;
1293:/opt/XMClib/XMC_Peripheral_Library_v2.1.16/XMCLib/src/xmc_usbd.c ****   if (ep->outBytesAvailable)
1294:/opt/XMClib/XMC_Peripheral_Library_v2.1.16/XMCLib/src/xmc_usbd.c ****   {
1295:/opt/XMClib/XMC_Peripheral_Library_v2.1.16/XMCLib/src/xmc_usbd.c ****     ep->outOffset += length;
1296:/opt/XMClib/XMC_Peripheral_Library_v2.1.16/XMCLib/src/xmc_usbd.c ****   }
1297:/opt/XMClib/XMC_Peripheral_Library_v2.1.16/XMCLib/src/xmc_usbd.c ****   else
1298:/opt/XMClib/XMC_Peripheral_Library_v2.1.16/XMCLib/src/xmc_usbd.c ****   {
1299:/opt/XMClib/XMC_Peripheral_Library_v2.1.16/XMCLib/src/xmc_usbd.c ****     ep->outOffset = 0U;
1300:/opt/XMClib/XMC_Peripheral_Library_v2.1.16/XMCLib/src/xmc_usbd.c ****   }
1301:/opt/XMClib/XMC_Peripheral_Library_v2.1.16/XMCLib/src/xmc_usbd.c ****   return (int32_t)length;
1302:/opt/XMClib/XMC_Peripheral_Library_v2.1.16/XMCLib/src/xmc_usbd.c **** }
1303:/opt/XMClib/XMC_Peripheral_Library_v2.1.16/XMCLib/src/xmc_usbd.c **** 
1304:/opt/XMClib/XMC_Peripheral_Library_v2.1.16/XMCLib/src/xmc_usbd.c **** /**
1305:/opt/XMClib/XMC_Peripheral_Library_v2.1.16/XMCLib/src/xmc_usbd.c ****  * Writes number of bytes in to the USB IN endpoint.
1306:/opt/XMClib/XMC_Peripheral_Library_v2.1.16/XMCLib/src/xmc_usbd.c ****  **/
1307:/opt/XMClib/XMC_Peripheral_Library_v2.1.16/XMCLib/src/xmc_usbd.c **** int32_t XMC_USBD_EndpointWrite(const uint8_t ep_num,const uint8_t * buffer,uint32_t length) 
1308:/opt/XMClib/XMC_Peripheral_Library_v2.1.16/XMCLib/src/xmc_usbd.c **** {
1309:/opt/XMClib/XMC_Peripheral_Library_v2.1.16/XMCLib/src/xmc_usbd.c ****   XMC_USBD_EP_t * ep = &xmc_device.ep[ep_num & (uint8_t)XMC_USBD_EP_NUM_MASK];
1310:/opt/XMClib/XMC_Peripheral_Library_v2.1.16/XMCLib/src/xmc_usbd.c ****   int32_t result;
1311:/opt/XMClib/XMC_Peripheral_Library_v2.1.16/XMCLib/src/xmc_usbd.c ****   if (!ep->isConfigured)
1312:/opt/XMClib/XMC_Peripheral_Library_v2.1.16/XMCLib/src/xmc_usbd.c ****   {
1313:/opt/XMClib/XMC_Peripheral_Library_v2.1.16/XMCLib/src/xmc_usbd.c ****     result = (int32_t)XMC_USBD_STATUS_ERROR;
1314:/opt/XMClib/XMC_Peripheral_Library_v2.1.16/XMCLib/src/xmc_usbd.c ****   }
1315:/opt/XMClib/XMC_Peripheral_Library_v2.1.16/XMCLib/src/xmc_usbd.c ****   else if (ep->inInUse == 1U)
1316:/opt/XMClib/XMC_Peripheral_Library_v2.1.16/XMCLib/src/xmc_usbd.c ****   {
1317:/opt/XMClib/XMC_Peripheral_Library_v2.1.16/XMCLib/src/xmc_usbd.c ****     result=(int32_t)0;
1318:/opt/XMClib/XMC_Peripheral_Library_v2.1.16/XMCLib/src/xmc_usbd.c ****   }
1319:/opt/XMClib/XMC_Peripheral_Library_v2.1.16/XMCLib/src/xmc_usbd.c ****   else
1320:/opt/XMClib/XMC_Peripheral_Library_v2.1.16/XMCLib/src/xmc_usbd.c ****   {
1321:/opt/XMClib/XMC_Peripheral_Library_v2.1.16/XMCLib/src/xmc_usbd.c ****     if (length > ep->inBufferSize)
1322:/opt/XMClib/XMC_Peripheral_Library_v2.1.16/XMCLib/src/xmc_usbd.c ****     {
1323:/opt/XMClib/XMC_Peripheral_Library_v2.1.16/XMCLib/src/xmc_usbd.c ****       length = ep->inBufferSize;
1324:/opt/XMClib/XMC_Peripheral_Library_v2.1.16/XMCLib/src/xmc_usbd.c ****     }
1325:/opt/XMClib/XMC_Peripheral_Library_v2.1.16/XMCLib/src/xmc_usbd.c ****     /* copy data into input buffer for DMA and FIFO mode */
1326:/opt/XMClib/XMC_Peripheral_Library_v2.1.16/XMCLib/src/xmc_usbd.c **** 		memcpy(ep->inBuffer,(const void *)buffer,length);
1327:/opt/XMClib/XMC_Peripheral_Library_v2.1.16/XMCLib/src/xmc_usbd.c **** 		ep->xferBuffer = ep->inBuffer;
1328:/opt/XMClib/XMC_Peripheral_Library_v2.1.16/XMCLib/src/xmc_usbd.c ****     ep->xferTotal = length;
1329:/opt/XMClib/XMC_Peripheral_Library_v2.1.16/XMCLib/src/xmc_usbd.c ****     /* set transfer values */
1330:/opt/XMClib/XMC_Peripheral_Library_v2.1.16/XMCLib/src/xmc_usbd.c ****     ep->xferLength = 0U;
1331:/opt/XMClib/XMC_Peripheral_Library_v2.1.16/XMCLib/src/xmc_usbd.c ****     ep->xferCount = 0U;
1332:/opt/XMClib/XMC_Peripheral_Library_v2.1.16/XMCLib/src/xmc_usbd.c ****     ep->inInUse = 1U;
1333:/opt/XMClib/XMC_Peripheral_Library_v2.1.16/XMCLib/src/xmc_usbd.c ****     /* start the transfer */
1334:/opt/XMClib/XMC_Peripheral_Library_v2.1.16/XMCLib/src/xmc_usbd.c ****     XMC_USBD_lStartWriteXfer(ep);
1335:/opt/XMClib/XMC_Peripheral_Library_v2.1.16/XMCLib/src/xmc_usbd.c ****     result=(int32_t)ep->xferTotal;
1336:/opt/XMClib/XMC_Peripheral_Library_v2.1.16/XMCLib/src/xmc_usbd.c ****   }
1337:/opt/XMClib/XMC_Peripheral_Library_v2.1.16/XMCLib/src/xmc_usbd.c ****   return result;
1338:/opt/XMClib/XMC_Peripheral_Library_v2.1.16/XMCLib/src/xmc_usbd.c **** }
1339:/opt/XMClib/XMC_Peripheral_Library_v2.1.16/XMCLib/src/xmc_usbd.c **** 
1340:/opt/XMClib/XMC_Peripheral_Library_v2.1.16/XMCLib/src/xmc_usbd.c **** /**
1341:/opt/XMClib/XMC_Peripheral_Library_v2.1.16/XMCLib/src/xmc_usbd.c ****  * Sets the USB device address.
1342:/opt/XMClib/XMC_Peripheral_Library_v2.1.16/XMCLib/src/xmc_usbd.c ****  **/
1343:/opt/XMClib/XMC_Peripheral_Library_v2.1.16/XMCLib/src/xmc_usbd.c **** XMC_USBD_STATUS_t XMC_USBD_DeviceSetAddress(const uint8_t address,const XMC_USBD_SET_ADDRESS_STAGE_
1344:/opt/XMClib/XMC_Peripheral_Library_v2.1.16/XMCLib/src/xmc_usbd.c **** {
 734              		.loc 1 1344 1 is_stmt 1 view -0
 735              		.cfi_startproc
 736              		@ args = 0, pretend = 0, frame = 0
 737              		@ frame_needed = 0, uses_anonymous_args = 0
 738              		@ link register save eliminated.
1345:/opt/XMClib/XMC_Peripheral_Library_v2.1.16/XMCLib/src/xmc_usbd.c ****   dcfg_data_t data;
 739              		.loc 1 1345 3 view .LVU268
1346:/opt/XMClib/XMC_Peripheral_Library_v2.1.16/XMCLib/src/xmc_usbd.c ****   data.d32 = xmc_device.device_register->dcfg;
 740              		.loc 1 1346 3 view .LVU269
 741              		.loc 1 1346 24 is_stmt 0 view .LVU270
 742 0000 044B     		ldr	r3, .L64
 743 0002 D3F8A431 		ldr	r3, [r3, #420]
 744              		.loc 1 1346 40 view .LVU271
 745 0006 1A68     		ldr	r2, [r3]
 746              	.LVL36:
1347:/opt/XMClib/XMC_Peripheral_Library_v2.1.16/XMCLib/src/xmc_usbd.c ****   if (stage == XMC_USBD_SET_ADDRESS_STAGE_SETUP)
 747              		.loc 1 1347 3 is_stmt 1 view .LVU272
 748              		.loc 1 1347 6 is_stmt 0 view .LVU273
 749 0008 11B9     		cbnz	r1, .L63
1348:/opt/XMClib/XMC_Peripheral_Library_v2.1.16/XMCLib/src/xmc_usbd.c ****   {
1349:/opt/XMClib/XMC_Peripheral_Library_v2.1.16/XMCLib/src/xmc_usbd.c ****     data.b.devaddr = address;
 750              		.loc 1 1349 5 is_stmt 1 view .LVU274
 751              		.loc 1 1349 20 is_stmt 0 view .LVU275
 752 000a 60F30A12 		bfi	r2, r0, #4, #7
1350:/opt/XMClib/XMC_Peripheral_Library_v2.1.16/XMCLib/src/xmc_usbd.c ****     xmc_device.device_register->dcfg = data.d32;
 753              		.loc 1 1350 5 is_stmt 1 view .LVU276
 754              		.loc 1 1350 38 is_stmt 0 view .LVU277
 755 000e 1A60     		str	r2, [r3]
 756              	.L63:
1351:/opt/XMClib/XMC_Peripheral_Library_v2.1.16/XMCLib/src/xmc_usbd.c ****   }
1352:/opt/XMClib/XMC_Peripheral_Library_v2.1.16/XMCLib/src/xmc_usbd.c **** 	return XMC_USBD_STATUS_OK;
 757              		.loc 1 1352 2 is_stmt 1 view .LVU278
1353:/opt/XMClib/XMC_Peripheral_Library_v2.1.16/XMCLib/src/xmc_usbd.c **** }
 758              		.loc 1 1353 1 is_stmt 0 view .LVU279
 759 0010 0020     		movs	r0, #0
 760              	.LVL37:
 761              		.loc 1 1353 1 view .LVU280
 762 0012 7047     		bx	lr
 763              	.L65:
 764              		.align	2
 765              	.L64:
 766 0014 00000000 		.word	.LANCHOR0
 767              		.cfi_endproc
 768              	.LFE195:
 770              		.section	.text.XMC_USBD_EndpointStall,"ax",%progbits
 771              		.align	1
 772              		.p2align 2,,3
 773              		.global	XMC_USBD_EndpointStall
 774              		.syntax unified
 775              		.thumb
 776              		.thumb_func
 778              	XMC_USBD_EndpointStall:
 779              	.LVL38:
 780              	.LFB196:
1354:/opt/XMClib/XMC_Peripheral_Library_v2.1.16/XMCLib/src/xmc_usbd.c **** 
1355:/opt/XMClib/XMC_Peripheral_Library_v2.1.16/XMCLib/src/xmc_usbd.c **** /**
1356:/opt/XMClib/XMC_Peripheral_Library_v2.1.16/XMCLib/src/xmc_usbd.c ****  * Set/clear stall on the selected endpoint.
1357:/opt/XMClib/XMC_Peripheral_Library_v2.1.16/XMCLib/src/xmc_usbd.c ****  **/
1358:/opt/XMClib/XMC_Peripheral_Library_v2.1.16/XMCLib/src/xmc_usbd.c **** XMC_USBD_STATUS_t XMC_USBD_EndpointStall(const uint8_t ep_addr, const bool stall) 
1359:/opt/XMClib/XMC_Peripheral_Library_v2.1.16/XMCLib/src/xmc_usbd.c **** {
 781              		.loc 1 1359 1 is_stmt 1 view -0
 782              		.cfi_startproc
 783              		@ args = 0, pretend = 0, frame = 0
 784              		@ frame_needed = 0, uses_anonymous_args = 0
 785              		@ link register save eliminated.
1360:/opt/XMClib/XMC_Peripheral_Library_v2.1.16/XMCLib/src/xmc_usbd.c ****   depctl_data_t data;
 786              		.loc 1 1360 3 view .LVU282
1361:/opt/XMClib/XMC_Peripheral_Library_v2.1.16/XMCLib/src/xmc_usbd.c ****   XMC_USBD_EP_t *ep = &xmc_device.ep[(ep_addr & (uint8_t)XMC_USBD_EP_NUM_MASK)];
 787              		.loc 1 1361 3 view .LVU283
 788              		.loc 1 1361 47 is_stmt 0 view .LVU284
 789 0000 00F00F0C 		and	ip, r0, #15
 790              	.LVL39:
1362:/opt/XMClib/XMC_Peripheral_Library_v2.1.16/XMCLib/src/xmc_usbd.c ****   if (stall)
 791              		.loc 1 1362 3 is_stmt 1 view .LVU285
1363:/opt/XMClib/XMC_Peripheral_Library_v2.1.16/XMCLib/src/xmc_usbd.c ****   {
1364:/opt/XMClib/XMC_Peripheral_Library_v2.1.16/XMCLib/src/xmc_usbd.c ****     if (ep_addr & (uint8_t)XMC_USBD_ENDPOINT_DIRECTION_MASK)
1365:/opt/XMClib/XMC_Peripheral_Library_v2.1.16/XMCLib/src/xmc_usbd.c ****     {
1366:/opt/XMClib/XMC_Peripheral_Library_v2.1.16/XMCLib/src/xmc_usbd.c ****       /*set stall bit */
1367:/opt/XMClib/XMC_Peripheral_Library_v2.1.16/XMCLib/src/xmc_usbd.c ****       data.d32 = xmc_device.endpoint_in_register[ep->address_u.address_st.number]->diepctl;
 792              		.loc 1 1367 74 is_stmt 0 view .LVU286
 793 0004 3422     		movs	r2, #52
 794              		.loc 1 1367 49 view .LVU287
 795 0006 1C4B     		ldr	r3, .L74
 796              		.loc 1 1367 74 view .LVU288
 797 0008 02FB0CF2 		mul	r2, r2, ip
 798 000c 9A5C     		ldrb	r2, [r3, r2]	@ zero_extendqisi2
 799 000e 02F00F02 		and	r2, r2, #15
1362:/opt/XMClib/XMC_Peripheral_Library_v2.1.16/XMCLib/src/xmc_usbd.c ****   if (stall)
 800              		.loc 1 1362 6 view .LVU289
 801 0012 A9B1     		cbz	r1, .L67
1364:/opt/XMClib/XMC_Peripheral_Library_v2.1.16/XMCLib/src/xmc_usbd.c ****     {
 802              		.loc 1 1364 5 is_stmt 1 view .LVU290
 803              		.loc 1 1367 7 view .LVU291
1368:/opt/XMClib/XMC_Peripheral_Library_v2.1.16/XMCLib/src/xmc_usbd.c ****       data.b.stall = 1U;
1369:/opt/XMClib/XMC_Peripheral_Library_v2.1.16/XMCLib/src/xmc_usbd.c ****       xmc_device.endpoint_in_register[ep->address_u.address_st.number]->diepctl = data.d32;
1370:/opt/XMClib/XMC_Peripheral_Library_v2.1.16/XMCLib/src/xmc_usbd.c ****     }
1371:/opt/XMClib/XMC_Peripheral_Library_v2.1.16/XMCLib/src/xmc_usbd.c ****     else
1372:/opt/XMClib/XMC_Peripheral_Library_v2.1.16/XMCLib/src/xmc_usbd.c ****     {
1373:/opt/XMClib/XMC_Peripheral_Library_v2.1.16/XMCLib/src/xmc_usbd.c ****       /*set stall bit */
1374:/opt/XMClib/XMC_Peripheral_Library_v2.1.16/XMCLib/src/xmc_usbd.c ****       data.d32 = xmc_device.endpoint_out_register[ep->address_u.address_st.number]->doepctl;
 804              		.loc 1 1374 7 view .LVU292
1364:/opt/XMClib/XMC_Peripheral_Library_v2.1.16/XMCLib/src/xmc_usbd.c ****     {
 805              		.loc 1 1364 8 is_stmt 0 view .LVU293
 806 0014 0006     		lsls	r0, r0, #24
 807              	.LVL40:
 808              		.loc 1 1374 50 view .LVU294
 809 0016 55BF     		itete	pl
 810 0018 03EB8202 		addpl	r2, r3, r2, lsl #2
1367:/opt/XMClib/XMC_Peripheral_Library_v2.1.16/XMCLib/src/xmc_usbd.c ****       data.b.stall = 1U;
 811              		.loc 1 1367 49 view .LVU295
 812 001c 6A32     		addmi	r2, r2, #106
 813              		.loc 1 1374 50 view .LVU296
 814 001e D2F8C411 		ldrpl	r1, [r2, #452]
 815              	.LVL41:
1367:/opt/XMClib/XMC_Peripheral_Library_v2.1.16/XMCLib/src/xmc_usbd.c ****       data.b.stall = 1U;
 816              		.loc 1 1367 49 view .LVU297
 817 0022 53F82210 		ldrmi	r1, [r3, r2, lsl #2]
 818              		.loc 1 1374 83 view .LVU298
 819 0026 0A68     		ldr	r2, [r1]
1375:/opt/XMClib/XMC_Peripheral_Library_v2.1.16/XMCLib/src/xmc_usbd.c ****       data.b.stall = 1U;
 820              		.loc 1 1375 7 is_stmt 1 view .LVU299
 821              		.loc 1 1375 20 is_stmt 0 view .LVU300
 822 0028 42F40012 		orr	r2, r2, #2097152
 823              	.LVL42:
1376:/opt/XMClib/XMC_Peripheral_Library_v2.1.16/XMCLib/src/xmc_usbd.c ****       xmc_device.endpoint_out_register[ep->address_u.address_st.number]->doepctl = data.d32;
 824              		.loc 1 1376 7 is_stmt 1 view .LVU301
1377:/opt/XMClib/XMC_Peripheral_Library_v2.1.16/XMCLib/src/xmc_usbd.c ****     }
1378:/opt/XMClib/XMC_Peripheral_Library_v2.1.16/XMCLib/src/xmc_usbd.c ****     ep->isStalled = 1U;
 825              		.loc 1 1378 5 view .LVU302
1376:/opt/XMClib/XMC_Peripheral_Library_v2.1.16/XMCLib/src/xmc_usbd.c ****       xmc_device.endpoint_out_register[ep->address_u.address_st.number]->doepctl = data.d32;
 826              		.loc 1 1376 82 is_stmt 0 view .LVU303
 827 002c 0A60     		str	r2, [r1]
 828              		.loc 1 1378 19 view .LVU304
 829 002e 3422     		movs	r2, #52
 830              	.LVL43:
 831              		.loc 1 1378 19 view .LVU305
 832 0030 02FB0C33 		mla	r3, r2, ip, r3
1379:/opt/XMClib/XMC_Peripheral_Library_v2.1.16/XMCLib/src/xmc_usbd.c ****   }
1380:/opt/XMClib/XMC_Peripheral_Library_v2.1.16/XMCLib/src/xmc_usbd.c ****   else
1381:/opt/XMClib/XMC_Peripheral_Library_v2.1.16/XMCLib/src/xmc_usbd.c ****   {
1382:/opt/XMClib/XMC_Peripheral_Library_v2.1.16/XMCLib/src/xmc_usbd.c ****     /* just clear stall bit */
1383:/opt/XMClib/XMC_Peripheral_Library_v2.1.16/XMCLib/src/xmc_usbd.c **** 		if (ep_addr & (uint8_t)XMC_USBD_ENDPOINT_DIRECTION_MASK)
1384:/opt/XMClib/XMC_Peripheral_Library_v2.1.16/XMCLib/src/xmc_usbd.c **** 		{
1385:/opt/XMClib/XMC_Peripheral_Library_v2.1.16/XMCLib/src/xmc_usbd.c **** 			data.d32 = xmc_device.endpoint_in_register[ep->address_u.address_st.number]->diepctl;
1386:/opt/XMClib/XMC_Peripheral_Library_v2.1.16/XMCLib/src/xmc_usbd.c **** 			data.b.stall = 0U;
1387:/opt/XMClib/XMC_Peripheral_Library_v2.1.16/XMCLib/src/xmc_usbd.c **** 			data.b.setd0pid = 1U; /* reset pid to 0 */
1388:/opt/XMClib/XMC_Peripheral_Library_v2.1.16/XMCLib/src/xmc_usbd.c **** 			xmc_device.endpoint_in_register[ep->address_u.address_st.number]->diepctl = data.d32;
1389:/opt/XMClib/XMC_Peripheral_Library_v2.1.16/XMCLib/src/xmc_usbd.c **** 		}
1390:/opt/XMClib/XMC_Peripheral_Library_v2.1.16/XMCLib/src/xmc_usbd.c **** 		else
1391:/opt/XMClib/XMC_Peripheral_Library_v2.1.16/XMCLib/src/xmc_usbd.c **** 		{
1392:/opt/XMClib/XMC_Peripheral_Library_v2.1.16/XMCLib/src/xmc_usbd.c **** 			data.d32 = xmc_device.endpoint_out_register[ep->address_u.address_st.number]->doepctl;
1393:/opt/XMClib/XMC_Peripheral_Library_v2.1.16/XMCLib/src/xmc_usbd.c **** 			data.b.stall = 0U;
1394:/opt/XMClib/XMC_Peripheral_Library_v2.1.16/XMCLib/src/xmc_usbd.c **** 			data.b.setd0pid = 1U; /* reset pid to 0 */
1395:/opt/XMClib/XMC_Peripheral_Library_v2.1.16/XMCLib/src/xmc_usbd.c **** 			xmc_device.endpoint_out_register[ep->address_u.address_st.number]->doepctl = data.d32;
1396:/opt/XMClib/XMC_Peripheral_Library_v2.1.16/XMCLib/src/xmc_usbd.c **** 		}
1397:/opt/XMClib/XMC_Peripheral_Library_v2.1.16/XMCLib/src/xmc_usbd.c **** 		ep->isStalled = 0U;
1398:/opt/XMClib/XMC_Peripheral_Library_v2.1.16/XMCLib/src/xmc_usbd.c **** 	}
1399:/opt/XMClib/XMC_Peripheral_Library_v2.1.16/XMCLib/src/xmc_usbd.c **** 	return XMC_USBD_STATUS_OK;
1400:/opt/XMClib/XMC_Peripheral_Library_v2.1.16/XMCLib/src/xmc_usbd.c **** }
 833              		.loc 1 1400 1 view .LVU306
 834 0034 0020     		movs	r0, #0
1378:/opt/XMClib/XMC_Peripheral_Library_v2.1.16/XMCLib/src/xmc_usbd.c ****   }
 835              		.loc 1 1378 19 view .LVU307
 836 0036 1A79     		ldrb	r2, [r3, #4]	@ zero_extendqisi2
 837 0038 42F02002 		orr	r2, r2, #32
 838 003c 1A71     		strb	r2, [r3, #4]
1399:/opt/XMClib/XMC_Peripheral_Library_v2.1.16/XMCLib/src/xmc_usbd.c **** }
 839              		.loc 1 1399 2 is_stmt 1 view .LVU308
 840              		.loc 1 1400 1 is_stmt 0 view .LVU309
 841 003e 7047     		bx	lr
 842              	.LVL44:
 843              	.L67:
1383:/opt/XMClib/XMC_Peripheral_Library_v2.1.16/XMCLib/src/xmc_usbd.c **** 		{
 844              		.loc 1 1383 3 is_stmt 1 view .LVU310
1385:/opt/XMClib/XMC_Peripheral_Library_v2.1.16/XMCLib/src/xmc_usbd.c **** 			data.b.stall = 0U;
 845              		.loc 1 1385 4 view .LVU311
1392:/opt/XMClib/XMC_Peripheral_Library_v2.1.16/XMCLib/src/xmc_usbd.c **** 			data.b.stall = 0U;
 846              		.loc 1 1392 4 view .LVU312
1383:/opt/XMClib/XMC_Peripheral_Library_v2.1.16/XMCLib/src/xmc_usbd.c **** 		{
 847              		.loc 1 1383 6 is_stmt 0 view .LVU313
 848 0040 0106     		lsls	r1, r0, #24
 849              	.LVL45:
1392:/opt/XMClib/XMC_Peripheral_Library_v2.1.16/XMCLib/src/xmc_usbd.c **** 			data.b.stall = 0U;
 850              		.loc 1 1392 47 view .LVU314
 851 0042 55BF     		itete	pl
 852 0044 03EB8202 		addpl	r2, r3, r2, lsl #2
1385:/opt/XMClib/XMC_Peripheral_Library_v2.1.16/XMCLib/src/xmc_usbd.c **** 			data.b.stall = 0U;
 853              		.loc 1 1385 46 view .LVU315
 854 0048 6A32     		addmi	r2, r2, #106
1392:/opt/XMClib/XMC_Peripheral_Library_v2.1.16/XMCLib/src/xmc_usbd.c **** 			data.b.stall = 0U;
 855              		.loc 1 1392 47 view .LVU316
 856 004a D2F8C401 		ldrpl	r0, [r2, #452]
 857              	.LVL46:
1385:/opt/XMClib/XMC_Peripheral_Library_v2.1.16/XMCLib/src/xmc_usbd.c **** 			data.b.stall = 0U;
 858              		.loc 1 1385 46 view .LVU317
 859 004e 53F82200 		ldrmi	r0, [r3, r2, lsl #2]
1392:/opt/XMClib/XMC_Peripheral_Library_v2.1.16/XMCLib/src/xmc_usbd.c **** 			data.b.stall = 0U;
 860              		.loc 1 1392 80 view .LVU318
 861 0052 0268     		ldr	r2, [r0]
1393:/opt/XMClib/XMC_Peripheral_Library_v2.1.16/XMCLib/src/xmc_usbd.c **** 			data.b.setd0pid = 1U; /* reset pid to 0 */
 862              		.loc 1 1393 4 is_stmt 1 view .LVU319
1394:/opt/XMClib/XMC_Peripheral_Library_v2.1.16/XMCLib/src/xmc_usbd.c **** 			xmc_device.endpoint_out_register[ep->address_u.address_st.number]->doepctl = data.d32;
 863              		.loc 1 1394 4 view .LVU320
 864              	.LVL47:
1393:/opt/XMClib/XMC_Peripheral_Library_v2.1.16/XMCLib/src/xmc_usbd.c **** 			data.b.setd0pid = 1U; /* reset pid to 0 */
 865              		.loc 1 1393 17 is_stmt 0 view .LVU321
 866 0054 C2F30F41 		ubfx	r1, r2, #16, #16
 867 0058 21F48151 		bic	r1, r1, #4128
 868 005c 41F48051 		orr	r1, r1, #4096
 869 0060 61F31F42 		bfi	r2, r1, #16, #16
1395:/opt/XMClib/XMC_Peripheral_Library_v2.1.16/XMCLib/src/xmc_usbd.c **** 		}
 870              		.loc 1 1395 4 is_stmt 1 view .LVU322
1397:/opt/XMClib/XMC_Peripheral_Library_v2.1.16/XMCLib/src/xmc_usbd.c **** 	}
 871              		.loc 1 1397 3 view .LVU323
1395:/opt/XMClib/XMC_Peripheral_Library_v2.1.16/XMCLib/src/xmc_usbd.c **** 		}
 872              		.loc 1 1395 79 is_stmt 0 view .LVU324
 873 0064 0260     		str	r2, [r0]
1397:/opt/XMClib/XMC_Peripheral_Library_v2.1.16/XMCLib/src/xmc_usbd.c **** 	}
 874              		.loc 1 1397 17 view .LVU325
 875 0066 3422     		movs	r2, #52
 876              	.LVL48:
1397:/opt/XMClib/XMC_Peripheral_Library_v2.1.16/XMCLib/src/xmc_usbd.c **** 	}
 877              		.loc 1 1397 17 view .LVU326
 878 0068 02FB0C33 		mla	r3, r2, ip, r3
 879              		.loc 1 1400 1 view .LVU327
 880 006c 0020     		movs	r0, #0
1397:/opt/XMClib/XMC_Peripheral_Library_v2.1.16/XMCLib/src/xmc_usbd.c **** 	}
 881              		.loc 1 1397 17 view .LVU328
 882 006e 1A79     		ldrb	r2, [r3, #4]	@ zero_extendqisi2
 883 0070 6FF34512 		bfc	r2, #5, #1
 884 0074 1A71     		strb	r2, [r3, #4]
1399:/opt/XMClib/XMC_Peripheral_Library_v2.1.16/XMCLib/src/xmc_usbd.c **** }
 885              		.loc 1 1399 2 is_stmt 1 view .LVU329
 886              		.loc 1 1400 1 is_stmt 0 view .LVU330
 887 0076 7047     		bx	lr
 888              	.L75:
 889              		.align	2
 890              	.L74:
 891 0078 00000000 		.word	.LANCHOR0
 892              		.cfi_endproc
 893              	.LFE196:
 895              		.section	.text.XMC_USBD_EndpointAbort,"ax",%progbits
 896              		.align	1
 897              		.p2align 2,,3
 898              		.global	XMC_USBD_EndpointAbort
 899              		.syntax unified
 900              		.thumb
 901              		.thumb_func
 903              	XMC_USBD_EndpointAbort:
 904              	.LVL49:
 905              	.LFB197:
1401:/opt/XMClib/XMC_Peripheral_Library_v2.1.16/XMCLib/src/xmc_usbd.c **** 
1402:/opt/XMClib/XMC_Peripheral_Library_v2.1.16/XMCLib/src/xmc_usbd.c **** /**
1403:/opt/XMClib/XMC_Peripheral_Library_v2.1.16/XMCLib/src/xmc_usbd.c ****  * Aborts the data transfer on the selected endpoint
1404:/opt/XMClib/XMC_Peripheral_Library_v2.1.16/XMCLib/src/xmc_usbd.c ****  **/
1405:/opt/XMClib/XMC_Peripheral_Library_v2.1.16/XMCLib/src/xmc_usbd.c **** XMC_USBD_STATUS_t XMC_USBD_EndpointAbort(const uint8_t ep_addr) {
 906              		.loc 1 1405 65 is_stmt 1 view -0
 907              		.cfi_startproc
 908              		@ args = 0, pretend = 0, frame = 0
 909              		@ frame_needed = 0, uses_anonymous_args = 0
 910              		@ link register save eliminated.
1406:/opt/XMClib/XMC_Peripheral_Library_v2.1.16/XMCLib/src/xmc_usbd.c ****   XMC_USBD_EP_t *ep = &xmc_device.ep[ep_addr & (uint8_t)XMC_USBD_ENDPOINT_NUMBER_MASK];
 911              		.loc 1 1406 3 view .LVU332
 912              		.loc 1 1406 46 is_stmt 0 view .LVU333
 913 0000 00F00F00 		and	r0, r0, #15
 914              	.LVL50:
1407:/opt/XMClib/XMC_Peripheral_Library_v2.1.16/XMCLib/src/xmc_usbd.c ****   if (ep->address_u.address_st.direction)
 915              		.loc 1 1407 3 is_stmt 1 view .LVU334
 916              		.loc 1 1407 7 is_stmt 0 view .LVU335
 917 0004 3422     		movs	r2, #52
 918 0006 0D4B     		ldr	r3, .L80
 919 0008 00FB02F2 		mul	r2, r0, r2
 920 000c 9918     		adds	r1, r3, r2
 921              		.loc 1 1407 6 view .LVU336
 922 000e 9A56     		ldrsb	r2, [r3, r2]
 923 0010 002A     		cmp	r2, #0
1408:/opt/XMClib/XMC_Peripheral_Library_v2.1.16/XMCLib/src/xmc_usbd.c ****   {
1409:/opt/XMClib/XMC_Peripheral_Library_v2.1.16/XMCLib/src/xmc_usbd.c ****     ep->inInUse = 0U;
 924              		.loc 1 1409 17 view .LVU337
 925 0012 4A68     		ldr	r2, [r1, #4]
 926              		.loc 1 1409 5 is_stmt 1 view .LVU338
 927              		.loc 1 1409 17 is_stmt 0 view .LVU339
 928 0014 B4BF     		ite	lt
 929 0016 6FF3C302 		bfclt	r2, #3, #1
1410:/opt/XMClib/XMC_Peripheral_Library_v2.1.16/XMCLib/src/xmc_usbd.c ****   }
1411:/opt/XMClib/XMC_Peripheral_Library_v2.1.16/XMCLib/src/xmc_usbd.c ****   if (!ep->address_u.address_st.direction)
 930              		.loc 1 1411 3 is_stmt 1 view .LVU340
1412:/opt/XMClib/XMC_Peripheral_Library_v2.1.16/XMCLib/src/xmc_usbd.c ****   {
1413:/opt/XMClib/XMC_Peripheral_Library_v2.1.16/XMCLib/src/xmc_usbd.c ****     ep->outInUse = 0U;
 931              		.loc 1 1413 5 view .LVU341
1414:/opt/XMClib/XMC_Peripheral_Library_v2.1.16/XMCLib/src/xmc_usbd.c ****   }
1415:/opt/XMClib/XMC_Peripheral_Library_v2.1.16/XMCLib/src/xmc_usbd.c ****   ep->isStalled = 0U;
 932              		.loc 1 1415 3 view .LVU342
1413:/opt/XMClib/XMC_Peripheral_Library_v2.1.16/XMCLib/src/xmc_usbd.c ****   }
 933              		.loc 1 1413 18 is_stmt 0 view .LVU343
 934 001a 6FF30412 		bfcge	r2, #4, #1
 935 001e 4A60     		str	r2, [r1, #4]
 936              		.loc 1 1415 17 view .LVU344
 937 0020 3422     		movs	r2, #52
 938 0022 02FB0033 		mla	r3, r2, r0, r3
1416:/opt/XMClib/XMC_Peripheral_Library_v2.1.16/XMCLib/src/xmc_usbd.c ****   ep->outBytesAvailable = 0U;
 939              		.loc 1 1416 25 view .LVU345
 940 0026 0020     		movs	r0, #0
 941              	.LVL51:
1415:/opt/XMClib/XMC_Peripheral_Library_v2.1.16/XMCLib/src/xmc_usbd.c ****   ep->outBytesAvailable = 0U;
 942              		.loc 1 1415 17 view .LVU346
 943 0028 1A79     		ldrb	r2, [r3, #4]	@ zero_extendqisi2
 944              		.loc 1 1416 25 view .LVU347
 945 002a 1861     		str	r0, [r3, #16]
1415:/opt/XMClib/XMC_Peripheral_Library_v2.1.16/XMCLib/src/xmc_usbd.c ****   ep->outBytesAvailable = 0U;
 946              		.loc 1 1415 17 view .LVU348
 947 002c 6FF34512 		bfc	r2, #5, #1
1417:/opt/XMClib/XMC_Peripheral_Library_v2.1.16/XMCLib/src/xmc_usbd.c ****   ep->outOffset = 0U;
1418:/opt/XMClib/XMC_Peripheral_Library_v2.1.16/XMCLib/src/xmc_usbd.c ****   ep->xferLength = 0U;
1419:/opt/XMClib/XMC_Peripheral_Library_v2.1.16/XMCLib/src/xmc_usbd.c ****   ep->xferCount = 0U;
 948              		.loc 1 1419 17 view .LVU349
 949 0030 C3E90A00 		strd	r0, r0, [r3, #40]
1415:/opt/XMClib/XMC_Peripheral_Library_v2.1.16/XMCLib/src/xmc_usbd.c ****   ep->outBytesAvailable = 0U;
 950              		.loc 1 1415 17 view .LVU350
 951 0034 1A71     		strb	r2, [r3, #4]
1416:/opt/XMClib/XMC_Peripheral_Library_v2.1.16/XMCLib/src/xmc_usbd.c ****   ep->outOffset = 0U;
 952              		.loc 1 1416 3 is_stmt 1 view .LVU351
1417:/opt/XMClib/XMC_Peripheral_Library_v2.1.16/XMCLib/src/xmc_usbd.c ****   ep->outOffset = 0U;
 953              		.loc 1 1417 3 view .LVU352
1417:/opt/XMClib/XMC_Peripheral_Library_v2.1.16/XMCLib/src/xmc_usbd.c ****   ep->outOffset = 0U;
 954              		.loc 1 1417 17 is_stmt 0 view .LVU353
 955 0036 9861     		str	r0, [r3, #24]
1418:/opt/XMClib/XMC_Peripheral_Library_v2.1.16/XMCLib/src/xmc_usbd.c ****   ep->xferCount = 0U;
 956              		.loc 1 1418 3 is_stmt 1 view .LVU354
1420:/opt/XMClib/XMC_Peripheral_Library_v2.1.16/XMCLib/src/xmc_usbd.c ****   ep->xferTotal = 0U;
 957              		.loc 1 1420 3 view .LVU355
 958              		.loc 1 1420 17 is_stmt 0 view .LVU356
 959 0038 1863     		str	r0, [r3, #48]
1421:/opt/XMClib/XMC_Peripheral_Library_v2.1.16/XMCLib/src/xmc_usbd.c **** 
1422:/opt/XMClib/XMC_Peripheral_Library_v2.1.16/XMCLib/src/xmc_usbd.c ****   return XMC_USBD_STATUS_OK;
 960              		.loc 1 1422 3 is_stmt 1 view .LVU357
1423:/opt/XMClib/XMC_Peripheral_Library_v2.1.16/XMCLib/src/xmc_usbd.c **** }
 961              		.loc 1 1423 1 is_stmt 0 view .LVU358
 962 003a 7047     		bx	lr
 963              	.L81:
 964              		.align	2
 965              	.L80:
 966 003c 00000000 		.word	.LANCHOR0
 967              		.cfi_endproc
 968              	.LFE197:
 970              		.section	.text.XMC_USBD_EndpointUnconfigure,"ax",%progbits
 971              		.align	1
 972              		.p2align 2,,3
 973              		.global	XMC_USBD_EndpointUnconfigure
 974              		.syntax unified
 975              		.thumb
 976              		.thumb_func
 978              	XMC_USBD_EndpointUnconfigure:
 979              	.LVL52:
 980              	.LFB199:
1424:/opt/XMClib/XMC_Peripheral_Library_v2.1.16/XMCLib/src/xmc_usbd.c **** 
1425:/opt/XMClib/XMC_Peripheral_Library_v2.1.16/XMCLib/src/xmc_usbd.c **** /**
1426:/opt/XMClib/XMC_Peripheral_Library_v2.1.16/XMCLib/src/xmc_usbd.c ****  * Configures the given endpoint
1427:/opt/XMClib/XMC_Peripheral_Library_v2.1.16/XMCLib/src/xmc_usbd.c ****  **/
1428:/opt/XMClib/XMC_Peripheral_Library_v2.1.16/XMCLib/src/xmc_usbd.c **** XMC_USBD_STATUS_t XMC_USBD_EndpointConfigure(const uint8_t ep_addr,
1429:/opt/XMClib/XMC_Peripheral_Library_v2.1.16/XMCLib/src/xmc_usbd.c **** 		                                     const XMC_USBD_ENDPOINT_TYPE_t ep_type,
1430:/opt/XMClib/XMC_Peripheral_Library_v2.1.16/XMCLib/src/xmc_usbd.c **** 		                                     const uint16_t ep_max_packet_size) 
1431:/opt/XMClib/XMC_Peripheral_Library_v2.1.16/XMCLib/src/xmc_usbd.c **** {
1432:/opt/XMClib/XMC_Peripheral_Library_v2.1.16/XMCLib/src/xmc_usbd.c ****   daint_data_t daintmsk;
1433:/opt/XMClib/XMC_Peripheral_Library_v2.1.16/XMCLib/src/xmc_usbd.c ****   XMC_USBD_EP_t *ep;
1434:/opt/XMClib/XMC_Peripheral_Library_v2.1.16/XMCLib/src/xmc_usbd.c ****   daintmsk.d32 = xmc_device.device_register->daintmsk;  
1435:/opt/XMClib/XMC_Peripheral_Library_v2.1.16/XMCLib/src/xmc_usbd.c ****   ep =&xmc_device.ep[ep_addr & (uint32_t)XMC_USBD_ENDPOINT_NUMBER_MASK];
1436:/opt/XMClib/XMC_Peripheral_Library_v2.1.16/XMCLib/src/xmc_usbd.c ****   memset((void*)ep,0x0U,sizeof(XMC_USBD_EP_t)); /* clear endpoint structure */
1437:/opt/XMClib/XMC_Peripheral_Library_v2.1.16/XMCLib/src/xmc_usbd.c ****   /* do ep configuration */
1438:/opt/XMClib/XMC_Peripheral_Library_v2.1.16/XMCLib/src/xmc_usbd.c ****   ep->address_u.address = ep_addr;
1439:/opt/XMClib/XMC_Peripheral_Library_v2.1.16/XMCLib/src/xmc_usbd.c ****   ep->isConfigured = 1U;
1440:/opt/XMClib/XMC_Peripheral_Library_v2.1.16/XMCLib/src/xmc_usbd.c ****   ep->maxPacketSize = (uint8_t)ep_max_packet_size;
1441:/opt/XMClib/XMC_Peripheral_Library_v2.1.16/XMCLib/src/xmc_usbd.c ****   if (ep->address_u.address != 0U)
1442:/opt/XMClib/XMC_Peripheral_Library_v2.1.16/XMCLib/src/xmc_usbd.c ****   {
1443:/opt/XMClib/XMC_Peripheral_Library_v2.1.16/XMCLib/src/xmc_usbd.c ****     ep->maxTransferSize = (uint32_t)XMC_USBD_MAX_TRANSFER_SIZE;
1444:/opt/XMClib/XMC_Peripheral_Library_v2.1.16/XMCLib/src/xmc_usbd.c ****   }
1445:/opt/XMClib/XMC_Peripheral_Library_v2.1.16/XMCLib/src/xmc_usbd.c ****   else
1446:/opt/XMClib/XMC_Peripheral_Library_v2.1.16/XMCLib/src/xmc_usbd.c ****   {
1447:/opt/XMClib/XMC_Peripheral_Library_v2.1.16/XMCLib/src/xmc_usbd.c ****     ep->maxTransferSize = (uint32_t)XMC_USBD_MAX_TRANSFER_SIZE_EP0;
1448:/opt/XMClib/XMC_Peripheral_Library_v2.1.16/XMCLib/src/xmc_usbd.c ****   }
1449:/opt/XMClib/XMC_Peripheral_Library_v2.1.16/XMCLib/src/xmc_usbd.c ****   /* transfer buffer */
1450:/opt/XMClib/XMC_Peripheral_Library_v2.1.16/XMCLib/src/xmc_usbd.c ****   ep->inBuffer = XMC_USBD_EP_IN_BUFFER[ep->address_u.address_st.number];
1451:/opt/XMClib/XMC_Peripheral_Library_v2.1.16/XMCLib/src/xmc_usbd.c ****   ep->outBuffer = XMC_USBD_EP_OUT_BUFFER[ep->address_u.address_st.number];
1452:/opt/XMClib/XMC_Peripheral_Library_v2.1.16/XMCLib/src/xmc_usbd.c ****   /* buffer size*/
1453:/opt/XMClib/XMC_Peripheral_Library_v2.1.16/XMCLib/src/xmc_usbd.c ****   ep->inBufferSize = XMC_USBD_EP_IN_BUFFERSIZE[ep->address_u.address_st.number];
1454:/opt/XMClib/XMC_Peripheral_Library_v2.1.16/XMCLib/src/xmc_usbd.c ****   ep->outBufferSize = XMC_USBD_EP_OUT_BUFFERSIZE[ep->address_u.address_st.number];
1455:/opt/XMClib/XMC_Peripheral_Library_v2.1.16/XMCLib/src/xmc_usbd.c ****   /* is in */
1456:/opt/XMClib/XMC_Peripheral_Library_v2.1.16/XMCLib/src/xmc_usbd.c ****   if ((ep->address_u.address_st.direction == 1U) || (ep_type == XMC_USBD_ENDPOINT_TYPE_CONTROL))
1457:/opt/XMClib/XMC_Peripheral_Library_v2.1.16/XMCLib/src/xmc_usbd.c ****   {
1458:/opt/XMClib/XMC_Peripheral_Library_v2.1.16/XMCLib/src/xmc_usbd.c ****     depctl_data_t data;
1459:/opt/XMClib/XMC_Peripheral_Library_v2.1.16/XMCLib/src/xmc_usbd.c ****     data.d32 = xmc_device.endpoint_in_register[ep->address_u.address_st.number]->diepctl;
1460:/opt/XMClib/XMC_Peripheral_Library_v2.1.16/XMCLib/src/xmc_usbd.c **** 		/*enable endpoint */
1461:/opt/XMClib/XMC_Peripheral_Library_v2.1.16/XMCLib/src/xmc_usbd.c **** 		data.b.usbactep = 1U;
1462:/opt/XMClib/XMC_Peripheral_Library_v2.1.16/XMCLib/src/xmc_usbd.c **** 		/* set ep type */
1463:/opt/XMClib/XMC_Peripheral_Library_v2.1.16/XMCLib/src/xmc_usbd.c **** 		data.b.eptype = (uint8_t)ep_type;
1464:/opt/XMClib/XMC_Peripheral_Library_v2.1.16/XMCLib/src/xmc_usbd.c **** 		/* set mps */
1465:/opt/XMClib/XMC_Peripheral_Library_v2.1.16/XMCLib/src/xmc_usbd.c ****     if (ep_type == XMC_USBD_ENDPOINT_TYPE_CONTROL)
1466:/opt/XMClib/XMC_Peripheral_Library_v2.1.16/XMCLib/src/xmc_usbd.c ****     {
1467:/opt/XMClib/XMC_Peripheral_Library_v2.1.16/XMCLib/src/xmc_usbd.c **** 			switch(ep_max_packet_size)
1468:/opt/XMClib/XMC_Peripheral_Library_v2.1.16/XMCLib/src/xmc_usbd.c **** 			{
1469:/opt/XMClib/XMC_Peripheral_Library_v2.1.16/XMCLib/src/xmc_usbd.c **** 				case (64U):
1470:/opt/XMClib/XMC_Peripheral_Library_v2.1.16/XMCLib/src/xmc_usbd.c **** 				data.b.mps = 0x0U;
1471:/opt/XMClib/XMC_Peripheral_Library_v2.1.16/XMCLib/src/xmc_usbd.c **** 				break;
1472:/opt/XMClib/XMC_Peripheral_Library_v2.1.16/XMCLib/src/xmc_usbd.c **** 				case (32U):
1473:/opt/XMClib/XMC_Peripheral_Library_v2.1.16/XMCLib/src/xmc_usbd.c **** 				data.b.mps = 0x1U;
1474:/opt/XMClib/XMC_Peripheral_Library_v2.1.16/XMCLib/src/xmc_usbd.c **** 				break;
1475:/opt/XMClib/XMC_Peripheral_Library_v2.1.16/XMCLib/src/xmc_usbd.c **** 				case (16U):
1476:/opt/XMClib/XMC_Peripheral_Library_v2.1.16/XMCLib/src/xmc_usbd.c **** 				data.b.mps = 0x2U;
1477:/opt/XMClib/XMC_Peripheral_Library_v2.1.16/XMCLib/src/xmc_usbd.c **** 				break;
1478:/opt/XMClib/XMC_Peripheral_Library_v2.1.16/XMCLib/src/xmc_usbd.c **** 				case (8U):
1479:/opt/XMClib/XMC_Peripheral_Library_v2.1.16/XMCLib/src/xmc_usbd.c **** 				data.b.mps = 0x3U;
1480:/opt/XMClib/XMC_Peripheral_Library_v2.1.16/XMCLib/src/xmc_usbd.c **** 				break;
1481:/opt/XMClib/XMC_Peripheral_Library_v2.1.16/XMCLib/src/xmc_usbd.c **** 				default:
1482:/opt/XMClib/XMC_Peripheral_Library_v2.1.16/XMCLib/src/xmc_usbd.c **** 				break;
1483:/opt/XMClib/XMC_Peripheral_Library_v2.1.16/XMCLib/src/xmc_usbd.c **** 			}
1484:/opt/XMClib/XMC_Peripheral_Library_v2.1.16/XMCLib/src/xmc_usbd.c **** 		}
1485:/opt/XMClib/XMC_Peripheral_Library_v2.1.16/XMCLib/src/xmc_usbd.c **** 		else
1486:/opt/XMClib/XMC_Peripheral_Library_v2.1.16/XMCLib/src/xmc_usbd.c **** 		{
1487:/opt/XMClib/XMC_Peripheral_Library_v2.1.16/XMCLib/src/xmc_usbd.c **** 			data.b.mps = ep_max_packet_size;
1488:/opt/XMClib/XMC_Peripheral_Library_v2.1.16/XMCLib/src/xmc_usbd.c **** 		}
1489:/opt/XMClib/XMC_Peripheral_Library_v2.1.16/XMCLib/src/xmc_usbd.c **** 		/* set first data0 pid */
1490:/opt/XMClib/XMC_Peripheral_Library_v2.1.16/XMCLib/src/xmc_usbd.c **** 		data.b.setd0pid = 1U;
1491:/opt/XMClib/XMC_Peripheral_Library_v2.1.16/XMCLib/src/xmc_usbd.c **** 		/* clear stall */
1492:/opt/XMClib/XMC_Peripheral_Library_v2.1.16/XMCLib/src/xmc_usbd.c **** 		data.b.stall = 0U;
1493:/opt/XMClib/XMC_Peripheral_Library_v2.1.16/XMCLib/src/xmc_usbd.c **** 		/* set tx fifo */
1494:/opt/XMClib/XMC_Peripheral_Library_v2.1.16/XMCLib/src/xmc_usbd.c **** 		ep->txFifoNum = XMC_USBD_lAssignTXFifo(); /* get tx fifo */
1495:/opt/XMClib/XMC_Peripheral_Library_v2.1.16/XMCLib/src/xmc_usbd.c **** 		data.b.txfnum = ep->txFifoNum;
1496:/opt/XMClib/XMC_Peripheral_Library_v2.1.16/XMCLib/src/xmc_usbd.c **** 		xmc_device.endpoint_in_register[ep->address_u.address_st.number]->diepctl = data.d32; /* configur
1497:/opt/XMClib/XMC_Peripheral_Library_v2.1.16/XMCLib/src/xmc_usbd.c **** 		daintmsk.ep.in |= (uint16_t)((uint16_t)1U << (uint8_t)ep->address_u.address_st.number); /* enable
1498:/opt/XMClib/XMC_Peripheral_Library_v2.1.16/XMCLib/src/xmc_usbd.c ****   }
1499:/opt/XMClib/XMC_Peripheral_Library_v2.1.16/XMCLib/src/xmc_usbd.c ****   if ((ep->address_u.address_st.direction == 0U) || (ep_type == XMC_USBD_ENDPOINT_TYPE_CONTROL))
1500:/opt/XMClib/XMC_Peripheral_Library_v2.1.16/XMCLib/src/xmc_usbd.c ****   {
1501:/opt/XMClib/XMC_Peripheral_Library_v2.1.16/XMCLib/src/xmc_usbd.c ****     /* is out */
1502:/opt/XMClib/XMC_Peripheral_Library_v2.1.16/XMCLib/src/xmc_usbd.c **** 		depctl_data_t data;
1503:/opt/XMClib/XMC_Peripheral_Library_v2.1.16/XMCLib/src/xmc_usbd.c **** 		data.d32 = xmc_device.endpoint_out_register[ep->address_u.address_st.number]->doepctl;
1504:/opt/XMClib/XMC_Peripheral_Library_v2.1.16/XMCLib/src/xmc_usbd.c **** 		/*enable endpoint */
1505:/opt/XMClib/XMC_Peripheral_Library_v2.1.16/XMCLib/src/xmc_usbd.c **** 		data.b.usbactep = 1U;
1506:/opt/XMClib/XMC_Peripheral_Library_v2.1.16/XMCLib/src/xmc_usbd.c **** 		/* set ep type */
1507:/opt/XMClib/XMC_Peripheral_Library_v2.1.16/XMCLib/src/xmc_usbd.c **** 		data.b.eptype = (uint8_t)ep_type;
1508:/opt/XMClib/XMC_Peripheral_Library_v2.1.16/XMCLib/src/xmc_usbd.c ****     /* set mps */
1509:/opt/XMClib/XMC_Peripheral_Library_v2.1.16/XMCLib/src/xmc_usbd.c ****     if (ep_type == XMC_USBD_ENDPOINT_TYPE_CONTROL)
1510:/opt/XMClib/XMC_Peripheral_Library_v2.1.16/XMCLib/src/xmc_usbd.c **** 		{
1511:/opt/XMClib/XMC_Peripheral_Library_v2.1.16/XMCLib/src/xmc_usbd.c **** 			switch(ep_max_packet_size)
1512:/opt/XMClib/XMC_Peripheral_Library_v2.1.16/XMCLib/src/xmc_usbd.c **** 			{
1513:/opt/XMClib/XMC_Peripheral_Library_v2.1.16/XMCLib/src/xmc_usbd.c **** 				case (64U):
1514:/opt/XMClib/XMC_Peripheral_Library_v2.1.16/XMCLib/src/xmc_usbd.c **** 					data.b.mps = 0x0U;
1515:/opt/XMClib/XMC_Peripheral_Library_v2.1.16/XMCLib/src/xmc_usbd.c **** 					break;
1516:/opt/XMClib/XMC_Peripheral_Library_v2.1.16/XMCLib/src/xmc_usbd.c **** 				case (32U):
1517:/opt/XMClib/XMC_Peripheral_Library_v2.1.16/XMCLib/src/xmc_usbd.c **** 					data.b.mps = 0x1U;
1518:/opt/XMClib/XMC_Peripheral_Library_v2.1.16/XMCLib/src/xmc_usbd.c **** 					break;
1519:/opt/XMClib/XMC_Peripheral_Library_v2.1.16/XMCLib/src/xmc_usbd.c **** 				case (16U):
1520:/opt/XMClib/XMC_Peripheral_Library_v2.1.16/XMCLib/src/xmc_usbd.c **** 					data.b.mps = 0x2U;
1521:/opt/XMClib/XMC_Peripheral_Library_v2.1.16/XMCLib/src/xmc_usbd.c **** 					break;
1522:/opt/XMClib/XMC_Peripheral_Library_v2.1.16/XMCLib/src/xmc_usbd.c **** 				case (8U):
1523:/opt/XMClib/XMC_Peripheral_Library_v2.1.16/XMCLib/src/xmc_usbd.c **** 					data.b.mps = 0x3U;
1524:/opt/XMClib/XMC_Peripheral_Library_v2.1.16/XMCLib/src/xmc_usbd.c **** 					break;
1525:/opt/XMClib/XMC_Peripheral_Library_v2.1.16/XMCLib/src/xmc_usbd.c **** 				default:
1526:/opt/XMClib/XMC_Peripheral_Library_v2.1.16/XMCLib/src/xmc_usbd.c **** 					break;
1527:/opt/XMClib/XMC_Peripheral_Library_v2.1.16/XMCLib/src/xmc_usbd.c **** 			}
1528:/opt/XMClib/XMC_Peripheral_Library_v2.1.16/XMCLib/src/xmc_usbd.c **** 		}
1529:/opt/XMClib/XMC_Peripheral_Library_v2.1.16/XMCLib/src/xmc_usbd.c **** 		else
1530:/opt/XMClib/XMC_Peripheral_Library_v2.1.16/XMCLib/src/xmc_usbd.c **** 		{
1531:/opt/XMClib/XMC_Peripheral_Library_v2.1.16/XMCLib/src/xmc_usbd.c **** 			data.b.mps = ep_max_packet_size;
1532:/opt/XMClib/XMC_Peripheral_Library_v2.1.16/XMCLib/src/xmc_usbd.c **** 		}
1533:/opt/XMClib/XMC_Peripheral_Library_v2.1.16/XMCLib/src/xmc_usbd.c **** 		/* set first data0 pid */
1534:/opt/XMClib/XMC_Peripheral_Library_v2.1.16/XMCLib/src/xmc_usbd.c **** 		data.b.setd0pid = 1U;
1535:/opt/XMClib/XMC_Peripheral_Library_v2.1.16/XMCLib/src/xmc_usbd.c **** 		/* clear stall */
1536:/opt/XMClib/XMC_Peripheral_Library_v2.1.16/XMCLib/src/xmc_usbd.c **** 		data.b.stall =(uint8_t) 0U;
1537:/opt/XMClib/XMC_Peripheral_Library_v2.1.16/XMCLib/src/xmc_usbd.c **** 		xmc_device.endpoint_out_register[ep->address_u.address_st.number]->doepctl = data.d32; /* configu
1538:/opt/XMClib/XMC_Peripheral_Library_v2.1.16/XMCLib/src/xmc_usbd.c **** 		daintmsk.ep.out |=(uint16_t) ((uint16_t)1U << (uint8_t)ep->address_u.address_st.number); /* enabl
1539:/opt/XMClib/XMC_Peripheral_Library_v2.1.16/XMCLib/src/xmc_usbd.c ****   }
1540:/opt/XMClib/XMC_Peripheral_Library_v2.1.16/XMCLib/src/xmc_usbd.c ****   xmc_device.device_register->daintmsk = daintmsk.d32;
1541:/opt/XMClib/XMC_Peripheral_Library_v2.1.16/XMCLib/src/xmc_usbd.c ****   return XMC_USBD_STATUS_OK;
1542:/opt/XMClib/XMC_Peripheral_Library_v2.1.16/XMCLib/src/xmc_usbd.c **** }
1543:/opt/XMClib/XMC_Peripheral_Library_v2.1.16/XMCLib/src/xmc_usbd.c **** 
1544:/opt/XMClib/XMC_Peripheral_Library_v2.1.16/XMCLib/src/xmc_usbd.c **** /**
1545:/opt/XMClib/XMC_Peripheral_Library_v2.1.16/XMCLib/src/xmc_usbd.c ****  * Unconfigure the selected endpoint.
1546:/opt/XMClib/XMC_Peripheral_Library_v2.1.16/XMCLib/src/xmc_usbd.c ****  **/
1547:/opt/XMClib/XMC_Peripheral_Library_v2.1.16/XMCLib/src/xmc_usbd.c **** XMC_USBD_STATUS_t XMC_USBD_EndpointUnconfigure(const uint8_t ep_addr) 
1548:/opt/XMClib/XMC_Peripheral_Library_v2.1.16/XMCLib/src/xmc_usbd.c **** {
 981              		.loc 1 1548 1 is_stmt 1 view -0
 982              		.cfi_startproc
 983              		@ args = 0, pretend = 0, frame = 0
 984              		@ frame_needed = 0, uses_anonymous_args = 0
1549:/opt/XMClib/XMC_Peripheral_Library_v2.1.16/XMCLib/src/xmc_usbd.c ****   XMC_USBD_EP_t *ep = &xmc_device.ep[ep_addr & (uint8_t)XMC_USBD_ENDPOINT_NUMBER_MASK];
 985              		.loc 1 1549 3 view .LVU360
1548:/opt/XMClib/XMC_Peripheral_Library_v2.1.16/XMCLib/src/xmc_usbd.c ****   XMC_USBD_EP_t *ep = &xmc_device.ep[ep_addr & (uint8_t)XMC_USBD_ENDPOINT_NUMBER_MASK];
 986              		.loc 1 1548 1 is_stmt 0 view .LVU361
 987 0000 F0B5     		push	{r4, r5, r6, r7, lr}
 988              	.LCFI6:
 989              		.cfi_def_cfa_offset 20
 990              		.cfi_offset 4, -20
 991              		.cfi_offset 5, -16
 992              		.cfi_offset 6, -12
 993              		.cfi_offset 7, -8
 994              		.cfi_offset 14, -4
1550:/opt/XMClib/XMC_Peripheral_Library_v2.1.16/XMCLib/src/xmc_usbd.c ****   depctl_data_t data;
1551:/opt/XMClib/XMC_Peripheral_Library_v2.1.16/XMCLib/src/xmc_usbd.c **** 	daint_data_t daintmsk;
1552:/opt/XMClib/XMC_Peripheral_Library_v2.1.16/XMCLib/src/xmc_usbd.c **** 	XMC_USBD_STATUS_t result;
1553:/opt/XMClib/XMC_Peripheral_Library_v2.1.16/XMCLib/src/xmc_usbd.c **** 	uint32_t number_temp;
1554:/opt/XMClib/XMC_Peripheral_Library_v2.1.16/XMCLib/src/xmc_usbd.c ****   data.d32 = 0U;  
1555:/opt/XMClib/XMC_Peripheral_Library_v2.1.16/XMCLib/src/xmc_usbd.c ****   daintmsk.d32 = xmc_device.device_register->daintmsk;  
 995              		.loc 1 1555 28 view .LVU362
 996 0002 394B     		ldr	r3, .L98
1549:/opt/XMClib/XMC_Peripheral_Library_v2.1.16/XMCLib/src/xmc_usbd.c ****   depctl_data_t data;
 997              		.loc 1 1549 46 view .LVU363
 998 0004 00F00F00 		and	r0, r0, #15
 999              	.LVL53:
1550:/opt/XMClib/XMC_Peripheral_Library_v2.1.16/XMCLib/src/xmc_usbd.c ****   depctl_data_t data;
 1000              		.loc 1 1550 3 is_stmt 1 view .LVU364
1551:/opt/XMClib/XMC_Peripheral_Library_v2.1.16/XMCLib/src/xmc_usbd.c **** 	XMC_USBD_STATUS_t result;
 1001              		.loc 1 1551 2 view .LVU365
1552:/opt/XMClib/XMC_Peripheral_Library_v2.1.16/XMCLib/src/xmc_usbd.c **** 	uint32_t number_temp;
 1002              		.loc 1 1552 2 view .LVU366
1553:/opt/XMClib/XMC_Peripheral_Library_v2.1.16/XMCLib/src/xmc_usbd.c ****   data.d32 = 0U;  
 1003              		.loc 1 1553 2 view .LVU367
1554:/opt/XMClib/XMC_Peripheral_Library_v2.1.16/XMCLib/src/xmc_usbd.c ****   daintmsk.d32 = xmc_device.device_register->daintmsk;  
 1004              		.loc 1 1554 3 view .LVU368
 1005              		.loc 1 1555 3 view .LVU369
1556:/opt/XMClib/XMC_Peripheral_Library_v2.1.16/XMCLib/src/xmc_usbd.c ****   number_temp = (uint32_t)((uint32_t)1U << (uint8_t)ep->address_u.address_st.number);
1557:/opt/XMClib/XMC_Peripheral_Library_v2.1.16/XMCLib/src/xmc_usbd.c ****   /* if not configured return an error */
1558:/opt/XMClib/XMC_Peripheral_Library_v2.1.16/XMCLib/src/xmc_usbd.c ****   if (!ep->isConfigured)
 1006              		.loc 1 1558 7 is_stmt 0 view .LVU370
 1007 0008 3421     		movs	r1, #52
 1008 000a 00FB01F1 		mul	r1, r0, r1
 1009 000e 5A18     		adds	r2, r3, r1
1555:/opt/XMClib/XMC_Peripheral_Library_v2.1.16/XMCLib/src/xmc_usbd.c ****   number_temp = (uint32_t)((uint32_t)1U << (uint8_t)ep->address_u.address_st.number);
 1010              		.loc 1 1555 28 view .LVU371
 1011 0010 D3F8A441 		ldr	r4, [r3, #420]
 1012              		.loc 1 1558 7 view .LVU372
 1013 0014 92F804C0 		ldrb	ip, [r2, #4]	@ zero_extendqisi2
1555:/opt/XMClib/XMC_Peripheral_Library_v2.1.16/XMCLib/src/xmc_usbd.c ****   number_temp = (uint32_t)((uint32_t)1U << (uint8_t)ep->address_u.address_st.number);
 1014              		.loc 1 1555 44 view .LVU373
 1015 0018 E669     		ldr	r6, [r4, #28]
1556:/opt/XMClib/XMC_Peripheral_Library_v2.1.16/XMCLib/src/xmc_usbd.c ****   number_temp = (uint32_t)((uint32_t)1U << (uint8_t)ep->address_u.address_st.number);
 1016              		.loc 1 1556 3 is_stmt 1 view .LVU374
 1017              	.LVL54:
 1018              		.loc 1 1558 3 view .LVU375
 1019              		.loc 1 1558 6 is_stmt 0 view .LVU376
 1020 001a 1CF0040F 		tst	ip, #4
 1021 001e 48D0     		beq	.L90
1556:/opt/XMClib/XMC_Peripheral_Library_v2.1.16/XMCLib/src/xmc_usbd.c ****   number_temp = (uint32_t)((uint32_t)1U << (uint8_t)ep->address_u.address_st.number);
 1022              		.loc 1 1556 77 view .LVU377
 1023 0020 5F5C     		ldrb	r7, [r3, r1]	@ zero_extendqisi2
1559:/opt/XMClib/XMC_Peripheral_Library_v2.1.16/XMCLib/src/xmc_usbd.c ****   {
1560:/opt/XMClib/XMC_Peripheral_Library_v2.1.16/XMCLib/src/xmc_usbd.c ****      result = XMC_USBD_STATUS_ERROR;
1561:/opt/XMClib/XMC_Peripheral_Library_v2.1.16/XMCLib/src/xmc_usbd.c ****   }
1562:/opt/XMClib/XMC_Peripheral_Library_v2.1.16/XMCLib/src/xmc_usbd.c ****   else
1563:/opt/XMClib/XMC_Peripheral_Library_v2.1.16/XMCLib/src/xmc_usbd.c ****   {
1564:/opt/XMClib/XMC_Peripheral_Library_v2.1.16/XMCLib/src/xmc_usbd.c ****     /* disable the endpoint, deactivate it and only send naks */
1565:/opt/XMClib/XMC_Peripheral_Library_v2.1.16/XMCLib/src/xmc_usbd.c ****     data.b.usbactep = 0U;
1566:/opt/XMClib/XMC_Peripheral_Library_v2.1.16/XMCLib/src/xmc_usbd.c ****     data.b.epdis =  1U;
1567:/opt/XMClib/XMC_Peripheral_Library_v2.1.16/XMCLib/src/xmc_usbd.c ****     data.b.snak =  1U;
1568:/opt/XMClib/XMC_Peripheral_Library_v2.1.16/XMCLib/src/xmc_usbd.c ****     data.b.stall =  0U;
1569:/opt/XMClib/XMC_Peripheral_Library_v2.1.16/XMCLib/src/xmc_usbd.c ****     ep->isConfigured =  0U;
 1024              		.loc 1 1569 22 view .LVU378
 1025 0022 2CF0240C 		bic	ip, ip, #36
 1026 0026 82F804C0 		strb	ip, [r2, #4]
 1027              	.LVL55:
1556:/opt/XMClib/XMC_Peripheral_Library_v2.1.16/XMCLib/src/xmc_usbd.c ****   /* if not configured return an error */
 1028              		.loc 1 1556 44 view .LVU379
 1029 002a 07F00F0C 		and	ip, r7, #15
1570:/opt/XMClib/XMC_Peripheral_Library_v2.1.16/XMCLib/src/xmc_usbd.c ****     ep->isStalled =  0U;
1571:/opt/XMClib/XMC_Peripheral_Library_v2.1.16/XMCLib/src/xmc_usbd.c ****     ep->outInUse =  0U;
 1030              		.loc 1 1571 18 view .LVU380
 1031 002e 5768     		ldr	r7, [r2, #4]
 1032 0030 6FF30417 		bfc	r7, #4, #1
 1033 0034 5760     		str	r7, [r2, #4]
1572:/opt/XMClib/XMC_Peripheral_Library_v2.1.16/XMCLib/src/xmc_usbd.c ****     ep->inInUse =  0U;
 1034              		.loc 1 1572 17 view .LVU381
 1035 0036 5768     		ldr	r7, [r2, #4]
 1036 0038 6FF3C307 		bfc	r7, #3, #1
 1037 003c 5760     		str	r7, [r2, #4]
1573:/opt/XMClib/XMC_Peripheral_Library_v2.1.16/XMCLib/src/xmc_usbd.c ****     /* chose register based on the direction. Control Endpoint need both */
1574:/opt/XMClib/XMC_Peripheral_Library_v2.1.16/XMCLib/src/xmc_usbd.c ****     if ((ep->address_u.address_st.direction == 1U) || (ep->type == (uint8_t)XMC_USBD_ENDPOINT_TYPE_
 1038              		.loc 1 1574 8 view .LVU382
 1039 003e 5F56     		ldrsb	r7, [r3, r1]
1556:/opt/XMClib/XMC_Peripheral_Library_v2.1.16/XMCLib/src/xmc_usbd.c ****   /* if not configured return an error */
 1040              		.loc 1 1556 15 view .LVU383
 1041 0040 0121     		movs	r1, #1
 1042              		.loc 1 1574 8 view .LVU384
 1043 0042 002F     		cmp	r7, #0
 1044 0044 3546     		mov	r5, r6
 1045              	.LVL56:
1556:/opt/XMClib/XMC_Peripheral_Library_v2.1.16/XMCLib/src/xmc_usbd.c ****   /* if not configured return an error */
 1046              		.loc 1 1556 15 view .LVU385
 1047 0046 01FA0CF1 		lsl	r1, r1, ip
1565:/opt/XMClib/XMC_Peripheral_Library_v2.1.16/XMCLib/src/xmc_usbd.c ****     data.b.epdis =  1U;
 1048              		.loc 1 1565 5 is_stmt 1 view .LVU386
1566:/opt/XMClib/XMC_Peripheral_Library_v2.1.16/XMCLib/src/xmc_usbd.c ****     data.b.snak =  1U;
 1049              		.loc 1 1566 5 view .LVU387
1567:/opt/XMClib/XMC_Peripheral_Library_v2.1.16/XMCLib/src/xmc_usbd.c ****     data.b.stall =  0U;
 1050              		.loc 1 1567 5 view .LVU388
1568:/opt/XMClib/XMC_Peripheral_Library_v2.1.16/XMCLib/src/xmc_usbd.c ****     ep->isConfigured =  0U;
 1051              		.loc 1 1568 5 view .LVU389
1569:/opt/XMClib/XMC_Peripheral_Library_v2.1.16/XMCLib/src/xmc_usbd.c ****     ep->isStalled =  0U;
 1052              		.loc 1 1569 5 view .LVU390
1570:/opt/XMClib/XMC_Peripheral_Library_v2.1.16/XMCLib/src/xmc_usbd.c ****     ep->outInUse =  0U;
 1053              		.loc 1 1570 5 view .LVU391
1571:/opt/XMClib/XMC_Peripheral_Library_v2.1.16/XMCLib/src/xmc_usbd.c ****     ep->inInUse =  0U;
 1054              		.loc 1 1571 5 view .LVU392
1572:/opt/XMClib/XMC_Peripheral_Library_v2.1.16/XMCLib/src/xmc_usbd.c ****     /* chose register based on the direction. Control Endpoint need both */
 1055              		.loc 1 1572 5 view .LVU393
 1056              		.loc 1 1574 5 view .LVU394
 1057              		.loc 1 1574 8 is_stmt 0 view .LVU395
 1058 004a 34DB     		blt	.L84
 1059              		.loc 1 1574 65 discriminator 1 view .LVU396
 1060 004c 1279     		ldrb	r2, [r2, #4]	@ zero_extendqisi2
 1061              		.loc 1 1574 52 discriminator 1 view .LVU397
 1062 004e 9207     		lsls	r2, r2, #30
1575:/opt/XMClib/XMC_Peripheral_Library_v2.1.16/XMCLib/src/xmc_usbd.c ****     {
1576:/opt/XMClib/XMC_Peripheral_Library_v2.1.16/XMCLib/src/xmc_usbd.c ****       /* disable endpoint configuration */
1577:/opt/XMClib/XMC_Peripheral_Library_v2.1.16/XMCLib/src/xmc_usbd.c ****       xmc_device.endpoint_in_register[ep->address_u.address_st.number]->diepctl = data.d32;
1578:/opt/XMClib/XMC_Peripheral_Library_v2.1.16/XMCLib/src/xmc_usbd.c ****       /* disable interrupts */
1579:/opt/XMClib/XMC_Peripheral_Library_v2.1.16/XMCLib/src/xmc_usbd.c ****       daintmsk.ep.in = (uint16_t)((uint32_t)daintmsk.ep.in & (~(uint32_t)number_temp));
 1063              		.loc 1 1579 24 discriminator 1 view .LVU398
 1064 0050 6FEA0101 		mvn	r1, r1
1574:/opt/XMClib/XMC_Peripheral_Library_v2.1.16/XMCLib/src/xmc_usbd.c ****     {
 1065              		.loc 1 1574 52 discriminator 1 view .LVU399
 1066 0054 41D1     		bne	.L96
1577:/opt/XMClib/XMC_Peripheral_Library_v2.1.16/XMCLib/src/xmc_usbd.c ****       /* disable interrupts */
 1067              		.loc 1 1577 7 is_stmt 1 view .LVU400
1577:/opt/XMClib/XMC_Peripheral_Library_v2.1.16/XMCLib/src/xmc_usbd.c ****       /* disable interrupts */
 1068              		.loc 1 1577 38 is_stmt 0 view .LVU401
 1069 0056 0CF16A02 		add	r2, ip, #106
1577:/opt/XMClib/XMC_Peripheral_Library_v2.1.16/XMCLib/src/xmc_usbd.c ****       /* disable interrupts */
 1070              		.loc 1 1577 81 view .LVU402
 1071 005a 4FF0904E 		mov	lr, #1207959552
1577:/opt/XMClib/XMC_Peripheral_Library_v2.1.16/XMCLib/src/xmc_usbd.c ****       /* disable interrupts */
 1072              		.loc 1 1577 38 view .LVU403
 1073 005e 53F82270 		ldr	r7, [r3, r2, lsl #2]
 1074              		.loc 1 1579 24 view .LVU404
 1075 0062 8AB2     		uxth	r2, r1
1577:/opt/XMClib/XMC_Peripheral_Library_v2.1.16/XMCLib/src/xmc_usbd.c ****       /* disable interrupts */
 1076              		.loc 1 1577 81 view .LVU405
 1077 0064 C7F800E0 		str	lr, [r7]
 1078              		.loc 1 1579 7 is_stmt 1 view .LVU406
 1079              		.loc 1 1579 24 is_stmt 0 view .LVU407
 1080 0068 02EA0607 		and	r7, r2, r6
 1081              		.loc 1 1579 22 view .LVU408
 1082 006c 67F30F05 		bfi	r5, r7, #0, #16
 1083              	.LVL57:
1580:/opt/XMClib/XMC_Peripheral_Library_v2.1.16/XMCLib/src/xmc_usbd.c ****     }
1581:/opt/XMClib/XMC_Peripheral_Library_v2.1.16/XMCLib/src/xmc_usbd.c ****     if ((ep->address_u.address_st.direction == 0U) || (ep->type == (uint8_t)XMC_USBD_ENDPOINT_TYPE_
 1084              		.loc 1 1581 5 is_stmt 1 view .LVU409
 1085              	.L88:
1582:/opt/XMClib/XMC_Peripheral_Library_v2.1.16/XMCLib/src/xmc_usbd.c ****     {
1583:/opt/XMClib/XMC_Peripheral_Library_v2.1.16/XMCLib/src/xmc_usbd.c ****       xmc_device.endpoint_out_register[ep->address_u.address_st.number]->doepctl = data.d32;
 1086              		.loc 1 1583 7 view .LVU410
 1087              		.loc 1 1583 39 is_stmt 0 view .LVU411
 1088 0070 03EB8C0C 		add	ip, r3, ip, lsl #2
1584:/opt/XMClib/XMC_Peripheral_Library_v2.1.16/XMCLib/src/xmc_usbd.c ****       daintmsk.ep.out = (uint16_t)((uint32_t)daintmsk.ep.out & (~(uint32_t)number_temp));
 1089              		.loc 1 1584 25 view .LVU412
 1090 0074 02EA1642 		and	r2, r2, r6, lsr #16
1583:/opt/XMClib/XMC_Peripheral_Library_v2.1.16/XMCLib/src/xmc_usbd.c ****       daintmsk.ep.out = (uint16_t)((uint32_t)daintmsk.ep.out & (~(uint32_t)number_temp));
 1091              		.loc 1 1583 39 view .LVU413
 1092 0078 DCF8C461 		ldr	r6, [ip, #452]
 1093              		.loc 1 1584 23 view .LVU414
 1094 007c 62F31F45 		bfi	r5, r2, #16, #16
1583:/opt/XMClib/XMC_Peripheral_Library_v2.1.16/XMCLib/src/xmc_usbd.c ****       daintmsk.ep.out = (uint16_t)((uint32_t)daintmsk.ep.out & (~(uint32_t)number_temp));
 1095              		.loc 1 1583 82 view .LVU415
 1096 0080 4FF09047 		mov	r7, #1207959552
1585:/opt/XMClib/XMC_Peripheral_Library_v2.1.16/XMCLib/src/xmc_usbd.c ****       if(usbd_init->usbd_transfer_mode == XMC_USBD_USE_FIFO)
 1097              		.loc 1 1585 19 view .LVU416
 1098 0084 D3F80822 		ldr	r2, [r3, #520]
1583:/opt/XMClib/XMC_Peripheral_Library_v2.1.16/XMCLib/src/xmc_usbd.c ****       daintmsk.ep.out = (uint16_t)((uint32_t)daintmsk.ep.out & (~(uint32_t)number_temp));
 1099              		.loc 1 1583 82 view .LVU417
 1100 0088 3760     		str	r7, [r6]
1584:/opt/XMClib/XMC_Peripheral_Library_v2.1.16/XMCLib/src/xmc_usbd.c ****       daintmsk.ep.out = (uint16_t)((uint32_t)daintmsk.ep.out & (~(uint32_t)number_temp));
 1101              		.loc 1 1584 7 is_stmt 1 view .LVU418
 1102              		.loc 1 1585 7 view .LVU419
 1103              		.loc 1 1585 9 is_stmt 0 view .LVU420
 1104 008a 527B     		ldrb	r2, [r2, #13]	@ zero_extendqisi2
 1105 008c 012A     		cmp	r2, #1
 1106 008e 26D0     		beq	.L97
 1107              	.L87:
1586:/opt/XMClib/XMC_Peripheral_Library_v2.1.16/XMCLib/src/xmc_usbd.c ****       {
1587:/opt/XMClib/XMC_Peripheral_Library_v2.1.16/XMCLib/src/xmc_usbd.c ****         xmc_device.device_register->dtknqr4_fifoemptymsk &= ~number_temp;
1588:/opt/XMClib/XMC_Peripheral_Library_v2.1.16/XMCLib/src/xmc_usbd.c ****       }
1589:/opt/XMClib/XMC_Peripheral_Library_v2.1.16/XMCLib/src/xmc_usbd.c ****     }
1590:/opt/XMClib/XMC_Peripheral_Library_v2.1.16/XMCLib/src/xmc_usbd.c ****     xmc_device.device_register->daintmsk = daintmsk.d32;
 1108              		.loc 1 1590 5 is_stmt 1 view .LVU421
1591:/opt/XMClib/XMC_Peripheral_Library_v2.1.16/XMCLib/src/xmc_usbd.c ****     XMC_USBD_lUnassignFifo(ep->txFifoNum); /* free fifo */
 1109              		.loc 1 1591 30 is_stmt 0 view .LVU422
 1110 0090 3422     		movs	r2, #52
 1111 0092 02FB0030 		mla	r0, r2, r0, r3
 1112              	.LVL58:
1590:/opt/XMClib/XMC_Peripheral_Library_v2.1.16/XMCLib/src/xmc_usbd.c ****     XMC_USBD_lUnassignFifo(ep->txFifoNum); /* free fifo */
 1113              		.loc 1 1590 42 view .LVU423
 1114 0096 E561     		str	r5, [r4, #28]
 1115              		.loc 1 1591 5 is_stmt 1 view .LVU424
 1116              	.LVL59:
 1117              	.LBB40:
 1118              	.LBI40:
 382:/opt/XMClib/XMC_Peripheral_Library_v2.1.16/XMCLib/src/xmc_usbd.c **** {
 1119              		.loc 1 382 13 view .LVU425
 1120              	.LBB41:
 384:/opt/XMClib/XMC_Peripheral_Library_v2.1.16/XMCLib/src/xmc_usbd.c **** }
 1121              		.loc 1 384 3 view .LVU426
 1122              	.LBE41:
 1123              	.LBE40:
 1124              		.loc 1 1591 30 is_stmt 0 view .LVU427
 1125 0098 8188     		ldrh	r1, [r0, #4]
 1126              	.LBB43:
 1127              	.LBB42:
 384:/opt/XMClib/XMC_Peripheral_Library_v2.1.16/XMCLib/src/xmc_usbd.c **** }
 1128              		.loc 1 384 26 view .LVU428
 1129 009a B3F8FC21 		ldrh	r2, [r3, #508]
 384:/opt/XMClib/XMC_Peripheral_Library_v2.1.16/XMCLib/src/xmc_usbd.c **** }
 1130              		.loc 1 384 83 view .LVU429
 1131 009e C1F38310 		ubfx	r0, r1, #6, #4
 1132 00a2 0121     		movs	r1, #1
 1133 00a4 8140     		lsls	r1, r1, r0
 384:/opt/XMClib/XMC_Peripheral_Library_v2.1.16/XMCLib/src/xmc_usbd.c **** }
 1134              		.loc 1 384 26 view .LVU430
 1135 00a6 22EA0102 		bic	r2, r2, r1
 384:/opt/XMClib/XMC_Peripheral_Library_v2.1.16/XMCLib/src/xmc_usbd.c **** }
 1136              		.loc 1 384 24 view .LVU431
 1137 00aa A3F8FC21 		strh	r2, [r3, #508]	@ movhi
 384:/opt/XMClib/XMC_Peripheral_Library_v2.1.16/XMCLib/src/xmc_usbd.c **** }
 1138              		.loc 1 384 24 view .LVU432
 1139              	.LBE42:
 1140              	.LBE43:
1592:/opt/XMClib/XMC_Peripheral_Library_v2.1.16/XMCLib/src/xmc_usbd.c ****     result = XMC_USBD_STATUS_OK;
 1141              		.loc 1 1592 5 is_stmt 1 view .LVU433
 1142              	.LVL60:
 1143              		.loc 1 1592 12 is_stmt 0 view .LVU434
 1144 00ae 0020     		movs	r0, #0
1593:/opt/XMClib/XMC_Peripheral_Library_v2.1.16/XMCLib/src/xmc_usbd.c ****   }
1594:/opt/XMClib/XMC_Peripheral_Library_v2.1.16/XMCLib/src/xmc_usbd.c ****   return result;
1595:/opt/XMClib/XMC_Peripheral_Library_v2.1.16/XMCLib/src/xmc_usbd.c **** }
 1145              		.loc 1 1595 1 view .LVU435
 1146 00b0 F0BD     		pop	{r4, r5, r6, r7, pc}
 1147              	.LVL61:
 1148              	.L90:
1560:/opt/XMClib/XMC_Peripheral_Library_v2.1.16/XMCLib/src/xmc_usbd.c ****   }
 1149              		.loc 1 1560 13 view .LVU436
 1150 00b2 0120     		movs	r0, #1
 1151              	.LVL62:
1594:/opt/XMClib/XMC_Peripheral_Library_v2.1.16/XMCLib/src/xmc_usbd.c **** }
 1152              		.loc 1 1594 3 is_stmt 1 view .LVU437
 1153              		.loc 1 1595 1 is_stmt 0 view .LVU438
 1154 00b4 F0BD     		pop	{r4, r5, r6, r7, pc}
 1155              	.LVL63:
 1156              	.L84:
1577:/opt/XMClib/XMC_Peripheral_Library_v2.1.16/XMCLib/src/xmc_usbd.c ****       /* disable interrupts */
 1157              		.loc 1 1577 7 is_stmt 1 view .LVU439
1577:/opt/XMClib/XMC_Peripheral_Library_v2.1.16/XMCLib/src/xmc_usbd.c ****       /* disable interrupts */
 1158              		.loc 1 1577 38 is_stmt 0 view .LVU440
 1159 00b6 0CF16A07 		add	r7, ip, #106
1577:/opt/XMClib/XMC_Peripheral_Library_v2.1.16/XMCLib/src/xmc_usbd.c ****       /* disable interrupts */
 1160              		.loc 1 1577 81 view .LVU441
 1161 00ba 4FF0904E 		mov	lr, #1207959552
1577:/opt/XMClib/XMC_Peripheral_Library_v2.1.16/XMCLib/src/xmc_usbd.c ****       /* disable interrupts */
 1162              		.loc 1 1577 38 view .LVU442
 1163 00be 53F82770 		ldr	r7, [r3, r7, lsl #2]
1577:/opt/XMClib/XMC_Peripheral_Library_v2.1.16/XMCLib/src/xmc_usbd.c ****       /* disable interrupts */
 1164              		.loc 1 1577 81 view .LVU443
 1165 00c2 C7F800E0 		str	lr, [r7]
1579:/opt/XMClib/XMC_Peripheral_Library_v2.1.16/XMCLib/src/xmc_usbd.c ****     }
 1166              		.loc 1 1579 7 is_stmt 1 view .LVU444
1581:/opt/XMClib/XMC_Peripheral_Library_v2.1.16/XMCLib/src/xmc_usbd.c ****     {
 1167              		.loc 1 1581 65 is_stmt 0 view .LVU445
 1168 00c6 1779     		ldrb	r7, [r2, #4]	@ zero_extendqisi2
1579:/opt/XMClib/XMC_Peripheral_Library_v2.1.16/XMCLib/src/xmc_usbd.c ****     }
 1169              		.loc 1 1579 24 view .LVU446
 1170 00c8 C943     		mvns	r1, r1
 1171 00ca 8AB2     		uxth	r2, r1
 1172 00cc 02EA060E 		and	lr, r2, r6
1581:/opt/XMClib/XMC_Peripheral_Library_v2.1.16/XMCLib/src/xmc_usbd.c ****     {
 1173              		.loc 1 1581 52 view .LVU447
 1174 00d0 BF07     		lsls	r7, r7, #30
1579:/opt/XMClib/XMC_Peripheral_Library_v2.1.16/XMCLib/src/xmc_usbd.c ****     }
 1175              		.loc 1 1579 22 view .LVU448
 1176 00d2 6EF30F05 		bfi	r5, lr, #0, #16
 1177              	.LVL64:
1581:/opt/XMClib/XMC_Peripheral_Library_v2.1.16/XMCLib/src/xmc_usbd.c ****     {
 1178              		.loc 1 1581 5 is_stmt 1 view .LVU449
1581:/opt/XMClib/XMC_Peripheral_Library_v2.1.16/XMCLib/src/xmc_usbd.c ****     {
 1179              		.loc 1 1581 52 is_stmt 0 view .LVU450
 1180 00d6 CBD0     		beq	.L88
 1181 00d8 DAE7     		b	.L87
 1182              	.LVL65:
 1183              	.L96:
1579:/opt/XMClib/XMC_Peripheral_Library_v2.1.16/XMCLib/src/xmc_usbd.c ****     }
 1184              		.loc 1 1579 24 view .LVU451
 1185 00da 8AB2     		uxth	r2, r1
 1186 00dc C8E7     		b	.L88
 1187              	.LVL66:
 1188              	.L97:
1587:/opt/XMClib/XMC_Peripheral_Library_v2.1.16/XMCLib/src/xmc_usbd.c ****       }
 1189              		.loc 1 1587 9 is_stmt 1 view .LVU452
1587:/opt/XMClib/XMC_Peripheral_Library_v2.1.16/XMCLib/src/xmc_usbd.c ****       }
 1190              		.loc 1 1587 58 is_stmt 0 view .LVU453
 1191 00de 626B     		ldr	r2, [r4, #52]
 1192 00e0 1140     		ands	r1, r1, r2
 1193 00e2 6163     		str	r1, [r4, #52]
 1194 00e4 D4E7     		b	.L87
 1195              	.L99:
 1196 00e6 00BF     		.align	2
 1197              	.L98:
 1198 00e8 00000000 		.word	.LANCHOR0
 1199              		.cfi_endproc
 1200              	.LFE199:
 1202              		.section	.text.XMC_USBD_GetFrameNumber,"ax",%progbits
 1203              		.align	1
 1204              		.p2align 2,,3
 1205              		.global	XMC_USBD_GetFrameNumber
 1206              		.syntax unified
 1207              		.thumb
 1208              		.thumb_func
 1210              	XMC_USBD_GetFrameNumber:
 1211              	.LFB200:
1596:/opt/XMClib/XMC_Peripheral_Library_v2.1.16/XMCLib/src/xmc_usbd.c **** 
1597:/opt/XMClib/XMC_Peripheral_Library_v2.1.16/XMCLib/src/xmc_usbd.c **** /**
1598:/opt/XMClib/XMC_Peripheral_Library_v2.1.16/XMCLib/src/xmc_usbd.c ****  * Gets the current USB frame number
1599:/opt/XMClib/XMC_Peripheral_Library_v2.1.16/XMCLib/src/xmc_usbd.c ****  **/
1600:/opt/XMClib/XMC_Peripheral_Library_v2.1.16/XMCLib/src/xmc_usbd.c **** uint16_t XMC_USBD_GetFrameNumber(void) 
1601:/opt/XMClib/XMC_Peripheral_Library_v2.1.16/XMCLib/src/xmc_usbd.c **** {
 1212              		.loc 1 1601 1 is_stmt 1 view -0
 1213              		.cfi_startproc
 1214              		@ args = 0, pretend = 0, frame = 0
 1215              		@ frame_needed = 0, uses_anonymous_args = 0
 1216              		@ link register save eliminated.
1602:/opt/XMClib/XMC_Peripheral_Library_v2.1.16/XMCLib/src/xmc_usbd.c ****   uint16_t result;
 1217              		.loc 1 1602 3 view .LVU455
1603:/opt/XMClib/XMC_Peripheral_Library_v2.1.16/XMCLib/src/xmc_usbd.c ****   dsts_data_t dsts;
 1218              		.loc 1 1603 3 view .LVU456
1604:/opt/XMClib/XMC_Peripheral_Library_v2.1.16/XMCLib/src/xmc_usbd.c ****   dsts.d32 = xmc_device.device_register->dsts;
 1219              		.loc 1 1604 3 view .LVU457
 1220              		.loc 1 1604 24 is_stmt 0 view .LVU458
 1221 0000 034B     		ldr	r3, .L101
 1222 0002 D3F8A431 		ldr	r3, [r3, #420]
 1223              		.loc 1 1604 40 view .LVU459
 1224 0006 9868     		ldr	r0, [r3, #8]
1605:/opt/XMClib/XMC_Peripheral_Library_v2.1.16/XMCLib/src/xmc_usbd.c ****   result = (uint16_t)dsts.b.soffn;
 1225              		.loc 1 1605 3 is_stmt 1 view .LVU460
 1226              	.LVL67:
1606:/opt/XMClib/XMC_Peripheral_Library_v2.1.16/XMCLib/src/xmc_usbd.c ****   return result;
 1227              		.loc 1 1606 3 view .LVU461
1607:/opt/XMClib/XMC_Peripheral_Library_v2.1.16/XMCLib/src/xmc_usbd.c **** }
 1228              		.loc 1 1607 1 is_stmt 0 view .LVU462
 1229 0008 C0F30D20 		ubfx	r0, r0, #8, #14
 1230              	.LVL68:
 1231              		.loc 1 1607 1 view .LVU463
 1232 000c 7047     		bx	lr
 1233              	.L102:
 1234 000e 00BF     		.align	2
 1235              	.L101:
 1236 0010 00000000 		.word	.LANCHOR0
 1237              		.cfi_endproc
 1238              	.LFE200:
 1240              		.section	.text.XMC_USBD_IsEnumDone,"ax",%progbits
 1241              		.align	1
 1242              		.p2align 2,,3
 1243              		.global	XMC_USBD_IsEnumDone
 1244              		.syntax unified
 1245              		.thumb
 1246              		.thumb_func
 1248              	XMC_USBD_IsEnumDone:
 1249              	.LFB201:
1608:/opt/XMClib/XMC_Peripheral_Library_v2.1.16/XMCLib/src/xmc_usbd.c **** 
1609:/opt/XMClib/XMC_Peripheral_Library_v2.1.16/XMCLib/src/xmc_usbd.c **** /**
1610:/opt/XMClib/XMC_Peripheral_Library_v2.1.16/XMCLib/src/xmc_usbd.c ****  * Gets the USB speed enumeration completion status.
1611:/opt/XMClib/XMC_Peripheral_Library_v2.1.16/XMCLib/src/xmc_usbd.c ****  * This should not be used for the actual USB enumeration completion status. For the actual USB enu
1612:/opt/XMClib/XMC_Peripheral_Library_v2.1.16/XMCLib/src/xmc_usbd.c ****  * the application layer should check for the completion of USB standard request Set configuration.
1613:/opt/XMClib/XMC_Peripheral_Library_v2.1.16/XMCLib/src/xmc_usbd.c ****  **/
1614:/opt/XMClib/XMC_Peripheral_Library_v2.1.16/XMCLib/src/xmc_usbd.c **** uint32_t XMC_USBD_IsEnumDone(void)
1615:/opt/XMClib/XMC_Peripheral_Library_v2.1.16/XMCLib/src/xmc_usbd.c **** {
 1250              		.loc 1 1615 1 is_stmt 1 view -0
 1251              		.cfi_startproc
 1252              		@ args = 0, pretend = 0, frame = 0
 1253              		@ frame_needed = 0, uses_anonymous_args = 0
 1254              		@ link register save eliminated.
1616:/opt/XMClib/XMC_Peripheral_Library_v2.1.16/XMCLib/src/xmc_usbd.c ****   return (uint32_t)((uint8_t)xmc_device.IsConnected && (uint8_t)xmc_device.IsPowered);
 1255              		.loc 1 1616 3 view .LVU465
 1256              		.loc 1 1616 53 is_stmt 0 view .LVU466
 1257 0000 054B     		ldr	r3, .L104
 1258 0002 93F8FE01 		ldrb	r0, [r3, #510]	@ zero_extendqisi2
 1259 0006 00F00500 		and	r0, r0, #5
1617:/opt/XMClib/XMC_Peripheral_Library_v2.1.16/XMCLib/src/xmc_usbd.c **** }
 1260              		.loc 1 1617 1 view .LVU467
 1261 000a A0F10500 		sub	r0, #5
 1262 000e B0FA80F0 		clz	r0, r0
 1263 0012 4009     		lsrs	r0, r0, #5
 1264 0014 7047     		bx	lr
 1265              	.L105:
 1266 0016 00BF     		.align	2
 1267              	.L104:
 1268 0018 00000000 		.word	.LANCHOR0
 1269              		.cfi_endproc
 1270              	.LFE201:
 1272              		.section	.text.XMC_USBD_Uninitialize,"ax",%progbits
 1273              		.align	1
 1274              		.p2align 2,,3
 1275              		.global	XMC_USBD_Uninitialize
 1276              		.syntax unified
 1277              		.thumb
 1278              		.thumb_func
 1280              	XMC_USBD_Uninitialize:
 1281              	.LFB188:
1201:/opt/XMClib/XMC_Peripheral_Library_v2.1.16/XMCLib/src/xmc_usbd.c ****   /* Disconnect the device */
 1282              		.loc 1 1201 1 is_stmt 1 view -0
 1283              		.cfi_startproc
 1284              		@ args = 0, pretend = 0, frame = 0
 1285              		@ frame_needed = 0, uses_anonymous_args = 0
1203:/opt/XMClib/XMC_Peripheral_Library_v2.1.16/XMCLib/src/xmc_usbd.c **** 	dctl.d32 = xmc_device.device_register->dctl;
 1286              		.loc 1 1203 3 view .LVU469
1204:/opt/XMClib/XMC_Peripheral_Library_v2.1.16/XMCLib/src/xmc_usbd.c ****   dctl.b.sftdiscon = 1U;
 1287              		.loc 1 1204 2 view .LVU470
1204:/opt/XMClib/XMC_Peripheral_Library_v2.1.16/XMCLib/src/xmc_usbd.c ****   dctl.b.sftdiscon = 1U;
 1288              		.loc 1 1204 23 is_stmt 0 view .LVU471
 1289 0000 0748     		ldr	r0, .L108
1201:/opt/XMClib/XMC_Peripheral_Library_v2.1.16/XMCLib/src/xmc_usbd.c ****   /* Disconnect the device */
 1290              		.loc 1 1201 1 view .LVU472
 1291 0002 10B5     		push	{r4, lr}
 1292              	.LCFI7:
 1293              		.cfi_def_cfa_offset 8
 1294              		.cfi_offset 4, -8
 1295              		.cfi_offset 14, -4
1204:/opt/XMClib/XMC_Peripheral_Library_v2.1.16/XMCLib/src/xmc_usbd.c ****   dctl.b.sftdiscon = 1U;
 1296              		.loc 1 1204 23 view .LVU473
 1297 0004 D0F8A441 		ldr	r4, [r0, #420]
1204:/opt/XMClib/XMC_Peripheral_Library_v2.1.16/XMCLib/src/xmc_usbd.c ****   dctl.b.sftdiscon = 1U;
 1298              		.loc 1 1204 39 view .LVU474
 1299 0008 6368     		ldr	r3, [r4, #4]
1205:/opt/XMClib/XMC_Peripheral_Library_v2.1.16/XMCLib/src/xmc_usbd.c ****   xmc_device.device_register->dctl = dctl.d32;
 1300              		.loc 1 1205 3 is_stmt 1 view .LVU475
1205:/opt/XMClib/XMC_Peripheral_Library_v2.1.16/XMCLib/src/xmc_usbd.c ****   xmc_device.device_register->dctl = dctl.d32;
 1301              		.loc 1 1205 20 is_stmt 0 view .LVU476
 1302 000a 43F00203 		orr	r3, r3, #2
 1303              	.LVL69:
1206:/opt/XMClib/XMC_Peripheral_Library_v2.1.16/XMCLib/src/xmc_usbd.c ****   /* clean up */
 1304              		.loc 1 1206 3 is_stmt 1 view .LVU477
1208:/opt/XMClib/XMC_Peripheral_Library_v2.1.16/XMCLib/src/xmc_usbd.c ****   return XMC_USBD_STATUS_OK;
 1305              		.loc 1 1208 3 is_stmt 0 view .LVU478
 1306 000e 4FF40272 		mov	r2, #520
 1307 0012 0021     		movs	r1, #0
 1308              	.LVL70:
1206:/opt/XMClib/XMC_Peripheral_Library_v2.1.16/XMCLib/src/xmc_usbd.c ****   /* clean up */
 1309              		.loc 1 1206 36 view .LVU479
 1310 0014 6360     		str	r3, [r4, #4]
1208:/opt/XMClib/XMC_Peripheral_Library_v2.1.16/XMCLib/src/xmc_usbd.c ****   return XMC_USBD_STATUS_OK;
 1311              		.loc 1 1208 3 is_stmt 1 view .LVU480
 1312 0016 FFF7FEFF 		bl	memset
 1313              	.LVL71:
1209:/opt/XMClib/XMC_Peripheral_Library_v2.1.16/XMCLib/src/xmc_usbd.c **** }
 1314              		.loc 1 1209 3 view .LVU481
1210:/opt/XMClib/XMC_Peripheral_Library_v2.1.16/XMCLib/src/xmc_usbd.c **** 
 1315              		.loc 1 1210 1 is_stmt 0 view .LVU482
 1316 001a 0020     		movs	r0, #0
 1317 001c 10BD     		pop	{r4, pc}
 1318              	.L109:
 1319 001e 00BF     		.align	2
 1320              	.L108:
 1321 0020 00000000 		.word	.LANCHOR0
 1322              		.cfi_endproc
 1323              	.LFE188:
 1325              		.section	.text.XMC_USBD_EndpointConfigure,"ax",%progbits
 1326              		.align	1
 1327              		.p2align 2,,3
 1328              		.global	XMC_USBD_EndpointConfigure
 1329              		.syntax unified
 1330              		.thumb
 1331              		.thumb_func
 1333              	XMC_USBD_EndpointConfigure:
 1334              	.LVL72:
 1335              	.LFB198:
1431:/opt/XMClib/XMC_Peripheral_Library_v2.1.16/XMCLib/src/xmc_usbd.c ****   daint_data_t daintmsk;
 1336              		.loc 1 1431 1 is_stmt 1 view -0
 1337              		.cfi_startproc
 1338              		@ args = 0, pretend = 0, frame = 0
 1339              		@ frame_needed = 0, uses_anonymous_args = 0
1432:/opt/XMClib/XMC_Peripheral_Library_v2.1.16/XMCLib/src/xmc_usbd.c ****   XMC_USBD_EP_t *ep;
 1340              		.loc 1 1432 3 view .LVU484
1433:/opt/XMClib/XMC_Peripheral_Library_v2.1.16/XMCLib/src/xmc_usbd.c ****   daintmsk.d32 = xmc_device.device_register->daintmsk;  
 1341              		.loc 1 1433 3 view .LVU485
1434:/opt/XMClib/XMC_Peripheral_Library_v2.1.16/XMCLib/src/xmc_usbd.c ****   ep =&xmc_device.ep[ep_addr & (uint32_t)XMC_USBD_ENDPOINT_NUMBER_MASK];
 1342              		.loc 1 1434 3 view .LVU486
1431:/opt/XMClib/XMC_Peripheral_Library_v2.1.16/XMCLib/src/xmc_usbd.c ****   daint_data_t daintmsk;
 1343              		.loc 1 1431 1 is_stmt 0 view .LVU487
 1344 0000 2DE9F84F 		push	{r3, r4, r5, r6, r7, r8, r9, r10, fp, lr}
 1345              	.LCFI8:
 1346              		.cfi_def_cfa_offset 40
 1347              		.cfi_offset 3, -40
 1348              		.cfi_offset 4, -36
 1349              		.cfi_offset 5, -32
 1350              		.cfi_offset 6, -28
 1351              		.cfi_offset 7, -24
 1352              		.cfi_offset 8, -20
 1353              		.cfi_offset 9, -16
 1354              		.cfi_offset 10, -12
 1355              		.cfi_offset 11, -8
 1356              		.cfi_offset 14, -4
1434:/opt/XMClib/XMC_Peripheral_Library_v2.1.16/XMCLib/src/xmc_usbd.c ****   ep =&xmc_device.ep[ep_addr & (uint32_t)XMC_USBD_ENDPOINT_NUMBER_MASK];
 1357              		.loc 1 1434 28 view .LVU488
 1358 0004 9B4C     		ldr	r4, .L145
 1359 0006 D4F8A431 		ldr	r3, [r4, #420]
1431:/opt/XMClib/XMC_Peripheral_Library_v2.1.16/XMCLib/src/xmc_usbd.c ****   daint_data_t daintmsk;
 1360              		.loc 1 1431 1 view .LVU489
 1361 000a 8146     		mov	r9, r0
1435:/opt/XMClib/XMC_Peripheral_Library_v2.1.16/XMCLib/src/xmc_usbd.c ****   memset((void*)ep,0x0U,sizeof(XMC_USBD_EP_t)); /* clear endpoint structure */
