Archive member included to satisfy reference by file (symbol)

/usr/bin/../lib/gcc/arm-none-eabi/7.3.1/../../../../arm-none-eabi/lib/thumb/v7e-m/libg.a(lib_a-errno.o)
                              lib_build/syscalls.o (__errno)
/usr/bin/../lib/gcc/arm-none-eabi/7.3.1/../../../../arm-none-eabi/lib/thumb/v7e-m/libg.a(lib_a-impure.o)
                              /usr/bin/../lib/gcc/arm-none-eabi/7.3.1/../../../../arm-none-eabi/lib/thumb/v7e-m/libg.a(lib_a-errno.o) (_impure_ptr)
/usr/bin/../lib/gcc/arm-none-eabi/7.3.1/../../../../arm-none-eabi/lib/thumb/v7e-m/libg.a(lib_a-init.o)
                              lib_build/startup_XMC4500.o (__libc_init_array)
/usr/bin/../lib/gcc/arm-none-eabi/7.3.1/../../../../arm-none-eabi/lib/thumb/v7e-m/libg.a(lib_a-strlen.o)
                              build/PartA.o (strlen)

Allocating common symbols
Common symbol       size              file

event_handler_list  0x80              lib_build/xmc4_scu.o
intoutput           0x58              build/PartA.o

Discarded input sections

 .group         0x0000000000000000        0xc build/PartA.o
 .group         0x0000000000000000        0xc build/PartA.o
 .group         0x0000000000000000        0xc build/PartA.o
 .group         0x0000000000000000        0xc build/PartA.o
 .group         0x0000000000000000        0xc build/PartA.o
 .group         0x0000000000000000        0xc build/PartA.o
 .group         0x0000000000000000        0xc build/PartA.o
 .group         0x0000000000000000        0xc build/PartA.o
 .group         0x0000000000000000        0xc build/PartA.o
 .group         0x0000000000000000        0xc build/PartA.o
 .group         0x0000000000000000        0xc build/PartA.o
 .group         0x0000000000000000        0xc build/PartA.o
 .group         0x0000000000000000        0xc build/PartA.o
 .group         0x0000000000000000        0xc build/PartA.o
 .group         0x0000000000000000        0xc build/PartA.o
 .group         0x0000000000000000        0xc build/PartA.o
 .group         0x0000000000000000        0xc build/PartA.o
 .group         0x0000000000000000        0xc build/PartA.o
 .group         0x0000000000000000        0xc build/PartA.o
 .group         0x0000000000000000        0xc build/PartA.o
 .group         0x0000000000000000        0xc build/PartA.o
 .group         0x0000000000000000        0xc build/PartA.o
 .group         0x0000000000000000        0xc build/PartA.o
 .group         0x0000000000000000        0xc build/PartA.o
 .group         0x0000000000000000        0xc build/PartA.o
 .group         0x0000000000000000        0xc build/PartA.o
 .group         0x0000000000000000        0xc build/PartA.o
 .group         0x0000000000000000        0xc build/PartA.o
 .group         0x0000000000000000        0xc build/PartA.o
 .group         0x0000000000000000        0xc build/PartA.o
 .group         0x0000000000000000        0xc build/PartA.o
 .group         0x0000000000000000        0xc build/PartA.o
 .group         0x0000000000000000        0xc build/PartA.o
 .group         0x0000000000000000        0xc build/PartA.o
 .group         0x0000000000000000        0xc build/PartA.o
 .group         0x0000000000000000        0xc build/PartA.o
 .group         0x0000000000000000        0xc build/PartA.o
 .group         0x0000000000000000        0xc build/PartA.o
 .group         0x0000000000000000        0xc build/PartA.o
 .group         0x0000000000000000        0xc build/PartA.o
 .group         0x0000000000000000        0xc build/PartA.o
 .group         0x0000000000000000        0xc build/PartA.o
 .group         0x0000000000000000        0xc build/PartA.o
 .group         0x0000000000000000        0xc build/PartA.o
 .group         0x0000000000000000        0xc build/PartA.o
 .group         0x0000000000000000        0xc build/PartA.o
 .group         0x0000000000000000        0xc build/PartA.o
 .comment       0x0000000000000000       0x80 build/PartA.o
 .group         0x0000000000000000        0xc lib_build/xmc_gpio.o
 .group         0x0000000000000000        0xc lib_build/xmc_gpio.o
 .group         0x0000000000000000        0xc lib_build/xmc_gpio.o
 .group         0x0000000000000000        0xc lib_build/xmc_gpio.o
 .group         0x0000000000000000        0xc lib_build/xmc_gpio.o
 .group         0x0000000000000000        0xc lib_build/xmc_gpio.o
 .group         0x0000000000000000        0xc lib_build/xmc_gpio.o
 .group         0x0000000000000000        0xc lib_build/xmc_gpio.o
 .group         0x0000000000000000        0xc lib_build/xmc_gpio.o
 .group         0x0000000000000000        0xc lib_build/xmc_gpio.o
 .group         0x0000000000000000        0xc lib_build/xmc_gpio.o
 .group         0x0000000000000000        0xc lib_build/xmc_gpio.o
 .group         0x0000000000000000        0xc lib_build/xmc_gpio.o
 .group         0x0000000000000000        0xc lib_build/xmc_gpio.o
 .group         0x0000000000000000        0xc lib_build/xmc_gpio.o
 .group         0x0000000000000000        0xc lib_build/xmc_gpio.o
 .group         0x0000000000000000        0xc lib_build/xmc_gpio.o
 .group         0x0000000000000000        0xc lib_build/xmc_gpio.o
 .group         0x0000000000000000        0xc lib_build/xmc_gpio.o
 .group         0x0000000000000000        0xc lib_build/xmc_gpio.o
 .group         0x0000000000000000        0xc lib_build/xmc_gpio.o
 .group         0x0000000000000000        0xc lib_build/xmc_gpio.o
 .group         0x0000000000000000        0xc lib_build/xmc_gpio.o
 .group         0x0000000000000000        0xc lib_build/xmc_gpio.o
 .group         0x0000000000000000        0xc lib_build/xmc_gpio.o
 .group         0x0000000000000000        0xc lib_build/xmc_gpio.o
 .group         0x0000000000000000        0xc lib_build/xmc_gpio.o
 .group         0x0000000000000000        0xc lib_build/xmc_gpio.o
 .group         0x0000000000000000        0xc lib_build/xmc_gpio.o
 .group         0x0000000000000000        0xc lib_build/xmc_gpio.o
 .group         0x0000000000000000        0xc lib_build/xmc_gpio.o
 .group         0x0000000000000000        0xc lib_build/xmc_gpio.o
 .group         0x0000000000000000        0xc lib_build/xmc_gpio.o
 .debug_macro   0x0000000000000000      0xa4e lib_build/xmc_gpio.o
 .debug_macro   0x0000000000000000      0x16d lib_build/xmc_gpio.o
 .debug_macro   0x0000000000000000       0x22 lib_build/xmc_gpio.o
 .debug_macro   0x0000000000000000       0x8e lib_build/xmc_gpio.o
 .debug_macro   0x0000000000000000       0x51 lib_build/xmc_gpio.o
 .debug_macro   0x0000000000000000       0xef lib_build/xmc_gpio.o
 .debug_macro   0x0000000000000000       0x6a lib_build/xmc_gpio.o
 .debug_macro   0x0000000000000000      0x1df lib_build/xmc_gpio.o
 .debug_macro   0x0000000000000000       0x22 lib_build/xmc_gpio.o
 .debug_macro   0x0000000000000000       0x5e lib_build/xmc_gpio.o
 .debug_macro   0x0000000000000000       0x18 lib_build/xmc_gpio.o
 .debug_macro   0x0000000000000000       0x35 lib_build/xmc_gpio.o
 .debug_macro   0x0000000000000000       0x34 lib_build/xmc_gpio.o
 .debug_macro   0x0000000000000000       0x58 lib_build/xmc_gpio.o
 .debug_macro   0x0000000000000000       0x1f lib_build/xmc_gpio.o
 .debug_macro   0x0000000000000000       0x43 lib_build/xmc_gpio.o
 .debug_macro   0x0000000000000000       0x20 lib_build/xmc_gpio.o
 .debug_macro   0x0000000000000000      0x18e lib_build/xmc_gpio.o
 .debug_macro   0x0000000000000000      0x353 lib_build/xmc_gpio.o
 .debug_macro   0x0000000000000000       0x10 lib_build/xmc_gpio.o
 .debug_macro   0x0000000000000000       0x35 lib_build/xmc_gpio.o
 .debug_macro   0x0000000000000000      0x167 lib_build/xmc_gpio.o
 .debug_macro   0x0000000000000000       0x2d lib_build/xmc_gpio.o
 .debug_macro   0x0000000000000000       0x28 lib_build/xmc_gpio.o
 .debug_macro   0x0000000000000000       0xaf lib_build/xmc_gpio.o
 .debug_macro   0x0000000000000000      0xfe7 lib_build/xmc_gpio.o
 .debug_macro   0x0000000000000000       0x16 lib_build/xmc_gpio.o
 .debug_macro   0x0000000000000000    0x1474b lib_build/xmc_gpio.o
 .debug_macro   0x0000000000000000       0x12 lib_build/xmc_gpio.o
 .debug_macro   0x0000000000000000       0x4c lib_build/xmc_gpio.o
 .debug_macro   0x0000000000000000       0x22 lib_build/xmc_gpio.o
 .debug_macro   0x0000000000000000      0x861 lib_build/xmc_gpio.o
 .debug_macro   0x0000000000000000       0xa5 lib_build/xmc_gpio.o
 .comment       0x0000000000000000       0x80 lib_build/xmc_gpio.o
 .group         0x0000000000000000        0xc lib_build/xmc4_gpio.o
 .group         0x0000000000000000        0xc lib_build/xmc4_gpio.o
 .group         0x0000000000000000        0xc lib_build/xmc4_gpio.o
 .group         0x0000000000000000        0xc lib_build/xmc4_gpio.o
 .group         0x0000000000000000        0xc lib_build/xmc4_gpio.o
 .group         0x0000000000000000        0xc lib_build/xmc4_gpio.o
 .group         0x0000000000000000        0xc lib_build/xmc4_gpio.o
 .group         0x0000000000000000        0xc lib_build/xmc4_gpio.o
 .group         0x0000000000000000        0xc lib_build/xmc4_gpio.o
 .group         0x0000000000000000        0xc lib_build/xmc4_gpio.o
 .group         0x0000000000000000        0xc lib_build/xmc4_gpio.o
 .group         0x0000000000000000        0xc lib_build/xmc4_gpio.o
 .group         0x0000000000000000        0xc lib_build/xmc4_gpio.o
 .group         0x0000000000000000        0xc lib_build/xmc4_gpio.o
 .group         0x0000000000000000        0xc lib_build/xmc4_gpio.o
 .group         0x0000000000000000        0xc lib_build/xmc4_gpio.o
 .group         0x0000000000000000        0xc lib_build/xmc4_gpio.o
 .group         0x0000000000000000        0xc lib_build/xmc4_gpio.o
 .group         0x0000000000000000        0xc lib_build/xmc4_gpio.o
 .group         0x0000000000000000        0xc lib_build/xmc4_gpio.o
 .group         0x0000000000000000        0xc lib_build/xmc4_gpio.o
 .group         0x0000000000000000        0xc lib_build/xmc4_gpio.o
 .group         0x0000000000000000        0xc lib_build/xmc4_gpio.o
 .group         0x0000000000000000        0xc lib_build/xmc4_gpio.o
 .group         0x0000000000000000        0xc lib_build/xmc4_gpio.o
 .group         0x0000000000000000        0xc lib_build/xmc4_gpio.o
 .group         0x0000000000000000        0xc lib_build/xmc4_gpio.o
 .group         0x0000000000000000        0xc lib_build/xmc4_gpio.o
 .group         0x0000000000000000        0xc lib_build/xmc4_gpio.o
 .group         0x0000000000000000        0xc lib_build/xmc4_gpio.o
 .group         0x0000000000000000        0xc lib_build/xmc4_gpio.o
 .group         0x0000000000000000        0xc lib_build/xmc4_gpio.o
 .group         0x0000000000000000        0xc lib_build/xmc4_gpio.o
 .debug_macro   0x0000000000000000      0xa4e lib_build/xmc4_gpio.o
 .debug_macro   0x0000000000000000      0x16d lib_build/xmc4_gpio.o
 .debug_macro   0x0000000000000000       0x22 lib_build/xmc4_gpio.o
 .debug_macro   0x0000000000000000       0x8e lib_build/xmc4_gpio.o
 .debug_macro   0x0000000000000000       0x51 lib_build/xmc4_gpio.o
 .debug_macro   0x0000000000000000       0xef lib_build/xmc4_gpio.o
 .debug_macro   0x0000000000000000       0x6a lib_build/xmc4_gpio.o
 .debug_macro   0x0000000000000000      0x1df lib_build/xmc4_gpio.o
 .debug_macro   0x0000000000000000       0x22 lib_build/xmc4_gpio.o
 .debug_macro   0x0000000000000000       0x5e lib_build/xmc4_gpio.o
 .debug_macro   0x0000000000000000       0x18 lib_build/xmc4_gpio.o
 .debug_macro   0x0000000000000000       0x35 lib_build/xmc4_gpio.o
 .debug_macro   0x0000000000000000       0x34 lib_build/xmc4_gpio.o
 .debug_macro   0x0000000000000000       0x58 lib_build/xmc4_gpio.o
 .debug_macro   0x0000000000000000       0x1f lib_build/xmc4_gpio.o
 .debug_macro   0x0000000000000000       0x43 lib_build/xmc4_gpio.o
 .debug_macro   0x0000000000000000       0x20 lib_build/xmc4_gpio.o
 .debug_macro   0x0000000000000000      0x18e lib_build/xmc4_gpio.o
 .debug_macro   0x0000000000000000      0x353 lib_build/xmc4_gpio.o
 .debug_macro   0x0000000000000000       0x10 lib_build/xmc4_gpio.o
 .debug_macro   0x0000000000000000       0x35 lib_build/xmc4_gpio.o
 .debug_macro   0x0000000000000000      0x167 lib_build/xmc4_gpio.o
 .debug_macro   0x0000000000000000       0x2d lib_build/xmc4_gpio.o
 .debug_macro   0x0000000000000000       0x28 lib_build/xmc4_gpio.o
 .debug_macro   0x0000000000000000       0xaf lib_build/xmc4_gpio.o
 .debug_macro   0x0000000000000000      0xfe7 lib_build/xmc4_gpio.o
 .debug_macro   0x0000000000000000       0x16 lib_build/xmc4_gpio.o
 .debug_macro   0x0000000000000000    0x1474b lib_build/xmc4_gpio.o
 .debug_macro   0x0000000000000000       0x12 lib_build/xmc4_gpio.o
 .debug_macro   0x0000000000000000       0x4c lib_build/xmc4_gpio.o
 .debug_macro   0x0000000000000000       0x22 lib_build/xmc4_gpio.o
 .debug_macro   0x0000000000000000      0x861 lib_build/xmc4_gpio.o
 .debug_macro   0x0000000000000000       0xa5 lib_build/xmc4_gpio.o
 .comment       0x0000000000000000       0x80 lib_build/xmc4_gpio.o
 .group         0x0000000000000000        0xc lib_build/xmc_ccu4.o
 .group         0x0000000000000000        0xc lib_build/xmc_ccu4.o
 .group         0x0000000000000000        0xc lib_build/xmc_ccu4.o
 .group         0x0000000000000000        0xc lib_build/xmc_ccu4.o
 .group         0x0000000000000000        0xc lib_build/xmc_ccu4.o
 .group         0x0000000000000000        0xc lib_build/xmc_ccu4.o
 .group         0x0000000000000000        0xc lib_build/xmc_ccu4.o
 .group         0x0000000000000000        0xc lib_build/xmc_ccu4.o
 .group         0x0000000000000000        0xc lib_build/xmc_ccu4.o
 .group         0x0000000000000000        0xc lib_build/xmc_ccu4.o
 .group         0x0000000000000000        0xc lib_build/xmc_ccu4.o
 .group         0x0000000000000000        0xc lib_build/xmc_ccu4.o
 .group         0x0000000000000000        0xc lib_build/xmc_ccu4.o
 .group         0x0000000000000000        0xc lib_build/xmc_ccu4.o
 .group         0x0000000000000000        0xc lib_build/xmc_ccu4.o
 .group         0x0000000000000000        0xc lib_build/xmc_ccu4.o
 .group         0x0000000000000000        0xc lib_build/xmc_ccu4.o
 .group         0x0000000000000000        0xc lib_build/xmc_ccu4.o
 .group         0x0000000000000000        0xc lib_build/xmc_ccu4.o
 .group         0x0000000000000000        0xc lib_build/xmc_ccu4.o
 .group         0x0000000000000000        0xc lib_build/xmc_ccu4.o
 .group         0x0000000000000000        0xc lib_build/xmc_ccu4.o
 .group         0x0000000000000000        0xc lib_build/xmc_ccu4.o
 .group         0x0000000000000000        0xc lib_build/xmc_ccu4.o
 .group         0x0000000000000000        0xc lib_build/xmc_ccu4.o
 .group         0x0000000000000000        0xc lib_build/xmc_ccu4.o
 .group         0x0000000000000000        0xc lib_build/xmc_ccu4.o
 .group         0x0000000000000000        0xc lib_build/xmc_ccu4.o
 .group         0x0000000000000000        0xc lib_build/xmc_ccu4.o
 .group         0x0000000000000000        0xc lib_build/xmc_ccu4.o
 .group         0x0000000000000000        0xc lib_build/xmc_ccu4.o
 .group         0x0000000000000000        0xc lib_build/xmc_ccu4.o
 .debug_macro   0x0000000000000000      0xa4e lib_build/xmc_ccu4.o
 .debug_macro   0x0000000000000000      0x16d lib_build/xmc_ccu4.o
 .debug_macro   0x0000000000000000       0x22 lib_build/xmc_ccu4.o
 .debug_macro   0x0000000000000000       0x8e lib_build/xmc_ccu4.o
 .debug_macro   0x0000000000000000       0x51 lib_build/xmc_ccu4.o
 .debug_macro   0x0000000000000000       0xef lib_build/xmc_ccu4.o
 .debug_macro   0x0000000000000000       0x6a lib_build/xmc_ccu4.o
 .debug_macro   0x0000000000000000      0x1df lib_build/xmc_ccu4.o
 .debug_macro   0x0000000000000000       0x22 lib_build/xmc_ccu4.o
 .debug_macro   0x0000000000000000       0x5e lib_build/xmc_ccu4.o
 .debug_macro   0x0000000000000000       0x18 lib_build/xmc_ccu4.o
 .debug_macro   0x0000000000000000       0x35 lib_build/xmc_ccu4.o
 .debug_macro   0x0000000000000000       0x34 lib_build/xmc_ccu4.o
 .debug_macro   0x0000000000000000       0x58 lib_build/xmc_ccu4.o
 .debug_macro   0x0000000000000000       0x1f lib_build/xmc_ccu4.o
 .debug_macro   0x0000000000000000       0x43 lib_build/xmc_ccu4.o
 .debug_macro   0x0000000000000000       0x20 lib_build/xmc_ccu4.o
 .debug_macro   0x0000000000000000      0x18e lib_build/xmc_ccu4.o
 .debug_macro   0x0000000000000000      0x353 lib_build/xmc_ccu4.o
 .debug_macro   0x0000000000000000       0x10 lib_build/xmc_ccu4.o
 .debug_macro   0x0000000000000000       0x35 lib_build/xmc_ccu4.o
 .debug_macro   0x0000000000000000      0x167 lib_build/xmc_ccu4.o
 .debug_macro   0x0000000000000000       0x2d lib_build/xmc_ccu4.o
 .debug_macro   0x0000000000000000       0x28 lib_build/xmc_ccu4.o
 .debug_macro   0x0000000000000000       0xaf lib_build/xmc_ccu4.o
 .debug_macro   0x0000000000000000      0xfe7 lib_build/xmc_ccu4.o
 .debug_macro   0x0000000000000000       0x16 lib_build/xmc_ccu4.o
 .debug_macro   0x0000000000000000    0x1474b lib_build/xmc_ccu4.o
 .debug_macro   0x0000000000000000       0x12 lib_build/xmc_ccu4.o
 .debug_macro   0x0000000000000000       0x4c lib_build/xmc_ccu4.o
 .debug_macro   0x0000000000000000      0x6ec lib_build/xmc_ccu4.o
 .comment       0x0000000000000000       0x80 lib_build/xmc_ccu4.o
 .group         0x0000000000000000        0xc lib_build/xmc4_scu.o
 .group         0x0000000000000000        0xc lib_build/xmc4_scu.o
 .group         0x0000000000000000        0xc lib_build/xmc4_scu.o
 .group         0x0000000000000000        0xc lib_build/xmc4_scu.o
 .group         0x0000000000000000        0xc lib_build/xmc4_scu.o
 .group         0x0000000000000000        0xc lib_build/xmc4_scu.o
 .group         0x0000000000000000        0xc lib_build/xmc4_scu.o
 .group         0x0000000000000000        0xc lib_build/xmc4_scu.o
 .group         0x0000000000000000        0xc lib_build/xmc4_scu.o
 .group         0x0000000000000000        0xc lib_build/xmc4_scu.o
 .group         0x0000000000000000        0xc lib_build/xmc4_scu.o
 .group         0x0000000000000000        0xc lib_build/xmc4_scu.o
 .group         0x0000000000000000        0xc lib_build/xmc4_scu.o
 .group         0x0000000000000000        0xc lib_build/xmc4_scu.o
 .group         0x0000000000000000        0xc lib_build/xmc4_scu.o
 .group         0x0000000000000000        0xc lib_build/xmc4_scu.o
 .group         0x0000000000000000        0xc lib_build/xmc4_scu.o
 .group         0x0000000000000000        0xc lib_build/xmc4_scu.o
 .group         0x0000000000000000        0xc lib_build/xmc4_scu.o
 .group         0x0000000000000000        0xc lib_build/xmc4_scu.o
 .group         0x0000000000000000        0xc lib_build/xmc4_scu.o
 .group         0x0000000000000000        0xc lib_build/xmc4_scu.o
 .group         0x0000000000000000        0xc lib_build/xmc4_scu.o
 .group         0x0000000000000000        0xc lib_build/xmc4_scu.o
 .group         0x0000000000000000        0xc lib_build/xmc4_scu.o
 .group         0x0000000000000000        0xc lib_build/xmc4_scu.o
 .group         0x0000000000000000        0xc lib_build/xmc4_scu.o
 .group         0x0000000000000000        0xc lib_build/xmc4_scu.o
 .group         0x0000000000000000        0xc lib_build/xmc4_scu.o
 .group         0x0000000000000000        0xc lib_build/xmc4_scu.o
 .group         0x0000000000000000        0xc lib_build/xmc4_scu.o
 .debug_macro   0x0000000000000000      0xa4e lib_build/xmc4_scu.o
 .debug_macro   0x0000000000000000      0x16d lib_build/xmc4_scu.o
 .debug_macro   0x0000000000000000       0x22 lib_build/xmc4_scu.o
 .debug_macro   0x0000000000000000       0x8e lib_build/xmc4_scu.o
 .debug_macro   0x0000000000000000       0x51 lib_build/xmc4_scu.o
 .debug_macro   0x0000000000000000       0xef lib_build/xmc4_scu.o
 .debug_macro   0x0000000000000000       0x6a lib_build/xmc4_scu.o
 .debug_macro   0x0000000000000000      0x1df lib_build/xmc4_scu.o
 .debug_macro   0x0000000000000000       0x22 lib_build/xmc4_scu.o
 .debug_macro   0x0000000000000000       0x5e lib_build/xmc4_scu.o
 .debug_macro   0x0000000000000000       0x18 lib_build/xmc4_scu.o
 .debug_macro   0x0000000000000000       0x35 lib_build/xmc4_scu.o
 .debug_macro   0x0000000000000000       0x34 lib_build/xmc4_scu.o
 .debug_macro   0x0000000000000000       0x58 lib_build/xmc4_scu.o
 .debug_macro   0x0000000000000000       0x1f lib_build/xmc4_scu.o
 .debug_macro   0x0000000000000000       0x43 lib_build/xmc4_scu.o
 .debug_macro   0x0000000000000000       0x20 lib_build/xmc4_scu.o
 .debug_macro   0x0000000000000000      0x18e lib_build/xmc4_scu.o
 .debug_macro   0x0000000000000000      0x353 lib_build/xmc4_scu.o
 .debug_macro   0x0000000000000000       0x10 lib_build/xmc4_scu.o
 .debug_macro   0x0000000000000000       0x35 lib_build/xmc4_scu.o
 .debug_macro   0x0000000000000000      0x167 lib_build/xmc4_scu.o
 .debug_macro   0x0000000000000000       0x2d lib_build/xmc4_scu.o
 .debug_macro   0x0000000000000000       0x28 lib_build/xmc4_scu.o
 .debug_macro   0x0000000000000000       0xaf lib_build/xmc4_scu.o
 .debug_macro   0x0000000000000000      0xfe7 lib_build/xmc4_scu.o
 .debug_macro   0x0000000000000000       0x16 lib_build/xmc4_scu.o
 .debug_macro   0x0000000000000000    0x1474b lib_build/xmc4_scu.o
 .debug_macro   0x0000000000000000       0x12 lib_build/xmc4_scu.o
 .debug_macro   0x0000000000000000       0x4c lib_build/xmc4_scu.o
 .comment       0x0000000000000000       0x80 lib_build/xmc4_scu.o
 .group         0x0000000000000000        0xc lib_build/system_XMC4500.o
 .group         0x0000000000000000        0xc lib_build/system_XMC4500.o
 .group         0x0000000000000000        0xc lib_build/system_XMC4500.o
 .group         0x0000000000000000        0xc lib_build/system_XMC4500.o
 .group         0x0000000000000000        0xc lib_build/system_XMC4500.o
 .group         0x0000000000000000        0xc lib_build/system_XMC4500.o
 .group         0x0000000000000000        0xc lib_build/system_XMC4500.o
 .group         0x0000000000000000        0xc lib_build/system_XMC4500.o
 .group         0x0000000000000000        0xc lib_build/system_XMC4500.o
 .group         0x0000000000000000        0xc lib_build/system_XMC4500.o
 .group         0x0000000000000000        0xc lib_build/system_XMC4500.o
 .group         0x0000000000000000        0xc lib_build/system_XMC4500.o
 .group         0x0000000000000000        0xc lib_build/system_XMC4500.o
 .group         0x0000000000000000        0xc lib_build/system_XMC4500.o
 .group         0x0000000000000000        0xc lib_build/system_XMC4500.o
 .group         0x0000000000000000        0xc lib_build/system_XMC4500.o
 .group         0x0000000000000000        0xc lib_build/system_XMC4500.o
 .group         0x0000000000000000        0xc lib_build/system_XMC4500.o
 .group         0x0000000000000000        0xc lib_build/system_XMC4500.o
 .group         0x0000000000000000        0xc lib_build/system_XMC4500.o
 .group         0x0000000000000000        0xc lib_build/system_XMC4500.o
 .group         0x0000000000000000        0xc lib_build/system_XMC4500.o
 .group         0x0000000000000000        0xc lib_build/system_XMC4500.o
 .group         0x0000000000000000        0xc lib_build/system_XMC4500.o
 .group         0x0000000000000000        0xc lib_build/system_XMC4500.o
 .group         0x0000000000000000        0xc lib_build/system_XMC4500.o
 .debug_macro   0x0000000000000000      0xa4e lib_build/system_XMC4500.o
 .debug_macro   0x0000000000000000       0x22 lib_build/system_XMC4500.o
 .debug_macro   0x0000000000000000       0x18 lib_build/system_XMC4500.o
 .debug_macro   0x0000000000000000       0x35 lib_build/system_XMC4500.o
 .debug_macro   0x0000000000000000       0x34 lib_build/system_XMC4500.o
 .debug_macro   0x0000000000000000      0x16d lib_build/system_XMC4500.o
 .debug_macro   0x0000000000000000       0x58 lib_build/system_XMC4500.o
 .debug_macro   0x0000000000000000       0x1f lib_build/system_XMC4500.o
 .debug_macro   0x0000000000000000       0x43 lib_build/system_XMC4500.o
 .debug_macro   0x0000000000000000       0x20 lib_build/system_XMC4500.o
 .debug_macro   0x0000000000000000      0x18e lib_build/system_XMC4500.o
 .debug_macro   0x0000000000000000      0x353 lib_build/system_XMC4500.o
 .debug_macro   0x0000000000000000       0x10 lib_build/system_XMC4500.o
 .debug_macro   0x0000000000000000       0x35 lib_build/system_XMC4500.o
 .debug_macro   0x0000000000000000       0x2d lib_build/system_XMC4500.o
 .debug_macro   0x0000000000000000       0xef lib_build/system_XMC4500.o
 .debug_macro   0x0000000000000000       0x6a lib_build/system_XMC4500.o
 .debug_macro   0x0000000000000000      0x1df lib_build/system_XMC4500.o
 .debug_macro   0x0000000000000000       0xaf lib_build/system_XMC4500.o
 .debug_macro   0x0000000000000000      0xfe7 lib_build/system_XMC4500.o
 .debug_macro   0x0000000000000000       0x16 lib_build/system_XMC4500.o
 .debug_macro   0x0000000000000000    0x1474b lib_build/system_XMC4500.o
 .comment       0x0000000000000000       0x80 lib_build/system_XMC4500.o
 .group         0x0000000000000000        0xc lib_build/syscalls.o
 .group         0x0000000000000000        0xc lib_build/syscalls.o
 .group         0x0000000000000000        0xc lib_build/syscalls.o
 .group         0x0000000000000000        0xc lib_build/syscalls.o
 .group         0x0000000000000000        0xc lib_build/syscalls.o
 .group         0x0000000000000000        0xc lib_build/syscalls.o
 .group         0x0000000000000000        0xc lib_build/syscalls.o
 .group         0x0000000000000000        0xc lib_build/syscalls.o
 .group         0x0000000000000000        0xc lib_build/syscalls.o
 .group         0x0000000000000000        0xc lib_build/syscalls.o
 .group         0x0000000000000000        0xc lib_build/syscalls.o
 .group         0x0000000000000000        0xc lib_build/syscalls.o
 .group         0x0000000000000000        0xc lib_build/syscalls.o
 .group         0x0000000000000000        0xc lib_build/syscalls.o
 .group         0x0000000000000000        0xc lib_build/syscalls.o
 .group         0x0000000000000000        0xc lib_build/syscalls.o
 .group         0x0000000000000000        0xc lib_build/syscalls.o
 .group         0x0000000000000000        0xc lib_build/syscalls.o
 .group         0x0000000000000000        0xc lib_build/syscalls.o
 .group         0x0000000000000000        0xc lib_build/syscalls.o
 .group         0x0000000000000000        0xc lib_build/syscalls.o
 .group         0x0000000000000000        0xc lib_build/syscalls.o
 .group         0x0000000000000000        0xc lib_build/syscalls.o
 .group         0x0000000000000000        0xc lib_build/syscalls.o
 .group         0x0000000000000000        0xc lib_build/syscalls.o
 .group         0x0000000000000000        0xc lib_build/syscalls.o
 .group         0x0000000000000000        0xc lib_build/syscalls.o
 .group         0x0000000000000000        0xc lib_build/syscalls.o
 .group         0x0000000000000000        0xc lib_build/syscalls.o
 .debug_macro   0x0000000000000000      0xa4e lib_build/syscalls.o
 .debug_macro   0x0000000000000000       0x22 lib_build/syscalls.o
 .debug_macro   0x0000000000000000       0x8e lib_build/syscalls.o
 .debug_macro   0x0000000000000000       0x51 lib_build/syscalls.o
 .debug_macro   0x0000000000000000       0xef lib_build/syscalls.o
 .debug_macro   0x0000000000000000       0x6a lib_build/syscalls.o
 .debug_macro   0x0000000000000000      0x1df lib_build/syscalls.o
 .debug_macro   0x0000000000000000       0x5e lib_build/syscalls.o
 .debug_macro   0x0000000000000000       0x18 lib_build/syscalls.o
 .debug_macro   0x0000000000000000       0x35 lib_build/syscalls.o
 .debug_macro   0x0000000000000000       0x34 lib_build/syscalls.o
 .debug_macro   0x0000000000000000      0x16d lib_build/syscalls.o
 .debug_macro   0x0000000000000000       0x58 lib_build/syscalls.o
 .debug_macro   0x0000000000000000       0x1f lib_build/syscalls.o
 .debug_macro   0x0000000000000000       0x43 lib_build/syscalls.o
 .debug_macro   0x0000000000000000       0x20 lib_build/syscalls.o
 .debug_macro   0x0000000000000000      0x18e lib_build/syscalls.o
 .debug_macro   0x0000000000000000      0x353 lib_build/syscalls.o
 .debug_macro   0x0000000000000000       0x10 lib_build/syscalls.o
 .debug_macro   0x0000000000000000       0x1c lib_build/syscalls.o
 .debug_macro   0x0000000000000000       0x52 lib_build/syscalls.o
 .debug_macro   0x0000000000000000       0x40 lib_build/syscalls.o
 .debug_macro   0x0000000000000000       0x10 lib_build/syscalls.o
 .debug_macro   0x0000000000000000       0x40 lib_build/syscalls.o
 .debug_macro   0x0000000000000000       0xd7 lib_build/syscalls.o
 .debug_macro   0x0000000000000000       0x1c lib_build/syscalls.o
 .debug_macro   0x0000000000000000       0x3d lib_build/syscalls.o
 .comment       0x0000000000000000       0x80 lib_build/syscalls.o

Memory Configuration

Name             Origin             Length             Attributes
FLASH_1_cached   0x0000000008000000 0x0000000000100000 xr
FLASH_1_uncached 0x000000000c000000 0x0000000000100000 xr
PSRAM_1          0x0000000010000000 0x0000000000010000 !xr
DSRAM_1_system   0x0000000020000000 0x0000000000010000 !xr
DSRAM_2_comm     0x0000000030000000 0x0000000000008000 !xr
*default*        0x0000000000000000 0xffffffffffffffff

Linker script and memory map

LOAD build/PartA.o
LOAD lib_build/xmc_gpio.o
LOAD lib_build/xmc4_gpio.o
LOAD lib_build/xmc_ccu4.o
LOAD lib_build/xmc4_scu.o
LOAD lib_build/startup_XMC4500.o
LOAD lib_build/system_XMC4500.o
LOAD lib_build/syscalls.o
START GROUP
LOAD /usr/bin/../lib/gcc/arm-none-eabi/7.3.1/thumb/v7e-m/libgcc.a
LOAD /usr/bin/../lib/gcc/arm-none-eabi/7.3.1/../../../../arm-none-eabi/lib/thumb/v7e-m/libg.a
LOAD /usr/bin/../lib/gcc/arm-none-eabi/7.3.1/../../../../arm-none-eabi/lib/thumb/v7e-m/libc.a
END GROUP
START GROUP
LOAD /usr/bin/../lib/gcc/arm-none-eabi/7.3.1/thumb/v7e-m/libgcc.a
LOAD /usr/bin/../lib/gcc/arm-none-eabi/7.3.1/../../../../arm-none-eabi/lib/thumb/v7e-m/libc.a
LOAD /usr/bin/../lib/gcc/arm-none-eabi/7.3.1/../../../../arm-none-eabi/lib/thumb/v7e-m/libnosys.a
END GROUP
                0x0000000000000800                stack_size = DEFINED (stack_size)?stack_size:0x800
                0x0000000000000040                no_init_size = 0x40

.text           0x0000000008000000     0x32c8 load address 0x000000000c000000
                0x0000000008000000                sText = .
 *(.reset)
 .reset         0x0000000008000000      0x2b2 lib_build/startup_XMC4500.o
                0x0000000008000000                __Vectors
                0x0000000008000200                Reset_Handler
                0x00000000080002b0                VADC0_C0_3_IRQHandler
                0x00000000080002b0                DSD0_7_IRQHandler
                0x00000000080002b0                DebugMon_Handler
                0x00000000080002b0                VADC0_C0_0_IRQHandler
                0x00000000080002b0                CAN0_4_IRQHandler
                0x00000000080002b0                VADC0_G2_0_IRQHandler
                0x00000000080002b0                USIC0_5_IRQHandler
                0x00000000080002b0                POSIF0_0_IRQHandler
                0x00000000080002b0                POSIF1_0_IRQHandler
                0x00000000080002b0                HardFault_Handler
                0x00000000080002b0                VADC0_G1_1_IRQHandler
                0x00000000080002b0                SysTick_Handler
                0x00000000080002b0                PendSV_Handler
                0x00000000080002b0                NMI_Handler
                0x00000000080002b0                USIC1_3_IRQHandler
                0x00000000080002b0                CCU40_2_IRQHandler
                0x00000000080002b0                SCU_0_IRQHandler
                0x00000000080002b0                ERU0_0_IRQHandler
                0x00000000080002b0                CCU41_0_IRQHandler
                0x00000000080002b0                USIC1_5_IRQHandler
                0x00000000080002b0                DSD0_4_IRQHandler
                0x00000000080002b0                CCU80_1_IRQHandler
                0x00000000080002b0                CCU81_0_IRQHandler
                0x00000000080002b0                UsageFault_Handler
                0x00000000080002b0                USIC0_0_IRQHandler
                0x00000000080002b0                POSIF1_1_IRQHandler
                0x00000000080002b0                ERU0_2_IRQHandler
                0x00000000080002b0                CCU81_1_IRQHandler
                0x00000000080002b0                ERU1_1_IRQHandler
                0x00000000080002b0                VADC0_G2_3_IRQHandler
                0x00000000080002b0                VADC0_G2_2_IRQHandler
                0x00000000080002b0                CCU42_3_IRQHandler
                0x00000000080002b0                ERU0_3_IRQHandler
                0x00000000080002b0                DSD0_5_IRQHandler
                0x00000000080002b0                CAN0_6_IRQHandler
                0x00000000080002b0                CCU43_0_IRQHandler
                0x00000000080002b0                VADC0_G0_1_IRQHandler
                0x00000000080002b0                CCU81_2_IRQHandler
                0x00000000080002b0                USIC2_4_IRQHandler
                0x00000000080002b0                CCU81_3_IRQHandler
                0x00000000080002b0                CCU42_1_IRQHandler
                0x00000000080002b0                USIC1_1_IRQHandler
                0x00000000080002b0                USIC2_5_IRQHandler
                0x00000000080002b0                CAN0_0_IRQHandler
                0x00000000080002b0                ERU1_0_IRQHandler
                0x00000000080002b0                CCU42_2_IRQHandler
                0x00000000080002b0                Default_Handler
                0x00000000080002b0                USIC1_4_IRQHandler
                0x00000000080002b0                ERU1_3_IRQHandler
                0x00000000080002b0                USIC1_0_IRQHandler
                0x00000000080002b0                POSIF0_1_IRQHandler
                0x00000000080002b0                VADC0_G0_0_IRQHandler
                0x00000000080002b0                DSD0_2_IRQHandler
                0x00000000080002b0                CCU80_3_IRQHandler
                0x00000000080002b0                CCU41_3_IRQHandler
                0x00000000080002b0                CCU80_2_IRQHandler
                0x00000000080002b0                VADC0_G1_3_IRQHandler
                0x00000000080002b0                VADC0_G0_3_IRQHandler
                0x00000000080002b0                GPDMA0_0_IRQHandler
                0x00000000080002b0                PMU0_0_IRQHandler
                0x00000000080002b0                CAN0_7_IRQHandler
                0x00000000080002b0                DSD0_1_IRQHandler
                0x00000000080002b0                CCU41_2_IRQHandler
                0x00000000080002b0                VADC0_C0_1_IRQHandler
                0x00000000080002b0                CCU43_2_IRQHandler
                0x00000000080002b0                USIC2_2_IRQHandler
                0x00000000080002b0                MemManage_Handler
                0x00000000080002b0                VADC0_G3_1_IRQHandler
                0x00000000080002b0                DAC0_0_IRQHandler
                0x00000000080002b0                SVC_Handler
                0x00000000080002b0                VADC0_G3_3_IRQHandler
                0x00000000080002b0                ERU1_2_IRQHandler
                0x00000000080002b0                CCU41_1_IRQHandler
                0x00000000080002b0                DSD0_6_IRQHandler
                0x00000000080002b0                CCU43_1_IRQHandler
                0x00000000080002b0                VADC0_G1_2_IRQHandler
                0x00000000080002b0                USIC2_3_IRQHandler
                0x00000000080002b0                CAN0_2_IRQHandler
                0x00000000080002b0                USIC2_0_IRQHandler
                0x00000000080002b0                VADC0_G0_2_IRQHandler
                0x00000000080002b0                VADC0_G2_1_IRQHandler
                0x00000000080002b0                CAN0_3_IRQHandler
                0x00000000080002b0                ETH0_0_IRQHandler
                0x00000000080002b0                USIC0_3_IRQHandler
                0x00000000080002b0                DSD0_0_IRQHandler
                0x00000000080002b0                VADC0_C0_2_IRQHandler
                0x00000000080002b0                CCU42_0_IRQHandler
                0x00000000080002b0                FCE0_0_IRQHandler
                0x00000000080002b0                VADC0_G1_0_IRQHandler
                0x00000000080002b0                USB0_0_IRQHandler
                0x00000000080002b0                CAN0_5_IRQHandler
                0x00000000080002b0                CCU80_0_IRQHandler
                0x00000000080002b0                CCU40_1_IRQHandler
                0x00000000080002b0                USIC2_1_IRQHandler
                0x00000000080002b0                USIC0_1_IRQHandler
                0x00000000080002b0                VADC0_G3_2_IRQHandler
                0x00000000080002b0                CCU40_3_IRQHandler
                0x00000000080002b0                BusFault_Handler
                0x00000000080002b0                LEDTS0_0_IRQHandler
                0x00000000080002b0                USIC0_4_IRQHandler
                0x00000000080002b0                CCU43_3_IRQHandler
                0x00000000080002b0                ERU0_1_IRQHandler
                0x00000000080002b0                VADC0_G3_0_IRQHandler
                0x00000000080002b0                USIC1_2_IRQHandler
                0x00000000080002b0                DSD0_3_IRQHandler
                0x00000000080002b0                SDMMC0_0_IRQHandler
                0x00000000080002b0                CAN0_1_IRQHandler
                0x00000000080002b0                USIC0_2_IRQHandler
                0x00000000080002b0                DAC0_1_IRQHandler
                0x00000000080002b0                GPDMA1_0_IRQHandler
 *(.text .text.* .gnu.linkonce.t.*)
 .text          0x00000000080002b2        0x0 build/PartA.o
 *fill*         0x00000000080002b2        0x2 
 .text.__NVIC_EnableIRQ
                0x00000000080002b4       0x3c build/PartA.o
 .text.XMC_GPIO_SetOutputLevel
                0x00000000080002f0       0x24 build/PartA.o
 .text.XMC_CCU4_EnableClock
                0x0000000008000314       0x2a build/PartA.o
 .text.XMC_CCU4_SLICE_StartTimer
                0x000000000800033e       0x1a build/PartA.o
 .text.XMC_CCU4_SLICE_SetTimerPeriodMatch
                0x0000000008000358       0x1e build/PartA.o
 .text.XMC_CCU4_EnableShadowTransfer
                0x0000000008000376       0x1c build/PartA.o
 .text.XMC_CCU4_SLICE_EnableEvent
                0x0000000008000392       0x2e build/PartA.o
 .text.CCU40_0_IRQHandler
                0x00000000080003c0       0x70 build/PartA.o
                0x00000000080003c0                CCU40_0_IRQHandler
 .text.main     0x0000000008000430       0x70 build/PartA.o
                0x0000000008000430                main
 .text.morse    0x00000000080004a0      0x224 build/PartA.o
                0x00000000080004a0                morse
 .text          0x00000000080006c4        0x0 lib_build/xmc_gpio.o
 .text.XMC_GPIO_SetMode
                0x00000000080006c4       0x82 lib_build/xmc_gpio.o
                0x00000000080006c4                XMC_GPIO_SetMode
 .text.XMC_GPIO_SetHardwareControl
                0x0000000008000746       0x46 lib_build/xmc_gpio.o
                0x0000000008000746                XMC_GPIO_SetHardwareControl
 .text          0x000000000800078c        0x0 lib_build/xmc4_gpio.o
 .text.XMC_GPIO_Init
                0x000000000800078c      0x144 lib_build/xmc4_gpio.o
                0x000000000800078c                XMC_GPIO_Init
 .text.XMC_GPIO_SetOutputStrength
                0x00000000080008d0       0x86 lib_build/xmc4_gpio.o
                0x00000000080008d0                XMC_GPIO_SetOutputStrength
 .text          0x0000000008000956        0x0 lib_build/xmc_ccu4.o
 .text.XMC_CCU4_StartPrescaler
                0x0000000008000956       0x20 lib_build/xmc_ccu4.o
 .text.XMC_CCU4_SLICE_SetDitherCompareValue
                0x0000000008000976       0x1e lib_build/xmc_ccu4.o
 .text.XMC_CCU4_lAssertReset
                0x0000000008000994       0x64 lib_build/xmc_ccu4.o
 .text.XMC_CCU4_lDeassertReset
                0x00000000080009f8       0x64 lib_build/xmc_ccu4.o
 .text.XMC_CCU4_EnableModule
                0x0000000008000a5c       0x1c lib_build/xmc_ccu4.o
                0x0000000008000a5c                XMC_CCU4_EnableModule
 .text.XMC_CCU4_DisableModule
                0x0000000008000a78       0x16 lib_build/xmc_ccu4.o
                0x0000000008000a78                XMC_CCU4_DisableModule
 .text.XMC_CCU4_Init
                0x0000000008000a8e       0x3e lib_build/xmc_ccu4.o
                0x0000000008000a8e                XMC_CCU4_Init
 .text.XMC_CCU4_SetModuleClock
                0x0000000008000acc       0x36 lib_build/xmc_ccu4.o
                0x0000000008000acc                XMC_CCU4_SetModuleClock
 .text.XMC_CCU4_SetMultiChannelShadowTransferMode
                0x0000000008000b02       0x38 lib_build/xmc_ccu4.o
                0x0000000008000b02                XMC_CCU4_SetMultiChannelShadowTransferMode
 .text.XMC_CCU4_SLICE_CompareInit
                0x0000000008000b3a       0x6e lib_build/xmc_ccu4.o
                0x0000000008000b3a                XMC_CCU4_SLICE_CompareInit
 .text.XMC_CCU4_SLICE_CaptureInit
                0x0000000008000ba8       0x4e lib_build/xmc_ccu4.o
                0x0000000008000ba8                XMC_CCU4_SLICE_CaptureInit
 .text.XMC_CCU4_SLICE_StartConfig
                0x0000000008000bf6       0x5c lib_build/xmc_ccu4.o
                0x0000000008000bf6                XMC_CCU4_SLICE_StartConfig
 .text.XMC_CCU4_SLICE_StopConfig
                0x0000000008000c52       0x58 lib_build/xmc_ccu4.o
                0x0000000008000c52                XMC_CCU4_SLICE_StopConfig
 .text.XMC_CCU4_SLICE_LoadConfig
                0x0000000008000caa       0x36 lib_build/xmc_ccu4.o
                0x0000000008000caa                XMC_CCU4_SLICE_LoadConfig
 .text.XMC_CCU4_SLICE_ModulationConfig
                0x0000000008000ce0       0x80 lib_build/xmc_ccu4.o
                0x0000000008000ce0                XMC_CCU4_SLICE_ModulationConfig
 .text.XMC_CCU4_SLICE_CountConfig
                0x0000000008000d60       0x36 lib_build/xmc_ccu4.o
                0x0000000008000d60                XMC_CCU4_SLICE_CountConfig
 .text.XMC_CCU4_SLICE_GateConfig
                0x0000000008000d96       0x36 lib_build/xmc_ccu4.o
                0x0000000008000d96                XMC_CCU4_SLICE_GateConfig
 .text.XMC_CCU4_SLICE_Capture0Config
                0x0000000008000dcc       0x36 lib_build/xmc_ccu4.o
                0x0000000008000dcc                XMC_CCU4_SLICE_Capture0Config
 .text.XMC_CCU4_SLICE_Capture1Config
                0x0000000008000e02       0x36 lib_build/xmc_ccu4.o
                0x0000000008000e02                XMC_CCU4_SLICE_Capture1Config
 .text.XMC_CCU4_SLICE_DirectionConfig
                0x0000000008000e38       0x36 lib_build/xmc_ccu4.o
                0x0000000008000e38                XMC_CCU4_SLICE_DirectionConfig
 .text.XMC_CCU4_SLICE_StatusBitOverrideConfig
                0x0000000008000e6e       0x30 lib_build/xmc_ccu4.o
                0x0000000008000e6e                XMC_CCU4_SLICE_StatusBitOverrideConfig
 .text.XMC_CCU4_SLICE_TrapConfig
                0x0000000008000e9e       0x74 lib_build/xmc_ccu4.o
                0x0000000008000e9e                XMC_CCU4_SLICE_TrapConfig
 .text.XMC_CCU4_SLICE_ConfigureStatusBitOverrideEvent
                0x0000000008000f12       0xc4 lib_build/xmc_ccu4.o
                0x0000000008000f12                XMC_CCU4_SLICE_ConfigureStatusBitOverrideEvent
 .text.XMC_CCU4_SLICE_ConfigureEvent
                0x0000000008000fd6       0xd4 lib_build/xmc_ccu4.o
                0x0000000008000fd6                XMC_CCU4_SLICE_ConfigureEvent
 .text.XMC_CCU4_SLICE_SetInput
                0x00000000080010aa       0x52 lib_build/xmc_ccu4.o
                0x00000000080010aa                XMC_CCU4_SLICE_SetInput
 .text.XMC_CCU4_SLICE_SetTimerRepeatMode
                0x00000000080010fc       0x38 lib_build/xmc_ccu4.o
                0x00000000080010fc                XMC_CCU4_SLICE_SetTimerRepeatMode
 .text.XMC_CCU4_SLICE_SetTimerCountingMode
                0x0000000008001134       0x38 lib_build/xmc_ccu4.o
                0x0000000008001134                XMC_CCU4_SLICE_SetTimerCountingMode
 .text.XMC_CCU4_SLICE_GetCaptureRegisterValue
                0x000000000800116c       0x24 lib_build/xmc_ccu4.o
                0x000000000800116c                XMC_CCU4_SLICE_GetCaptureRegisterValue
 .text.XMC_CCU4_SLICE_GetLastCapturedTimerValue
                0x0000000008001190       0x8c lib_build/xmc_ccu4.o
                0x0000000008001190                XMC_CCU4_SLICE_GetLastCapturedTimerValue
 .text.XMC_CCU4_GetCapturedValueFromFifo
                0x000000000800121c       0x38 lib_build/xmc_ccu4.o
                0x000000000800121c                XMC_CCU4_GetCapturedValueFromFifo
 .text.XMC_CCU4_SLICE_EnableDithering
                0x0000000008001254       0x5c lib_build/xmc_ccu4.o
                0x0000000008001254                XMC_CCU4_SLICE_EnableDithering
 .text.XMC_CCU4_SLICE_SetPrescaler
                0x00000000080012b0       0x3c lib_build/xmc_ccu4.o
                0x00000000080012b0                XMC_CCU4_SLICE_SetPrescaler
 .text.XMC_CCU4_SLICE_SetInterruptNode
                0x00000000080012ec       0xb0 lib_build/xmc_ccu4.o
                0x00000000080012ec                XMC_CCU4_SLICE_SetInterruptNode
 .text.XMC_CCU4_SLICE_SetPassiveLevel
                0x000000000800139c       0x34 lib_build/xmc_ccu4.o
                0x000000000800139c                XMC_CCU4_SLICE_SetPassiveLevel
 .text          0x00000000080013d0        0x0 lib_build/xmc4_scu.o
 .text.XMC_SCU_CLOCK_GetUsbClockSource
                0x00000000080013d0       0x1c lib_build/xmc4_scu.o
 .text.XMC_SCU_CLOCK_GetWdtClockSource
                0x00000000080013ec       0x1c lib_build/xmc4_scu.o
 .text.XMC_SCU_CLOCK_GetExternalOutputClockSource
                0x0000000008001408       0x20 lib_build/xmc4_scu.o
 .text.XMC_SCU_CLOCK_GetSystemClockFrequency
                0x0000000008001428       0x28 lib_build/xmc4_scu.o
 .text.XMC_SCU_CLOCK_GetCpuClockFrequency
                0x0000000008001450       0x18 lib_build/xmc4_scu.o
 .text.XMC_SCU_GetMirrorStatus
                0x0000000008001468       0x18 lib_build/xmc4_scu.o
 .text.XMC_SCU_lDelay
                0x0000000008001480       0x48 lib_build/xmc4_scu.o
 .text.XMC_SCU_INTERRUPT_EnableEvent
                0x00000000080014c8       0x24 lib_build/xmc4_scu.o
                0x00000000080014c8                XMC_SCU_INTERRUPT_EnableEvent
 .text.XMC_SCU_INTERRUPT_DisableEvent
                0x00000000080014ec       0x28 lib_build/xmc4_scu.o
                0x00000000080014ec                XMC_SCU_INTERRUPT_DisableEvent
 .text.XMC_SCU_INTERRUPT_TriggerEvent
                0x0000000008001514       0x24 lib_build/xmc4_scu.o
                0x0000000008001514                XMC_SCU_INTERRUPT_TriggerEvent
 .text.XMC_SCU_INTERUPT_GetEventStatus
                0x0000000008001538       0x18 lib_build/xmc4_scu.o
                0x0000000008001538                XMC_SCU_INTERUPT_GetEventStatus
 .text.XMC_SCU_INTERRUPT_ClearEventStatus
                0x0000000008001550       0x20 lib_build/xmc4_scu.o
                0x0000000008001550                XMC_SCU_INTERRUPT_ClearEventStatus
 .text.XMC_SCU_GetBootMode
                0x0000000008001570       0x1c lib_build/xmc4_scu.o
                0x0000000008001570                XMC_SCU_GetBootMode
 .text.XMC_SCU_SetBootMode
                0x000000000800158c       0x20 lib_build/xmc4_scu.o
                0x000000000800158c                XMC_SCU_SetBootMode
 .text.XMC_SCU_ReadGPR
                0x00000000080015ac       0x24 lib_build/xmc4_scu.o
                0x00000000080015ac                XMC_SCU_ReadGPR
 .text.XMC_SCU_WriteGPR
                0x00000000080015d0       0x28 lib_build/xmc4_scu.o
                0x00000000080015d0                XMC_SCU_WriteGPR
 .text.XMC_SCU_EnableOutOfRangeComparator
                0x00000000080015f8       0x38 lib_build/xmc4_scu.o
                0x00000000080015f8                XMC_SCU_EnableOutOfRangeComparator
 .text.XMC_SCU_DisableOutOfRangeComparator
                0x0000000008001630       0x3c lib_build/xmc4_scu.o
                0x0000000008001630                XMC_SCU_DisableOutOfRangeComparator
 .text.XMC_SCU_CalibrateTemperatureSensor
                0x000000000800166c       0x30 lib_build/xmc4_scu.o
                0x000000000800166c                XMC_SCU_CalibrateTemperatureSensor
 .text.XMC_SCU_EnableTemperatureSensor
                0x000000000800169c       0x24 lib_build/xmc4_scu.o
                0x000000000800169c                XMC_SCU_EnableTemperatureSensor
 .text.XMC_SCU_DisableTemperatureSensor
                0x00000000080016c0       0x24 lib_build/xmc4_scu.o
                0x00000000080016c0                XMC_SCU_DisableTemperatureSensor
 .text.XMC_SCU_IsTemperatureSensorEnabled
                0x00000000080016e4       0x28 lib_build/xmc4_scu.o
                0x00000000080016e4                XMC_SCU_IsTemperatureSensorEnabled
 .text.XMC_SCU_IsTemperatureSensorReady
                0x000000000800170c       0x28 lib_build/xmc4_scu.o
                0x000000000800170c                XMC_SCU_IsTemperatureSensorReady
 .text.XMC_SCU_StartTemperatureMeasurement
                0x0000000008001734       0x4c lib_build/xmc4_scu.o
                0x0000000008001734                XMC_SCU_StartTemperatureMeasurement
 .text.XMC_SCU_GetTemperatureMeasurement
                0x0000000008001780       0x38 lib_build/xmc4_scu.o
                0x0000000008001780                XMC_SCU_GetTemperatureMeasurement
 .text.XMC_SCU_IsTemperatureSensorBusy
                0x00000000080017b8       0x28 lib_build/xmc4_scu.o
                0x00000000080017b8                XMC_SCU_IsTemperatureSensorBusy
 .text.XMC_SCU_WriteToRetentionMemory
                0x00000000080017e0       0x4c lib_build/xmc4_scu.o
                0x00000000080017e0                XMC_SCU_WriteToRetentionMemory
 .text.XMC_SCU_ReadFromRetentionMemory
                0x000000000800182c       0x48 lib_build/xmc4_scu.o
                0x000000000800182c                XMC_SCU_ReadFromRetentionMemory
 .text.XMC_SCU_CLOCK_Init
                0x0000000008001874       0xe6 lib_build/xmc4_scu.o
                0x0000000008001874                XMC_SCU_CLOCK_Init
 *fill*         0x000000000800195a        0x2 
 .text.XMC_SCU_TRAP_Enable
                0x000000000800195c       0x28 lib_build/xmc4_scu.o
                0x000000000800195c                XMC_SCU_TRAP_Enable
 .text.XMC_SCU_TRAP_Disable
                0x0000000008001984       0x24 lib_build/xmc4_scu.o
                0x0000000008001984                XMC_SCU_TRAP_Disable
 .text.XMC_SCU_TRAP_GetStatus
                0x00000000080019a8       0x18 lib_build/xmc4_scu.o
                0x00000000080019a8                XMC_SCU_TRAP_GetStatus
 .text.XMC_SCU_TRAP_Trigger
                0x00000000080019c0       0x20 lib_build/xmc4_scu.o
                0x00000000080019c0                XMC_SCU_TRAP_Trigger
 .text.XMC_SCU_TRAP_ClearStatus
                0x00000000080019e0       0x20 lib_build/xmc4_scu.o
                0x00000000080019e0                XMC_SCU_TRAP_ClearStatus
 .text.XMC_SCU_PARITY_ClearStatus
                0x0000000008001a00       0x24 lib_build/xmc4_scu.o
                0x0000000008001a00                XMC_SCU_PARITY_ClearStatus
 .text.XMC_SCU_PARITY_GetStatus
                0x0000000008001a24       0x18 lib_build/xmc4_scu.o
                0x0000000008001a24                XMC_SCU_PARITY_GetStatus
 .text.XMC_SCU_PARITY_Enable
                0x0000000008001a3c       0x24 lib_build/xmc4_scu.o
                0x0000000008001a3c                XMC_SCU_PARITY_Enable
 .text.XMC_SCU_PARITY_Disable
                0x0000000008001a60       0x28 lib_build/xmc4_scu.o
                0x0000000008001a60                XMC_SCU_PARITY_Disable
 .text.XMC_SCU_PARITY_EnableTrapGeneration
                0x0000000008001a88       0x24 lib_build/xmc4_scu.o
                0x0000000008001a88                XMC_SCU_PARITY_EnableTrapGeneration
 .text.XMC_SCU_PARITY_DisableTrapGeneration
                0x0000000008001aac       0x28 lib_build/xmc4_scu.o
                0x0000000008001aac                XMC_SCU_PARITY_DisableTrapGeneration
 .text.XMC_SCU_INTERRUPT_EnableNmiRequest
                0x0000000008001ad4       0x24 lib_build/xmc4_scu.o
                0x0000000008001ad4                XMC_SCU_INTERRUPT_EnableNmiRequest
 .text.XMC_SCU_INTERRUPT_DisableNmiRequest
                0x0000000008001af8       0x28 lib_build/xmc4_scu.o
                0x0000000008001af8                XMC_SCU_INTERRUPT_DisableNmiRequest
 .text.XMC_SCU_RESET_AssertPeripheralReset
                0x0000000008001b20       0x3c lib_build/xmc4_scu.o
                0x0000000008001b20                XMC_SCU_RESET_AssertPeripheralReset
 .text.XMC_SCU_RESET_DeassertPeripheralReset
                0x0000000008001b5c       0x3c lib_build/xmc4_scu.o
                0x0000000008001b5c                XMC_SCU_RESET_DeassertPeripheralReset
 .text.XMC_SCU_RESET_IsPeripheralResetAsserted
                0x0000000008001b98       0x48 lib_build/xmc4_scu.o
                0x0000000008001b98                XMC_SCU_RESET_IsPeripheralResetAsserted
 .text.XMC_SCU_CLOCK_GetSystemPllClockFrequency
                0x0000000008001be0       0x7c lib_build/xmc4_scu.o
                0x0000000008001be0                XMC_SCU_CLOCK_GetSystemPllClockFrequency
 .text.XMC_SCU_CLOCK_GetSystemPllClockSourceFrequency
                0x0000000008001c5c       0x30 lib_build/xmc4_scu.o
                0x0000000008001c5c                XMC_SCU_CLOCK_GetSystemPllClockSourceFrequency
 .text.XMC_SCU_CLOCK_GetUsbPllClockFrequency
                0x0000000008001c8c       0x54 lib_build/xmc4_scu.o
                0x0000000008001c8c                XMC_SCU_CLOCK_GetUsbPllClockFrequency
 .text.XMC_SCU_CLOCK_GetCcuClockFrequency
                0x0000000008001ce0       0x2c lib_build/xmc4_scu.o
                0x0000000008001ce0                XMC_SCU_CLOCK_GetCcuClockFrequency
 .text.XMC_SCU_CLOCK_GetUsbClockFrequency
                0x0000000008001d0c       0x48 lib_build/xmc4_scu.o
                0x0000000008001d0c                XMC_SCU_CLOCK_GetUsbClockFrequency
 .text.XMC_SCU_CLOCK_GetEbuClockFrequency
                0x0000000008001d54       0x28 lib_build/xmc4_scu.o
                0x0000000008001d54                XMC_SCU_CLOCK_GetEbuClockFrequency
 .text.XMC_SCU_CLOCK_GetWdtClockFrequency
                0x0000000008001d7c       0x58 lib_build/xmc4_scu.o
                0x0000000008001d7c                XMC_SCU_CLOCK_GetWdtClockFrequency
 .text.XMC_SCU_CLOCK_GetExternalOutputClockFrequency
                0x0000000008001dd4       0x70 lib_build/xmc4_scu.o
                0x0000000008001dd4                XMC_SCU_CLOCK_GetExternalOutputClockFrequency
 .text.XMC_SCU_CLOCK_GetPeripheralClockFrequency
                0x0000000008001e44       0x20 lib_build/xmc4_scu.o
                0x0000000008001e44                XMC_SCU_CLOCK_GetPeripheralClockFrequency
 .text.XMC_SCU_CLOCK_SetSystemClockSource
                0x0000000008001e64       0x28 lib_build/xmc4_scu.o
                0x0000000008001e64                XMC_SCU_CLOCK_SetSystemClockSource
 .text.XMC_SCU_CLOCK_SetUsbClockSource
                0x0000000008001e8c       0x28 lib_build/xmc4_scu.o
                0x0000000008001e8c                XMC_SCU_CLOCK_SetUsbClockSource
 .text.XMC_SCU_CLOCK_SetWdtClockSource
                0x0000000008001eb4       0x28 lib_build/xmc4_scu.o
                0x0000000008001eb4                XMC_SCU_CLOCK_SetWdtClockSource
 .text.XMC_SCU_CLOCK_SetExternalOutputClockSource
                0x0000000008001edc       0x2c lib_build/xmc4_scu.o
                0x0000000008001edc                XMC_SCU_CLOCK_SetExternalOutputClockSource
 .text.XMC_SCU_CLOCK_SetSystemPllClockSource
                0x0000000008001f08       0x44 lib_build/xmc4_scu.o
                0x0000000008001f08                XMC_SCU_CLOCK_SetSystemPllClockSource
 .text.XMC_SCU_HIB_SetRtcClockSource
                0x0000000008001f4c       0x40 lib_build/xmc4_scu.o
                0x0000000008001f4c                XMC_SCU_HIB_SetRtcClockSource
 .text.XMC_SCU_HIB_SetStandbyClockSource
                0x0000000008001f8c       0x40 lib_build/xmc4_scu.o
                0x0000000008001f8c                XMC_SCU_HIB_SetStandbyClockSource
 .text.XMC_SCU_CLOCK_SetSystemClockDivider
                0x0000000008001fcc       0x2c lib_build/xmc4_scu.o
                0x0000000008001fcc                XMC_SCU_CLOCK_SetSystemClockDivider
 .text.XMC_SCU_CLOCK_SetCcuClockDivider
                0x0000000008001ff8       0x2c lib_build/xmc4_scu.o
                0x0000000008001ff8                XMC_SCU_CLOCK_SetCcuClockDivider
 .text.XMC_SCU_CLOCK_SetCpuClockDivider
                0x0000000008002024       0x2c lib_build/xmc4_scu.o
                0x0000000008002024                XMC_SCU_CLOCK_SetCpuClockDivider
 .text.XMC_SCU_CLOCK_SetPeripheralClockDivider
                0x0000000008002050       0x2c lib_build/xmc4_scu.o
                0x0000000008002050                XMC_SCU_CLOCK_SetPeripheralClockDivider
 .text.XMC_SCU_CLOCK_SetUsbClockDivider
                0x000000000800207c       0x2c lib_build/xmc4_scu.o
                0x000000000800207c                XMC_SCU_CLOCK_SetUsbClockDivider
 .text.XMC_SCU_CLOCK_SetEbuClockDivider
                0x00000000080020a8       0x2c lib_build/xmc4_scu.o
                0x00000000080020a8                XMC_SCU_CLOCK_SetEbuClockDivider
 .text.XMC_SCU_CLOCK_SetWdtClockDivider
                0x00000000080020d4       0x2c lib_build/xmc4_scu.o
                0x00000000080020d4                XMC_SCU_CLOCK_SetWdtClockDivider
 .text.XMC_SCU_CLOCK_SetExternalOutputClockDivider
                0x0000000008002100       0x30 lib_build/xmc4_scu.o
                0x0000000008002100                XMC_SCU_CLOCK_SetExternalOutputClockDivider
 .text.XMC_SCU_CLOCK_EnableClock
                0x0000000008002130       0x20 lib_build/xmc4_scu.o
                0x0000000008002130                XMC_SCU_CLOCK_EnableClock
 .text.XMC_SCU_CLOCK_DisableClock
                0x0000000008002150       0x20 lib_build/xmc4_scu.o
                0x0000000008002150                XMC_SCU_CLOCK_DisableClock
 .text.XMC_SCU_CLOCK_IsClockEnabled
                0x0000000008002170       0x2c lib_build/xmc4_scu.o
                0x0000000008002170                XMC_SCU_CLOCK_IsClockEnabled
 .text.XMC_SCU_POWER_GetEVR13Voltage
                0x000000000800219c       0x30 lib_build/xmc4_scu.o
                0x000000000800219c                XMC_SCU_POWER_GetEVR13Voltage
 .text.XMC_SCU_POWER_GetEVR33Voltage
                0x00000000080021cc       0x34 lib_build/xmc4_scu.o
                0x00000000080021cc                XMC_SCU_POWER_GetEVR33Voltage
 .text.XMC_SCU_CLOCK_EnableUsbPll
                0x0000000008002200       0x24 lib_build/xmc4_scu.o
                0x0000000008002200                XMC_SCU_CLOCK_EnableUsbPll
 .text.XMC_SCU_CLOCK_DisableUsbPll
                0x0000000008002224       0x24 lib_build/xmc4_scu.o
                0x0000000008002224                XMC_SCU_CLOCK_DisableUsbPll
 .text.XMC_SCU_CLOCK_StartUsbPll
                0x0000000008002248       0x78 lib_build/xmc4_scu.o
                0x0000000008002248                XMC_SCU_CLOCK_StartUsbPll
 .text.XMC_SCU_CLOCK_StopUsbPll
                0x00000000080022c0       0x1c lib_build/xmc4_scu.o
                0x00000000080022c0                XMC_SCU_CLOCK_StopUsbPll
 .text.XMC_SCU_CLOCK_SetBackupClockCalibrationMode
                0x00000000080022dc       0x4c lib_build/xmc4_scu.o
                0x00000000080022dc                XMC_SCU_CLOCK_SetBackupClockCalibrationMode
 .text.XMC_SCU_POWER_EnableUsb
                0x0000000008002328       0x1c lib_build/xmc4_scu.o
                0x0000000008002328                XMC_SCU_POWER_EnableUsb
 .text.XMC_SCU_POWER_DisableUsb
                0x0000000008002344       0x1c lib_build/xmc4_scu.o
                0x0000000008002344                XMC_SCU_POWER_DisableUsb
 .text.XMC_SCU_CLOCK_IsUsbPllLocked
                0x0000000008002360       0x24 lib_build/xmc4_scu.o
                0x0000000008002360                XMC_SCU_CLOCK_IsUsbPllLocked
 .text.XMC_SCU_HIB_EnableHibernateDomain
                0x0000000008002384       0x58 lib_build/xmc4_scu.o
                0x0000000008002384                XMC_SCU_HIB_EnableHibernateDomain
 .text.XMC_SCU_HIB_DisableHibernateDomain
                0x00000000080023dc       0x24 lib_build/xmc4_scu.o
                0x00000000080023dc                XMC_SCU_HIB_DisableHibernateDomain
 .text.XMC_SCU_HIB_IsHibernateDomainEnabled
                0x0000000008002400       0x3c lib_build/xmc4_scu.o
                0x0000000008002400                XMC_SCU_HIB_IsHibernateDomainEnabled
 .text.XMC_SCU_HIB_EnableInternalSlowClock
                0x000000000800243c       0x34 lib_build/xmc4_scu.o
                0x000000000800243c                XMC_SCU_HIB_EnableInternalSlowClock
 .text.XMC_SCU_HIB_DisableInternalSlowClock
                0x0000000008002470       0x34 lib_build/xmc4_scu.o
                0x0000000008002470                XMC_SCU_HIB_DisableInternalSlowClock
 .text.XMC_SCU_HIB_ClearEventStatus
                0x00000000080024a4       0x34 lib_build/xmc4_scu.o
                0x00000000080024a4                XMC_SCU_HIB_ClearEventStatus
 .text.XMC_SCU_HIB_TriggerEvent
                0x00000000080024d8       0x34 lib_build/xmc4_scu.o
                0x00000000080024d8                XMC_SCU_HIB_TriggerEvent
 .text.XMC_SCU_HIB_EnableEvent
                0x000000000800250c       0x38 lib_build/xmc4_scu.o
                0x000000000800250c                XMC_SCU_HIB_EnableEvent
 .text.XMC_SCU_HIB_DisableEvent
                0x0000000008002544       0x3c lib_build/xmc4_scu.o
                0x0000000008002544                XMC_SCU_HIB_DisableEvent
 .text.XMC_SCU_HIB_EnterHibernateState
                0x0000000008002580       0x34 lib_build/xmc4_scu.o
                0x0000000008002580                XMC_SCU_HIB_EnterHibernateState
 .text.XMC_SCU_HIB_EnterHibernateStateEx
                0x00000000080025b4       0x1c lib_build/xmc4_scu.o
                0x00000000080025b4                XMC_SCU_HIB_EnterHibernateStateEx
 .text.XMC_SCU_HIB_SetWakeupTriggerInput
                0x00000000080025d0       0x50 lib_build/xmc4_scu.o
                0x00000000080025d0                XMC_SCU_HIB_SetWakeupTriggerInput
 .text.XMC_SCU_HIB_SetPinMode
                0x0000000008002620       0x54 lib_build/xmc4_scu.o
                0x0000000008002620                XMC_SCU_HIB_SetPinMode
 .text.XMC_SCU_HIB_SetPinOutputLevel
                0x0000000008002674       0x58 lib_build/xmc4_scu.o
                0x0000000008002674                XMC_SCU_HIB_SetPinOutputLevel
 .text.XMC_SCU_HIB_SetInput0
                0x00000000080026cc       0x50 lib_build/xmc4_scu.o
                0x00000000080026cc                XMC_SCU_HIB_SetInput0
 .text.XMC_SCU_HIB_SetSR0Input
                0x000000000800271c       0x40 lib_build/xmc4_scu.o
                0x000000000800271c                XMC_SCU_HIB_SetSR0Input
 .text.XMC_SCU_CLOCK_IsLowPowerOscillatorStable
                0x000000000800275c       0x24 lib_build/xmc4_scu.o
                0x000000000800275c                XMC_SCU_CLOCK_IsLowPowerOscillatorStable
 .text.XMC_SCU_CLOCK_EnableLowPowerOscillator
                0x0000000008002780       0x6c lib_build/xmc4_scu.o
                0x0000000008002780                XMC_SCU_CLOCK_EnableLowPowerOscillator
 .text.XMC_SCU_CLOCK_DisableLowPowerOscillator
                0x00000000080027ec       0x34 lib_build/xmc4_scu.o
                0x00000000080027ec                XMC_SCU_CLOCK_DisableLowPowerOscillator
 .text.XMC_SCU_CLOCK_EnableLowPowerOscillatorGeneralPurposeInput
                0x0000000008002820       0x34 lib_build/xmc4_scu.o
                0x0000000008002820                XMC_SCU_CLOCK_EnableLowPowerOscillatorGeneralPurposeInput
 .text.XMC_SCU_CLOCK_DisableLowPowerOscillatorGeneralPurposeInput
                0x0000000008002854       0x38 lib_build/xmc4_scu.o
                0x0000000008002854                XMC_SCU_CLOCK_DisableLowPowerOscillatorGeneralPurposeInput
 .text.XMC_SCU_CLOCK_GetLowPowerOscillatorGeneralPurposeInputStatus
                0x000000000800288c       0x1c lib_build/xmc4_scu.o
                0x000000000800288c                XMC_SCU_CLOCK_GetLowPowerOscillatorGeneralPurposeInputStatus
 .text.XMC_SCU_CLOCK_EnableHighPerformanceOscillator
                0x00000000080028a8       0x50 lib_build/xmc4_scu.o
                0x00000000080028a8                XMC_SCU_CLOCK_EnableHighPerformanceOscillator
 .text.XMC_SCU_CLOCK_IsHighPerformanceOscillatorStable
                0x00000000080028f8       0x28 lib_build/xmc4_scu.o
                0x00000000080028f8                XMC_SCU_CLOCK_IsHighPerformanceOscillatorStable
 .text.XMC_SCU_CLOCK_DisableHighPerformanceOscillator
                0x0000000008002920       0x20 lib_build/xmc4_scu.o
                0x0000000008002920                XMC_SCU_CLOCK_DisableHighPerformanceOscillator
 .text.XMC_SCU_CLOCK_EnableHighPerformanceOscillatorGeneralPurposeInput
                0x0000000008002940       0x20 lib_build/xmc4_scu.o
                0x0000000008002940                XMC_SCU_CLOCK_EnableHighPerformanceOscillatorGeneralPurposeInput
 .text.XMC_SCU_CLOCK_DisableHighPerformanceOscillatorGeneralPurposeInput
                0x0000000008002960       0x20 lib_build/xmc4_scu.o
                0x0000000008002960                XMC_SCU_CLOCK_DisableHighPerformanceOscillatorGeneralPurposeInput
 .text.XMC_SCU_CLOCK_GetHighPerformanceOscillatorGeneralPurposeInputStatus
                0x0000000008002980       0x1c lib_build/xmc4_scu.o
                0x0000000008002980                XMC_SCU_CLOCK_GetHighPerformanceOscillatorGeneralPurposeInputStatus
 .text.XMC_SCU_CLOCK_EnableSystemPll
                0x000000000800299c       0x24 lib_build/xmc4_scu.o
                0x000000000800299c                XMC_SCU_CLOCK_EnableSystemPll
 .text.XMC_SCU_CLOCK_DisableSystemPll
                0x00000000080029c0       0x24 lib_build/xmc4_scu.o
                0x00000000080029c0                XMC_SCU_CLOCK_DisableSystemPll
 .text.XMC_SCU_CLOCK_StartSystemPll
                0x00000000080029e4      0x178 lib_build/xmc4_scu.o
                0x00000000080029e4                XMC_SCU_CLOCK_StartSystemPll
 .text.XMC_SCU_CLOCK_StopSystemPll
                0x0000000008002b5c       0x20 lib_build/xmc4_scu.o
                0x0000000008002b5c                XMC_SCU_CLOCK_StopSystemPll
 .text.XMC_SCU_CLOCK_StepSystemPllFrequency
                0x0000000008002b7c       0x30 lib_build/xmc4_scu.o
                0x0000000008002b7c                XMC_SCU_CLOCK_StepSystemPllFrequency
 .text.XMC_SCU_CLOCK_IsSystemPllLocked
                0x0000000008002bac       0x24 lib_build/xmc4_scu.o
                0x0000000008002bac                XMC_SCU_CLOCK_IsSystemPllLocked
 .text.XMC_SCU_INTERRUPT_SetEventHandler
                0x0000000008002bd0       0x58 lib_build/xmc4_scu.o
                0x0000000008002bd0                XMC_SCU_INTERRUPT_SetEventHandler
 .text.XMC_SCU_IRQHandler
                0x0000000008002c28       0x60 lib_build/xmc4_scu.o
                0x0000000008002c28                XMC_SCU_IRQHandler
 .text          0x0000000008002c88        0x0 lib_build/startup_XMC4500.o
 .text          0x0000000008002c88        0x0 lib_build/system_XMC4500.o
 .text.delay    0x0000000008002c88       0x2a lib_build/system_XMC4500.o
 *fill*         0x0000000008002cb2        0x2 
 .text.SystemInit
                0x0000000008002cb4       0x24 lib_build/system_XMC4500.o
                0x0000000008002cb4                SystemInit
 .text.SystemCoreSetup
                0x0000000008002cd8       0x70 lib_build/system_XMC4500.o
                0x0000000008002cd8                SystemCoreSetup
 .text.SystemCoreClockSetup
                0x0000000008002d48      0x208 lib_build/system_XMC4500.o
                0x0000000008002d48                SystemCoreClockSetup
 .text.SystemCoreClockUpdate
                0x0000000008002f50       0xd4 lib_build/system_XMC4500.o
                0x0000000008002f50                SystemCoreClockUpdate
 .text.OSCHP_GetFrequency
                0x0000000008003024       0x14 lib_build/system_XMC4500.o
                0x0000000008003024                OSCHP_GetFrequency
 .text          0x0000000008003038        0x0 lib_build/syscalls.o
 .text._sbrk    0x0000000008003038       0x68 lib_build/syscalls.o
                0x0000000008003038                _sbrk
 .text._init    0x00000000080030a0        0xe lib_build/syscalls.o
                0x00000000080030a0                _init
 .text          0x00000000080030ae        0x0 /usr/bin/../lib/gcc/arm-none-eabi/7.3.1/../../../../arm-none-eabi/lib/thumb/v7e-m/libg.a(lib_a-errno.o)
 *fill*         0x00000000080030ae        0x2 
 .text.__errno  0x00000000080030b0        0xc /usr/bin/../lib/gcc/arm-none-eabi/7.3.1/../../../../arm-none-eabi/lib/thumb/v7e-m/libg.a(lib_a-errno.o)
                0x00000000080030b0                __errno
 .text          0x00000000080030bc        0x0 /usr/bin/../lib/gcc/arm-none-eabi/7.3.1/../../../../arm-none-eabi/lib/thumb/v7e-m/libg.a(lib_a-impure.o)
 .text          0x00000000080030bc        0x0 /usr/bin/../lib/gcc/arm-none-eabi/7.3.1/../../../../arm-none-eabi/lib/thumb/v7e-m/libg.a(lib_a-init.o)
 .text.__libc_init_array
                0x00000000080030bc       0x48 /usr/bin/../lib/gcc/arm-none-eabi/7.3.1/../../../../arm-none-eabi/lib/thumb/v7e-m/libg.a(lib_a-init.o)
                0x00000000080030bc                __libc_init_array
 *fill*         0x0000000008003104       0x3c 
 .text          0x0000000008003140       0xdc /usr/bin/../lib/gcc/arm-none-eabi/7.3.1/../../../../arm-none-eabi/lib/thumb/v7e-m/libg.a(lib_a-strlen.o)
                0x0000000008003140                strlen
 *(.init)
 *(.fini)
 *crtbegin.o(.ctors)
 *crtbegin?.o(.ctors)
 *(EXCLUDE_FILE(*crtend.o *crtend?.o) .ctors)
 *(SORT_BY_NAME(.ctors.*))
 *(.ctors)
 *crtbegin.o(.dtors)
 *crtbegin?.o(.dtors)
 *(EXCLUDE_FILE(*crtend.o *crtend?.o) .dtors)
 *(SORT_BY_NAME(.dtors.*))
 *(.dtors)
 *(.rodata .rodata.*)
 .rodata        0x000000000800321c       0xa8 build/PartA.o
                0x00000000080032b8                LED_config
 .rodata._global_impure_ptr
                0x00000000080032c4        0x4 /usr/bin/../lib/gcc/arm-none-eabi/7.3.1/../../../../arm-none-eabi/lib/thumb/v7e-m/libg.a(lib_a-impure.o)
                0x00000000080032c4                _global_impure_ptr
 *(.gnu.linkonce.r*)
 *(vtable)
                0x00000000080032c8                . = ALIGN (0x4)

.glue_7         0x00000000080032c8        0x0 load address 0x000000000c0032c8
 .glue_7        0x00000000080032c8        0x0 linker stubs

.glue_7t        0x00000000080032c8        0x0 load address 0x000000000c0032c8
 .glue_7t       0x00000000080032c8        0x0 linker stubs

.vfp11_veneer   0x00000000080032c8        0x0 load address 0x000000000c0032c8
 .vfp11_veneer  0x00000000080032c8        0x0 linker stubs

.v4_bx          0x00000000080032c8        0x0 load address 0x000000000c0032c8
 .v4_bx         0x00000000080032c8        0x0 linker stubs

.iplt           0x00000000080032c8        0x0 load address 0x000000000c0032c8
 .iplt          0x00000000080032c8        0x0 build/PartA.o

.rel.dyn        0x00000000080032c8        0x0 load address 0x000000000c0032c8
 .rel.iplt      0x00000000080032c8        0x0 build/PartA.o

.eh_frame_hdr
 *(.eh_frame_hdr)

.eh_frame
 *(.eh_frame)

.ARM.extab
 *(.ARM.extab* .gnu.linkonce.armextab.*)
                0x00000000080032c8                . = ALIGN (0x4)
                0x00000000080032c8                __exidx_start = .

.ARM.exidx
 *(.ARM.exidx* .gnu.linkonce.armexidx.*)
                0x00000000080032c8                __exidx_end = .
                0x00000000080032c8                . = ALIGN (0x4)

Stack           0x0000000010000000      0x800
                0x0000000010000000                __stack_start = .
                0x0000000010000800                . = (. + stack_size)
 *fill*         0x0000000010000000      0x800 
                0x0000000010000800                __stack_end = .
                0x0000000010000800                __initial_sp = .

.ram_code       0x0000000010000800        0x0 load address 0x000000000c0032c8
                0x0000000010000800                . = ALIGN (0x4)
                0x0000000010000800                __ram_code_start = .
 *(.ram_code)
                0x0000000010000800                . = ALIGN (0x4)
                0x0000000010000800                __ram_code_end = .
                0x000000000c0032c8                __ram_code_load = LOADADDR (.ram_code)
                0x0000000000000000                __ram_code_size = (__ram_code_end - __ram_code_start)

PSRAM_DATA      0x0000000010000800        0x0 load address 0x000000000c0032c8
                0x0000000010000800                . = ALIGN (0x4)
                0x0000000010000800                __data3_start = .
 *(PSRAM_DATA)
                0x0000000010000800                . = ALIGN (0x4)
                0x0000000010000800                __data3_end = .
                0x000000000c0032c8                __data3_load = LOADADDR (PSRAM_DATA)
                0x0000000000000000                __data3_size = (__data3_end - __data3_start)

PSRAM_BSS       0x0000000010000800        0x0 load address 0x000000000c0032c8
                0x0000000010000800                . = ALIGN (0x4)
                0x0000000010000800                __bss3_start = .
 *(PSRAM_BSS)
                0x0000000010000800                . = ALIGN (0x4)
                0x0000000010000800                __bss3_end = .
                0x0000000010000800                . = ALIGN (0x8)
                0x0000000010000800                Heap_Bank3_Start = .
                0x0000000000000000                __bss3_size = (__bss3_end - __bss3_start)

.data           0x0000000020000000      0x4c0 load address 0x000000000c0032c8
                0x0000000020000000                . = ALIGN (0x4)
                0x0000000020000000                __data_start = .
 *(.data)
 .data          0x0000000020000000       0x94 build/PartA.o
                0x000000002000008c                CCU_compare_config
 .data          0x0000000020000094        0x0 lib_build/xmc_gpio.o
 .data          0x0000000020000094        0x0 lib_build/xmc4_gpio.o
 .data          0x0000000020000094        0x0 lib_build/xmc_ccu4.o
 .data          0x0000000020000094        0x0 lib_build/xmc4_scu.o
 .data          0x0000000020000094        0x0 lib_build/startup_XMC4500.o
 .data          0x0000000020000094        0x0 lib_build/system_XMC4500.o
 .data          0x0000000020000094        0x0 lib_build/syscalls.o
 .data          0x0000000020000094        0x0 /usr/bin/../lib/gcc/arm-none-eabi/7.3.1/../../../../arm-none-eabi/lib/thumb/v7e-m/libg.a(lib_a-errno.o)
 .data          0x0000000020000094        0x0 /usr/bin/../lib/gcc/arm-none-eabi/7.3.1/../../../../arm-none-eabi/lib/thumb/v7e-m/libg.a(lib_a-impure.o)
 .data          0x0000000020000094        0x0 /usr/bin/../lib/gcc/arm-none-eabi/7.3.1/../../../../arm-none-eabi/lib/thumb/v7e-m/libg.a(lib_a-init.o)
 .data          0x0000000020000094        0x0 /usr/bin/../lib/gcc/arm-none-eabi/7.3.1/../../../../arm-none-eabi/lib/thumb/v7e-m/libg.a(lib_a-strlen.o)
 *(.data*)
 .data._impure_ptr
                0x0000000020000094        0x4 /usr/bin/../lib/gcc/arm-none-eabi/7.3.1/../../../../arm-none-eabi/lib/thumb/v7e-m/libg.a(lib_a-impure.o)
                0x0000000020000094                _impure_ptr
 .data.impure_data
                0x0000000020000098      0x428 /usr/bin/../lib/gcc/arm-none-eabi/7.3.1/../../../../arm-none-eabi/lib/thumb/v7e-m/libg.a(lib_a-impure.o)
 *(*.data)
 *(.gnu.linkonce.d*)
                0x00000000200004c0                . = ALIGN (0x4)
                0x00000000200004c0                PROVIDE (__preinit_array_start = .)
 *(.preinit_array)
                0x00000000200004c0                PROVIDE (__preinit_array_end = .)
                0x00000000200004c0                . = ALIGN (0x4)
                0x00000000200004c0                PROVIDE (__init_array_start = .)
 *(SORT_BY_NAME(.init_array.*))
 *(.init_array)
                0x00000000200004c0                PROVIDE (__init_array_end = .)
                0x00000000200004c0                . = ALIGN (0x4)
                [!provide]                        PROVIDE (__fini_array_start = .)
 *(SORT_BY_NAME(.fini_array.*))
 *(.fini_array)
                [!provide]                        PROVIDE (__fini_array_end = .)
                0x00000000200004c0                . = ALIGN (0x4)
                0x00000000200004c0                __data_end = .
                0x000000000c0032c8                __data_load = LOADADDR (.data)
                0x00000000000004c0                __data_size = (__data_end - __data_start)

.igot.plt       0x00000000200004c0        0x0 load address 0x000000000c003788
 .igot.plt      0x00000000200004c0        0x0 build/PartA.o

.bss            0x00000000200004c0       0xe8 load address 0x000000000c003788
                0x00000000200004c0                . = ALIGN (0x4)
                0x00000000200004c0                __bss_start = .
 *(.bss)
 .bss           0x00000000200004c0        0x8 build/PartA.o
                0x00000000200004c0                led_on_off_k
                0x00000000200004c1                intoutputk
                0x00000000200004c4                CCU4_periods
 .bss           0x00000000200004c8        0x0 lib_build/xmc_gpio.o
 .bss           0x00000000200004c8        0x0 lib_build/xmc4_gpio.o
 .bss           0x00000000200004c8        0x0 lib_build/xmc_ccu4.o
 .bss           0x00000000200004c8        0x0 lib_build/xmc4_scu.o
 .bss           0x00000000200004c8        0x0 lib_build/startup_XMC4500.o
 .bss           0x00000000200004c8        0x0 lib_build/system_XMC4500.o
 .bss           0x00000000200004c8        0x8 lib_build/syscalls.o
                0x00000000200004c8                __dso_handle
 .bss           0x00000000200004d0        0x0 /usr/bin/../lib/gcc/arm-none-eabi/7.3.1/../../../../arm-none-eabi/lib/thumb/v7e-m/libg.a(lib_a-errno.o)
 .bss           0x00000000200004d0        0x0 /usr/bin/../lib/gcc/arm-none-eabi/7.3.1/../../../../arm-none-eabi/lib/thumb/v7e-m/libg.a(lib_a-impure.o)
 .bss           0x00000000200004d0        0x0 /usr/bin/../lib/gcc/arm-none-eabi/7.3.1/../../../../arm-none-eabi/lib/thumb/v7e-m/libg.a(lib_a-init.o)
 .bss           0x00000000200004d0        0x0 /usr/bin/../lib/gcc/arm-none-eabi/7.3.1/../../../../arm-none-eabi/lib/thumb/v7e-m/libg.a(lib_a-strlen.o)
 *(.bss*)
 *(COMMON)
 COMMON         0x00000000200004d0       0x58 build/PartA.o
                0x00000000200004d0                intoutput
 COMMON         0x0000000020000528       0x80 lib_build/xmc4_scu.o
                0x0000000020000528                event_handler_list
 *(.gnu.linkonce.b*)
                0x00000000200005a8                . = ALIGN (0x4)
                0x00000000200005a8                __bss_end = .
                0x00000000200005a8                . = ALIGN (0x8)
                0x00000000200005a8                Heap_Bank1_Start = .
                0x00000000000000e8                __bss_size = (__bss_end - __bss_start)

.no_init        0x000000002000ffc0       0x14
                0x000000002000ffc0                Heap_Bank1_End = .
 *(.no_init)
 .no_init       0x000000002000ffc0       0x14 lib_build/system_XMC4500.o
                0x000000002000ffc0                SystemCoreClock
                0x000000002000ffc4                g_chipid

DSRAM2_DATA     0x0000000030000000        0x0 load address 0x000000000c003788
                0x0000000030000000                . = ALIGN (0x4)
                0x0000000030000000                __data2_start = .
 *(DSRAM2_DATA)
                0x0000000030000000                . = ALIGN (0x4)
                0x0000000030000000                __data2_end = .
                0x000000000c003788                __data2_load = LOADADDR (DSRAM2_DATA)
                0x0000000000000000                __data2_size = (__data2_end - __data2_start)
                0x0000000000003788                __text_size = (((((__exidx_end - sText) + __data_size) + __ram_code_size) + __data2_size) + __data3_size)
                0x0000000008003788                eText = (sText + __text_size)

DSRAM2_BSS      0x0000000030000000        0x0 load address 0x000000000c003788
                0x0000000030000000                . = ALIGN (0x4)
                0x0000000030000000                __bss2_start = .
 *(ETH_RAM)
 *(USB_RAM)
 *(DSRAM2_BSS)
                0x0000000030000000                . = ALIGN (0x4)
                0x0000000030000000                __bss2_end = .
                0x0000000030000000                . = ALIGN (0x8)
                0x0000000030000000                Heap_Bank2_Start = .
                0x0000000000000000                __bss2_size = (__bss2_end - __bss2_start)
                0x000000000000fa18                Heap_Bank1_Size = (Heap_Bank1_End - Heap_Bank1_Start)
                0x0000000000008000                Heap_Bank2_Size = (LENGTH (DSRAM_2_comm) - (Heap_Bank2_Start - ORIGIN (DSRAM_2_comm)))
                0x000000000000f800                Heap_Bank3_Size = (LENGTH (PSRAM_1) - (Heap_Bank3_Start - ORIGIN (PSRAM_1)))
                0x0000000000000001                ASSERT ((Heap_Bank1_Start <= Heap_Bank1_End), region SRAM_combined overflowed no_init section)

/DISCARD/
 *(.comment)

.stab
 *(.stab)

.stabstr
 *(.stabstr)

.debug
 *(.debug)

.line
 *(.line)

.debug_srcinfo
 *(.debug_srcinfo)

.debug_sfnames
 *(.debug_sfnames)

.debug_aranges  0x0000000000000000      0x638
 *(.debug_aranges)
 .debug_aranges
                0x0000000000000000       0x68 build/PartA.o
 .debug_aranges
                0x0000000000000068       0x28 lib_build/xmc_gpio.o
 .debug_aranges
                0x0000000000000090       0x28 lib_build/xmc4_gpio.o
 .debug_aranges
                0x00000000000000b8      0x128 lib_build/xmc_ccu4.o
 .debug_aranges
                0x00000000000001e0      0x3c8 lib_build/xmc4_scu.o
 .debug_aranges
                0x00000000000005a8       0x20 lib_build/startup_XMC4500.o
 .debug_aranges
                0x00000000000005c8       0x48 lib_build/system_XMC4500.o
 .debug_aranges
                0x0000000000000610       0x28 lib_build/syscalls.o

.debug_pubnames
 *(.debug_pubnames)

.debug_pubtypes
 *(.debug_pubtypes)

.debug_info     0x0000000000000000     0x99f3
 *(.debug_info .gnu.linkonce.wi.*)
 .debug_info    0x0000000000000000     0x19c1 build/PartA.o
 .debug_info    0x00000000000019c1      0xcc6 lib_build/xmc_gpio.o
 .debug_info    0x0000000000002687      0xd55 lib_build/xmc4_gpio.o
 .debug_info    0x00000000000033dc     0x1f26 lib_build/xmc_ccu4.o
 .debug_info    0x0000000000005302     0x2a2c lib_build/xmc4_scu.o
 .debug_info    0x0000000000007d2e       0xc1 lib_build/startup_XMC4500.o
 .debug_info    0x0000000000007def     0x11ca lib_build/system_XMC4500.o
 .debug_info    0x0000000000008fb9      0xa3a lib_build/syscalls.o

.debug_abbrev   0x0000000000000000     0x11dc
 *(.debug_abbrev)
 .debug_abbrev  0x0000000000000000      0x347 build/PartA.o
 .debug_abbrev  0x0000000000000347      0x1f8 lib_build/xmc_gpio.o
 .debug_abbrev  0x000000000000053f      0x1e9 lib_build/xmc4_gpio.o
 .debug_abbrev  0x0000000000000728      0x2e0 lib_build/xmc_ccu4.o
 .debug_abbrev  0x0000000000000a08      0x35d lib_build/xmc4_scu.o
 .debug_abbrev  0x0000000000000d65       0x14 lib_build/startup_XMC4500.o
 .debug_abbrev  0x0000000000000d79      0x287 lib_build/system_XMC4500.o
 .debug_abbrev  0x0000000000001000      0x1dc lib_build/syscalls.o

.debug_line     0x0000000000000000     0x2984
 *(.debug_line)
 .debug_line    0x0000000000000000      0x532 build/PartA.o
 .debug_line    0x0000000000000532      0x38c lib_build/xmc_gpio.o
 .debug_line    0x00000000000008be      0x39e lib_build/xmc4_gpio.o
 .debug_line    0x0000000000000c5c      0x712 lib_build/xmc_ccu4.o
 .debug_line    0x000000000000136e      0xe9c lib_build/xmc4_scu.o
 .debug_line    0x000000000000220a       0xd1 lib_build/startup_XMC4500.o
 .debug_line    0x00000000000022db      0x404 lib_build/system_XMC4500.o
 .debug_line    0x00000000000026df      0x2a5 lib_build/syscalls.o

.debug_frame    0x0000000000000000     0x1af8
 *(.debug_frame)
 .debug_frame   0x0000000000000000      0x188 build/PartA.o
 .debug_frame   0x0000000000000188       0x60 lib_build/xmc_gpio.o
 .debug_frame   0x00000000000001e8       0x60 lib_build/xmc4_gpio.o
 .debug_frame   0x0000000000000248      0x560 lib_build/xmc_ccu4.o
 .debug_frame   0x00000000000007a8     0x11bc lib_build/xmc4_scu.o
 .debug_frame   0x0000000000001964       0xec lib_build/system_XMC4500.o
 .debug_frame   0x0000000000001a50       0x5c lib_build/syscalls.o
 .debug_frame   0x0000000000001aac       0x20 /usr/bin/../lib/gcc/arm-none-eabi/7.3.1/../../../../arm-none-eabi/lib/thumb/v7e-m/libg.a(lib_a-errno.o)
 .debug_frame   0x0000000000001acc       0x2c /usr/bin/../lib/gcc/arm-none-eabi/7.3.1/../../../../arm-none-eabi/lib/thumb/v7e-m/libg.a(lib_a-init.o)

.debug_str      0x0000000000000000    0x7c519
 *(.debug_str)
 .debug_str     0x0000000000000000    0x771f9 build/PartA.o
                                      0x774f6 (size before relaxing)
 .debug_str     0x00000000000771f9       0xd3 lib_build/xmc_gpio.o
                                      0x73935 (size before relaxing)
 .debug_str     0x00000000000772cc       0x9e lib_build/xmc4_gpio.o
                                      0x73aba (size before relaxing)
 .debug_str     0x000000000007736a     0x1fe8 lib_build/xmc_ccu4.o
                                      0x737c9 (size before relaxing)
 .debug_str     0x0000000000079352     0x20e9 lib_build/xmc4_scu.o
                                      0x72325 (size before relaxing)
 .debug_str     0x000000000007b43b      0xbc4 lib_build/system_XMC4500.o
                                      0x701a6 (size before relaxing)
 .debug_str     0x000000000007bfff      0x51a lib_build/syscalls.o
                                       0x7b7d (size before relaxing)

.debug_loc      0x0000000000000000     0x37ca
 *(.debug_loc)
 .debug_loc     0x0000000000000000      0x32e build/PartA.o
 .debug_loc     0x000000000000032e       0xb8 lib_build/xmc_gpio.o
 .debug_loc     0x00000000000003e6       0xb8 lib_build/xmc4_gpio.o
 .debug_loc     0x000000000000049e      0xbf0 lib_build/xmc_ccu4.o
 .debug_loc     0x000000000000108e     0x2504 lib_build/xmc4_scu.o
 .debug_loc     0x0000000000003592      0x1a4 lib_build/system_XMC4500.o
 .debug_loc     0x0000000000003736       0x94 lib_build/syscalls.o

.debug_macinfo
 *(.debug_macinfo)

.debug_ranges   0x0000000000000000      0x5a8
 *(.debug_ranges)
 .debug_ranges  0x0000000000000000       0x58 build/PartA.o
 .debug_ranges  0x0000000000000058       0x18 lib_build/xmc_gpio.o
 .debug_ranges  0x0000000000000070       0x18 lib_build/xmc4_gpio.o
 .debug_ranges  0x0000000000000088      0x118 lib_build/xmc_ccu4.o
 .debug_ranges  0x00000000000001a0      0x3b8 lib_build/xmc4_scu.o
 .debug_ranges  0x0000000000000558       0x38 lib_build/system_XMC4500.o
 .debug_ranges  0x0000000000000590       0x18 lib_build/syscalls.o

.debug_weaknames
 *(.debug_weaknames)

.debug_funcnames
 *(.debug_funcnames)

.debug_typenames
 *(.debug_typenames)

.debug_varnames
 *(.debug_varnames)

.build_attributes
                0x0000000000000000      0x24c
 *(.ARM.attributes)
 .ARM.attributes
                0x0000000000000000       0x37 build/PartA.o
 .ARM.attributes
                0x0000000000000037       0x37 lib_build/xmc_gpio.o
 .ARM.attributes
                0x000000000000006e       0x37 lib_build/xmc4_gpio.o
 .ARM.attributes
                0x00000000000000a5       0x37 lib_build/xmc_ccu4.o
 .ARM.attributes
                0x00000000000000dc       0x37 lib_build/xmc4_scu.o
 .ARM.attributes
                0x0000000000000113       0x25 lib_build/startup_XMC4500.o
 .ARM.attributes
                0x0000000000000138       0x37 lib_build/system_XMC4500.o
 .ARM.attributes
                0x000000000000016f       0x37 lib_build/syscalls.o
 .ARM.attributes
                0x00000000000001a6       0x2e /usr/bin/../lib/gcc/arm-none-eabi/7.3.1/../../../../arm-none-eabi/lib/thumb/v7e-m/libg.a(lib_a-errno.o)
 .ARM.attributes
                0x00000000000001d4       0x2e /usr/bin/../lib/gcc/arm-none-eabi/7.3.1/../../../../arm-none-eabi/lib/thumb/v7e-m/libg.a(lib_a-impure.o)
 .ARM.attributes
                0x0000000000000202       0x2e /usr/bin/../lib/gcc/arm-none-eabi/7.3.1/../../../../arm-none-eabi/lib/thumb/v7e-m/libg.a(lib_a-init.o)
 .ARM.attributes
                0x0000000000000230       0x1c /usr/bin/../lib/gcc/arm-none-eabi/7.3.1/../../../../arm-none-eabi/lib/thumb/v7e-m/libg.a(lib_a-strlen.o)
OUTPUT(build/main.elf elf32-littlearm)

.debug_macro    0x0000000000000000    0x198dd
 .debug_macro   0x0000000000000000      0x291 build/PartA.o
 .debug_macro   0x0000000000000291      0xa4e build/PartA.o
 .debug_macro   0x0000000000000cdf      0x16d build/PartA.o
 .debug_macro   0x0000000000000e4c       0x22 build/PartA.o
 .debug_macro   0x0000000000000e6e       0x8e build/PartA.o
 .debug_macro   0x0000000000000efc       0x51 build/PartA.o
 .debug_macro   0x0000000000000f4d       0xef build/PartA.o
 .debug_macro   0x000000000000103c       0x6a build/PartA.o
 .debug_macro   0x00000000000010a6      0x1df build/PartA.o
 .debug_macro   0x0000000000001285       0x22 build/PartA.o
 .debug_macro   0x00000000000012a7       0x5e build/PartA.o
 .debug_macro   0x0000000000001305       0x18 build/PartA.o
 .debug_macro   0x000000000000131d       0x35 build/PartA.o
 .debug_macro   0x0000000000001352       0x34 build/PartA.o
 .debug_macro   0x0000000000001386       0x58 build/PartA.o
 .debug_macro   0x00000000000013de       0x1f build/PartA.o
 .debug_macro   0x00000000000013fd       0x43 build/PartA.o
 .debug_macro   0x0000000000001440       0x20 build/PartA.o
 .debug_macro   0x0000000000001460      0x18e build/PartA.o
 .debug_macro   0x00000000000015ee      0x353 build/PartA.o
 .debug_macro   0x0000000000001941       0x10 build/PartA.o
 .debug_macro   0x0000000000001951       0x35 build/PartA.o
 .debug_macro   0x0000000000001986      0x167 build/PartA.o
 .debug_macro   0x0000000000001aed       0x2d build/PartA.o
 .debug_macro   0x0000000000001b1a       0x28 build/PartA.o
 .debug_macro   0x0000000000001b42       0xaf build/PartA.o
 .debug_macro   0x0000000000001bf1      0xfe7 build/PartA.o
 .debug_macro   0x0000000000002bd8       0x16 build/PartA.o
 .debug_macro   0x0000000000002bee    0x1474b build/PartA.o
 .debug_macro   0x0000000000017339       0x12 build/PartA.o
 .debug_macro   0x000000000001734b       0x4c build/PartA.o
 .debug_macro   0x0000000000017397       0x22 build/PartA.o
 .debug_macro   0x00000000000173b9      0x861 build/PartA.o
 .debug_macro   0x0000000000017c1a       0xa5 build/PartA.o
 .debug_macro   0x0000000000017cbf      0x6ec build/PartA.o
 .debug_macro   0x00000000000183ab       0x1c build/PartA.o
 .debug_macro   0x00000000000183c7       0x10 build/PartA.o
 .debug_macro   0x00000000000183d7       0x10 build/PartA.o
 .debug_macro   0x00000000000183e7       0x1c build/PartA.o
 .debug_macro   0x0000000000018403       0x52 build/PartA.o
 .debug_macro   0x0000000000018455       0x40 build/PartA.o
 .debug_macro   0x0000000000018495       0x10 build/PartA.o
 .debug_macro   0x00000000000184a5       0x40 build/PartA.o
 .debug_macro   0x00000000000184e5       0xd7 build/PartA.o
 .debug_macro   0x00000000000185bc       0x1c build/PartA.o
 .debug_macro   0x00000000000185d8       0x3d build/PartA.o
 .debug_macro   0x0000000000018615       0x16 build/PartA.o
 .debug_macro   0x000000000001862b      0x16f build/PartA.o
 .debug_macro   0x000000000001879a      0x1b8 lib_build/xmc_gpio.o
 .debug_macro   0x0000000000018952      0x1c4 lib_build/xmc4_gpio.o
 .debug_macro   0x0000000000018b16      0x230 lib_build/xmc_ccu4.o
 .debug_macro   0x0000000000018d46       0xa5 lib_build/xmc_ccu4.o
 .debug_macro   0x0000000000018deb      0x20f lib_build/xmc4_scu.o
 .debug_macro   0x0000000000018ffa       0x9f lib_build/xmc4_scu.o
 .debug_macro   0x0000000000019099      0x303 lib_build/system_XMC4500.o
 .debug_macro   0x000000000001939c       0x58 lib_build/system_XMC4500.o
 .debug_macro   0x00000000000193f4       0x94 lib_build/system_XMC4500.o
 .debug_macro   0x0000000000019488       0x57 lib_build/system_XMC4500.o
 .debug_macro   0x00000000000194df       0x22 lib_build/system_XMC4500.o
 .debug_macro   0x0000000000019501      0x191 lib_build/syscalls.o
 .debug_macro   0x0000000000019692       0x10 lib_build/syscalls.o
 .debug_macro   0x00000000000196a2      0x23b lib_build/syscalls.o
